
bd/src/nsichneu/nsichneu:     file format elf32-littleriscv


Disassembly of section .text:

80000000 <initSection>:
80000000:	000070b3          	and	x1,x0,x0
80000004:	00007133          	and	x2,x0,x0
80000008:	000071b3          	and	x3,x0,x0
8000000c:	00007233          	and	x4,x0,x0
80000010:	000072b3          	and	x5,x0,x0
80000014:	00007333          	and	x6,x0,x0
80000018:	000073b3          	and	x7,x0,x0
8000001c:	00007433          	and	x8,x0,x0
80000020:	000074b3          	and	x9,x0,x0
80000024:	00007533          	and	x10,x0,x0
80000028:	000075b3          	and	x11,x0,x0
8000002c:	00007633          	and	x12,x0,x0
80000030:	000076b3          	and	x13,x0,x0
80000034:	00007733          	and	x14,x0,x0
80000038:	000077b3          	and	x15,x0,x0
8000003c:	00007833          	and	x16,x0,x0
80000040:	000078b3          	and	x17,x0,x0
80000044:	00007933          	and	x18,x0,x0
80000048:	000079b3          	and	x19,x0,x0
8000004c:	00007a33          	and	x20,x0,x0
80000050:	00007ab3          	and	x21,x0,x0
80000054:	00007b33          	and	x22,x0,x0
80000058:	00007bb3          	and	x23,x0,x0
8000005c:	00007c33          	and	x24,x0,x0
80000060:	00007cb3          	and	x25,x0,x0
80000064:	00007d33          	and	x26,x0,x0
80000068:	00007db3          	and	x27,x0,x0
8000006c:	00007e33          	and	x28,x0,x0
80000070:	00007eb3          	and	x29,x0,x0
80000074:	00007f33          	and	x30,x0,x0
80000078:	00007fb3          	and	x31,x0,x0
8000007c:	00101117          	auipc	x2,0x101
80000080:	f8410113          	addi	x2,x2,-124 # 80101000 <P2_is_marked>
80000084:	020000ef          	jal	x1,800000a4 <main>

80000088 <sys_end>:
80000088:	05d00893          	addi	x17,x0,93
8000008c:	00000513          	addi	x10,x0,0
80000090:	020102b7          	lui	x5,0x2010
80000094:	f1402873          	csrrs	x16,mhartid,x0
80000098:	0102a023          	sw	x16,0(x5) # 2010000 <SYSCALL_ADDR>
8000009c:	0112a023          	sw	x17,0(x5)
800000a0:	fe9ff06f          	jal	x0,80000088 <sys_end>

800000a4 <main>:
800000a4:	fe010113          	addi	x2,x2,-32
800000a8:	00112e23          	sw	x1,28(x2)
800000ac:	66c040ef          	jal	x1,80004718 <initialise_board>
800000b0:	568040ef          	jal	x1,80004618 <initialise_benchmark>
800000b4:	00100513          	addi	x10,x0,1
800000b8:	564040ef          	jal	x1,8000461c <warm_caches>
800000bc:	664040ef          	jal	x1,80004720 <start_trigger>
800000c0:	560040ef          	jal	x1,80004620 <benchmark>
800000c4:	00a12623          	sw	x10,12(x2)
800000c8:	668040ef          	jal	x1,80004730 <stop_trigger>
800000cc:	00c12503          	lw	x10,12(x2)
800000d0:	558040ef          	jal	x1,80004628 <verify_benchmark>
800000d4:	01c12083          	lw	x1,28(x2)
800000d8:	00153513          	sltiu	x10,x10,1
800000dc:	02010113          	addi	x2,x2,32
800000e0:	00008067          	jalr	x0,0(x1)

800000e4 <benchmark_body>:
800000e4:	801017b7          	lui	x15,0x80101
800000e8:	00000e13          	addi	x28,x0,0
800000ec:	80101837          	lui	x16,0x80101
800000f0:	00300613          	addi	x12,x0,3
800000f4:	00300e93          	addi	x29,x0,3
800000f8:	801016b7          	lui	x13,0x80101
800000fc:	00500f13          	addi	x30,x0,5
80000100:	80101737          	lui	x14,0x80101
80000104:	00200313          	addi	x6,x0,2
80000108:	00878793          	addi	x15,x15,8 # 80101008 <P1_marking_member_0>
8000010c:	00400593          	addi	x11,x0,4
80000110:	00ae4663          	blt	x28,x10,8000011c <benchmark_body+0x38>
80000114:	00000513          	addi	x10,x0,0
80000118:	00008067          	jalr	x0,0(x1)
8000011c:	01d82223          	sw	x29,4(x16) # 80101004 <P1_is_marked>
80000120:	01e6a023          	sw	x30,0(x13) # 80101000 <P2_is_marked>
80000124:	04072023          	sw	x0,64(x14) # 80101040 <P3_is_marked>
80000128:	00482883          	lw	x17,4(x16)
8000012c:	07135c63          	bge	x6,x17,800001a4 <benchmark_body+0xc0>
80000130:	04072883          	lw	x17,64(x14)
80000134:	07164863          	blt	x12,x17,800001a4 <benchmark_body+0xc0>
80000138:	0047af83          	lw	x31,4(x15)
8000013c:	0087a883          	lw	x17,8(x15)
80000140:	071f9263          	bne	x31,x17,800001a4 <benchmark_body+0xc0>
80000144:	0007a283          	lw	x5,0(x15)
80000148:	0047af83          	lw	x31,4(x15)
8000014c:	05f2dc63          	bge	x5,x31,800001a4 <benchmark_body+0xc0>
80000150:	00482883          	lw	x17,4(x16)
80000154:	41f283b3          	sub	x7,x5,x31
80000158:	ffd88893          	addi	x17,x17,-3
8000015c:	01182223          	sw	x17,4(x16)
80000160:	04072883          	lw	x17,64(x14)
80000164:	00289893          	slli	x17,x17,0x2
80000168:	011788b3          	add	x17,x15,x17
8000016c:	0058a623          	sw	x5,12(x17)
80000170:	04072883          	lw	x17,64(x14)
80000174:	00188893          	addi	x17,x17,1
80000178:	00289893          	slli	x17,x17,0x2
8000017c:	011788b3          	add	x17,x15,x17
80000180:	01f8a623          	sw	x31,12(x17)
80000184:	04072883          	lw	x17,64(x14)
80000188:	00288893          	addi	x17,x17,2
8000018c:	00289893          	slli	x17,x17,0x2
80000190:	011788b3          	add	x17,x15,x17
80000194:	0078a623          	sw	x7,12(x17)
80000198:	04072883          	lw	x17,64(x14)
8000019c:	00388893          	addi	x17,x17,3
800001a0:	05172023          	sw	x17,64(x14)
800001a4:	00482883          	lw	x17,4(x16)
800001a8:	07135c63          	bge	x6,x17,80000220 <benchmark_body+0x13c>
800001ac:	04072883          	lw	x17,64(x14)
800001b0:	07164863          	blt	x12,x17,80000220 <benchmark_body+0x13c>
800001b4:	0087af83          	lw	x31,8(x15)
800001b8:	0047a883          	lw	x17,4(x15)
800001bc:	071f9263          	bne	x31,x17,80000220 <benchmark_body+0x13c>
800001c0:	0007a283          	lw	x5,0(x15)
800001c4:	0087af83          	lw	x31,8(x15)
800001c8:	05f2dc63          	bge	x5,x31,80000220 <benchmark_body+0x13c>
800001cc:	00482883          	lw	x17,4(x16)
800001d0:	41f283b3          	sub	x7,x5,x31
800001d4:	ffd88893          	addi	x17,x17,-3
800001d8:	01182223          	sw	x17,4(x16)
800001dc:	04072883          	lw	x17,64(x14)
800001e0:	00289893          	slli	x17,x17,0x2
800001e4:	011788b3          	add	x17,x15,x17
800001e8:	0058a623          	sw	x5,12(x17)
800001ec:	04072883          	lw	x17,64(x14)
800001f0:	00188893          	addi	x17,x17,1
800001f4:	00289893          	slli	x17,x17,0x2
800001f8:	011788b3          	add	x17,x15,x17
800001fc:	01f8a623          	sw	x31,12(x17)
80000200:	04072883          	lw	x17,64(x14)
80000204:	00288893          	addi	x17,x17,2
80000208:	00289893          	slli	x17,x17,0x2
8000020c:	011788b3          	add	x17,x15,x17
80000210:	0078a623          	sw	x7,12(x17)
80000214:	04072883          	lw	x17,64(x14)
80000218:	00388893          	addi	x17,x17,3
8000021c:	05172023          	sw	x17,64(x14)
80000220:	00482883          	lw	x17,4(x16)
80000224:	07135c63          	bge	x6,x17,8000029c <benchmark_body+0x1b8>
80000228:	04072883          	lw	x17,64(x14)
8000022c:	07164863          	blt	x12,x17,8000029c <benchmark_body+0x1b8>
80000230:	0007af83          	lw	x31,0(x15)
80000234:	0087a883          	lw	x17,8(x15)
80000238:	071f9263          	bne	x31,x17,8000029c <benchmark_body+0x1b8>
8000023c:	0047a283          	lw	x5,4(x15)
80000240:	0007af83          	lw	x31,0(x15)
80000244:	05f2dc63          	bge	x5,x31,8000029c <benchmark_body+0x1b8>
80000248:	00482883          	lw	x17,4(x16)
8000024c:	41f283b3          	sub	x7,x5,x31
80000250:	ffd88893          	addi	x17,x17,-3
80000254:	01182223          	sw	x17,4(x16)
80000258:	04072883          	lw	x17,64(x14)
8000025c:	00289893          	slli	x17,x17,0x2
80000260:	011788b3          	add	x17,x15,x17
80000264:	0058a623          	sw	x5,12(x17)
80000268:	04072883          	lw	x17,64(x14)
8000026c:	00188893          	addi	x17,x17,1
80000270:	00289893          	slli	x17,x17,0x2
80000274:	011788b3          	add	x17,x15,x17
80000278:	01f8a623          	sw	x31,12(x17)
8000027c:	04072883          	lw	x17,64(x14)
80000280:	00288893          	addi	x17,x17,2
80000284:	00289893          	slli	x17,x17,0x2
80000288:	011788b3          	add	x17,x15,x17
8000028c:	0078a623          	sw	x7,12(x17)
80000290:	04072883          	lw	x17,64(x14)
80000294:	00388893          	addi	x17,x17,3
80000298:	05172023          	sw	x17,64(x14)
8000029c:	00482883          	lw	x17,4(x16)
800002a0:	07135c63          	bge	x6,x17,80000318 <benchmark_body+0x234>
800002a4:	04072883          	lw	x17,64(x14)
800002a8:	07164863          	blt	x12,x17,80000318 <benchmark_body+0x234>
800002ac:	0087af83          	lw	x31,8(x15)
800002b0:	0007a883          	lw	x17,0(x15)
800002b4:	071f9263          	bne	x31,x17,80000318 <benchmark_body+0x234>
800002b8:	0047a283          	lw	x5,4(x15)
800002bc:	0087af83          	lw	x31,8(x15)
800002c0:	05f2dc63          	bge	x5,x31,80000318 <benchmark_body+0x234>
800002c4:	00482883          	lw	x17,4(x16)
800002c8:	41f283b3          	sub	x7,x5,x31
800002cc:	ffd88893          	addi	x17,x17,-3
800002d0:	01182223          	sw	x17,4(x16)
800002d4:	04072883          	lw	x17,64(x14)
800002d8:	00289893          	slli	x17,x17,0x2
800002dc:	011788b3          	add	x17,x15,x17
800002e0:	0058a623          	sw	x5,12(x17)
800002e4:	04072883          	lw	x17,64(x14)
800002e8:	00188893          	addi	x17,x17,1
800002ec:	00289893          	slli	x17,x17,0x2
800002f0:	011788b3          	add	x17,x15,x17
800002f4:	01f8a623          	sw	x31,12(x17)
800002f8:	04072883          	lw	x17,64(x14)
800002fc:	00288893          	addi	x17,x17,2
80000300:	00289893          	slli	x17,x17,0x2
80000304:	011788b3          	add	x17,x15,x17
80000308:	0078a623          	sw	x7,12(x17)
8000030c:	04072883          	lw	x17,64(x14)
80000310:	00388893          	addi	x17,x17,3
80000314:	05172023          	sw	x17,64(x14)
80000318:	00482883          	lw	x17,4(x16)
8000031c:	07135c63          	bge	x6,x17,80000394 <benchmark_body+0x2b0>
80000320:	04072883          	lw	x17,64(x14)
80000324:	07164863          	blt	x12,x17,80000394 <benchmark_body+0x2b0>
80000328:	0007af83          	lw	x31,0(x15)
8000032c:	0047a883          	lw	x17,4(x15)
80000330:	071f9263          	bne	x31,x17,80000394 <benchmark_body+0x2b0>
80000334:	0087a283          	lw	x5,8(x15)
80000338:	0007af83          	lw	x31,0(x15)
8000033c:	05f2dc63          	bge	x5,x31,80000394 <benchmark_body+0x2b0>
80000340:	00482883          	lw	x17,4(x16)
80000344:	41f283b3          	sub	x7,x5,x31
80000348:	ffd88893          	addi	x17,x17,-3
8000034c:	01182223          	sw	x17,4(x16)
80000350:	04072883          	lw	x17,64(x14)
80000354:	00289893          	slli	x17,x17,0x2
80000358:	011788b3          	add	x17,x15,x17
8000035c:	0058a623          	sw	x5,12(x17)
80000360:	04072883          	lw	x17,64(x14)
80000364:	00188893          	addi	x17,x17,1
80000368:	00289893          	slli	x17,x17,0x2
8000036c:	011788b3          	add	x17,x15,x17
80000370:	01f8a623          	sw	x31,12(x17)
80000374:	04072883          	lw	x17,64(x14)
80000378:	00288893          	addi	x17,x17,2
8000037c:	00289893          	slli	x17,x17,0x2
80000380:	011788b3          	add	x17,x15,x17
80000384:	0078a623          	sw	x7,12(x17)
80000388:	04072883          	lw	x17,64(x14)
8000038c:	00388893          	addi	x17,x17,3
80000390:	05172023          	sw	x17,64(x14)
80000394:	00482883          	lw	x17,4(x16)
80000398:	07135c63          	bge	x6,x17,80000410 <benchmark_body+0x32c>
8000039c:	04072883          	lw	x17,64(x14)
800003a0:	07164863          	blt	x12,x17,80000410 <benchmark_body+0x32c>
800003a4:	0047af83          	lw	x31,4(x15)
800003a8:	0007a883          	lw	x17,0(x15)
800003ac:	071f9263          	bne	x31,x17,80000410 <benchmark_body+0x32c>
800003b0:	0087a283          	lw	x5,8(x15)
800003b4:	0047af83          	lw	x31,4(x15)
800003b8:	05f2dc63          	bge	x5,x31,80000410 <benchmark_body+0x32c>
800003bc:	00482883          	lw	x17,4(x16)
800003c0:	41f283b3          	sub	x7,x5,x31
800003c4:	ffd88893          	addi	x17,x17,-3
800003c8:	01182223          	sw	x17,4(x16)
800003cc:	04072883          	lw	x17,64(x14)
800003d0:	00289893          	slli	x17,x17,0x2
800003d4:	011788b3          	add	x17,x15,x17
800003d8:	0058a623          	sw	x5,12(x17)
800003dc:	04072883          	lw	x17,64(x14)
800003e0:	00188893          	addi	x17,x17,1
800003e4:	00289893          	slli	x17,x17,0x2
800003e8:	011788b3          	add	x17,x15,x17
800003ec:	01f8a623          	sw	x31,12(x17)
800003f0:	04072883          	lw	x17,64(x14)
800003f4:	00288893          	addi	x17,x17,2
800003f8:	00289893          	slli	x17,x17,0x2
800003fc:	011788b3          	add	x17,x15,x17
80000400:	0078a623          	sw	x7,12(x17)
80000404:	04072883          	lw	x17,64(x14)
80000408:	00388893          	addi	x17,x17,3
8000040c:	05172023          	sw	x17,64(x14)
80000410:	0006a883          	lw	x17,0(x13)
80000414:	09165263          	bge	x12,x17,80000498 <benchmark_body+0x3b4>
80000418:	04072883          	lw	x17,64(x14)
8000041c:	07164e63          	blt	x12,x17,80000498 <benchmark_body+0x3b4>
80000420:	0287af83          	lw	x31,40(x15)
80000424:	02c7a883          	lw	x17,44(x15)
80000428:	071f9863          	bne	x31,x17,80000498 <benchmark_body+0x3b4>
8000042c:	0287af83          	lw	x31,40(x15)
80000430:	0307a883          	lw	x17,48(x15)
80000434:	071f9263          	bne	x31,x17,80000498 <benchmark_body+0x3b4>
80000438:	0247a283          	lw	x5,36(x15)
8000043c:	0287af83          	lw	x31,40(x15)
80000440:	05f2dc63          	bge	x5,x31,80000498 <benchmark_body+0x3b4>
80000444:	0006a883          	lw	x17,0(x13)
80000448:	01f283b3          	add	x7,x5,x31
8000044c:	ffc88893          	addi	x17,x17,-4
80000450:	0116a023          	sw	x17,0(x13)
80000454:	04072883          	lw	x17,64(x14)
80000458:	00289893          	slli	x17,x17,0x2
8000045c:	011788b3          	add	x17,x15,x17
80000460:	0058a623          	sw	x5,12(x17)
80000464:	04072883          	lw	x17,64(x14)
80000468:	00188893          	addi	x17,x17,1
8000046c:	00289893          	slli	x17,x17,0x2
80000470:	011788b3          	add	x17,x15,x17
80000474:	01f8a623          	sw	x31,12(x17)
80000478:	04072883          	lw	x17,64(x14)
8000047c:	00288893          	addi	x17,x17,2
80000480:	00289893          	slli	x17,x17,0x2
80000484:	011788b3          	add	x17,x15,x17
80000488:	0078a623          	sw	x7,12(x17)
8000048c:	04072883          	lw	x17,64(x14)
80000490:	00388893          	addi	x17,x17,3
80000494:	05172023          	sw	x17,64(x14)
80000498:	0006a883          	lw	x17,0(x13)
8000049c:	09165263          	bge	x12,x17,80000520 <benchmark_body+0x43c>
800004a0:	04072883          	lw	x17,64(x14)
800004a4:	07164e63          	blt	x12,x17,80000520 <benchmark_body+0x43c>
800004a8:	0287af83          	lw	x31,40(x15)
800004ac:	0307a883          	lw	x17,48(x15)
800004b0:	071f9863          	bne	x31,x17,80000520 <benchmark_body+0x43c>
800004b4:	0287af83          	lw	x31,40(x15)
800004b8:	02c7a883          	lw	x17,44(x15)
800004bc:	071f9263          	bne	x31,x17,80000520 <benchmark_body+0x43c>
800004c0:	0247a283          	lw	x5,36(x15)
800004c4:	0287af83          	lw	x31,40(x15)
800004c8:	05f2dc63          	bge	x5,x31,80000520 <benchmark_body+0x43c>
800004cc:	0006a883          	lw	x17,0(x13)
800004d0:	01f283b3          	add	x7,x5,x31
800004d4:	ffc88893          	addi	x17,x17,-4
800004d8:	0116a023          	sw	x17,0(x13)
800004dc:	04072883          	lw	x17,64(x14)
800004e0:	00289893          	slli	x17,x17,0x2
800004e4:	011788b3          	add	x17,x15,x17
800004e8:	0058a623          	sw	x5,12(x17)
800004ec:	04072883          	lw	x17,64(x14)
800004f0:	00188893          	addi	x17,x17,1
800004f4:	00289893          	slli	x17,x17,0x2
800004f8:	011788b3          	add	x17,x15,x17
800004fc:	01f8a623          	sw	x31,12(x17)
80000500:	04072883          	lw	x17,64(x14)
80000504:	00288893          	addi	x17,x17,2
80000508:	00289893          	slli	x17,x17,0x2
8000050c:	011788b3          	add	x17,x15,x17
80000510:	0078a623          	sw	x7,12(x17)
80000514:	04072883          	lw	x17,64(x14)
80000518:	00388893          	addi	x17,x17,3
8000051c:	05172023          	sw	x17,64(x14)
80000520:	0006a883          	lw	x17,0(x13)
80000524:	09165263          	bge	x12,x17,800005a8 <benchmark_body+0x4c4>
80000528:	04072883          	lw	x17,64(x14)
8000052c:	07164e63          	blt	x12,x17,800005a8 <benchmark_body+0x4c4>
80000530:	02c7af83          	lw	x31,44(x15)
80000534:	0287a883          	lw	x17,40(x15)
80000538:	071f9863          	bne	x31,x17,800005a8 <benchmark_body+0x4c4>
8000053c:	02c7af83          	lw	x31,44(x15)
80000540:	0307a883          	lw	x17,48(x15)
80000544:	071f9263          	bne	x31,x17,800005a8 <benchmark_body+0x4c4>
80000548:	0247a283          	lw	x5,36(x15)
8000054c:	02c7af83          	lw	x31,44(x15)
80000550:	05f2dc63          	bge	x5,x31,800005a8 <benchmark_body+0x4c4>
80000554:	0006a883          	lw	x17,0(x13)
80000558:	01f283b3          	add	x7,x5,x31
8000055c:	ffc88893          	addi	x17,x17,-4
80000560:	0116a023          	sw	x17,0(x13)
80000564:	04072883          	lw	x17,64(x14)
80000568:	00289893          	slli	x17,x17,0x2
8000056c:	011788b3          	add	x17,x15,x17
80000570:	0058a623          	sw	x5,12(x17)
80000574:	04072883          	lw	x17,64(x14)
80000578:	00188893          	addi	x17,x17,1
8000057c:	00289893          	slli	x17,x17,0x2
80000580:	011788b3          	add	x17,x15,x17
80000584:	01f8a623          	sw	x31,12(x17)
80000588:	04072883          	lw	x17,64(x14)
8000058c:	00288893          	addi	x17,x17,2
80000590:	00289893          	slli	x17,x17,0x2
80000594:	011788b3          	add	x17,x15,x17
80000598:	0078a623          	sw	x7,12(x17)
8000059c:	04072883          	lw	x17,64(x14)
800005a0:	00388893          	addi	x17,x17,3
800005a4:	05172023          	sw	x17,64(x14)
800005a8:	0006a883          	lw	x17,0(x13)
800005ac:	09165263          	bge	x12,x17,80000630 <benchmark_body+0x54c>
800005b0:	04072883          	lw	x17,64(x14)
800005b4:	07164e63          	blt	x12,x17,80000630 <benchmark_body+0x54c>
800005b8:	02c7af83          	lw	x31,44(x15)
800005bc:	0307a883          	lw	x17,48(x15)
800005c0:	071f9863          	bne	x31,x17,80000630 <benchmark_body+0x54c>
800005c4:	02c7af83          	lw	x31,44(x15)
800005c8:	0287a883          	lw	x17,40(x15)
800005cc:	071f9263          	bne	x31,x17,80000630 <benchmark_body+0x54c>
800005d0:	0247a283          	lw	x5,36(x15)
800005d4:	02c7af83          	lw	x31,44(x15)
800005d8:	05f2dc63          	bge	x5,x31,80000630 <benchmark_body+0x54c>
800005dc:	0006a883          	lw	x17,0(x13)
800005e0:	01f283b3          	add	x7,x5,x31
800005e4:	ffc88893          	addi	x17,x17,-4
800005e8:	0116a023          	sw	x17,0(x13)
800005ec:	04072883          	lw	x17,64(x14)
800005f0:	00289893          	slli	x17,x17,0x2
800005f4:	011788b3          	add	x17,x15,x17
800005f8:	0058a623          	sw	x5,12(x17)
800005fc:	04072883          	lw	x17,64(x14)
80000600:	00188893          	addi	x17,x17,1
80000604:	00289893          	slli	x17,x17,0x2
80000608:	011788b3          	add	x17,x15,x17
8000060c:	01f8a623          	sw	x31,12(x17)
80000610:	04072883          	lw	x17,64(x14)
80000614:	00288893          	addi	x17,x17,2
80000618:	00289893          	slli	x17,x17,0x2
8000061c:	011788b3          	add	x17,x15,x17
80000620:	0078a623          	sw	x7,12(x17)
80000624:	04072883          	lw	x17,64(x14)
80000628:	00388893          	addi	x17,x17,3
8000062c:	05172023          	sw	x17,64(x14)
80000630:	0006a883          	lw	x17,0(x13)
80000634:	09165263          	bge	x12,x17,800006b8 <benchmark_body+0x5d4>
80000638:	04072883          	lw	x17,64(x14)
8000063c:	07164e63          	blt	x12,x17,800006b8 <benchmark_body+0x5d4>
80000640:	0307af83          	lw	x31,48(x15)
80000644:	0287a883          	lw	x17,40(x15)
80000648:	071f9863          	bne	x31,x17,800006b8 <benchmark_body+0x5d4>
8000064c:	0307af83          	lw	x31,48(x15)
80000650:	02c7a883          	lw	x17,44(x15)
80000654:	071f9263          	bne	x31,x17,800006b8 <benchmark_body+0x5d4>
80000658:	0247a283          	lw	x5,36(x15)
8000065c:	0307af83          	lw	x31,48(x15)
80000660:	05f2dc63          	bge	x5,x31,800006b8 <benchmark_body+0x5d4>
80000664:	0006a883          	lw	x17,0(x13)
80000668:	01f283b3          	add	x7,x5,x31
8000066c:	ffc88893          	addi	x17,x17,-4
80000670:	0116a023          	sw	x17,0(x13)
80000674:	04072883          	lw	x17,64(x14)
80000678:	00289893          	slli	x17,x17,0x2
8000067c:	011788b3          	add	x17,x15,x17
80000680:	0058a623          	sw	x5,12(x17)
80000684:	04072883          	lw	x17,64(x14)
80000688:	00188893          	addi	x17,x17,1
8000068c:	00289893          	slli	x17,x17,0x2
80000690:	011788b3          	add	x17,x15,x17
80000694:	01f8a623          	sw	x31,12(x17)
80000698:	04072883          	lw	x17,64(x14)
8000069c:	00288893          	addi	x17,x17,2
800006a0:	00289893          	slli	x17,x17,0x2
800006a4:	011788b3          	add	x17,x15,x17
800006a8:	0078a623          	sw	x7,12(x17)
800006ac:	04072883          	lw	x17,64(x14)
800006b0:	00388893          	addi	x17,x17,3
800006b4:	05172023          	sw	x17,64(x14)
800006b8:	0006a883          	lw	x17,0(x13)
800006bc:	09165263          	bge	x12,x17,80000740 <benchmark_body+0x65c>
800006c0:	04072883          	lw	x17,64(x14)
800006c4:	07164e63          	blt	x12,x17,80000740 <benchmark_body+0x65c>
800006c8:	0307af83          	lw	x31,48(x15)
800006cc:	02c7a883          	lw	x17,44(x15)
800006d0:	071f9863          	bne	x31,x17,80000740 <benchmark_body+0x65c>
800006d4:	0307af83          	lw	x31,48(x15)
800006d8:	0287a883          	lw	x17,40(x15)
800006dc:	071f9263          	bne	x31,x17,80000740 <benchmark_body+0x65c>
800006e0:	0247a283          	lw	x5,36(x15)
800006e4:	0307af83          	lw	x31,48(x15)
800006e8:	05f2dc63          	bge	x5,x31,80000740 <benchmark_body+0x65c>
800006ec:	0006a883          	lw	x17,0(x13)
800006f0:	01f283b3          	add	x7,x5,x31
800006f4:	ffc88893          	addi	x17,x17,-4
800006f8:	0116a023          	sw	x17,0(x13)
800006fc:	04072883          	lw	x17,64(x14)
80000700:	00289893          	slli	x17,x17,0x2
80000704:	011788b3          	add	x17,x15,x17
80000708:	0058a623          	sw	x5,12(x17)
8000070c:	04072883          	lw	x17,64(x14)
80000710:	00188893          	addi	x17,x17,1
80000714:	00289893          	slli	x17,x17,0x2
80000718:	011788b3          	add	x17,x15,x17
8000071c:	01f8a623          	sw	x31,12(x17)
80000720:	04072883          	lw	x17,64(x14)
80000724:	00288893          	addi	x17,x17,2
80000728:	00289893          	slli	x17,x17,0x2
8000072c:	011788b3          	add	x17,x15,x17
80000730:	0078a623          	sw	x7,12(x17)
80000734:	04072883          	lw	x17,64(x14)
80000738:	00388893          	addi	x17,x17,3
8000073c:	05172023          	sw	x17,64(x14)
80000740:	0006a883          	lw	x17,0(x13)
80000744:	09165263          	bge	x12,x17,800007c8 <benchmark_body+0x6e4>
80000748:	04072883          	lw	x17,64(x14)
8000074c:	07164e63          	blt	x12,x17,800007c8 <benchmark_body+0x6e4>
80000750:	0247af83          	lw	x31,36(x15)
80000754:	02c7a883          	lw	x17,44(x15)
80000758:	071f9863          	bne	x31,x17,800007c8 <benchmark_body+0x6e4>
8000075c:	0247af83          	lw	x31,36(x15)
80000760:	0307a883          	lw	x17,48(x15)
80000764:	071f9263          	bne	x31,x17,800007c8 <benchmark_body+0x6e4>
80000768:	0287a283          	lw	x5,40(x15)
8000076c:	0247af83          	lw	x31,36(x15)
80000770:	05f2dc63          	bge	x5,x31,800007c8 <benchmark_body+0x6e4>
80000774:	0006a883          	lw	x17,0(x13)
80000778:	01f283b3          	add	x7,x5,x31
8000077c:	ffc88893          	addi	x17,x17,-4
80000780:	0116a023          	sw	x17,0(x13)
80000784:	04072883          	lw	x17,64(x14)
80000788:	00289893          	slli	x17,x17,0x2
8000078c:	011788b3          	add	x17,x15,x17
80000790:	0058a623          	sw	x5,12(x17)
80000794:	04072883          	lw	x17,64(x14)
80000798:	00188893          	addi	x17,x17,1
8000079c:	00289893          	slli	x17,x17,0x2
800007a0:	011788b3          	add	x17,x15,x17
800007a4:	01f8a623          	sw	x31,12(x17)
800007a8:	04072883          	lw	x17,64(x14)
800007ac:	00288893          	addi	x17,x17,2
800007b0:	00289893          	slli	x17,x17,0x2
800007b4:	011788b3          	add	x17,x15,x17
800007b8:	0078a623          	sw	x7,12(x17)
800007bc:	04072883          	lw	x17,64(x14)
800007c0:	00388893          	addi	x17,x17,3
800007c4:	05172023          	sw	x17,64(x14)
800007c8:	0006a883          	lw	x17,0(x13)
800007cc:	09165263          	bge	x12,x17,80000850 <benchmark_body+0x76c>
800007d0:	04072883          	lw	x17,64(x14)
800007d4:	07164e63          	blt	x12,x17,80000850 <benchmark_body+0x76c>
800007d8:	0247af83          	lw	x31,36(x15)
800007dc:	0307a883          	lw	x17,48(x15)
800007e0:	071f9863          	bne	x31,x17,80000850 <benchmark_body+0x76c>
800007e4:	0247af83          	lw	x31,36(x15)
800007e8:	02c7a883          	lw	x17,44(x15)
800007ec:	071f9263          	bne	x31,x17,80000850 <benchmark_body+0x76c>
800007f0:	0287a283          	lw	x5,40(x15)
800007f4:	0247af83          	lw	x31,36(x15)
800007f8:	05f2dc63          	bge	x5,x31,80000850 <benchmark_body+0x76c>
800007fc:	0006a883          	lw	x17,0(x13)
80000800:	01f283b3          	add	x7,x5,x31
80000804:	ffc88893          	addi	x17,x17,-4
80000808:	0116a023          	sw	x17,0(x13)
8000080c:	04072883          	lw	x17,64(x14)
80000810:	00289893          	slli	x17,x17,0x2
80000814:	011788b3          	add	x17,x15,x17
80000818:	0058a623          	sw	x5,12(x17)
8000081c:	04072883          	lw	x17,64(x14)
80000820:	00188893          	addi	x17,x17,1
80000824:	00289893          	slli	x17,x17,0x2
80000828:	011788b3          	add	x17,x15,x17
8000082c:	01f8a623          	sw	x31,12(x17)
80000830:	04072883          	lw	x17,64(x14)
80000834:	00288893          	addi	x17,x17,2
80000838:	00289893          	slli	x17,x17,0x2
8000083c:	011788b3          	add	x17,x15,x17
80000840:	0078a623          	sw	x7,12(x17)
80000844:	04072883          	lw	x17,64(x14)
80000848:	00388893          	addi	x17,x17,3
8000084c:	05172023          	sw	x17,64(x14)
80000850:	0006a883          	lw	x17,0(x13)
80000854:	09165263          	bge	x12,x17,800008d8 <benchmark_body+0x7f4>
80000858:	04072883          	lw	x17,64(x14)
8000085c:	07164e63          	blt	x12,x17,800008d8 <benchmark_body+0x7f4>
80000860:	02c7af83          	lw	x31,44(x15)
80000864:	0247a883          	lw	x17,36(x15)
80000868:	071f9863          	bne	x31,x17,800008d8 <benchmark_body+0x7f4>
8000086c:	02c7af83          	lw	x31,44(x15)
80000870:	0307a883          	lw	x17,48(x15)
80000874:	071f9263          	bne	x31,x17,800008d8 <benchmark_body+0x7f4>
80000878:	0287a283          	lw	x5,40(x15)
8000087c:	02c7af83          	lw	x31,44(x15)
80000880:	05f2dc63          	bge	x5,x31,800008d8 <benchmark_body+0x7f4>
80000884:	0006a883          	lw	x17,0(x13)
80000888:	01f283b3          	add	x7,x5,x31
8000088c:	ffc88893          	addi	x17,x17,-4
80000890:	0116a023          	sw	x17,0(x13)
80000894:	04072883          	lw	x17,64(x14)
80000898:	00289893          	slli	x17,x17,0x2
8000089c:	011788b3          	add	x17,x15,x17
800008a0:	0058a623          	sw	x5,12(x17)
800008a4:	04072883          	lw	x17,64(x14)
800008a8:	00188893          	addi	x17,x17,1
800008ac:	00289893          	slli	x17,x17,0x2
800008b0:	011788b3          	add	x17,x15,x17
800008b4:	01f8a623          	sw	x31,12(x17)
800008b8:	04072883          	lw	x17,64(x14)
800008bc:	00288893          	addi	x17,x17,2
800008c0:	00289893          	slli	x17,x17,0x2
800008c4:	011788b3          	add	x17,x15,x17
800008c8:	0078a623          	sw	x7,12(x17)
800008cc:	04072883          	lw	x17,64(x14)
800008d0:	00388893          	addi	x17,x17,3
800008d4:	05172023          	sw	x17,64(x14)
800008d8:	0006a883          	lw	x17,0(x13)
800008dc:	09165263          	bge	x12,x17,80000960 <benchmark_body+0x87c>
800008e0:	04072883          	lw	x17,64(x14)
800008e4:	07164e63          	blt	x12,x17,80000960 <benchmark_body+0x87c>
800008e8:	02c7af83          	lw	x31,44(x15)
800008ec:	0307a883          	lw	x17,48(x15)
800008f0:	071f9863          	bne	x31,x17,80000960 <benchmark_body+0x87c>
800008f4:	02c7af83          	lw	x31,44(x15)
800008f8:	0247a883          	lw	x17,36(x15)
800008fc:	071f9263          	bne	x31,x17,80000960 <benchmark_body+0x87c>
80000900:	0287a283          	lw	x5,40(x15)
80000904:	02c7af83          	lw	x31,44(x15)
80000908:	05f2dc63          	bge	x5,x31,80000960 <benchmark_body+0x87c>
8000090c:	0006a883          	lw	x17,0(x13)
80000910:	01f283b3          	add	x7,x5,x31
80000914:	ffc88893          	addi	x17,x17,-4
80000918:	0116a023          	sw	x17,0(x13)
8000091c:	04072883          	lw	x17,64(x14)
80000920:	00289893          	slli	x17,x17,0x2
80000924:	011788b3          	add	x17,x15,x17
80000928:	0058a623          	sw	x5,12(x17)
8000092c:	04072883          	lw	x17,64(x14)
80000930:	00188893          	addi	x17,x17,1
80000934:	00289893          	slli	x17,x17,0x2
80000938:	011788b3          	add	x17,x15,x17
8000093c:	01f8a623          	sw	x31,12(x17)
80000940:	04072883          	lw	x17,64(x14)
80000944:	00288893          	addi	x17,x17,2
80000948:	00289893          	slli	x17,x17,0x2
8000094c:	011788b3          	add	x17,x15,x17
80000950:	0078a623          	sw	x7,12(x17)
80000954:	04072883          	lw	x17,64(x14)
80000958:	00388893          	addi	x17,x17,3
8000095c:	05172023          	sw	x17,64(x14)
80000960:	0006a883          	lw	x17,0(x13)
80000964:	09165263          	bge	x12,x17,800009e8 <benchmark_body+0x904>
80000968:	04072883          	lw	x17,64(x14)
8000096c:	07164e63          	blt	x12,x17,800009e8 <benchmark_body+0x904>
80000970:	0307af83          	lw	x31,48(x15)
80000974:	0247a883          	lw	x17,36(x15)
80000978:	071f9863          	bne	x31,x17,800009e8 <benchmark_body+0x904>
8000097c:	0307af83          	lw	x31,48(x15)
80000980:	02c7a883          	lw	x17,44(x15)
80000984:	071f9263          	bne	x31,x17,800009e8 <benchmark_body+0x904>
80000988:	0287a283          	lw	x5,40(x15)
8000098c:	0307af83          	lw	x31,48(x15)
80000990:	05f2dc63          	bge	x5,x31,800009e8 <benchmark_body+0x904>
80000994:	0006a883          	lw	x17,0(x13)
80000998:	01f283b3          	add	x7,x5,x31
8000099c:	ffc88893          	addi	x17,x17,-4
800009a0:	0116a023          	sw	x17,0(x13)
800009a4:	04072883          	lw	x17,64(x14)
800009a8:	00289893          	slli	x17,x17,0x2
800009ac:	011788b3          	add	x17,x15,x17
800009b0:	0058a623          	sw	x5,12(x17)
800009b4:	04072883          	lw	x17,64(x14)
800009b8:	00188893          	addi	x17,x17,1
800009bc:	00289893          	slli	x17,x17,0x2
800009c0:	011788b3          	add	x17,x15,x17
800009c4:	01f8a623          	sw	x31,12(x17)
800009c8:	04072883          	lw	x17,64(x14)
800009cc:	00288893          	addi	x17,x17,2
800009d0:	00289893          	slli	x17,x17,0x2
800009d4:	011788b3          	add	x17,x15,x17
800009d8:	0078a623          	sw	x7,12(x17)
800009dc:	04072883          	lw	x17,64(x14)
800009e0:	00388893          	addi	x17,x17,3
800009e4:	05172023          	sw	x17,64(x14)
800009e8:	0006a883          	lw	x17,0(x13)
800009ec:	09165263          	bge	x12,x17,80000a70 <benchmark_body+0x98c>
800009f0:	04072883          	lw	x17,64(x14)
800009f4:	07164e63          	blt	x12,x17,80000a70 <benchmark_body+0x98c>
800009f8:	0307af83          	lw	x31,48(x15)
800009fc:	02c7a883          	lw	x17,44(x15)
80000a00:	071f9863          	bne	x31,x17,80000a70 <benchmark_body+0x98c>
80000a04:	0307af83          	lw	x31,48(x15)
80000a08:	0247a883          	lw	x17,36(x15)
80000a0c:	071f9263          	bne	x31,x17,80000a70 <benchmark_body+0x98c>
80000a10:	0287a283          	lw	x5,40(x15)
80000a14:	0307af83          	lw	x31,48(x15)
80000a18:	05f2dc63          	bge	x5,x31,80000a70 <benchmark_body+0x98c>
80000a1c:	0006a883          	lw	x17,0(x13)
80000a20:	01f283b3          	add	x7,x5,x31
80000a24:	ffc88893          	addi	x17,x17,-4
80000a28:	0116a023          	sw	x17,0(x13)
80000a2c:	04072883          	lw	x17,64(x14)
80000a30:	00289893          	slli	x17,x17,0x2
80000a34:	011788b3          	add	x17,x15,x17
80000a38:	0058a623          	sw	x5,12(x17)
80000a3c:	04072883          	lw	x17,64(x14)
80000a40:	00188893          	addi	x17,x17,1
80000a44:	00289893          	slli	x17,x17,0x2
80000a48:	011788b3          	add	x17,x15,x17
80000a4c:	01f8a623          	sw	x31,12(x17)
80000a50:	04072883          	lw	x17,64(x14)
80000a54:	00288893          	addi	x17,x17,2
80000a58:	00289893          	slli	x17,x17,0x2
80000a5c:	011788b3          	add	x17,x15,x17
80000a60:	0078a623          	sw	x7,12(x17)
80000a64:	04072883          	lw	x17,64(x14)
80000a68:	00388893          	addi	x17,x17,3
80000a6c:	05172023          	sw	x17,64(x14)
80000a70:	0006a883          	lw	x17,0(x13)
80000a74:	09165263          	bge	x12,x17,80000af8 <benchmark_body+0xa14>
80000a78:	04072883          	lw	x17,64(x14)
80000a7c:	07164e63          	blt	x12,x17,80000af8 <benchmark_body+0xa14>
80000a80:	0247af83          	lw	x31,36(x15)
80000a84:	0287a883          	lw	x17,40(x15)
80000a88:	071f9863          	bne	x31,x17,80000af8 <benchmark_body+0xa14>
80000a8c:	0247af83          	lw	x31,36(x15)
80000a90:	0307a883          	lw	x17,48(x15)
80000a94:	071f9263          	bne	x31,x17,80000af8 <benchmark_body+0xa14>
80000a98:	02c7a283          	lw	x5,44(x15)
80000a9c:	0247af83          	lw	x31,36(x15)
80000aa0:	05f2dc63          	bge	x5,x31,80000af8 <benchmark_body+0xa14>
80000aa4:	0006a883          	lw	x17,0(x13)
80000aa8:	01f283b3          	add	x7,x5,x31
80000aac:	ffc88893          	addi	x17,x17,-4
80000ab0:	0116a023          	sw	x17,0(x13)
80000ab4:	04072883          	lw	x17,64(x14)
80000ab8:	00289893          	slli	x17,x17,0x2
80000abc:	011788b3          	add	x17,x15,x17
80000ac0:	0058a623          	sw	x5,12(x17)
80000ac4:	04072883          	lw	x17,64(x14)
80000ac8:	00188893          	addi	x17,x17,1
80000acc:	00289893          	slli	x17,x17,0x2
80000ad0:	011788b3          	add	x17,x15,x17
80000ad4:	01f8a623          	sw	x31,12(x17)
80000ad8:	04072883          	lw	x17,64(x14)
80000adc:	00288893          	addi	x17,x17,2
80000ae0:	00289893          	slli	x17,x17,0x2
80000ae4:	011788b3          	add	x17,x15,x17
80000ae8:	0078a623          	sw	x7,12(x17)
80000aec:	04072883          	lw	x17,64(x14)
80000af0:	00388893          	addi	x17,x17,3
80000af4:	05172023          	sw	x17,64(x14)
80000af8:	0006a883          	lw	x17,0(x13)
80000afc:	09165263          	bge	x12,x17,80000b80 <benchmark_body+0xa9c>
80000b00:	04072883          	lw	x17,64(x14)
80000b04:	07164e63          	blt	x12,x17,80000b80 <benchmark_body+0xa9c>
80000b08:	0247af83          	lw	x31,36(x15)
80000b0c:	0307a883          	lw	x17,48(x15)
80000b10:	071f9863          	bne	x31,x17,80000b80 <benchmark_body+0xa9c>
80000b14:	0247af83          	lw	x31,36(x15)
80000b18:	0287a883          	lw	x17,40(x15)
80000b1c:	071f9263          	bne	x31,x17,80000b80 <benchmark_body+0xa9c>
80000b20:	02c7a283          	lw	x5,44(x15)
80000b24:	0247af83          	lw	x31,36(x15)
80000b28:	05f2dc63          	bge	x5,x31,80000b80 <benchmark_body+0xa9c>
80000b2c:	0006a883          	lw	x17,0(x13)
80000b30:	01f283b3          	add	x7,x5,x31
80000b34:	ffc88893          	addi	x17,x17,-4
80000b38:	0116a023          	sw	x17,0(x13)
80000b3c:	04072883          	lw	x17,64(x14)
80000b40:	00289893          	slli	x17,x17,0x2
80000b44:	011788b3          	add	x17,x15,x17
80000b48:	0058a623          	sw	x5,12(x17)
80000b4c:	04072883          	lw	x17,64(x14)
80000b50:	00188893          	addi	x17,x17,1
80000b54:	00289893          	slli	x17,x17,0x2
80000b58:	011788b3          	add	x17,x15,x17
80000b5c:	01f8a623          	sw	x31,12(x17)
80000b60:	04072883          	lw	x17,64(x14)
80000b64:	00288893          	addi	x17,x17,2
80000b68:	00289893          	slli	x17,x17,0x2
80000b6c:	011788b3          	add	x17,x15,x17
80000b70:	0078a623          	sw	x7,12(x17)
80000b74:	04072883          	lw	x17,64(x14)
80000b78:	00388893          	addi	x17,x17,3
80000b7c:	05172023          	sw	x17,64(x14)
80000b80:	0006a883          	lw	x17,0(x13)
80000b84:	09165263          	bge	x12,x17,80000c08 <benchmark_body+0xb24>
80000b88:	04072883          	lw	x17,64(x14)
80000b8c:	07164e63          	blt	x12,x17,80000c08 <benchmark_body+0xb24>
80000b90:	0287af83          	lw	x31,40(x15)
80000b94:	0247a883          	lw	x17,36(x15)
80000b98:	071f9863          	bne	x31,x17,80000c08 <benchmark_body+0xb24>
80000b9c:	0287af83          	lw	x31,40(x15)
80000ba0:	0307a883          	lw	x17,48(x15)
80000ba4:	071f9263          	bne	x31,x17,80000c08 <benchmark_body+0xb24>
80000ba8:	02c7a283          	lw	x5,44(x15)
80000bac:	0287af83          	lw	x31,40(x15)
80000bb0:	05f2dc63          	bge	x5,x31,80000c08 <benchmark_body+0xb24>
80000bb4:	0006a883          	lw	x17,0(x13)
80000bb8:	01f283b3          	add	x7,x5,x31
80000bbc:	ffc88893          	addi	x17,x17,-4
80000bc0:	0116a023          	sw	x17,0(x13)
80000bc4:	04072883          	lw	x17,64(x14)
80000bc8:	00289893          	slli	x17,x17,0x2
80000bcc:	011788b3          	add	x17,x15,x17
80000bd0:	0058a623          	sw	x5,12(x17)
80000bd4:	04072883          	lw	x17,64(x14)
80000bd8:	00188893          	addi	x17,x17,1
80000bdc:	00289893          	slli	x17,x17,0x2
80000be0:	011788b3          	add	x17,x15,x17
80000be4:	01f8a623          	sw	x31,12(x17)
80000be8:	04072883          	lw	x17,64(x14)
80000bec:	00288893          	addi	x17,x17,2
80000bf0:	00289893          	slli	x17,x17,0x2
80000bf4:	011788b3          	add	x17,x15,x17
80000bf8:	0078a623          	sw	x7,12(x17)
80000bfc:	04072883          	lw	x17,64(x14)
80000c00:	00388893          	addi	x17,x17,3
80000c04:	05172023          	sw	x17,64(x14)
80000c08:	0006a883          	lw	x17,0(x13)
80000c0c:	09165263          	bge	x12,x17,80000c90 <benchmark_body+0xbac>
80000c10:	04072883          	lw	x17,64(x14)
80000c14:	07164e63          	blt	x12,x17,80000c90 <benchmark_body+0xbac>
80000c18:	0287af83          	lw	x31,40(x15)
80000c1c:	0307a883          	lw	x17,48(x15)
80000c20:	071f9863          	bne	x31,x17,80000c90 <benchmark_body+0xbac>
80000c24:	0287af83          	lw	x31,40(x15)
80000c28:	0247a883          	lw	x17,36(x15)
80000c2c:	071f9263          	bne	x31,x17,80000c90 <benchmark_body+0xbac>
80000c30:	02c7a283          	lw	x5,44(x15)
80000c34:	0287af83          	lw	x31,40(x15)
80000c38:	05f2dc63          	bge	x5,x31,80000c90 <benchmark_body+0xbac>
80000c3c:	0006a883          	lw	x17,0(x13)
80000c40:	01f283b3          	add	x7,x5,x31
80000c44:	ffc88893          	addi	x17,x17,-4
80000c48:	0116a023          	sw	x17,0(x13)
80000c4c:	04072883          	lw	x17,64(x14)
80000c50:	00289893          	slli	x17,x17,0x2
80000c54:	011788b3          	add	x17,x15,x17
80000c58:	0058a623          	sw	x5,12(x17)
80000c5c:	04072883          	lw	x17,64(x14)
80000c60:	00188893          	addi	x17,x17,1
80000c64:	00289893          	slli	x17,x17,0x2
80000c68:	011788b3          	add	x17,x15,x17
80000c6c:	01f8a623          	sw	x31,12(x17)
80000c70:	04072883          	lw	x17,64(x14)
80000c74:	00288893          	addi	x17,x17,2
80000c78:	00289893          	slli	x17,x17,0x2
80000c7c:	011788b3          	add	x17,x15,x17
80000c80:	0078a623          	sw	x7,12(x17)
80000c84:	04072883          	lw	x17,64(x14)
80000c88:	00388893          	addi	x17,x17,3
80000c8c:	05172023          	sw	x17,64(x14)
80000c90:	0006a883          	lw	x17,0(x13)
80000c94:	09165263          	bge	x12,x17,80000d18 <benchmark_body+0xc34>
80000c98:	04072883          	lw	x17,64(x14)
80000c9c:	07164e63          	blt	x12,x17,80000d18 <benchmark_body+0xc34>
80000ca0:	0307af83          	lw	x31,48(x15)
80000ca4:	0247a883          	lw	x17,36(x15)
80000ca8:	071f9863          	bne	x31,x17,80000d18 <benchmark_body+0xc34>
80000cac:	0307af83          	lw	x31,48(x15)
80000cb0:	0287a883          	lw	x17,40(x15)
80000cb4:	071f9263          	bne	x31,x17,80000d18 <benchmark_body+0xc34>
80000cb8:	02c7a283          	lw	x5,44(x15)
80000cbc:	0307af83          	lw	x31,48(x15)
80000cc0:	05f2dc63          	bge	x5,x31,80000d18 <benchmark_body+0xc34>
80000cc4:	0006a883          	lw	x17,0(x13)
80000cc8:	01f283b3          	add	x7,x5,x31
80000ccc:	ffc88893          	addi	x17,x17,-4
80000cd0:	0116a023          	sw	x17,0(x13)
80000cd4:	04072883          	lw	x17,64(x14)
80000cd8:	00289893          	slli	x17,x17,0x2
80000cdc:	011788b3          	add	x17,x15,x17
80000ce0:	0058a623          	sw	x5,12(x17)
80000ce4:	04072883          	lw	x17,64(x14)
80000ce8:	00188893          	addi	x17,x17,1
80000cec:	00289893          	slli	x17,x17,0x2
80000cf0:	011788b3          	add	x17,x15,x17
80000cf4:	01f8a623          	sw	x31,12(x17)
80000cf8:	04072883          	lw	x17,64(x14)
80000cfc:	00288893          	addi	x17,x17,2
80000d00:	00289893          	slli	x17,x17,0x2
80000d04:	011788b3          	add	x17,x15,x17
80000d08:	0078a623          	sw	x7,12(x17)
80000d0c:	04072883          	lw	x17,64(x14)
80000d10:	00388893          	addi	x17,x17,3
80000d14:	05172023          	sw	x17,64(x14)
80000d18:	0006a883          	lw	x17,0(x13)
80000d1c:	09165263          	bge	x12,x17,80000da0 <benchmark_body+0xcbc>
80000d20:	04072883          	lw	x17,64(x14)
80000d24:	07164e63          	blt	x12,x17,80000da0 <benchmark_body+0xcbc>
80000d28:	0307af83          	lw	x31,48(x15)
80000d2c:	0287a883          	lw	x17,40(x15)
80000d30:	071f9863          	bne	x31,x17,80000da0 <benchmark_body+0xcbc>
80000d34:	0307af83          	lw	x31,48(x15)
80000d38:	0247a883          	lw	x17,36(x15)
80000d3c:	071f9263          	bne	x31,x17,80000da0 <benchmark_body+0xcbc>
80000d40:	02c7a283          	lw	x5,44(x15)
80000d44:	0307af83          	lw	x31,48(x15)
80000d48:	05f2dc63          	bge	x5,x31,80000da0 <benchmark_body+0xcbc>
80000d4c:	0006a883          	lw	x17,0(x13)
80000d50:	01f283b3          	add	x7,x5,x31
80000d54:	ffc88893          	addi	x17,x17,-4
80000d58:	0116a023          	sw	x17,0(x13)
80000d5c:	04072883          	lw	x17,64(x14)
80000d60:	00289893          	slli	x17,x17,0x2
80000d64:	011788b3          	add	x17,x15,x17
80000d68:	0058a623          	sw	x5,12(x17)
80000d6c:	04072883          	lw	x17,64(x14)
80000d70:	00188893          	addi	x17,x17,1
80000d74:	00289893          	slli	x17,x17,0x2
80000d78:	011788b3          	add	x17,x15,x17
80000d7c:	01f8a623          	sw	x31,12(x17)
80000d80:	04072883          	lw	x17,64(x14)
80000d84:	00288893          	addi	x17,x17,2
80000d88:	00289893          	slli	x17,x17,0x2
80000d8c:	011788b3          	add	x17,x15,x17
80000d90:	0078a623          	sw	x7,12(x17)
80000d94:	04072883          	lw	x17,64(x14)
80000d98:	00388893          	addi	x17,x17,3
80000d9c:	05172023          	sw	x17,64(x14)
80000da0:	0006a883          	lw	x17,0(x13)
80000da4:	09165263          	bge	x12,x17,80000e28 <benchmark_body+0xd44>
80000da8:	04072883          	lw	x17,64(x14)
80000dac:	07164e63          	blt	x12,x17,80000e28 <benchmark_body+0xd44>
80000db0:	0247af83          	lw	x31,36(x15)
80000db4:	0287a883          	lw	x17,40(x15)
80000db8:	071f9863          	bne	x31,x17,80000e28 <benchmark_body+0xd44>
80000dbc:	0247af83          	lw	x31,36(x15)
80000dc0:	02c7a883          	lw	x17,44(x15)
80000dc4:	071f9263          	bne	x31,x17,80000e28 <benchmark_body+0xd44>
80000dc8:	0307a283          	lw	x5,48(x15)
80000dcc:	0247af83          	lw	x31,36(x15)
80000dd0:	05f2dc63          	bge	x5,x31,80000e28 <benchmark_body+0xd44>
80000dd4:	0006a883          	lw	x17,0(x13)
80000dd8:	01f283b3          	add	x7,x5,x31
80000ddc:	ffc88893          	addi	x17,x17,-4
80000de0:	0116a023          	sw	x17,0(x13)
80000de4:	04072883          	lw	x17,64(x14)
80000de8:	00289893          	slli	x17,x17,0x2
80000dec:	011788b3          	add	x17,x15,x17
80000df0:	0058a623          	sw	x5,12(x17)
80000df4:	04072883          	lw	x17,64(x14)
80000df8:	00188893          	addi	x17,x17,1
80000dfc:	00289893          	slli	x17,x17,0x2
80000e00:	011788b3          	add	x17,x15,x17
80000e04:	01f8a623          	sw	x31,12(x17)
80000e08:	04072883          	lw	x17,64(x14)
80000e0c:	00288893          	addi	x17,x17,2
80000e10:	00289893          	slli	x17,x17,0x2
80000e14:	011788b3          	add	x17,x15,x17
80000e18:	0078a623          	sw	x7,12(x17)
80000e1c:	04072883          	lw	x17,64(x14)
80000e20:	00388893          	addi	x17,x17,3
80000e24:	05172023          	sw	x17,64(x14)
80000e28:	0006a883          	lw	x17,0(x13)
80000e2c:	09165263          	bge	x12,x17,80000eb0 <benchmark_body+0xdcc>
80000e30:	04072883          	lw	x17,64(x14)
80000e34:	07164e63          	blt	x12,x17,80000eb0 <benchmark_body+0xdcc>
80000e38:	0247af83          	lw	x31,36(x15)
80000e3c:	02c7a883          	lw	x17,44(x15)
80000e40:	071f9863          	bne	x31,x17,80000eb0 <benchmark_body+0xdcc>
80000e44:	0247af83          	lw	x31,36(x15)
80000e48:	0287a883          	lw	x17,40(x15)
80000e4c:	071f9263          	bne	x31,x17,80000eb0 <benchmark_body+0xdcc>
80000e50:	0307a283          	lw	x5,48(x15)
80000e54:	0247af83          	lw	x31,36(x15)
80000e58:	05f2dc63          	bge	x5,x31,80000eb0 <benchmark_body+0xdcc>
80000e5c:	0006a883          	lw	x17,0(x13)
80000e60:	01f283b3          	add	x7,x5,x31
80000e64:	ffc88893          	addi	x17,x17,-4
80000e68:	0116a023          	sw	x17,0(x13)
80000e6c:	04072883          	lw	x17,64(x14)
80000e70:	00289893          	slli	x17,x17,0x2
80000e74:	011788b3          	add	x17,x15,x17
80000e78:	0058a623          	sw	x5,12(x17)
80000e7c:	04072883          	lw	x17,64(x14)
80000e80:	00188893          	addi	x17,x17,1
80000e84:	00289893          	slli	x17,x17,0x2
80000e88:	011788b3          	add	x17,x15,x17
80000e8c:	01f8a623          	sw	x31,12(x17)
80000e90:	04072883          	lw	x17,64(x14)
80000e94:	00288893          	addi	x17,x17,2
80000e98:	00289893          	slli	x17,x17,0x2
80000e9c:	011788b3          	add	x17,x15,x17
80000ea0:	0078a623          	sw	x7,12(x17)
80000ea4:	04072883          	lw	x17,64(x14)
80000ea8:	00388893          	addi	x17,x17,3
80000eac:	05172023          	sw	x17,64(x14)
80000eb0:	0006a883          	lw	x17,0(x13)
80000eb4:	09165263          	bge	x12,x17,80000f38 <benchmark_body+0xe54>
80000eb8:	04072883          	lw	x17,64(x14)
80000ebc:	07164e63          	blt	x12,x17,80000f38 <benchmark_body+0xe54>
80000ec0:	0287af83          	lw	x31,40(x15)
80000ec4:	0247a883          	lw	x17,36(x15)
80000ec8:	071f9863          	bne	x31,x17,80000f38 <benchmark_body+0xe54>
80000ecc:	0287af83          	lw	x31,40(x15)
80000ed0:	02c7a883          	lw	x17,44(x15)
80000ed4:	071f9263          	bne	x31,x17,80000f38 <benchmark_body+0xe54>
80000ed8:	0307a283          	lw	x5,48(x15)
80000edc:	0287af83          	lw	x31,40(x15)
80000ee0:	05f2dc63          	bge	x5,x31,80000f38 <benchmark_body+0xe54>
80000ee4:	0006a883          	lw	x17,0(x13)
80000ee8:	01f283b3          	add	x7,x5,x31
80000eec:	ffc88893          	addi	x17,x17,-4
80000ef0:	0116a023          	sw	x17,0(x13)
80000ef4:	04072883          	lw	x17,64(x14)
80000ef8:	00289893          	slli	x17,x17,0x2
80000efc:	011788b3          	add	x17,x15,x17
80000f00:	0058a623          	sw	x5,12(x17)
80000f04:	04072883          	lw	x17,64(x14)
80000f08:	00188893          	addi	x17,x17,1
80000f0c:	00289893          	slli	x17,x17,0x2
80000f10:	011788b3          	add	x17,x15,x17
80000f14:	01f8a623          	sw	x31,12(x17)
80000f18:	04072883          	lw	x17,64(x14)
80000f1c:	00288893          	addi	x17,x17,2
80000f20:	00289893          	slli	x17,x17,0x2
80000f24:	011788b3          	add	x17,x15,x17
80000f28:	0078a623          	sw	x7,12(x17)
80000f2c:	04072883          	lw	x17,64(x14)
80000f30:	00388893          	addi	x17,x17,3
80000f34:	05172023          	sw	x17,64(x14)
80000f38:	0006a883          	lw	x17,0(x13)
80000f3c:	09165263          	bge	x12,x17,80000fc0 <benchmark_body+0xedc>
80000f40:	04072883          	lw	x17,64(x14)
80000f44:	07164e63          	blt	x12,x17,80000fc0 <benchmark_body+0xedc>
80000f48:	0287af83          	lw	x31,40(x15)
80000f4c:	02c7a883          	lw	x17,44(x15)
80000f50:	071f9863          	bne	x31,x17,80000fc0 <benchmark_body+0xedc>
80000f54:	0287af83          	lw	x31,40(x15)
80000f58:	0247a883          	lw	x17,36(x15)
80000f5c:	071f9263          	bne	x31,x17,80000fc0 <benchmark_body+0xedc>
80000f60:	0307a283          	lw	x5,48(x15)
80000f64:	0287af83          	lw	x31,40(x15)
80000f68:	05f2dc63          	bge	x5,x31,80000fc0 <benchmark_body+0xedc>
80000f6c:	0006a883          	lw	x17,0(x13)
80000f70:	01f283b3          	add	x7,x5,x31
80000f74:	ffc88893          	addi	x17,x17,-4
80000f78:	0116a023          	sw	x17,0(x13)
80000f7c:	04072883          	lw	x17,64(x14)
80000f80:	00289893          	slli	x17,x17,0x2
80000f84:	011788b3          	add	x17,x15,x17
80000f88:	0058a623          	sw	x5,12(x17)
80000f8c:	04072883          	lw	x17,64(x14)
80000f90:	00188893          	addi	x17,x17,1
80000f94:	00289893          	slli	x17,x17,0x2
80000f98:	011788b3          	add	x17,x15,x17
80000f9c:	01f8a623          	sw	x31,12(x17)
80000fa0:	04072883          	lw	x17,64(x14)
80000fa4:	00288893          	addi	x17,x17,2
80000fa8:	00289893          	slli	x17,x17,0x2
80000fac:	011788b3          	add	x17,x15,x17
80000fb0:	0078a623          	sw	x7,12(x17)
80000fb4:	04072883          	lw	x17,64(x14)
80000fb8:	00388893          	addi	x17,x17,3
80000fbc:	05172023          	sw	x17,64(x14)
80000fc0:	0006a883          	lw	x17,0(x13)
80000fc4:	09165263          	bge	x12,x17,80001048 <benchmark_body+0xf64>
80000fc8:	04072883          	lw	x17,64(x14)
80000fcc:	07164e63          	blt	x12,x17,80001048 <benchmark_body+0xf64>
80000fd0:	02c7af83          	lw	x31,44(x15)
80000fd4:	0247a883          	lw	x17,36(x15)
80000fd8:	071f9863          	bne	x31,x17,80001048 <benchmark_body+0xf64>
80000fdc:	02c7af83          	lw	x31,44(x15)
80000fe0:	0287a883          	lw	x17,40(x15)
80000fe4:	071f9263          	bne	x31,x17,80001048 <benchmark_body+0xf64>
80000fe8:	0307a283          	lw	x5,48(x15)
80000fec:	02c7af83          	lw	x31,44(x15)
80000ff0:	05f2dc63          	bge	x5,x31,80001048 <benchmark_body+0xf64>
80000ff4:	0006a883          	lw	x17,0(x13)
80000ff8:	01f283b3          	add	x7,x5,x31
80000ffc:	ffc88893          	addi	x17,x17,-4
80001000:	0116a023          	sw	x17,0(x13)
80001004:	04072883          	lw	x17,64(x14)
80001008:	00289893          	slli	x17,x17,0x2
8000100c:	011788b3          	add	x17,x15,x17
80001010:	0058a623          	sw	x5,12(x17)
80001014:	04072883          	lw	x17,64(x14)
80001018:	00188893          	addi	x17,x17,1
8000101c:	00289893          	slli	x17,x17,0x2
80001020:	011788b3          	add	x17,x15,x17
80001024:	01f8a623          	sw	x31,12(x17)
80001028:	04072883          	lw	x17,64(x14)
8000102c:	00288893          	addi	x17,x17,2
80001030:	00289893          	slli	x17,x17,0x2
80001034:	011788b3          	add	x17,x15,x17
80001038:	0078a623          	sw	x7,12(x17)
8000103c:	04072883          	lw	x17,64(x14)
80001040:	00388893          	addi	x17,x17,3
80001044:	05172023          	sw	x17,64(x14)
80001048:	0006a883          	lw	x17,0(x13)
8000104c:	09165263          	bge	x12,x17,800010d0 <benchmark_body+0xfec>
80001050:	04072883          	lw	x17,64(x14)
80001054:	07164e63          	blt	x12,x17,800010d0 <benchmark_body+0xfec>
80001058:	02c7af83          	lw	x31,44(x15)
8000105c:	0287a883          	lw	x17,40(x15)
80001060:	071f9863          	bne	x31,x17,800010d0 <benchmark_body+0xfec>
80001064:	02c7af83          	lw	x31,44(x15)
80001068:	0247a883          	lw	x17,36(x15)
8000106c:	071f9263          	bne	x31,x17,800010d0 <benchmark_body+0xfec>
80001070:	0307a283          	lw	x5,48(x15)
80001074:	02c7af83          	lw	x31,44(x15)
80001078:	05f2dc63          	bge	x5,x31,800010d0 <benchmark_body+0xfec>
8000107c:	0006a883          	lw	x17,0(x13)
80001080:	01f283b3          	add	x7,x5,x31
80001084:	ffc88893          	addi	x17,x17,-4
80001088:	0116a023          	sw	x17,0(x13)
8000108c:	04072883          	lw	x17,64(x14)
80001090:	00289893          	slli	x17,x17,0x2
80001094:	011788b3          	add	x17,x15,x17
80001098:	0058a623          	sw	x5,12(x17)
8000109c:	04072883          	lw	x17,64(x14)
800010a0:	00188893          	addi	x17,x17,1
800010a4:	00289893          	slli	x17,x17,0x2
800010a8:	011788b3          	add	x17,x15,x17
800010ac:	01f8a623          	sw	x31,12(x17)
800010b0:	04072883          	lw	x17,64(x14)
800010b4:	00288893          	addi	x17,x17,2
800010b8:	00289893          	slli	x17,x17,0x2
800010bc:	011788b3          	add	x17,x15,x17
800010c0:	0078a623          	sw	x7,12(x17)
800010c4:	04072883          	lw	x17,64(x14)
800010c8:	00388893          	addi	x17,x17,3
800010cc:	05172023          	sw	x17,64(x14)
800010d0:	0006a883          	lw	x17,0(x13)
800010d4:	0915d663          	bge	x11,x17,80001160 <benchmark_body+0x107c>
800010d8:	04072883          	lw	x17,64(x14)
800010dc:	09164263          	blt	x12,x17,80001160 <benchmark_body+0x107c>
800010e0:	0287af83          	lw	x31,40(x15)
800010e4:	02c7a883          	lw	x17,44(x15)
800010e8:	071f9c63          	bne	x31,x17,80001160 <benchmark_body+0x107c>
800010ec:	0287af83          	lw	x31,40(x15)
800010f0:	0347a883          	lw	x17,52(x15)
800010f4:	071f9663          	bne	x31,x17,80001160 <benchmark_body+0x107c>
800010f8:	0247a283          	lw	x5,36(x15)
800010fc:	0287af83          	lw	x31,40(x15)
80001100:	07f2d063          	bge	x5,x31,80001160 <benchmark_body+0x107c>
80001104:	0307a883          	lw	x17,48(x15)
80001108:	01f283b3          	add	x7,x5,x31
8000110c:	0317a223          	sw	x17,36(x15)
80001110:	0006a883          	lw	x17,0(x13)
80001114:	ffc88893          	addi	x17,x17,-4
80001118:	0116a023          	sw	x17,0(x13)
8000111c:	04072883          	lw	x17,64(x14)
80001120:	00289893          	slli	x17,x17,0x2
80001124:	011788b3          	add	x17,x15,x17
80001128:	0058a623          	sw	x5,12(x17)
8000112c:	04072883          	lw	x17,64(x14)
80001130:	00188893          	addi	x17,x17,1
80001134:	00289893          	slli	x17,x17,0x2
80001138:	011788b3          	add	x17,x15,x17
8000113c:	01f8a623          	sw	x31,12(x17)
80001140:	04072883          	lw	x17,64(x14)
80001144:	00288893          	addi	x17,x17,2
80001148:	00289893          	slli	x17,x17,0x2
8000114c:	011788b3          	add	x17,x15,x17
80001150:	0078a623          	sw	x7,12(x17)
80001154:	04072883          	lw	x17,64(x14)
80001158:	00388893          	addi	x17,x17,3
8000115c:	05172023          	sw	x17,64(x14)
80001160:	0006a883          	lw	x17,0(x13)
80001164:	0915d663          	bge	x11,x17,800011f0 <benchmark_body+0x110c>
80001168:	04072883          	lw	x17,64(x14)
8000116c:	09164263          	blt	x12,x17,800011f0 <benchmark_body+0x110c>
80001170:	0287af83          	lw	x31,40(x15)
80001174:	0307a883          	lw	x17,48(x15)
80001178:	071f9c63          	bne	x31,x17,800011f0 <benchmark_body+0x110c>
8000117c:	0287af83          	lw	x31,40(x15)
80001180:	0347a883          	lw	x17,52(x15)
80001184:	071f9663          	bne	x31,x17,800011f0 <benchmark_body+0x110c>
80001188:	0247a283          	lw	x5,36(x15)
8000118c:	0287af83          	lw	x31,40(x15)
80001190:	07f2d063          	bge	x5,x31,800011f0 <benchmark_body+0x110c>
80001194:	02c7a883          	lw	x17,44(x15)
80001198:	01f283b3          	add	x7,x5,x31
8000119c:	0317a223          	sw	x17,36(x15)
800011a0:	0006a883          	lw	x17,0(x13)
800011a4:	ffc88893          	addi	x17,x17,-4
800011a8:	0116a023          	sw	x17,0(x13)
800011ac:	04072883          	lw	x17,64(x14)
800011b0:	00289893          	slli	x17,x17,0x2
800011b4:	011788b3          	add	x17,x15,x17
800011b8:	0058a623          	sw	x5,12(x17)
800011bc:	04072883          	lw	x17,64(x14)
800011c0:	00188893          	addi	x17,x17,1
800011c4:	00289893          	slli	x17,x17,0x2
800011c8:	011788b3          	add	x17,x15,x17
800011cc:	01f8a623          	sw	x31,12(x17)
800011d0:	04072883          	lw	x17,64(x14)
800011d4:	00288893          	addi	x17,x17,2
800011d8:	00289893          	slli	x17,x17,0x2
800011dc:	011788b3          	add	x17,x15,x17
800011e0:	0078a623          	sw	x7,12(x17)
800011e4:	04072883          	lw	x17,64(x14)
800011e8:	00388893          	addi	x17,x17,3
800011ec:	05172023          	sw	x17,64(x14)
800011f0:	0006a883          	lw	x17,0(x13)
800011f4:	0915d663          	bge	x11,x17,80001280 <benchmark_body+0x119c>
800011f8:	04072883          	lw	x17,64(x14)
800011fc:	09164263          	blt	x12,x17,80001280 <benchmark_body+0x119c>
80001200:	0287af83          	lw	x31,40(x15)
80001204:	0347a883          	lw	x17,52(x15)
80001208:	071f9c63          	bne	x31,x17,80001280 <benchmark_body+0x119c>
8000120c:	0287af83          	lw	x31,40(x15)
80001210:	02c7a883          	lw	x17,44(x15)
80001214:	071f9663          	bne	x31,x17,80001280 <benchmark_body+0x119c>
80001218:	0247a283          	lw	x5,36(x15)
8000121c:	0287af83          	lw	x31,40(x15)
80001220:	07f2d063          	bge	x5,x31,80001280 <benchmark_body+0x119c>
80001224:	0307a883          	lw	x17,48(x15)
80001228:	01f283b3          	add	x7,x5,x31
8000122c:	0317a223          	sw	x17,36(x15)
80001230:	0006a883          	lw	x17,0(x13)
80001234:	ffc88893          	addi	x17,x17,-4
80001238:	0116a023          	sw	x17,0(x13)
8000123c:	04072883          	lw	x17,64(x14)
80001240:	00289893          	slli	x17,x17,0x2
80001244:	011788b3          	add	x17,x15,x17
80001248:	0058a623          	sw	x5,12(x17)
8000124c:	04072883          	lw	x17,64(x14)
80001250:	00188893          	addi	x17,x17,1
80001254:	00289893          	slli	x17,x17,0x2
80001258:	011788b3          	add	x17,x15,x17
8000125c:	01f8a623          	sw	x31,12(x17)
80001260:	04072883          	lw	x17,64(x14)
80001264:	00288893          	addi	x17,x17,2
80001268:	00289893          	slli	x17,x17,0x2
8000126c:	011788b3          	add	x17,x15,x17
80001270:	0078a623          	sw	x7,12(x17)
80001274:	04072883          	lw	x17,64(x14)
80001278:	00388893          	addi	x17,x17,3
8000127c:	05172023          	sw	x17,64(x14)
80001280:	0006a883          	lw	x17,0(x13)
80001284:	0915d663          	bge	x11,x17,80001310 <benchmark_body+0x122c>
80001288:	04072883          	lw	x17,64(x14)
8000128c:	09164263          	blt	x12,x17,80001310 <benchmark_body+0x122c>
80001290:	0287af83          	lw	x31,40(x15)
80001294:	0347a883          	lw	x17,52(x15)
80001298:	071f9c63          	bne	x31,x17,80001310 <benchmark_body+0x122c>
8000129c:	0287af83          	lw	x31,40(x15)
800012a0:	0307a883          	lw	x17,48(x15)
800012a4:	071f9663          	bne	x31,x17,80001310 <benchmark_body+0x122c>
800012a8:	0247a283          	lw	x5,36(x15)
800012ac:	0287af83          	lw	x31,40(x15)
800012b0:	07f2d063          	bge	x5,x31,80001310 <benchmark_body+0x122c>
800012b4:	02c7a883          	lw	x17,44(x15)
800012b8:	01f283b3          	add	x7,x5,x31
800012bc:	0317a223          	sw	x17,36(x15)
800012c0:	0006a883          	lw	x17,0(x13)
800012c4:	ffc88893          	addi	x17,x17,-4
800012c8:	0116a023          	sw	x17,0(x13)
800012cc:	04072883          	lw	x17,64(x14)
800012d0:	00289893          	slli	x17,x17,0x2
800012d4:	011788b3          	add	x17,x15,x17
800012d8:	0058a623          	sw	x5,12(x17)
800012dc:	04072883          	lw	x17,64(x14)
800012e0:	00188893          	addi	x17,x17,1
800012e4:	00289893          	slli	x17,x17,0x2
800012e8:	011788b3          	add	x17,x15,x17
800012ec:	01f8a623          	sw	x31,12(x17)
800012f0:	04072883          	lw	x17,64(x14)
800012f4:	00288893          	addi	x17,x17,2
800012f8:	00289893          	slli	x17,x17,0x2
800012fc:	011788b3          	add	x17,x15,x17
80001300:	0078a623          	sw	x7,12(x17)
80001304:	04072883          	lw	x17,64(x14)
80001308:	00388893          	addi	x17,x17,3
8000130c:	05172023          	sw	x17,64(x14)
80001310:	0006a883          	lw	x17,0(x13)
80001314:	0915d663          	bge	x11,x17,800013a0 <benchmark_body+0x12bc>
80001318:	04072883          	lw	x17,64(x14)
8000131c:	09164263          	blt	x12,x17,800013a0 <benchmark_body+0x12bc>
80001320:	02c7af83          	lw	x31,44(x15)
80001324:	0287a883          	lw	x17,40(x15)
80001328:	071f9c63          	bne	x31,x17,800013a0 <benchmark_body+0x12bc>
8000132c:	02c7af83          	lw	x31,44(x15)
80001330:	0347a883          	lw	x17,52(x15)
80001334:	071f9663          	bne	x31,x17,800013a0 <benchmark_body+0x12bc>
80001338:	0247a283          	lw	x5,36(x15)
8000133c:	02c7af83          	lw	x31,44(x15)
80001340:	07f2d063          	bge	x5,x31,800013a0 <benchmark_body+0x12bc>
80001344:	0307a883          	lw	x17,48(x15)
80001348:	01f283b3          	add	x7,x5,x31
8000134c:	0317a223          	sw	x17,36(x15)
80001350:	0006a883          	lw	x17,0(x13)
80001354:	ffc88893          	addi	x17,x17,-4
80001358:	0116a023          	sw	x17,0(x13)
8000135c:	04072883          	lw	x17,64(x14)
80001360:	00289893          	slli	x17,x17,0x2
80001364:	011788b3          	add	x17,x15,x17
80001368:	0058a623          	sw	x5,12(x17)
8000136c:	04072883          	lw	x17,64(x14)
80001370:	00188893          	addi	x17,x17,1
80001374:	00289893          	slli	x17,x17,0x2
80001378:	011788b3          	add	x17,x15,x17
8000137c:	01f8a623          	sw	x31,12(x17)
80001380:	04072883          	lw	x17,64(x14)
80001384:	00288893          	addi	x17,x17,2
80001388:	00289893          	slli	x17,x17,0x2
8000138c:	011788b3          	add	x17,x15,x17
80001390:	0078a623          	sw	x7,12(x17)
80001394:	04072883          	lw	x17,64(x14)
80001398:	00388893          	addi	x17,x17,3
8000139c:	05172023          	sw	x17,64(x14)
800013a0:	0006a883          	lw	x17,0(x13)
800013a4:	0915d663          	bge	x11,x17,80001430 <benchmark_body+0x134c>
800013a8:	04072883          	lw	x17,64(x14)
800013ac:	09164263          	blt	x12,x17,80001430 <benchmark_body+0x134c>
800013b0:	02c7af83          	lw	x31,44(x15)
800013b4:	0307a883          	lw	x17,48(x15)
800013b8:	071f9c63          	bne	x31,x17,80001430 <benchmark_body+0x134c>
800013bc:	02c7af83          	lw	x31,44(x15)
800013c0:	0347a883          	lw	x17,52(x15)
800013c4:	071f9663          	bne	x31,x17,80001430 <benchmark_body+0x134c>
800013c8:	0247a283          	lw	x5,36(x15)
800013cc:	02c7af83          	lw	x31,44(x15)
800013d0:	07f2d063          	bge	x5,x31,80001430 <benchmark_body+0x134c>
800013d4:	0287a883          	lw	x17,40(x15)
800013d8:	01f283b3          	add	x7,x5,x31
800013dc:	0317a223          	sw	x17,36(x15)
800013e0:	0006a883          	lw	x17,0(x13)
800013e4:	ffc88893          	addi	x17,x17,-4
800013e8:	0116a023          	sw	x17,0(x13)
800013ec:	04072883          	lw	x17,64(x14)
800013f0:	00289893          	slli	x17,x17,0x2
800013f4:	011788b3          	add	x17,x15,x17
800013f8:	0058a623          	sw	x5,12(x17)
800013fc:	04072883          	lw	x17,64(x14)
80001400:	00188893          	addi	x17,x17,1
80001404:	00289893          	slli	x17,x17,0x2
80001408:	011788b3          	add	x17,x15,x17
8000140c:	01f8a623          	sw	x31,12(x17)
80001410:	04072883          	lw	x17,64(x14)
80001414:	00288893          	addi	x17,x17,2
80001418:	00289893          	slli	x17,x17,0x2
8000141c:	011788b3          	add	x17,x15,x17
80001420:	0078a623          	sw	x7,12(x17)
80001424:	04072883          	lw	x17,64(x14)
80001428:	00388893          	addi	x17,x17,3
8000142c:	05172023          	sw	x17,64(x14)
80001430:	0006a883          	lw	x17,0(x13)
80001434:	0915d663          	bge	x11,x17,800014c0 <benchmark_body+0x13dc>
80001438:	04072883          	lw	x17,64(x14)
8000143c:	09164263          	blt	x12,x17,800014c0 <benchmark_body+0x13dc>
80001440:	02c7af83          	lw	x31,44(x15)
80001444:	0347a883          	lw	x17,52(x15)
80001448:	071f9c63          	bne	x31,x17,800014c0 <benchmark_body+0x13dc>
8000144c:	02c7af83          	lw	x31,44(x15)
80001450:	0287a883          	lw	x17,40(x15)
80001454:	071f9663          	bne	x31,x17,800014c0 <benchmark_body+0x13dc>
80001458:	0247a283          	lw	x5,36(x15)
8000145c:	02c7af83          	lw	x31,44(x15)
80001460:	07f2d063          	bge	x5,x31,800014c0 <benchmark_body+0x13dc>
80001464:	0307a883          	lw	x17,48(x15)
80001468:	01f283b3          	add	x7,x5,x31
8000146c:	0317a223          	sw	x17,36(x15)
80001470:	0006a883          	lw	x17,0(x13)
80001474:	ffc88893          	addi	x17,x17,-4
80001478:	0116a023          	sw	x17,0(x13)
8000147c:	04072883          	lw	x17,64(x14)
80001480:	00289893          	slli	x17,x17,0x2
80001484:	011788b3          	add	x17,x15,x17
80001488:	0058a623          	sw	x5,12(x17)
8000148c:	04072883          	lw	x17,64(x14)
80001490:	00188893          	addi	x17,x17,1
80001494:	00289893          	slli	x17,x17,0x2
80001498:	011788b3          	add	x17,x15,x17
8000149c:	01f8a623          	sw	x31,12(x17)
800014a0:	04072883          	lw	x17,64(x14)
800014a4:	00288893          	addi	x17,x17,2
800014a8:	00289893          	slli	x17,x17,0x2
800014ac:	011788b3          	add	x17,x15,x17
800014b0:	0078a623          	sw	x7,12(x17)
800014b4:	04072883          	lw	x17,64(x14)
800014b8:	00388893          	addi	x17,x17,3
800014bc:	05172023          	sw	x17,64(x14)
800014c0:	0006a883          	lw	x17,0(x13)
800014c4:	0915d663          	bge	x11,x17,80001550 <benchmark_body+0x146c>
800014c8:	04072883          	lw	x17,64(x14)
800014cc:	09164263          	blt	x12,x17,80001550 <benchmark_body+0x146c>
800014d0:	02c7af83          	lw	x31,44(x15)
800014d4:	0347a883          	lw	x17,52(x15)
800014d8:	071f9c63          	bne	x31,x17,80001550 <benchmark_body+0x146c>
800014dc:	02c7af83          	lw	x31,44(x15)
800014e0:	0307a883          	lw	x17,48(x15)
800014e4:	071f9663          	bne	x31,x17,80001550 <benchmark_body+0x146c>
800014e8:	0247a283          	lw	x5,36(x15)
800014ec:	02c7af83          	lw	x31,44(x15)
800014f0:	07f2d063          	bge	x5,x31,80001550 <benchmark_body+0x146c>
800014f4:	0287a883          	lw	x17,40(x15)
800014f8:	01f283b3          	add	x7,x5,x31
800014fc:	0317a223          	sw	x17,36(x15)
80001500:	0006a883          	lw	x17,0(x13)
80001504:	ffc88893          	addi	x17,x17,-4
80001508:	0116a023          	sw	x17,0(x13)
8000150c:	04072883          	lw	x17,64(x14)
80001510:	00289893          	slli	x17,x17,0x2
80001514:	011788b3          	add	x17,x15,x17
80001518:	0058a623          	sw	x5,12(x17)
8000151c:	04072883          	lw	x17,64(x14)
80001520:	00188893          	addi	x17,x17,1
80001524:	00289893          	slli	x17,x17,0x2
80001528:	011788b3          	add	x17,x15,x17
8000152c:	01f8a623          	sw	x31,12(x17)
80001530:	04072883          	lw	x17,64(x14)
80001534:	00288893          	addi	x17,x17,2
80001538:	00289893          	slli	x17,x17,0x2
8000153c:	011788b3          	add	x17,x15,x17
80001540:	0078a623          	sw	x7,12(x17)
80001544:	04072883          	lw	x17,64(x14)
80001548:	00388893          	addi	x17,x17,3
8000154c:	05172023          	sw	x17,64(x14)
80001550:	0006a883          	lw	x17,0(x13)
80001554:	0915d663          	bge	x11,x17,800015e0 <benchmark_body+0x14fc>
80001558:	04072883          	lw	x17,64(x14)
8000155c:	09164263          	blt	x12,x17,800015e0 <benchmark_body+0x14fc>
80001560:	0307af83          	lw	x31,48(x15)
80001564:	0287a883          	lw	x17,40(x15)
80001568:	071f9c63          	bne	x31,x17,800015e0 <benchmark_body+0x14fc>
8000156c:	0307af83          	lw	x31,48(x15)
80001570:	0347a883          	lw	x17,52(x15)
80001574:	071f9663          	bne	x31,x17,800015e0 <benchmark_body+0x14fc>
80001578:	0247a283          	lw	x5,36(x15)
8000157c:	0307af83          	lw	x31,48(x15)
80001580:	07f2d063          	bge	x5,x31,800015e0 <benchmark_body+0x14fc>
80001584:	02c7a883          	lw	x17,44(x15)
80001588:	01f283b3          	add	x7,x5,x31
8000158c:	0317a223          	sw	x17,36(x15)
80001590:	0006a883          	lw	x17,0(x13)
80001594:	ffc88893          	addi	x17,x17,-4
80001598:	0116a023          	sw	x17,0(x13)
8000159c:	04072883          	lw	x17,64(x14)
800015a0:	00289893          	slli	x17,x17,0x2
800015a4:	011788b3          	add	x17,x15,x17
800015a8:	0058a623          	sw	x5,12(x17)
800015ac:	04072883          	lw	x17,64(x14)
800015b0:	00188893          	addi	x17,x17,1
800015b4:	00289893          	slli	x17,x17,0x2
800015b8:	011788b3          	add	x17,x15,x17
800015bc:	01f8a623          	sw	x31,12(x17)
800015c0:	04072883          	lw	x17,64(x14)
800015c4:	00288893          	addi	x17,x17,2
800015c8:	00289893          	slli	x17,x17,0x2
800015cc:	011788b3          	add	x17,x15,x17
800015d0:	0078a623          	sw	x7,12(x17)
800015d4:	04072883          	lw	x17,64(x14)
800015d8:	00388893          	addi	x17,x17,3
800015dc:	05172023          	sw	x17,64(x14)
800015e0:	0006a883          	lw	x17,0(x13)
800015e4:	0915d663          	bge	x11,x17,80001670 <benchmark_body+0x158c>
800015e8:	04072883          	lw	x17,64(x14)
800015ec:	09164263          	blt	x12,x17,80001670 <benchmark_body+0x158c>
800015f0:	0307af83          	lw	x31,48(x15)
800015f4:	02c7a883          	lw	x17,44(x15)
800015f8:	071f9c63          	bne	x31,x17,80001670 <benchmark_body+0x158c>
800015fc:	0307af83          	lw	x31,48(x15)
80001600:	0347a883          	lw	x17,52(x15)
80001604:	071f9663          	bne	x31,x17,80001670 <benchmark_body+0x158c>
80001608:	0247a283          	lw	x5,36(x15)
8000160c:	0307af83          	lw	x31,48(x15)
80001610:	07f2d063          	bge	x5,x31,80001670 <benchmark_body+0x158c>
80001614:	0287a883          	lw	x17,40(x15)
80001618:	01f283b3          	add	x7,x5,x31
8000161c:	0317a223          	sw	x17,36(x15)
80001620:	0006a883          	lw	x17,0(x13)
80001624:	ffc88893          	addi	x17,x17,-4
80001628:	0116a023          	sw	x17,0(x13)
8000162c:	04072883          	lw	x17,64(x14)
80001630:	00289893          	slli	x17,x17,0x2
80001634:	011788b3          	add	x17,x15,x17
80001638:	0058a623          	sw	x5,12(x17)
8000163c:	04072883          	lw	x17,64(x14)
80001640:	00188893          	addi	x17,x17,1
80001644:	00289893          	slli	x17,x17,0x2
80001648:	011788b3          	add	x17,x15,x17
8000164c:	01f8a623          	sw	x31,12(x17)
80001650:	04072883          	lw	x17,64(x14)
80001654:	00288893          	addi	x17,x17,2
80001658:	00289893          	slli	x17,x17,0x2
8000165c:	011788b3          	add	x17,x15,x17
80001660:	0078a623          	sw	x7,12(x17)
80001664:	04072883          	lw	x17,64(x14)
80001668:	00388893          	addi	x17,x17,3
8000166c:	05172023          	sw	x17,64(x14)
80001670:	0006a883          	lw	x17,0(x13)
80001674:	0915d663          	bge	x11,x17,80001700 <benchmark_body+0x161c>
80001678:	04072883          	lw	x17,64(x14)
8000167c:	09164263          	blt	x12,x17,80001700 <benchmark_body+0x161c>
80001680:	0307af83          	lw	x31,48(x15)
80001684:	0347a883          	lw	x17,52(x15)
80001688:	071f9c63          	bne	x31,x17,80001700 <benchmark_body+0x161c>
8000168c:	0307af83          	lw	x31,48(x15)
80001690:	0287a883          	lw	x17,40(x15)
80001694:	071f9663          	bne	x31,x17,80001700 <benchmark_body+0x161c>
80001698:	0247a283          	lw	x5,36(x15)
8000169c:	0307af83          	lw	x31,48(x15)
800016a0:	07f2d063          	bge	x5,x31,80001700 <benchmark_body+0x161c>
800016a4:	02c7a883          	lw	x17,44(x15)
800016a8:	01f283b3          	add	x7,x5,x31
800016ac:	0317a223          	sw	x17,36(x15)
800016b0:	0006a883          	lw	x17,0(x13)
800016b4:	ffc88893          	addi	x17,x17,-4
800016b8:	0116a023          	sw	x17,0(x13)
800016bc:	04072883          	lw	x17,64(x14)
800016c0:	00289893          	slli	x17,x17,0x2
800016c4:	011788b3          	add	x17,x15,x17
800016c8:	0058a623          	sw	x5,12(x17)
800016cc:	04072883          	lw	x17,64(x14)
800016d0:	00188893          	addi	x17,x17,1
800016d4:	00289893          	slli	x17,x17,0x2
800016d8:	011788b3          	add	x17,x15,x17
800016dc:	01f8a623          	sw	x31,12(x17)
800016e0:	04072883          	lw	x17,64(x14)
800016e4:	00288893          	addi	x17,x17,2
800016e8:	00289893          	slli	x17,x17,0x2
800016ec:	011788b3          	add	x17,x15,x17
800016f0:	0078a623          	sw	x7,12(x17)
800016f4:	04072883          	lw	x17,64(x14)
800016f8:	00388893          	addi	x17,x17,3
800016fc:	05172023          	sw	x17,64(x14)
80001700:	0006a883          	lw	x17,0(x13)
80001704:	0915d663          	bge	x11,x17,80001790 <benchmark_body+0x16ac>
80001708:	04072883          	lw	x17,64(x14)
8000170c:	09164263          	blt	x12,x17,80001790 <benchmark_body+0x16ac>
80001710:	0307af83          	lw	x31,48(x15)
80001714:	0347a883          	lw	x17,52(x15)
80001718:	071f9c63          	bne	x31,x17,80001790 <benchmark_body+0x16ac>
8000171c:	0307af83          	lw	x31,48(x15)
80001720:	02c7a883          	lw	x17,44(x15)
80001724:	071f9663          	bne	x31,x17,80001790 <benchmark_body+0x16ac>
80001728:	0247a283          	lw	x5,36(x15)
8000172c:	0307af83          	lw	x31,48(x15)
80001730:	07f2d063          	bge	x5,x31,80001790 <benchmark_body+0x16ac>
80001734:	0287a883          	lw	x17,40(x15)
80001738:	01f283b3          	add	x7,x5,x31
8000173c:	0317a223          	sw	x17,36(x15)
80001740:	0006a883          	lw	x17,0(x13)
80001744:	ffc88893          	addi	x17,x17,-4
80001748:	0116a023          	sw	x17,0(x13)
8000174c:	04072883          	lw	x17,64(x14)
80001750:	00289893          	slli	x17,x17,0x2
80001754:	011788b3          	add	x17,x15,x17
80001758:	0058a623          	sw	x5,12(x17)
8000175c:	04072883          	lw	x17,64(x14)
80001760:	00188893          	addi	x17,x17,1
80001764:	00289893          	slli	x17,x17,0x2
80001768:	011788b3          	add	x17,x15,x17
8000176c:	01f8a623          	sw	x31,12(x17)
80001770:	04072883          	lw	x17,64(x14)
80001774:	00288893          	addi	x17,x17,2
80001778:	00289893          	slli	x17,x17,0x2
8000177c:	011788b3          	add	x17,x15,x17
80001780:	0078a623          	sw	x7,12(x17)
80001784:	04072883          	lw	x17,64(x14)
80001788:	00388893          	addi	x17,x17,3
8000178c:	05172023          	sw	x17,64(x14)
80001790:	0006a883          	lw	x17,0(x13)
80001794:	0915d663          	bge	x11,x17,80001820 <benchmark_body+0x173c>
80001798:	04072883          	lw	x17,64(x14)
8000179c:	09164263          	blt	x12,x17,80001820 <benchmark_body+0x173c>
800017a0:	0347af83          	lw	x31,52(x15)
800017a4:	0287a883          	lw	x17,40(x15)
800017a8:	071f9c63          	bne	x31,x17,80001820 <benchmark_body+0x173c>
800017ac:	0347af83          	lw	x31,52(x15)
800017b0:	02c7a883          	lw	x17,44(x15)
800017b4:	071f9663          	bne	x31,x17,80001820 <benchmark_body+0x173c>
800017b8:	0247a283          	lw	x5,36(x15)
800017bc:	0347af83          	lw	x31,52(x15)
800017c0:	07f2d063          	bge	x5,x31,80001820 <benchmark_body+0x173c>
800017c4:	0307a883          	lw	x17,48(x15)
800017c8:	01f283b3          	add	x7,x5,x31
800017cc:	0317a223          	sw	x17,36(x15)
800017d0:	0006a883          	lw	x17,0(x13)
800017d4:	ffc88893          	addi	x17,x17,-4
800017d8:	0116a023          	sw	x17,0(x13)
800017dc:	04072883          	lw	x17,64(x14)
800017e0:	00289893          	slli	x17,x17,0x2
800017e4:	011788b3          	add	x17,x15,x17
800017e8:	0058a623          	sw	x5,12(x17)
800017ec:	04072883          	lw	x17,64(x14)
800017f0:	00188893          	addi	x17,x17,1
800017f4:	00289893          	slli	x17,x17,0x2
800017f8:	011788b3          	add	x17,x15,x17
800017fc:	01f8a623          	sw	x31,12(x17)
80001800:	04072883          	lw	x17,64(x14)
80001804:	00288893          	addi	x17,x17,2
80001808:	00289893          	slli	x17,x17,0x2
8000180c:	011788b3          	add	x17,x15,x17
80001810:	0078a623          	sw	x7,12(x17)
80001814:	04072883          	lw	x17,64(x14)
80001818:	00388893          	addi	x17,x17,3
8000181c:	05172023          	sw	x17,64(x14)
80001820:	0006a883          	lw	x17,0(x13)
80001824:	0915d663          	bge	x11,x17,800018b0 <benchmark_body+0x17cc>
80001828:	04072883          	lw	x17,64(x14)
8000182c:	09164263          	blt	x12,x17,800018b0 <benchmark_body+0x17cc>
80001830:	0347af83          	lw	x31,52(x15)
80001834:	0287a883          	lw	x17,40(x15)
80001838:	071f9c63          	bne	x31,x17,800018b0 <benchmark_body+0x17cc>
8000183c:	0347af83          	lw	x31,52(x15)
80001840:	0307a883          	lw	x17,48(x15)
80001844:	071f9663          	bne	x31,x17,800018b0 <benchmark_body+0x17cc>
80001848:	0247a283          	lw	x5,36(x15)
8000184c:	0347af83          	lw	x31,52(x15)
80001850:	07f2d063          	bge	x5,x31,800018b0 <benchmark_body+0x17cc>
80001854:	02c7a883          	lw	x17,44(x15)
80001858:	01f283b3          	add	x7,x5,x31
8000185c:	0317a223          	sw	x17,36(x15)
80001860:	0006a883          	lw	x17,0(x13)
80001864:	ffc88893          	addi	x17,x17,-4
80001868:	0116a023          	sw	x17,0(x13)
8000186c:	04072883          	lw	x17,64(x14)
80001870:	00289893          	slli	x17,x17,0x2
80001874:	011788b3          	add	x17,x15,x17
80001878:	0058a623          	sw	x5,12(x17)
8000187c:	04072883          	lw	x17,64(x14)
80001880:	00188893          	addi	x17,x17,1
80001884:	00289893          	slli	x17,x17,0x2
80001888:	011788b3          	add	x17,x15,x17
8000188c:	01f8a623          	sw	x31,12(x17)
80001890:	04072883          	lw	x17,64(x14)
80001894:	00288893          	addi	x17,x17,2
80001898:	00289893          	slli	x17,x17,0x2
8000189c:	011788b3          	add	x17,x15,x17
800018a0:	0078a623          	sw	x7,12(x17)
800018a4:	04072883          	lw	x17,64(x14)
800018a8:	00388893          	addi	x17,x17,3
800018ac:	05172023          	sw	x17,64(x14)
800018b0:	0006a883          	lw	x17,0(x13)
800018b4:	0915d663          	bge	x11,x17,80001940 <benchmark_body+0x185c>
800018b8:	04072883          	lw	x17,64(x14)
800018bc:	09164263          	blt	x12,x17,80001940 <benchmark_body+0x185c>
800018c0:	0347af83          	lw	x31,52(x15)
800018c4:	02c7a883          	lw	x17,44(x15)
800018c8:	071f9c63          	bne	x31,x17,80001940 <benchmark_body+0x185c>
800018cc:	0347af83          	lw	x31,52(x15)
800018d0:	0287a883          	lw	x17,40(x15)
800018d4:	071f9663          	bne	x31,x17,80001940 <benchmark_body+0x185c>
800018d8:	0247a283          	lw	x5,36(x15)
800018dc:	0347af83          	lw	x31,52(x15)
800018e0:	07f2d063          	bge	x5,x31,80001940 <benchmark_body+0x185c>
800018e4:	0307a883          	lw	x17,48(x15)
800018e8:	01f283b3          	add	x7,x5,x31
800018ec:	0317a223          	sw	x17,36(x15)
800018f0:	0006a883          	lw	x17,0(x13)
800018f4:	ffc88893          	addi	x17,x17,-4
800018f8:	0116a023          	sw	x17,0(x13)
800018fc:	04072883          	lw	x17,64(x14)
80001900:	00289893          	slli	x17,x17,0x2
80001904:	011788b3          	add	x17,x15,x17
80001908:	0058a623          	sw	x5,12(x17)
8000190c:	04072883          	lw	x17,64(x14)
80001910:	00188893          	addi	x17,x17,1
80001914:	00289893          	slli	x17,x17,0x2
80001918:	011788b3          	add	x17,x15,x17
8000191c:	01f8a623          	sw	x31,12(x17)
80001920:	04072883          	lw	x17,64(x14)
80001924:	00288893          	addi	x17,x17,2
80001928:	00289893          	slli	x17,x17,0x2
8000192c:	011788b3          	add	x17,x15,x17
80001930:	0078a623          	sw	x7,12(x17)
80001934:	04072883          	lw	x17,64(x14)
80001938:	00388893          	addi	x17,x17,3
8000193c:	05172023          	sw	x17,64(x14)
80001940:	0006a883          	lw	x17,0(x13)
80001944:	0915d663          	bge	x11,x17,800019d0 <benchmark_body+0x18ec>
80001948:	04072883          	lw	x17,64(x14)
8000194c:	09164263          	blt	x12,x17,800019d0 <benchmark_body+0x18ec>
80001950:	0347af83          	lw	x31,52(x15)
80001954:	02c7a883          	lw	x17,44(x15)
80001958:	071f9c63          	bne	x31,x17,800019d0 <benchmark_body+0x18ec>
8000195c:	0347af83          	lw	x31,52(x15)
80001960:	0307a883          	lw	x17,48(x15)
80001964:	071f9663          	bne	x31,x17,800019d0 <benchmark_body+0x18ec>
80001968:	0247a283          	lw	x5,36(x15)
8000196c:	0347af83          	lw	x31,52(x15)
80001970:	07f2d063          	bge	x5,x31,800019d0 <benchmark_body+0x18ec>
80001974:	0287a883          	lw	x17,40(x15)
80001978:	01f283b3          	add	x7,x5,x31
8000197c:	0317a223          	sw	x17,36(x15)
80001980:	0006a883          	lw	x17,0(x13)
80001984:	ffc88893          	addi	x17,x17,-4
80001988:	0116a023          	sw	x17,0(x13)
8000198c:	04072883          	lw	x17,64(x14)
80001990:	00289893          	slli	x17,x17,0x2
80001994:	011788b3          	add	x17,x15,x17
80001998:	0058a623          	sw	x5,12(x17)
8000199c:	04072883          	lw	x17,64(x14)
800019a0:	00188893          	addi	x17,x17,1
800019a4:	00289893          	slli	x17,x17,0x2
800019a8:	011788b3          	add	x17,x15,x17
800019ac:	01f8a623          	sw	x31,12(x17)
800019b0:	04072883          	lw	x17,64(x14)
800019b4:	00288893          	addi	x17,x17,2
800019b8:	00289893          	slli	x17,x17,0x2
800019bc:	011788b3          	add	x17,x15,x17
800019c0:	0078a623          	sw	x7,12(x17)
800019c4:	04072883          	lw	x17,64(x14)
800019c8:	00388893          	addi	x17,x17,3
800019cc:	05172023          	sw	x17,64(x14)
800019d0:	0006a883          	lw	x17,0(x13)
800019d4:	0915d663          	bge	x11,x17,80001a60 <benchmark_body+0x197c>
800019d8:	04072883          	lw	x17,64(x14)
800019dc:	09164263          	blt	x12,x17,80001a60 <benchmark_body+0x197c>
800019e0:	0347af83          	lw	x31,52(x15)
800019e4:	0307a883          	lw	x17,48(x15)
800019e8:	071f9c63          	bne	x31,x17,80001a60 <benchmark_body+0x197c>
800019ec:	0347af83          	lw	x31,52(x15)
800019f0:	0287a883          	lw	x17,40(x15)
800019f4:	071f9663          	bne	x31,x17,80001a60 <benchmark_body+0x197c>
800019f8:	0247a283          	lw	x5,36(x15)
800019fc:	0347af83          	lw	x31,52(x15)
80001a00:	07f2d063          	bge	x5,x31,80001a60 <benchmark_body+0x197c>
80001a04:	02c7a883          	lw	x17,44(x15)
80001a08:	01f283b3          	add	x7,x5,x31
80001a0c:	0317a223          	sw	x17,36(x15)
80001a10:	0006a883          	lw	x17,0(x13)
80001a14:	ffc88893          	addi	x17,x17,-4
80001a18:	0116a023          	sw	x17,0(x13)
80001a1c:	04072883          	lw	x17,64(x14)
80001a20:	00289893          	slli	x17,x17,0x2
80001a24:	011788b3          	add	x17,x15,x17
80001a28:	0058a623          	sw	x5,12(x17)
80001a2c:	04072883          	lw	x17,64(x14)
80001a30:	00188893          	addi	x17,x17,1
80001a34:	00289893          	slli	x17,x17,0x2
80001a38:	011788b3          	add	x17,x15,x17
80001a3c:	01f8a623          	sw	x31,12(x17)
80001a40:	04072883          	lw	x17,64(x14)
80001a44:	00288893          	addi	x17,x17,2
80001a48:	00289893          	slli	x17,x17,0x2
80001a4c:	011788b3          	add	x17,x15,x17
80001a50:	0078a623          	sw	x7,12(x17)
80001a54:	04072883          	lw	x17,64(x14)
80001a58:	00388893          	addi	x17,x17,3
80001a5c:	05172023          	sw	x17,64(x14)
80001a60:	0006a883          	lw	x17,0(x13)
80001a64:	0915d663          	bge	x11,x17,80001af0 <benchmark_body+0x1a0c>
80001a68:	04072883          	lw	x17,64(x14)
80001a6c:	09164263          	blt	x12,x17,80001af0 <benchmark_body+0x1a0c>
80001a70:	0347af83          	lw	x31,52(x15)
80001a74:	0307a883          	lw	x17,48(x15)
80001a78:	071f9c63          	bne	x31,x17,80001af0 <benchmark_body+0x1a0c>
80001a7c:	0347af83          	lw	x31,52(x15)
80001a80:	02c7a883          	lw	x17,44(x15)
80001a84:	071f9663          	bne	x31,x17,80001af0 <benchmark_body+0x1a0c>
80001a88:	0247a283          	lw	x5,36(x15)
80001a8c:	0347af83          	lw	x31,52(x15)
80001a90:	07f2d063          	bge	x5,x31,80001af0 <benchmark_body+0x1a0c>
80001a94:	0287a883          	lw	x17,40(x15)
80001a98:	01f283b3          	add	x7,x5,x31
80001a9c:	0317a223          	sw	x17,36(x15)
80001aa0:	0006a883          	lw	x17,0(x13)
80001aa4:	ffc88893          	addi	x17,x17,-4
80001aa8:	0116a023          	sw	x17,0(x13)
80001aac:	04072883          	lw	x17,64(x14)
80001ab0:	00289893          	slli	x17,x17,0x2
80001ab4:	011788b3          	add	x17,x15,x17
80001ab8:	0058a623          	sw	x5,12(x17)
80001abc:	04072883          	lw	x17,64(x14)
80001ac0:	00188893          	addi	x17,x17,1
80001ac4:	00289893          	slli	x17,x17,0x2
80001ac8:	011788b3          	add	x17,x15,x17
80001acc:	01f8a623          	sw	x31,12(x17)
80001ad0:	04072883          	lw	x17,64(x14)
80001ad4:	00288893          	addi	x17,x17,2
80001ad8:	00289893          	slli	x17,x17,0x2
80001adc:	011788b3          	add	x17,x15,x17
80001ae0:	0078a623          	sw	x7,12(x17)
80001ae4:	04072883          	lw	x17,64(x14)
80001ae8:	00388893          	addi	x17,x17,3
80001aec:	05172023          	sw	x17,64(x14)
80001af0:	0006a883          	lw	x17,0(x13)
80001af4:	0915d663          	bge	x11,x17,80001b80 <benchmark_body+0x1a9c>
80001af8:	04072883          	lw	x17,64(x14)
80001afc:	09164263          	blt	x12,x17,80001b80 <benchmark_body+0x1a9c>
80001b00:	0247af83          	lw	x31,36(x15)
80001b04:	02c7a883          	lw	x17,44(x15)
80001b08:	071f9c63          	bne	x31,x17,80001b80 <benchmark_body+0x1a9c>
80001b0c:	0247af83          	lw	x31,36(x15)
80001b10:	0347a883          	lw	x17,52(x15)
80001b14:	071f9663          	bne	x31,x17,80001b80 <benchmark_body+0x1a9c>
80001b18:	0287a283          	lw	x5,40(x15)
80001b1c:	0247af83          	lw	x31,36(x15)
80001b20:	07f2d063          	bge	x5,x31,80001b80 <benchmark_body+0x1a9c>
80001b24:	0307a883          	lw	x17,48(x15)
80001b28:	01f283b3          	add	x7,x5,x31
80001b2c:	0317a223          	sw	x17,36(x15)
80001b30:	0006a883          	lw	x17,0(x13)
80001b34:	ffc88893          	addi	x17,x17,-4
80001b38:	0116a023          	sw	x17,0(x13)
80001b3c:	04072883          	lw	x17,64(x14)
80001b40:	00289893          	slli	x17,x17,0x2
80001b44:	011788b3          	add	x17,x15,x17
80001b48:	0058a623          	sw	x5,12(x17)
80001b4c:	04072883          	lw	x17,64(x14)
80001b50:	00188893          	addi	x17,x17,1
80001b54:	00289893          	slli	x17,x17,0x2
80001b58:	011788b3          	add	x17,x15,x17
80001b5c:	01f8a623          	sw	x31,12(x17)
80001b60:	04072883          	lw	x17,64(x14)
80001b64:	00288893          	addi	x17,x17,2
80001b68:	00289893          	slli	x17,x17,0x2
80001b6c:	011788b3          	add	x17,x15,x17
80001b70:	0078a623          	sw	x7,12(x17)
80001b74:	04072883          	lw	x17,64(x14)
80001b78:	00388893          	addi	x17,x17,3
80001b7c:	05172023          	sw	x17,64(x14)
80001b80:	0006a883          	lw	x17,0(x13)
80001b84:	0915d663          	bge	x11,x17,80001c10 <benchmark_body+0x1b2c>
80001b88:	04072883          	lw	x17,64(x14)
80001b8c:	09164263          	blt	x12,x17,80001c10 <benchmark_body+0x1b2c>
80001b90:	0247af83          	lw	x31,36(x15)
80001b94:	0307a883          	lw	x17,48(x15)
80001b98:	071f9c63          	bne	x31,x17,80001c10 <benchmark_body+0x1b2c>
80001b9c:	0247af83          	lw	x31,36(x15)
80001ba0:	0347a883          	lw	x17,52(x15)
80001ba4:	071f9663          	bne	x31,x17,80001c10 <benchmark_body+0x1b2c>
80001ba8:	0287a283          	lw	x5,40(x15)
80001bac:	0247af83          	lw	x31,36(x15)
80001bb0:	07f2d063          	bge	x5,x31,80001c10 <benchmark_body+0x1b2c>
80001bb4:	02c7a883          	lw	x17,44(x15)
80001bb8:	01f283b3          	add	x7,x5,x31
80001bbc:	0317a223          	sw	x17,36(x15)
80001bc0:	0006a883          	lw	x17,0(x13)
80001bc4:	ffc88893          	addi	x17,x17,-4
80001bc8:	0116a023          	sw	x17,0(x13)
80001bcc:	04072883          	lw	x17,64(x14)
80001bd0:	00289893          	slli	x17,x17,0x2
80001bd4:	011788b3          	add	x17,x15,x17
80001bd8:	0058a623          	sw	x5,12(x17)
80001bdc:	04072883          	lw	x17,64(x14)
80001be0:	00188893          	addi	x17,x17,1
80001be4:	00289893          	slli	x17,x17,0x2
80001be8:	011788b3          	add	x17,x15,x17
80001bec:	01f8a623          	sw	x31,12(x17)
80001bf0:	04072883          	lw	x17,64(x14)
80001bf4:	00288893          	addi	x17,x17,2
80001bf8:	00289893          	slli	x17,x17,0x2
80001bfc:	011788b3          	add	x17,x15,x17
80001c00:	0078a623          	sw	x7,12(x17)
80001c04:	04072883          	lw	x17,64(x14)
80001c08:	00388893          	addi	x17,x17,3
80001c0c:	05172023          	sw	x17,64(x14)
80001c10:	0006a883          	lw	x17,0(x13)
80001c14:	0915d663          	bge	x11,x17,80001ca0 <benchmark_body+0x1bbc>
80001c18:	04072883          	lw	x17,64(x14)
80001c1c:	09164263          	blt	x12,x17,80001ca0 <benchmark_body+0x1bbc>
80001c20:	0247af83          	lw	x31,36(x15)
80001c24:	0347a883          	lw	x17,52(x15)
80001c28:	071f9c63          	bne	x31,x17,80001ca0 <benchmark_body+0x1bbc>
80001c2c:	0247af83          	lw	x31,36(x15)
80001c30:	02c7a883          	lw	x17,44(x15)
80001c34:	071f9663          	bne	x31,x17,80001ca0 <benchmark_body+0x1bbc>
80001c38:	0287a283          	lw	x5,40(x15)
80001c3c:	0247af83          	lw	x31,36(x15)
80001c40:	07f2d063          	bge	x5,x31,80001ca0 <benchmark_body+0x1bbc>
80001c44:	0307a883          	lw	x17,48(x15)
80001c48:	01f283b3          	add	x7,x5,x31
80001c4c:	0317a223          	sw	x17,36(x15)
80001c50:	0006a883          	lw	x17,0(x13)
80001c54:	ffc88893          	addi	x17,x17,-4
80001c58:	0116a023          	sw	x17,0(x13)
80001c5c:	04072883          	lw	x17,64(x14)
80001c60:	00289893          	slli	x17,x17,0x2
80001c64:	011788b3          	add	x17,x15,x17
80001c68:	0058a623          	sw	x5,12(x17)
80001c6c:	04072883          	lw	x17,64(x14)
80001c70:	00188893          	addi	x17,x17,1
80001c74:	00289893          	slli	x17,x17,0x2
80001c78:	011788b3          	add	x17,x15,x17
80001c7c:	01f8a623          	sw	x31,12(x17)
80001c80:	04072883          	lw	x17,64(x14)
80001c84:	00288893          	addi	x17,x17,2
80001c88:	00289893          	slli	x17,x17,0x2
80001c8c:	011788b3          	add	x17,x15,x17
80001c90:	0078a623          	sw	x7,12(x17)
80001c94:	04072883          	lw	x17,64(x14)
80001c98:	00388893          	addi	x17,x17,3
80001c9c:	05172023          	sw	x17,64(x14)
80001ca0:	0006a883          	lw	x17,0(x13)
80001ca4:	0915d663          	bge	x11,x17,80001d30 <benchmark_body+0x1c4c>
80001ca8:	04072883          	lw	x17,64(x14)
80001cac:	09164263          	blt	x12,x17,80001d30 <benchmark_body+0x1c4c>
80001cb0:	0247af83          	lw	x31,36(x15)
80001cb4:	0347a883          	lw	x17,52(x15)
80001cb8:	071f9c63          	bne	x31,x17,80001d30 <benchmark_body+0x1c4c>
80001cbc:	0247af83          	lw	x31,36(x15)
80001cc0:	0307a883          	lw	x17,48(x15)
80001cc4:	071f9663          	bne	x31,x17,80001d30 <benchmark_body+0x1c4c>
80001cc8:	0287a283          	lw	x5,40(x15)
80001ccc:	0247af83          	lw	x31,36(x15)
80001cd0:	07f2d063          	bge	x5,x31,80001d30 <benchmark_body+0x1c4c>
80001cd4:	02c7a883          	lw	x17,44(x15)
80001cd8:	01f283b3          	add	x7,x5,x31
80001cdc:	0317a223          	sw	x17,36(x15)
80001ce0:	0006a883          	lw	x17,0(x13)
80001ce4:	ffc88893          	addi	x17,x17,-4
80001ce8:	0116a023          	sw	x17,0(x13)
80001cec:	04072883          	lw	x17,64(x14)
80001cf0:	00289893          	slli	x17,x17,0x2
80001cf4:	011788b3          	add	x17,x15,x17
80001cf8:	0058a623          	sw	x5,12(x17)
80001cfc:	04072883          	lw	x17,64(x14)
80001d00:	00188893          	addi	x17,x17,1
80001d04:	00289893          	slli	x17,x17,0x2
80001d08:	011788b3          	add	x17,x15,x17
80001d0c:	01f8a623          	sw	x31,12(x17)
80001d10:	04072883          	lw	x17,64(x14)
80001d14:	00288893          	addi	x17,x17,2
80001d18:	00289893          	slli	x17,x17,0x2
80001d1c:	011788b3          	add	x17,x15,x17
80001d20:	0078a623          	sw	x7,12(x17)
80001d24:	04072883          	lw	x17,64(x14)
80001d28:	00388893          	addi	x17,x17,3
80001d2c:	05172023          	sw	x17,64(x14)
80001d30:	0006a883          	lw	x17,0(x13)
80001d34:	0915d663          	bge	x11,x17,80001dc0 <benchmark_body+0x1cdc>
80001d38:	04072883          	lw	x17,64(x14)
80001d3c:	09164263          	blt	x12,x17,80001dc0 <benchmark_body+0x1cdc>
80001d40:	02c7af83          	lw	x31,44(x15)
80001d44:	0247a883          	lw	x17,36(x15)
80001d48:	071f9c63          	bne	x31,x17,80001dc0 <benchmark_body+0x1cdc>
80001d4c:	02c7af83          	lw	x31,44(x15)
80001d50:	0347a883          	lw	x17,52(x15)
80001d54:	071f9663          	bne	x31,x17,80001dc0 <benchmark_body+0x1cdc>
80001d58:	0287a283          	lw	x5,40(x15)
80001d5c:	02c7af83          	lw	x31,44(x15)
80001d60:	07f2d063          	bge	x5,x31,80001dc0 <benchmark_body+0x1cdc>
80001d64:	0307a883          	lw	x17,48(x15)
80001d68:	01f283b3          	add	x7,x5,x31
80001d6c:	0317a223          	sw	x17,36(x15)
80001d70:	0006a883          	lw	x17,0(x13)
80001d74:	ffc88893          	addi	x17,x17,-4
80001d78:	0116a023          	sw	x17,0(x13)
80001d7c:	04072883          	lw	x17,64(x14)
80001d80:	00289893          	slli	x17,x17,0x2
80001d84:	011788b3          	add	x17,x15,x17
80001d88:	0058a623          	sw	x5,12(x17)
80001d8c:	04072883          	lw	x17,64(x14)
80001d90:	00188893          	addi	x17,x17,1
80001d94:	00289893          	slli	x17,x17,0x2
80001d98:	011788b3          	add	x17,x15,x17
80001d9c:	01f8a623          	sw	x31,12(x17)
80001da0:	04072883          	lw	x17,64(x14)
80001da4:	00288893          	addi	x17,x17,2
80001da8:	00289893          	slli	x17,x17,0x2
80001dac:	011788b3          	add	x17,x15,x17
80001db0:	0078a623          	sw	x7,12(x17)
80001db4:	04072883          	lw	x17,64(x14)
80001db8:	00388893          	addi	x17,x17,3
80001dbc:	05172023          	sw	x17,64(x14)
80001dc0:	0006a883          	lw	x17,0(x13)
80001dc4:	0915d263          	bge	x11,x17,80001e48 <benchmark_body+0x1d64>
80001dc8:	04072883          	lw	x17,64(x14)
80001dcc:	07164e63          	blt	x12,x17,80001e48 <benchmark_body+0x1d64>
80001dd0:	02c7af83          	lw	x31,44(x15)
80001dd4:	0307a883          	lw	x17,48(x15)
80001dd8:	071f9863          	bne	x31,x17,80001e48 <benchmark_body+0x1d64>
80001ddc:	02c7af83          	lw	x31,44(x15)
80001de0:	0347a883          	lw	x17,52(x15)
80001de4:	071f9263          	bne	x31,x17,80001e48 <benchmark_body+0x1d64>
80001de8:	0287a283          	lw	x5,40(x15)
80001dec:	02c7af83          	lw	x31,44(x15)
80001df0:	05f2dc63          	bge	x5,x31,80001e48 <benchmark_body+0x1d64>
80001df4:	0006a883          	lw	x17,0(x13)
80001df8:	01f283b3          	add	x7,x5,x31
80001dfc:	ffc88893          	addi	x17,x17,-4
80001e00:	0116a023          	sw	x17,0(x13)
80001e04:	04072883          	lw	x17,64(x14)
80001e08:	00289893          	slli	x17,x17,0x2
80001e0c:	011788b3          	add	x17,x15,x17
80001e10:	0058a623          	sw	x5,12(x17)
80001e14:	04072883          	lw	x17,64(x14)
80001e18:	00188893          	addi	x17,x17,1
80001e1c:	00289893          	slli	x17,x17,0x2
80001e20:	011788b3          	add	x17,x15,x17
80001e24:	01f8a623          	sw	x31,12(x17)
80001e28:	04072883          	lw	x17,64(x14)
80001e2c:	00288893          	addi	x17,x17,2
80001e30:	00289893          	slli	x17,x17,0x2
80001e34:	011788b3          	add	x17,x15,x17
80001e38:	0078a623          	sw	x7,12(x17)
80001e3c:	04072883          	lw	x17,64(x14)
80001e40:	00388893          	addi	x17,x17,3
80001e44:	05172023          	sw	x17,64(x14)
80001e48:	0006a883          	lw	x17,0(x13)
80001e4c:	0915d663          	bge	x11,x17,80001ed8 <benchmark_body+0x1df4>
80001e50:	04072883          	lw	x17,64(x14)
80001e54:	09164263          	blt	x12,x17,80001ed8 <benchmark_body+0x1df4>
80001e58:	02c7af83          	lw	x31,44(x15)
80001e5c:	0347a883          	lw	x17,52(x15)
80001e60:	071f9c63          	bne	x31,x17,80001ed8 <benchmark_body+0x1df4>
80001e64:	02c7af83          	lw	x31,44(x15)
80001e68:	0247a883          	lw	x17,36(x15)
80001e6c:	071f9663          	bne	x31,x17,80001ed8 <benchmark_body+0x1df4>
80001e70:	0287a283          	lw	x5,40(x15)
80001e74:	02c7af83          	lw	x31,44(x15)
80001e78:	07f2d063          	bge	x5,x31,80001ed8 <benchmark_body+0x1df4>
80001e7c:	0307a883          	lw	x17,48(x15)
80001e80:	01f283b3          	add	x7,x5,x31
80001e84:	0317a223          	sw	x17,36(x15)
80001e88:	0006a883          	lw	x17,0(x13)
80001e8c:	ffc88893          	addi	x17,x17,-4
80001e90:	0116a023          	sw	x17,0(x13)
80001e94:	04072883          	lw	x17,64(x14)
80001e98:	00289893          	slli	x17,x17,0x2
80001e9c:	011788b3          	add	x17,x15,x17
80001ea0:	0058a623          	sw	x5,12(x17)
80001ea4:	04072883          	lw	x17,64(x14)
80001ea8:	00188893          	addi	x17,x17,1
80001eac:	00289893          	slli	x17,x17,0x2
80001eb0:	011788b3          	add	x17,x15,x17
80001eb4:	01f8a623          	sw	x31,12(x17)
80001eb8:	04072883          	lw	x17,64(x14)
80001ebc:	00288893          	addi	x17,x17,2
80001ec0:	00289893          	slli	x17,x17,0x2
80001ec4:	011788b3          	add	x17,x15,x17
80001ec8:	0078a623          	sw	x7,12(x17)
80001ecc:	04072883          	lw	x17,64(x14)
80001ed0:	00388893          	addi	x17,x17,3
80001ed4:	05172023          	sw	x17,64(x14)
80001ed8:	0006a883          	lw	x17,0(x13)
80001edc:	0915d263          	bge	x11,x17,80001f60 <benchmark_body+0x1e7c>
80001ee0:	04072883          	lw	x17,64(x14)
80001ee4:	07164e63          	blt	x12,x17,80001f60 <benchmark_body+0x1e7c>
80001ee8:	02c7af83          	lw	x31,44(x15)
80001eec:	0347a883          	lw	x17,52(x15)
80001ef0:	071f9863          	bne	x31,x17,80001f60 <benchmark_body+0x1e7c>
80001ef4:	02c7af83          	lw	x31,44(x15)
80001ef8:	0307a883          	lw	x17,48(x15)
80001efc:	071f9263          	bne	x31,x17,80001f60 <benchmark_body+0x1e7c>
80001f00:	0287a283          	lw	x5,40(x15)
80001f04:	02c7af83          	lw	x31,44(x15)
80001f08:	05f2dc63          	bge	x5,x31,80001f60 <benchmark_body+0x1e7c>
80001f0c:	0006a883          	lw	x17,0(x13)
80001f10:	01f283b3          	add	x7,x5,x31
80001f14:	ffc88893          	addi	x17,x17,-4
80001f18:	0116a023          	sw	x17,0(x13)
80001f1c:	04072883          	lw	x17,64(x14)
80001f20:	00289893          	slli	x17,x17,0x2
80001f24:	011788b3          	add	x17,x15,x17
80001f28:	0058a623          	sw	x5,12(x17)
80001f2c:	04072883          	lw	x17,64(x14)
80001f30:	00188893          	addi	x17,x17,1
80001f34:	00289893          	slli	x17,x17,0x2
80001f38:	011788b3          	add	x17,x15,x17
80001f3c:	01f8a623          	sw	x31,12(x17)
80001f40:	04072883          	lw	x17,64(x14)
80001f44:	00288893          	addi	x17,x17,2
80001f48:	00289893          	slli	x17,x17,0x2
80001f4c:	011788b3          	add	x17,x15,x17
80001f50:	0078a623          	sw	x7,12(x17)
80001f54:	04072883          	lw	x17,64(x14)
80001f58:	00388893          	addi	x17,x17,3
80001f5c:	05172023          	sw	x17,64(x14)
80001f60:	0006a883          	lw	x17,0(x13)
80001f64:	0915d663          	bge	x11,x17,80001ff0 <benchmark_body+0x1f0c>
80001f68:	04072883          	lw	x17,64(x14)
80001f6c:	09164263          	blt	x12,x17,80001ff0 <benchmark_body+0x1f0c>
80001f70:	0307af83          	lw	x31,48(x15)
80001f74:	0247a883          	lw	x17,36(x15)
80001f78:	071f9c63          	bne	x31,x17,80001ff0 <benchmark_body+0x1f0c>
80001f7c:	0307af83          	lw	x31,48(x15)
80001f80:	0347a883          	lw	x17,52(x15)
80001f84:	071f9663          	bne	x31,x17,80001ff0 <benchmark_body+0x1f0c>
80001f88:	0287a283          	lw	x5,40(x15)
80001f8c:	0307af83          	lw	x31,48(x15)
80001f90:	07f2d063          	bge	x5,x31,80001ff0 <benchmark_body+0x1f0c>
80001f94:	02c7a883          	lw	x17,44(x15)
80001f98:	01f283b3          	add	x7,x5,x31
80001f9c:	0317a223          	sw	x17,36(x15)
80001fa0:	0006a883          	lw	x17,0(x13)
80001fa4:	ffc88893          	addi	x17,x17,-4
80001fa8:	0116a023          	sw	x17,0(x13)
80001fac:	04072883          	lw	x17,64(x14)
80001fb0:	00289893          	slli	x17,x17,0x2
80001fb4:	011788b3          	add	x17,x15,x17
80001fb8:	0058a623          	sw	x5,12(x17)
80001fbc:	04072883          	lw	x17,64(x14)
80001fc0:	00188893          	addi	x17,x17,1
80001fc4:	00289893          	slli	x17,x17,0x2
80001fc8:	011788b3          	add	x17,x15,x17
80001fcc:	01f8a623          	sw	x31,12(x17)
80001fd0:	04072883          	lw	x17,64(x14)
80001fd4:	00288893          	addi	x17,x17,2
80001fd8:	00289893          	slli	x17,x17,0x2
80001fdc:	011788b3          	add	x17,x15,x17
80001fe0:	0078a623          	sw	x7,12(x17)
80001fe4:	04072883          	lw	x17,64(x14)
80001fe8:	00388893          	addi	x17,x17,3
80001fec:	05172023          	sw	x17,64(x14)
80001ff0:	0006a883          	lw	x17,0(x13)
80001ff4:	0915d263          	bge	x11,x17,80002078 <benchmark_body+0x1f94>
80001ff8:	04072883          	lw	x17,64(x14)
80001ffc:	07164e63          	blt	x12,x17,80002078 <benchmark_body+0x1f94>
80002000:	0307af83          	lw	x31,48(x15)
80002004:	02c7a883          	lw	x17,44(x15)
80002008:	071f9863          	bne	x31,x17,80002078 <benchmark_body+0x1f94>
8000200c:	0307af83          	lw	x31,48(x15)
80002010:	0347a883          	lw	x17,52(x15)
80002014:	071f9263          	bne	x31,x17,80002078 <benchmark_body+0x1f94>
80002018:	0287a283          	lw	x5,40(x15)
8000201c:	0307af83          	lw	x31,48(x15)
80002020:	05f2dc63          	bge	x5,x31,80002078 <benchmark_body+0x1f94>
80002024:	0006a883          	lw	x17,0(x13)
80002028:	01f283b3          	add	x7,x5,x31
8000202c:	ffc88893          	addi	x17,x17,-4
80002030:	0116a023          	sw	x17,0(x13)
80002034:	04072883          	lw	x17,64(x14)
80002038:	00289893          	slli	x17,x17,0x2
8000203c:	011788b3          	add	x17,x15,x17
80002040:	0058a623          	sw	x5,12(x17)
80002044:	04072883          	lw	x17,64(x14)
80002048:	00188893          	addi	x17,x17,1
8000204c:	00289893          	slli	x17,x17,0x2
80002050:	011788b3          	add	x17,x15,x17
80002054:	01f8a623          	sw	x31,12(x17)
80002058:	04072883          	lw	x17,64(x14)
8000205c:	00288893          	addi	x17,x17,2
80002060:	00289893          	slli	x17,x17,0x2
80002064:	011788b3          	add	x17,x15,x17
80002068:	0078a623          	sw	x7,12(x17)
8000206c:	04072883          	lw	x17,64(x14)
80002070:	00388893          	addi	x17,x17,3
80002074:	05172023          	sw	x17,64(x14)
80002078:	0006a883          	lw	x17,0(x13)
8000207c:	0915d663          	bge	x11,x17,80002108 <benchmark_body+0x2024>
80002080:	04072883          	lw	x17,64(x14)
80002084:	09164263          	blt	x12,x17,80002108 <benchmark_body+0x2024>
80002088:	0307af83          	lw	x31,48(x15)
8000208c:	0347a883          	lw	x17,52(x15)
80002090:	071f9c63          	bne	x31,x17,80002108 <benchmark_body+0x2024>
80002094:	0307af83          	lw	x31,48(x15)
80002098:	0247a883          	lw	x17,36(x15)
8000209c:	071f9663          	bne	x31,x17,80002108 <benchmark_body+0x2024>
800020a0:	0287a283          	lw	x5,40(x15)
800020a4:	0307af83          	lw	x31,48(x15)
800020a8:	07f2d063          	bge	x5,x31,80002108 <benchmark_body+0x2024>
800020ac:	02c7a883          	lw	x17,44(x15)
800020b0:	01f283b3          	add	x7,x5,x31
800020b4:	0317a223          	sw	x17,36(x15)
800020b8:	0006a883          	lw	x17,0(x13)
800020bc:	ffc88893          	addi	x17,x17,-4
800020c0:	0116a023          	sw	x17,0(x13)
800020c4:	04072883          	lw	x17,64(x14)
800020c8:	00289893          	slli	x17,x17,0x2
800020cc:	011788b3          	add	x17,x15,x17
800020d0:	0058a623          	sw	x5,12(x17)
800020d4:	04072883          	lw	x17,64(x14)
800020d8:	00188893          	addi	x17,x17,1
800020dc:	00289893          	slli	x17,x17,0x2
800020e0:	011788b3          	add	x17,x15,x17
800020e4:	01f8a623          	sw	x31,12(x17)
800020e8:	04072883          	lw	x17,64(x14)
800020ec:	00288893          	addi	x17,x17,2
800020f0:	00289893          	slli	x17,x17,0x2
800020f4:	011788b3          	add	x17,x15,x17
800020f8:	0078a623          	sw	x7,12(x17)
800020fc:	04072883          	lw	x17,64(x14)
80002100:	00388893          	addi	x17,x17,3
80002104:	05172023          	sw	x17,64(x14)
80002108:	0006a883          	lw	x17,0(x13)
8000210c:	0915d263          	bge	x11,x17,80002190 <benchmark_body+0x20ac>
80002110:	04072883          	lw	x17,64(x14)
80002114:	07164e63          	blt	x12,x17,80002190 <benchmark_body+0x20ac>
80002118:	0307af83          	lw	x31,48(x15)
8000211c:	0347a883          	lw	x17,52(x15)
80002120:	071f9863          	bne	x31,x17,80002190 <benchmark_body+0x20ac>
80002124:	0307af83          	lw	x31,48(x15)
80002128:	02c7a883          	lw	x17,44(x15)
8000212c:	071f9263          	bne	x31,x17,80002190 <benchmark_body+0x20ac>
80002130:	0287a283          	lw	x5,40(x15)
80002134:	0307af83          	lw	x31,48(x15)
80002138:	05f2dc63          	bge	x5,x31,80002190 <benchmark_body+0x20ac>
8000213c:	0006a883          	lw	x17,0(x13)
80002140:	01f283b3          	add	x7,x5,x31
80002144:	ffc88893          	addi	x17,x17,-4
80002148:	0116a023          	sw	x17,0(x13)
8000214c:	04072883          	lw	x17,64(x14)
80002150:	00289893          	slli	x17,x17,0x2
80002154:	011788b3          	add	x17,x15,x17
80002158:	0058a623          	sw	x5,12(x17)
8000215c:	04072883          	lw	x17,64(x14)
80002160:	00188893          	addi	x17,x17,1
80002164:	00289893          	slli	x17,x17,0x2
80002168:	011788b3          	add	x17,x15,x17
8000216c:	01f8a623          	sw	x31,12(x17)
80002170:	04072883          	lw	x17,64(x14)
80002174:	00288893          	addi	x17,x17,2
80002178:	00289893          	slli	x17,x17,0x2
8000217c:	011788b3          	add	x17,x15,x17
80002180:	0078a623          	sw	x7,12(x17)
80002184:	04072883          	lw	x17,64(x14)
80002188:	00388893          	addi	x17,x17,3
8000218c:	05172023          	sw	x17,64(x14)
80002190:	0006a883          	lw	x17,0(x13)
80002194:	0915d663          	bge	x11,x17,80002220 <benchmark_body+0x213c>
80002198:	04072883          	lw	x17,64(x14)
8000219c:	09164263          	blt	x12,x17,80002220 <benchmark_body+0x213c>
800021a0:	0347af83          	lw	x31,52(x15)
800021a4:	0247a883          	lw	x17,36(x15)
800021a8:	071f9c63          	bne	x31,x17,80002220 <benchmark_body+0x213c>
800021ac:	0347af83          	lw	x31,52(x15)
800021b0:	02c7a883          	lw	x17,44(x15)
800021b4:	071f9663          	bne	x31,x17,80002220 <benchmark_body+0x213c>
800021b8:	0287a283          	lw	x5,40(x15)
800021bc:	0347af83          	lw	x31,52(x15)
800021c0:	07f2d063          	bge	x5,x31,80002220 <benchmark_body+0x213c>
800021c4:	0307a883          	lw	x17,48(x15)
800021c8:	01f283b3          	add	x7,x5,x31
800021cc:	0317a223          	sw	x17,36(x15)
800021d0:	0006a883          	lw	x17,0(x13)
800021d4:	ffc88893          	addi	x17,x17,-4
800021d8:	0116a023          	sw	x17,0(x13)
800021dc:	04072883          	lw	x17,64(x14)
800021e0:	00289893          	slli	x17,x17,0x2
800021e4:	011788b3          	add	x17,x15,x17
800021e8:	0058a623          	sw	x5,12(x17)
800021ec:	04072883          	lw	x17,64(x14)
800021f0:	00188893          	addi	x17,x17,1
800021f4:	00289893          	slli	x17,x17,0x2
800021f8:	011788b3          	add	x17,x15,x17
800021fc:	01f8a623          	sw	x31,12(x17)
80002200:	04072883          	lw	x17,64(x14)
80002204:	00288893          	addi	x17,x17,2
80002208:	00289893          	slli	x17,x17,0x2
8000220c:	011788b3          	add	x17,x15,x17
80002210:	0078a623          	sw	x7,12(x17)
80002214:	04072883          	lw	x17,64(x14)
80002218:	00388893          	addi	x17,x17,3
8000221c:	05172023          	sw	x17,64(x14)
80002220:	0006a883          	lw	x17,0(x13)
80002224:	0915d663          	bge	x11,x17,800022b0 <benchmark_body+0x21cc>
80002228:	04072883          	lw	x17,64(x14)
8000222c:	09164263          	blt	x12,x17,800022b0 <benchmark_body+0x21cc>
80002230:	0347af83          	lw	x31,52(x15)
80002234:	0247a883          	lw	x17,36(x15)
80002238:	071f9c63          	bne	x31,x17,800022b0 <benchmark_body+0x21cc>
8000223c:	0347af83          	lw	x31,52(x15)
80002240:	0307a883          	lw	x17,48(x15)
80002244:	071f9663          	bne	x31,x17,800022b0 <benchmark_body+0x21cc>
80002248:	0287a283          	lw	x5,40(x15)
8000224c:	0347af83          	lw	x31,52(x15)
80002250:	07f2d063          	bge	x5,x31,800022b0 <benchmark_body+0x21cc>
80002254:	02c7a883          	lw	x17,44(x15)
80002258:	01f283b3          	add	x7,x5,x31
8000225c:	0317a223          	sw	x17,36(x15)
80002260:	0006a883          	lw	x17,0(x13)
80002264:	ffc88893          	addi	x17,x17,-4
80002268:	0116a023          	sw	x17,0(x13)
8000226c:	04072883          	lw	x17,64(x14)
80002270:	00289893          	slli	x17,x17,0x2
80002274:	011788b3          	add	x17,x15,x17
80002278:	0058a623          	sw	x5,12(x17)
8000227c:	04072883          	lw	x17,64(x14)
80002280:	00188893          	addi	x17,x17,1
80002284:	00289893          	slli	x17,x17,0x2
80002288:	011788b3          	add	x17,x15,x17
8000228c:	01f8a623          	sw	x31,12(x17)
80002290:	04072883          	lw	x17,64(x14)
80002294:	00288893          	addi	x17,x17,2
80002298:	00289893          	slli	x17,x17,0x2
8000229c:	011788b3          	add	x17,x15,x17
800022a0:	0078a623          	sw	x7,12(x17)
800022a4:	04072883          	lw	x17,64(x14)
800022a8:	00388893          	addi	x17,x17,3
800022ac:	05172023          	sw	x17,64(x14)
800022b0:	0006a883          	lw	x17,0(x13)
800022b4:	0915d663          	bge	x11,x17,80002340 <benchmark_body+0x225c>
800022b8:	04072883          	lw	x17,64(x14)
800022bc:	09164263          	blt	x12,x17,80002340 <benchmark_body+0x225c>
800022c0:	0347af83          	lw	x31,52(x15)
800022c4:	02c7a883          	lw	x17,44(x15)
800022c8:	071f9c63          	bne	x31,x17,80002340 <benchmark_body+0x225c>
800022cc:	0347af83          	lw	x31,52(x15)
800022d0:	0247a883          	lw	x17,36(x15)
800022d4:	071f9663          	bne	x31,x17,80002340 <benchmark_body+0x225c>
800022d8:	0287a283          	lw	x5,40(x15)
800022dc:	0347af83          	lw	x31,52(x15)
800022e0:	07f2d063          	bge	x5,x31,80002340 <benchmark_body+0x225c>
800022e4:	0307a883          	lw	x17,48(x15)
800022e8:	01f283b3          	add	x7,x5,x31
800022ec:	0317a223          	sw	x17,36(x15)
800022f0:	0006a883          	lw	x17,0(x13)
800022f4:	ffc88893          	addi	x17,x17,-4
800022f8:	0116a023          	sw	x17,0(x13)
800022fc:	04072883          	lw	x17,64(x14)
80002300:	00289893          	slli	x17,x17,0x2
80002304:	011788b3          	add	x17,x15,x17
80002308:	0058a623          	sw	x5,12(x17)
8000230c:	04072883          	lw	x17,64(x14)
80002310:	00188893          	addi	x17,x17,1
80002314:	00289893          	slli	x17,x17,0x2
80002318:	011788b3          	add	x17,x15,x17
8000231c:	01f8a623          	sw	x31,12(x17)
80002320:	04072883          	lw	x17,64(x14)
80002324:	00288893          	addi	x17,x17,2
80002328:	00289893          	slli	x17,x17,0x2
8000232c:	011788b3          	add	x17,x15,x17
80002330:	0078a623          	sw	x7,12(x17)
80002334:	04072883          	lw	x17,64(x14)
80002338:	00388893          	addi	x17,x17,3
8000233c:	05172023          	sw	x17,64(x14)
80002340:	0006a883          	lw	x17,0(x13)
80002344:	0915d263          	bge	x11,x17,800023c8 <benchmark_body+0x22e4>
80002348:	04072883          	lw	x17,64(x14)
8000234c:	07164e63          	blt	x12,x17,800023c8 <benchmark_body+0x22e4>
80002350:	0347af83          	lw	x31,52(x15)
80002354:	02c7a883          	lw	x17,44(x15)
80002358:	071f9863          	bne	x31,x17,800023c8 <benchmark_body+0x22e4>
8000235c:	0347af83          	lw	x31,52(x15)
80002360:	0307a883          	lw	x17,48(x15)
80002364:	071f9263          	bne	x31,x17,800023c8 <benchmark_body+0x22e4>
80002368:	0287a283          	lw	x5,40(x15)
8000236c:	0347af83          	lw	x31,52(x15)
80002370:	05f2dc63          	bge	x5,x31,800023c8 <benchmark_body+0x22e4>
80002374:	0006a883          	lw	x17,0(x13)
80002378:	01f283b3          	add	x7,x5,x31
8000237c:	ffc88893          	addi	x17,x17,-4
80002380:	0116a023          	sw	x17,0(x13)
80002384:	04072883          	lw	x17,64(x14)
80002388:	00289893          	slli	x17,x17,0x2
8000238c:	011788b3          	add	x17,x15,x17
80002390:	0058a623          	sw	x5,12(x17)
80002394:	04072883          	lw	x17,64(x14)
80002398:	00188893          	addi	x17,x17,1
8000239c:	00289893          	slli	x17,x17,0x2
800023a0:	011788b3          	add	x17,x15,x17
800023a4:	01f8a623          	sw	x31,12(x17)
800023a8:	04072883          	lw	x17,64(x14)
800023ac:	00288893          	addi	x17,x17,2
800023b0:	00289893          	slli	x17,x17,0x2
800023b4:	011788b3          	add	x17,x15,x17
800023b8:	0078a623          	sw	x7,12(x17)
800023bc:	04072883          	lw	x17,64(x14)
800023c0:	00388893          	addi	x17,x17,3
800023c4:	05172023          	sw	x17,64(x14)
800023c8:	0006a883          	lw	x17,0(x13)
800023cc:	0915d663          	bge	x11,x17,80002458 <benchmark_body+0x2374>
800023d0:	04072883          	lw	x17,64(x14)
800023d4:	09164263          	blt	x12,x17,80002458 <benchmark_body+0x2374>
800023d8:	0347af83          	lw	x31,52(x15)
800023dc:	0307a883          	lw	x17,48(x15)
800023e0:	071f9c63          	bne	x31,x17,80002458 <benchmark_body+0x2374>
800023e4:	0347af83          	lw	x31,52(x15)
800023e8:	0247a883          	lw	x17,36(x15)
800023ec:	071f9663          	bne	x31,x17,80002458 <benchmark_body+0x2374>
800023f0:	0287a283          	lw	x5,40(x15)
800023f4:	0347af83          	lw	x31,52(x15)
800023f8:	07f2d063          	bge	x5,x31,80002458 <benchmark_body+0x2374>
800023fc:	02c7a883          	lw	x17,44(x15)
80002400:	01f283b3          	add	x7,x5,x31
80002404:	0317a223          	sw	x17,36(x15)
80002408:	0006a883          	lw	x17,0(x13)
8000240c:	ffc88893          	addi	x17,x17,-4
80002410:	0116a023          	sw	x17,0(x13)
80002414:	04072883          	lw	x17,64(x14)
80002418:	00289893          	slli	x17,x17,0x2
8000241c:	011788b3          	add	x17,x15,x17
80002420:	0058a623          	sw	x5,12(x17)
80002424:	04072883          	lw	x17,64(x14)
80002428:	00188893          	addi	x17,x17,1
8000242c:	00289893          	slli	x17,x17,0x2
80002430:	011788b3          	add	x17,x15,x17
80002434:	01f8a623          	sw	x31,12(x17)
80002438:	04072883          	lw	x17,64(x14)
8000243c:	00288893          	addi	x17,x17,2
80002440:	00289893          	slli	x17,x17,0x2
80002444:	011788b3          	add	x17,x15,x17
80002448:	0078a623          	sw	x7,12(x17)
8000244c:	04072883          	lw	x17,64(x14)
80002450:	00388893          	addi	x17,x17,3
80002454:	05172023          	sw	x17,64(x14)
80002458:	0006a883          	lw	x17,0(x13)
8000245c:	0915d263          	bge	x11,x17,800024e0 <benchmark_body+0x23fc>
80002460:	04072883          	lw	x17,64(x14)
80002464:	07164e63          	blt	x12,x17,800024e0 <benchmark_body+0x23fc>
80002468:	0347af83          	lw	x31,52(x15)
8000246c:	0307a883          	lw	x17,48(x15)
80002470:	071f9863          	bne	x31,x17,800024e0 <benchmark_body+0x23fc>
80002474:	0347af83          	lw	x31,52(x15)
80002478:	02c7a883          	lw	x17,44(x15)
8000247c:	071f9263          	bne	x31,x17,800024e0 <benchmark_body+0x23fc>
80002480:	0287a283          	lw	x5,40(x15)
80002484:	0347af83          	lw	x31,52(x15)
80002488:	05f2dc63          	bge	x5,x31,800024e0 <benchmark_body+0x23fc>
8000248c:	0006a883          	lw	x17,0(x13)
80002490:	01f283b3          	add	x7,x5,x31
80002494:	ffc88893          	addi	x17,x17,-4
80002498:	0116a023          	sw	x17,0(x13)
8000249c:	04072883          	lw	x17,64(x14)
800024a0:	00289893          	slli	x17,x17,0x2
800024a4:	011788b3          	add	x17,x15,x17
800024a8:	0058a623          	sw	x5,12(x17)
800024ac:	04072883          	lw	x17,64(x14)
800024b0:	00188893          	addi	x17,x17,1
800024b4:	00289893          	slli	x17,x17,0x2
800024b8:	011788b3          	add	x17,x15,x17
800024bc:	01f8a623          	sw	x31,12(x17)
800024c0:	04072883          	lw	x17,64(x14)
800024c4:	00288893          	addi	x17,x17,2
800024c8:	00289893          	slli	x17,x17,0x2
800024cc:	011788b3          	add	x17,x15,x17
800024d0:	0078a623          	sw	x7,12(x17)
800024d4:	04072883          	lw	x17,64(x14)
800024d8:	00388893          	addi	x17,x17,3
800024dc:	05172023          	sw	x17,64(x14)
800024e0:	0006a883          	lw	x17,0(x13)
800024e4:	0915d663          	bge	x11,x17,80002570 <benchmark_body+0x248c>
800024e8:	04072883          	lw	x17,64(x14)
800024ec:	09164263          	blt	x12,x17,80002570 <benchmark_body+0x248c>
800024f0:	0247af83          	lw	x31,36(x15)
800024f4:	0287a883          	lw	x17,40(x15)
800024f8:	071f9c63          	bne	x31,x17,80002570 <benchmark_body+0x248c>
800024fc:	0247af83          	lw	x31,36(x15)
80002500:	0347a883          	lw	x17,52(x15)
80002504:	071f9663          	bne	x31,x17,80002570 <benchmark_body+0x248c>
80002508:	02c7a283          	lw	x5,44(x15)
8000250c:	0247af83          	lw	x31,36(x15)
80002510:	07f2d063          	bge	x5,x31,80002570 <benchmark_body+0x248c>
80002514:	0307a883          	lw	x17,48(x15)
80002518:	01f283b3          	add	x7,x5,x31
8000251c:	0317a223          	sw	x17,36(x15)
80002520:	0006a883          	lw	x17,0(x13)
80002524:	ffc88893          	addi	x17,x17,-4
80002528:	0116a023          	sw	x17,0(x13)
8000252c:	04072883          	lw	x17,64(x14)
80002530:	00289893          	slli	x17,x17,0x2
80002534:	011788b3          	add	x17,x15,x17
80002538:	0058a623          	sw	x5,12(x17)
8000253c:	04072883          	lw	x17,64(x14)
80002540:	00188893          	addi	x17,x17,1
80002544:	00289893          	slli	x17,x17,0x2
80002548:	011788b3          	add	x17,x15,x17
8000254c:	01f8a623          	sw	x31,12(x17)
80002550:	04072883          	lw	x17,64(x14)
80002554:	00288893          	addi	x17,x17,2
80002558:	00289893          	slli	x17,x17,0x2
8000255c:	011788b3          	add	x17,x15,x17
80002560:	0078a623          	sw	x7,12(x17)
80002564:	04072883          	lw	x17,64(x14)
80002568:	00388893          	addi	x17,x17,3
8000256c:	05172023          	sw	x17,64(x14)
80002570:	0006a883          	lw	x17,0(x13)
80002574:	0915d663          	bge	x11,x17,80002600 <benchmark_body+0x251c>
80002578:	04072883          	lw	x17,64(x14)
8000257c:	09164263          	blt	x12,x17,80002600 <benchmark_body+0x251c>
80002580:	0247af83          	lw	x31,36(x15)
80002584:	0307a883          	lw	x17,48(x15)
80002588:	071f9c63          	bne	x31,x17,80002600 <benchmark_body+0x251c>
8000258c:	0247af83          	lw	x31,36(x15)
80002590:	0347a883          	lw	x17,52(x15)
80002594:	071f9663          	bne	x31,x17,80002600 <benchmark_body+0x251c>
80002598:	02c7a283          	lw	x5,44(x15)
8000259c:	0247af83          	lw	x31,36(x15)
800025a0:	07f2d063          	bge	x5,x31,80002600 <benchmark_body+0x251c>
800025a4:	0287a883          	lw	x17,40(x15)
800025a8:	01f283b3          	add	x7,x5,x31
800025ac:	0317a223          	sw	x17,36(x15)
800025b0:	0006a883          	lw	x17,0(x13)
800025b4:	ffc88893          	addi	x17,x17,-4
800025b8:	0116a023          	sw	x17,0(x13)
800025bc:	04072883          	lw	x17,64(x14)
800025c0:	00289893          	slli	x17,x17,0x2
800025c4:	011788b3          	add	x17,x15,x17
800025c8:	0058a623          	sw	x5,12(x17)
800025cc:	04072883          	lw	x17,64(x14)
800025d0:	00188893          	addi	x17,x17,1
800025d4:	00289893          	slli	x17,x17,0x2
800025d8:	011788b3          	add	x17,x15,x17
800025dc:	01f8a623          	sw	x31,12(x17)
800025e0:	04072883          	lw	x17,64(x14)
800025e4:	00288893          	addi	x17,x17,2
800025e8:	00289893          	slli	x17,x17,0x2
800025ec:	011788b3          	add	x17,x15,x17
800025f0:	0078a623          	sw	x7,12(x17)
800025f4:	04072883          	lw	x17,64(x14)
800025f8:	00388893          	addi	x17,x17,3
800025fc:	05172023          	sw	x17,64(x14)
80002600:	0006a883          	lw	x17,0(x13)
80002604:	0915d663          	bge	x11,x17,80002690 <benchmark_body+0x25ac>
80002608:	04072883          	lw	x17,64(x14)
8000260c:	09164263          	blt	x12,x17,80002690 <benchmark_body+0x25ac>
80002610:	0247af83          	lw	x31,36(x15)
80002614:	0347a883          	lw	x17,52(x15)
80002618:	071f9c63          	bne	x31,x17,80002690 <benchmark_body+0x25ac>
8000261c:	0247af83          	lw	x31,36(x15)
80002620:	0287a883          	lw	x17,40(x15)
80002624:	071f9663          	bne	x31,x17,80002690 <benchmark_body+0x25ac>
80002628:	02c7a283          	lw	x5,44(x15)
8000262c:	0247af83          	lw	x31,36(x15)
80002630:	07f2d063          	bge	x5,x31,80002690 <benchmark_body+0x25ac>
80002634:	0307a883          	lw	x17,48(x15)
80002638:	01f283b3          	add	x7,x5,x31
8000263c:	0317a223          	sw	x17,36(x15)
80002640:	0006a883          	lw	x17,0(x13)
80002644:	ffc88893          	addi	x17,x17,-4
80002648:	0116a023          	sw	x17,0(x13)
8000264c:	04072883          	lw	x17,64(x14)
80002650:	00289893          	slli	x17,x17,0x2
80002654:	011788b3          	add	x17,x15,x17
80002658:	0058a623          	sw	x5,12(x17)
8000265c:	04072883          	lw	x17,64(x14)
80002660:	00188893          	addi	x17,x17,1
80002664:	00289893          	slli	x17,x17,0x2
80002668:	011788b3          	add	x17,x15,x17
8000266c:	01f8a623          	sw	x31,12(x17)
80002670:	04072883          	lw	x17,64(x14)
80002674:	00288893          	addi	x17,x17,2
80002678:	00289893          	slli	x17,x17,0x2
8000267c:	011788b3          	add	x17,x15,x17
80002680:	0078a623          	sw	x7,12(x17)
80002684:	04072883          	lw	x17,64(x14)
80002688:	00388893          	addi	x17,x17,3
8000268c:	05172023          	sw	x17,64(x14)
80002690:	0006a883          	lw	x17,0(x13)
80002694:	0915d663          	bge	x11,x17,80002720 <benchmark_body+0x263c>
80002698:	04072883          	lw	x17,64(x14)
8000269c:	09164263          	blt	x12,x17,80002720 <benchmark_body+0x263c>
800026a0:	0247af83          	lw	x31,36(x15)
800026a4:	0347a883          	lw	x17,52(x15)
800026a8:	071f9c63          	bne	x31,x17,80002720 <benchmark_body+0x263c>
800026ac:	0247af83          	lw	x31,36(x15)
800026b0:	0307a883          	lw	x17,48(x15)
800026b4:	071f9663          	bne	x31,x17,80002720 <benchmark_body+0x263c>
800026b8:	02c7a283          	lw	x5,44(x15)
800026bc:	0247af83          	lw	x31,36(x15)
800026c0:	07f2d063          	bge	x5,x31,80002720 <benchmark_body+0x263c>
800026c4:	0287a883          	lw	x17,40(x15)
800026c8:	01f283b3          	add	x7,x5,x31
800026cc:	0317a223          	sw	x17,36(x15)
800026d0:	0006a883          	lw	x17,0(x13)
800026d4:	ffc88893          	addi	x17,x17,-4
800026d8:	0116a023          	sw	x17,0(x13)
800026dc:	04072883          	lw	x17,64(x14)
800026e0:	00289893          	slli	x17,x17,0x2
800026e4:	011788b3          	add	x17,x15,x17
800026e8:	0058a623          	sw	x5,12(x17)
800026ec:	04072883          	lw	x17,64(x14)
800026f0:	00188893          	addi	x17,x17,1
800026f4:	00289893          	slli	x17,x17,0x2
800026f8:	011788b3          	add	x17,x15,x17
800026fc:	01f8a623          	sw	x31,12(x17)
80002700:	04072883          	lw	x17,64(x14)
80002704:	00288893          	addi	x17,x17,2
80002708:	00289893          	slli	x17,x17,0x2
8000270c:	011788b3          	add	x17,x15,x17
80002710:	0078a623          	sw	x7,12(x17)
80002714:	04072883          	lw	x17,64(x14)
80002718:	00388893          	addi	x17,x17,3
8000271c:	05172023          	sw	x17,64(x14)
80002720:	0006a883          	lw	x17,0(x13)
80002724:	0915d663          	bge	x11,x17,800027b0 <benchmark_body+0x26cc>
80002728:	04072883          	lw	x17,64(x14)
8000272c:	09164263          	blt	x12,x17,800027b0 <benchmark_body+0x26cc>
80002730:	0287af83          	lw	x31,40(x15)
80002734:	0247a883          	lw	x17,36(x15)
80002738:	071f9c63          	bne	x31,x17,800027b0 <benchmark_body+0x26cc>
8000273c:	0287af83          	lw	x31,40(x15)
80002740:	0347a883          	lw	x17,52(x15)
80002744:	071f9663          	bne	x31,x17,800027b0 <benchmark_body+0x26cc>
80002748:	02c7a283          	lw	x5,44(x15)
8000274c:	0287af83          	lw	x31,40(x15)
80002750:	07f2d063          	bge	x5,x31,800027b0 <benchmark_body+0x26cc>
80002754:	0307a883          	lw	x17,48(x15)
80002758:	01f283b3          	add	x7,x5,x31
8000275c:	0317a223          	sw	x17,36(x15)
80002760:	0006a883          	lw	x17,0(x13)
80002764:	ffc88893          	addi	x17,x17,-4
80002768:	0116a023          	sw	x17,0(x13)
8000276c:	04072883          	lw	x17,64(x14)
80002770:	00289893          	slli	x17,x17,0x2
80002774:	011788b3          	add	x17,x15,x17
80002778:	0058a623          	sw	x5,12(x17)
8000277c:	04072883          	lw	x17,64(x14)
80002780:	00188893          	addi	x17,x17,1
80002784:	00289893          	slli	x17,x17,0x2
80002788:	011788b3          	add	x17,x15,x17
8000278c:	01f8a623          	sw	x31,12(x17)
80002790:	04072883          	lw	x17,64(x14)
80002794:	00288893          	addi	x17,x17,2
80002798:	00289893          	slli	x17,x17,0x2
8000279c:	011788b3          	add	x17,x15,x17
800027a0:	0078a623          	sw	x7,12(x17)
800027a4:	04072883          	lw	x17,64(x14)
800027a8:	00388893          	addi	x17,x17,3
800027ac:	05172023          	sw	x17,64(x14)
800027b0:	0006a883          	lw	x17,0(x13)
800027b4:	0915d263          	bge	x11,x17,80002838 <benchmark_body+0x2754>
800027b8:	04072883          	lw	x17,64(x14)
800027bc:	07164e63          	blt	x12,x17,80002838 <benchmark_body+0x2754>
800027c0:	0287af83          	lw	x31,40(x15)
800027c4:	0307a883          	lw	x17,48(x15)
800027c8:	071f9863          	bne	x31,x17,80002838 <benchmark_body+0x2754>
800027cc:	0287af83          	lw	x31,40(x15)
800027d0:	0347a883          	lw	x17,52(x15)
800027d4:	071f9263          	bne	x31,x17,80002838 <benchmark_body+0x2754>
800027d8:	02c7a283          	lw	x5,44(x15)
800027dc:	0287af83          	lw	x31,40(x15)
800027e0:	05f2dc63          	bge	x5,x31,80002838 <benchmark_body+0x2754>
800027e4:	0006a883          	lw	x17,0(x13)
800027e8:	01f283b3          	add	x7,x5,x31
800027ec:	ffc88893          	addi	x17,x17,-4
800027f0:	0116a023          	sw	x17,0(x13)
800027f4:	04072883          	lw	x17,64(x14)
800027f8:	00289893          	slli	x17,x17,0x2
800027fc:	011788b3          	add	x17,x15,x17
80002800:	0058a623          	sw	x5,12(x17)
80002804:	04072883          	lw	x17,64(x14)
80002808:	00188893          	addi	x17,x17,1
8000280c:	00289893          	slli	x17,x17,0x2
80002810:	011788b3          	add	x17,x15,x17
80002814:	01f8a623          	sw	x31,12(x17)
80002818:	04072883          	lw	x17,64(x14)
8000281c:	00288893          	addi	x17,x17,2
80002820:	00289893          	slli	x17,x17,0x2
80002824:	011788b3          	add	x17,x15,x17
80002828:	0078a623          	sw	x7,12(x17)
8000282c:	04072883          	lw	x17,64(x14)
80002830:	00388893          	addi	x17,x17,3
80002834:	05172023          	sw	x17,64(x14)
80002838:	0006a883          	lw	x17,0(x13)
8000283c:	0915d663          	bge	x11,x17,800028c8 <benchmark_body+0x27e4>
80002840:	04072883          	lw	x17,64(x14)
80002844:	09164263          	blt	x12,x17,800028c8 <benchmark_body+0x27e4>
80002848:	0287af83          	lw	x31,40(x15)
8000284c:	0347a883          	lw	x17,52(x15)
80002850:	071f9c63          	bne	x31,x17,800028c8 <benchmark_body+0x27e4>
80002854:	0287af83          	lw	x31,40(x15)
80002858:	0247a883          	lw	x17,36(x15)
8000285c:	071f9663          	bne	x31,x17,800028c8 <benchmark_body+0x27e4>
80002860:	02c7a283          	lw	x5,44(x15)
80002864:	0287af83          	lw	x31,40(x15)
80002868:	07f2d063          	bge	x5,x31,800028c8 <benchmark_body+0x27e4>
8000286c:	0307a883          	lw	x17,48(x15)
80002870:	01f283b3          	add	x7,x5,x31
80002874:	0317a223          	sw	x17,36(x15)
80002878:	0006a883          	lw	x17,0(x13)
8000287c:	ffc88893          	addi	x17,x17,-4
80002880:	0116a023          	sw	x17,0(x13)
80002884:	04072883          	lw	x17,64(x14)
80002888:	00289893          	slli	x17,x17,0x2
8000288c:	011788b3          	add	x17,x15,x17
80002890:	0058a623          	sw	x5,12(x17)
80002894:	04072883          	lw	x17,64(x14)
80002898:	00188893          	addi	x17,x17,1
8000289c:	00289893          	slli	x17,x17,0x2
800028a0:	011788b3          	add	x17,x15,x17
800028a4:	01f8a623          	sw	x31,12(x17)
800028a8:	04072883          	lw	x17,64(x14)
800028ac:	00288893          	addi	x17,x17,2
800028b0:	00289893          	slli	x17,x17,0x2
800028b4:	011788b3          	add	x17,x15,x17
800028b8:	0078a623          	sw	x7,12(x17)
800028bc:	04072883          	lw	x17,64(x14)
800028c0:	00388893          	addi	x17,x17,3
800028c4:	05172023          	sw	x17,64(x14)
800028c8:	0006a883          	lw	x17,0(x13)
800028cc:	0915d263          	bge	x11,x17,80002950 <benchmark_body+0x286c>
800028d0:	04072883          	lw	x17,64(x14)
800028d4:	07164e63          	blt	x12,x17,80002950 <benchmark_body+0x286c>
800028d8:	0287af83          	lw	x31,40(x15)
800028dc:	0347a883          	lw	x17,52(x15)
800028e0:	071f9863          	bne	x31,x17,80002950 <benchmark_body+0x286c>
800028e4:	0287af83          	lw	x31,40(x15)
800028e8:	0307a883          	lw	x17,48(x15)
800028ec:	071f9263          	bne	x31,x17,80002950 <benchmark_body+0x286c>
800028f0:	02c7a283          	lw	x5,44(x15)
800028f4:	0287af83          	lw	x31,40(x15)
800028f8:	05f2dc63          	bge	x5,x31,80002950 <benchmark_body+0x286c>
800028fc:	0006a883          	lw	x17,0(x13)
80002900:	01f283b3          	add	x7,x5,x31
80002904:	ffc88893          	addi	x17,x17,-4
80002908:	0116a023          	sw	x17,0(x13)
8000290c:	04072883          	lw	x17,64(x14)
80002910:	00289893          	slli	x17,x17,0x2
80002914:	011788b3          	add	x17,x15,x17
80002918:	0058a623          	sw	x5,12(x17)
8000291c:	04072883          	lw	x17,64(x14)
80002920:	00188893          	addi	x17,x17,1
80002924:	00289893          	slli	x17,x17,0x2
80002928:	011788b3          	add	x17,x15,x17
8000292c:	01f8a623          	sw	x31,12(x17)
80002930:	04072883          	lw	x17,64(x14)
80002934:	00288893          	addi	x17,x17,2
80002938:	00289893          	slli	x17,x17,0x2
8000293c:	011788b3          	add	x17,x15,x17
80002940:	0078a623          	sw	x7,12(x17)
80002944:	04072883          	lw	x17,64(x14)
80002948:	00388893          	addi	x17,x17,3
8000294c:	05172023          	sw	x17,64(x14)
80002950:	0006a883          	lw	x17,0(x13)
80002954:	0915d663          	bge	x11,x17,800029e0 <benchmark_body+0x28fc>
80002958:	04072883          	lw	x17,64(x14)
8000295c:	09164263          	blt	x12,x17,800029e0 <benchmark_body+0x28fc>
80002960:	0307af83          	lw	x31,48(x15)
80002964:	0247a883          	lw	x17,36(x15)
80002968:	071f9c63          	bne	x31,x17,800029e0 <benchmark_body+0x28fc>
8000296c:	0307af83          	lw	x31,48(x15)
80002970:	0347a883          	lw	x17,52(x15)
80002974:	071f9663          	bne	x31,x17,800029e0 <benchmark_body+0x28fc>
80002978:	02c7a283          	lw	x5,44(x15)
8000297c:	0307af83          	lw	x31,48(x15)
80002980:	07f2d063          	bge	x5,x31,800029e0 <benchmark_body+0x28fc>
80002984:	0287a883          	lw	x17,40(x15)
80002988:	01f283b3          	add	x7,x5,x31
8000298c:	0317a223          	sw	x17,36(x15)
80002990:	0006a883          	lw	x17,0(x13)
80002994:	ffc88893          	addi	x17,x17,-4
80002998:	0116a023          	sw	x17,0(x13)
8000299c:	04072883          	lw	x17,64(x14)
800029a0:	00289893          	slli	x17,x17,0x2
800029a4:	011788b3          	add	x17,x15,x17
800029a8:	0058a623          	sw	x5,12(x17)
800029ac:	04072883          	lw	x17,64(x14)
800029b0:	00188893          	addi	x17,x17,1
800029b4:	00289893          	slli	x17,x17,0x2
800029b8:	011788b3          	add	x17,x15,x17
800029bc:	01f8a623          	sw	x31,12(x17)
800029c0:	04072883          	lw	x17,64(x14)
800029c4:	00288893          	addi	x17,x17,2
800029c8:	00289893          	slli	x17,x17,0x2
800029cc:	011788b3          	add	x17,x15,x17
800029d0:	0078a623          	sw	x7,12(x17)
800029d4:	04072883          	lw	x17,64(x14)
800029d8:	00388893          	addi	x17,x17,3
800029dc:	05172023          	sw	x17,64(x14)
800029e0:	0006a883          	lw	x17,0(x13)
800029e4:	0915d263          	bge	x11,x17,80002a68 <benchmark_body+0x2984>
800029e8:	04072883          	lw	x17,64(x14)
800029ec:	07164e63          	blt	x12,x17,80002a68 <benchmark_body+0x2984>
800029f0:	0307af83          	lw	x31,48(x15)
800029f4:	0287a883          	lw	x17,40(x15)
800029f8:	071f9863          	bne	x31,x17,80002a68 <benchmark_body+0x2984>
800029fc:	0307af83          	lw	x31,48(x15)
80002a00:	0347a883          	lw	x17,52(x15)
80002a04:	071f9263          	bne	x31,x17,80002a68 <benchmark_body+0x2984>
80002a08:	02c7a283          	lw	x5,44(x15)
80002a0c:	0307af83          	lw	x31,48(x15)
80002a10:	05f2dc63          	bge	x5,x31,80002a68 <benchmark_body+0x2984>
80002a14:	0006a883          	lw	x17,0(x13)
80002a18:	01f283b3          	add	x7,x5,x31
80002a1c:	ffc88893          	addi	x17,x17,-4
80002a20:	0116a023          	sw	x17,0(x13)
80002a24:	04072883          	lw	x17,64(x14)
80002a28:	00289893          	slli	x17,x17,0x2
80002a2c:	011788b3          	add	x17,x15,x17
80002a30:	0058a623          	sw	x5,12(x17)
80002a34:	04072883          	lw	x17,64(x14)
80002a38:	00188893          	addi	x17,x17,1
80002a3c:	00289893          	slli	x17,x17,0x2
80002a40:	011788b3          	add	x17,x15,x17
80002a44:	01f8a623          	sw	x31,12(x17)
80002a48:	04072883          	lw	x17,64(x14)
80002a4c:	00288893          	addi	x17,x17,2
80002a50:	00289893          	slli	x17,x17,0x2
80002a54:	011788b3          	add	x17,x15,x17
80002a58:	0078a623          	sw	x7,12(x17)
80002a5c:	04072883          	lw	x17,64(x14)
80002a60:	00388893          	addi	x17,x17,3
80002a64:	05172023          	sw	x17,64(x14)
80002a68:	0006a883          	lw	x17,0(x13)
80002a6c:	0915d663          	bge	x11,x17,80002af8 <benchmark_body+0x2a14>
80002a70:	04072883          	lw	x17,64(x14)
80002a74:	09164263          	blt	x12,x17,80002af8 <benchmark_body+0x2a14>
80002a78:	0307af83          	lw	x31,48(x15)
80002a7c:	0347a883          	lw	x17,52(x15)
80002a80:	071f9c63          	bne	x31,x17,80002af8 <benchmark_body+0x2a14>
80002a84:	0307af83          	lw	x31,48(x15)
80002a88:	0247a883          	lw	x17,36(x15)
80002a8c:	071f9663          	bne	x31,x17,80002af8 <benchmark_body+0x2a14>
80002a90:	02c7a283          	lw	x5,44(x15)
80002a94:	0307af83          	lw	x31,48(x15)
80002a98:	07f2d063          	bge	x5,x31,80002af8 <benchmark_body+0x2a14>
80002a9c:	0287a883          	lw	x17,40(x15)
80002aa0:	01f283b3          	add	x7,x5,x31
80002aa4:	0317a223          	sw	x17,36(x15)
80002aa8:	0006a883          	lw	x17,0(x13)
80002aac:	ffc88893          	addi	x17,x17,-4
80002ab0:	0116a023          	sw	x17,0(x13)
80002ab4:	04072883          	lw	x17,64(x14)
80002ab8:	00289893          	slli	x17,x17,0x2
80002abc:	011788b3          	add	x17,x15,x17
80002ac0:	0058a623          	sw	x5,12(x17)
80002ac4:	04072883          	lw	x17,64(x14)
80002ac8:	00188893          	addi	x17,x17,1
80002acc:	00289893          	slli	x17,x17,0x2
80002ad0:	011788b3          	add	x17,x15,x17
80002ad4:	01f8a623          	sw	x31,12(x17)
80002ad8:	04072883          	lw	x17,64(x14)
80002adc:	00288893          	addi	x17,x17,2
80002ae0:	00289893          	slli	x17,x17,0x2
80002ae4:	011788b3          	add	x17,x15,x17
80002ae8:	0078a623          	sw	x7,12(x17)
80002aec:	04072883          	lw	x17,64(x14)
80002af0:	00388893          	addi	x17,x17,3
80002af4:	05172023          	sw	x17,64(x14)
80002af8:	0006a883          	lw	x17,0(x13)
80002afc:	0915d263          	bge	x11,x17,80002b80 <benchmark_body+0x2a9c>
80002b00:	04072883          	lw	x17,64(x14)
80002b04:	07164e63          	blt	x12,x17,80002b80 <benchmark_body+0x2a9c>
80002b08:	0307af83          	lw	x31,48(x15)
80002b0c:	0347a883          	lw	x17,52(x15)
80002b10:	071f9863          	bne	x31,x17,80002b80 <benchmark_body+0x2a9c>
80002b14:	0307af83          	lw	x31,48(x15)
80002b18:	0287a883          	lw	x17,40(x15)
80002b1c:	071f9263          	bne	x31,x17,80002b80 <benchmark_body+0x2a9c>
80002b20:	02c7a283          	lw	x5,44(x15)
80002b24:	0307af83          	lw	x31,48(x15)
80002b28:	05f2dc63          	bge	x5,x31,80002b80 <benchmark_body+0x2a9c>
80002b2c:	0006a883          	lw	x17,0(x13)
80002b30:	01f283b3          	add	x7,x5,x31
80002b34:	ffc88893          	addi	x17,x17,-4
80002b38:	0116a023          	sw	x17,0(x13)
80002b3c:	04072883          	lw	x17,64(x14)
80002b40:	00289893          	slli	x17,x17,0x2
80002b44:	011788b3          	add	x17,x15,x17
80002b48:	0058a623          	sw	x5,12(x17)
80002b4c:	04072883          	lw	x17,64(x14)
80002b50:	00188893          	addi	x17,x17,1
80002b54:	00289893          	slli	x17,x17,0x2
80002b58:	011788b3          	add	x17,x15,x17
80002b5c:	01f8a623          	sw	x31,12(x17)
80002b60:	04072883          	lw	x17,64(x14)
80002b64:	00288893          	addi	x17,x17,2
80002b68:	00289893          	slli	x17,x17,0x2
80002b6c:	011788b3          	add	x17,x15,x17
80002b70:	0078a623          	sw	x7,12(x17)
80002b74:	04072883          	lw	x17,64(x14)
80002b78:	00388893          	addi	x17,x17,3
80002b7c:	05172023          	sw	x17,64(x14)
80002b80:	0006a883          	lw	x17,0(x13)
80002b84:	0915d663          	bge	x11,x17,80002c10 <benchmark_body+0x2b2c>
80002b88:	04072883          	lw	x17,64(x14)
80002b8c:	09164263          	blt	x12,x17,80002c10 <benchmark_body+0x2b2c>
80002b90:	0347af83          	lw	x31,52(x15)
80002b94:	0247a883          	lw	x17,36(x15)
80002b98:	071f9c63          	bne	x31,x17,80002c10 <benchmark_body+0x2b2c>
80002b9c:	0347af83          	lw	x31,52(x15)
80002ba0:	0287a883          	lw	x17,40(x15)
80002ba4:	071f9663          	bne	x31,x17,80002c10 <benchmark_body+0x2b2c>
80002ba8:	02c7a283          	lw	x5,44(x15)
80002bac:	0347af83          	lw	x31,52(x15)
80002bb0:	07f2d063          	bge	x5,x31,80002c10 <benchmark_body+0x2b2c>
80002bb4:	0307a883          	lw	x17,48(x15)
80002bb8:	01f283b3          	add	x7,x5,x31
80002bbc:	0317a223          	sw	x17,36(x15)
80002bc0:	0006a883          	lw	x17,0(x13)
80002bc4:	ffc88893          	addi	x17,x17,-4
80002bc8:	0116a023          	sw	x17,0(x13)
80002bcc:	04072883          	lw	x17,64(x14)
80002bd0:	00289893          	slli	x17,x17,0x2
80002bd4:	011788b3          	add	x17,x15,x17
80002bd8:	0058a623          	sw	x5,12(x17)
80002bdc:	04072883          	lw	x17,64(x14)
80002be0:	00188893          	addi	x17,x17,1
80002be4:	00289893          	slli	x17,x17,0x2
80002be8:	011788b3          	add	x17,x15,x17
80002bec:	01f8a623          	sw	x31,12(x17)
80002bf0:	04072883          	lw	x17,64(x14)
80002bf4:	00288893          	addi	x17,x17,2
80002bf8:	00289893          	slli	x17,x17,0x2
80002bfc:	011788b3          	add	x17,x15,x17
80002c00:	0078a623          	sw	x7,12(x17)
80002c04:	04072883          	lw	x17,64(x14)
80002c08:	00388893          	addi	x17,x17,3
80002c0c:	05172023          	sw	x17,64(x14)
80002c10:	0006a883          	lw	x17,0(x13)
80002c14:	0915d663          	bge	x11,x17,80002ca0 <benchmark_body+0x2bbc>
80002c18:	04072883          	lw	x17,64(x14)
80002c1c:	09164263          	blt	x12,x17,80002ca0 <benchmark_body+0x2bbc>
80002c20:	0347af83          	lw	x31,52(x15)
80002c24:	0247a883          	lw	x17,36(x15)
80002c28:	071f9c63          	bne	x31,x17,80002ca0 <benchmark_body+0x2bbc>
80002c2c:	0347af83          	lw	x31,52(x15)
80002c30:	0307a883          	lw	x17,48(x15)
80002c34:	071f9663          	bne	x31,x17,80002ca0 <benchmark_body+0x2bbc>
80002c38:	02c7a283          	lw	x5,44(x15)
80002c3c:	0347af83          	lw	x31,52(x15)
80002c40:	07f2d063          	bge	x5,x31,80002ca0 <benchmark_body+0x2bbc>
80002c44:	0287a883          	lw	x17,40(x15)
80002c48:	01f283b3          	add	x7,x5,x31
80002c4c:	0317a223          	sw	x17,36(x15)
80002c50:	0006a883          	lw	x17,0(x13)
80002c54:	ffc88893          	addi	x17,x17,-4
80002c58:	0116a023          	sw	x17,0(x13)
80002c5c:	04072883          	lw	x17,64(x14)
80002c60:	00289893          	slli	x17,x17,0x2
80002c64:	011788b3          	add	x17,x15,x17
80002c68:	0058a623          	sw	x5,12(x17)
80002c6c:	04072883          	lw	x17,64(x14)
80002c70:	00188893          	addi	x17,x17,1
80002c74:	00289893          	slli	x17,x17,0x2
80002c78:	011788b3          	add	x17,x15,x17
80002c7c:	01f8a623          	sw	x31,12(x17)
80002c80:	04072883          	lw	x17,64(x14)
80002c84:	00288893          	addi	x17,x17,2
80002c88:	00289893          	slli	x17,x17,0x2
80002c8c:	011788b3          	add	x17,x15,x17
80002c90:	0078a623          	sw	x7,12(x17)
80002c94:	04072883          	lw	x17,64(x14)
80002c98:	00388893          	addi	x17,x17,3
80002c9c:	05172023          	sw	x17,64(x14)
80002ca0:	0006a883          	lw	x17,0(x13)
80002ca4:	0915d663          	bge	x11,x17,80002d30 <benchmark_body+0x2c4c>
80002ca8:	04072883          	lw	x17,64(x14)
80002cac:	09164263          	blt	x12,x17,80002d30 <benchmark_body+0x2c4c>
80002cb0:	0347af83          	lw	x31,52(x15)
80002cb4:	0287a883          	lw	x17,40(x15)
80002cb8:	071f9c63          	bne	x31,x17,80002d30 <benchmark_body+0x2c4c>
80002cbc:	0347af83          	lw	x31,52(x15)
80002cc0:	0247a883          	lw	x17,36(x15)
80002cc4:	071f9663          	bne	x31,x17,80002d30 <benchmark_body+0x2c4c>
80002cc8:	02c7a283          	lw	x5,44(x15)
80002ccc:	0347af83          	lw	x31,52(x15)
80002cd0:	07f2d063          	bge	x5,x31,80002d30 <benchmark_body+0x2c4c>
80002cd4:	0307a883          	lw	x17,48(x15)
80002cd8:	01f283b3          	add	x7,x5,x31
80002cdc:	0317a223          	sw	x17,36(x15)
80002ce0:	0006a883          	lw	x17,0(x13)
80002ce4:	ffc88893          	addi	x17,x17,-4
80002ce8:	0116a023          	sw	x17,0(x13)
80002cec:	04072883          	lw	x17,64(x14)
80002cf0:	00289893          	slli	x17,x17,0x2
80002cf4:	011788b3          	add	x17,x15,x17
80002cf8:	0058a623          	sw	x5,12(x17)
80002cfc:	04072883          	lw	x17,64(x14)
80002d00:	00188893          	addi	x17,x17,1
80002d04:	00289893          	slli	x17,x17,0x2
80002d08:	011788b3          	add	x17,x15,x17
80002d0c:	01f8a623          	sw	x31,12(x17)
80002d10:	04072883          	lw	x17,64(x14)
80002d14:	00288893          	addi	x17,x17,2
80002d18:	00289893          	slli	x17,x17,0x2
80002d1c:	011788b3          	add	x17,x15,x17
80002d20:	0078a623          	sw	x7,12(x17)
80002d24:	04072883          	lw	x17,64(x14)
80002d28:	00388893          	addi	x17,x17,3
80002d2c:	05172023          	sw	x17,64(x14)
80002d30:	0006a883          	lw	x17,0(x13)
80002d34:	0915d263          	bge	x11,x17,80002db8 <benchmark_body+0x2cd4>
80002d38:	04072883          	lw	x17,64(x14)
80002d3c:	07164e63          	blt	x12,x17,80002db8 <benchmark_body+0x2cd4>
80002d40:	0347af83          	lw	x31,52(x15)
80002d44:	0287a883          	lw	x17,40(x15)
80002d48:	071f9863          	bne	x31,x17,80002db8 <benchmark_body+0x2cd4>
80002d4c:	0347af83          	lw	x31,52(x15)
80002d50:	0307a883          	lw	x17,48(x15)
80002d54:	071f9263          	bne	x31,x17,80002db8 <benchmark_body+0x2cd4>
80002d58:	02c7a283          	lw	x5,44(x15)
80002d5c:	0347af83          	lw	x31,52(x15)
80002d60:	05f2dc63          	bge	x5,x31,80002db8 <benchmark_body+0x2cd4>
80002d64:	0006a883          	lw	x17,0(x13)
80002d68:	01f283b3          	add	x7,x5,x31
80002d6c:	ffc88893          	addi	x17,x17,-4
80002d70:	0116a023          	sw	x17,0(x13)
80002d74:	04072883          	lw	x17,64(x14)
80002d78:	00289893          	slli	x17,x17,0x2
80002d7c:	011788b3          	add	x17,x15,x17
80002d80:	0058a623          	sw	x5,12(x17)
80002d84:	04072883          	lw	x17,64(x14)
80002d88:	00188893          	addi	x17,x17,1
80002d8c:	00289893          	slli	x17,x17,0x2
80002d90:	011788b3          	add	x17,x15,x17
80002d94:	01f8a623          	sw	x31,12(x17)
80002d98:	04072883          	lw	x17,64(x14)
80002d9c:	00288893          	addi	x17,x17,2
80002da0:	00289893          	slli	x17,x17,0x2
80002da4:	011788b3          	add	x17,x15,x17
80002da8:	0078a623          	sw	x7,12(x17)
80002dac:	04072883          	lw	x17,64(x14)
80002db0:	00388893          	addi	x17,x17,3
80002db4:	05172023          	sw	x17,64(x14)
80002db8:	0006a883          	lw	x17,0(x13)
80002dbc:	0915d663          	bge	x11,x17,80002e48 <benchmark_body+0x2d64>
80002dc0:	04072883          	lw	x17,64(x14)
80002dc4:	09164263          	blt	x12,x17,80002e48 <benchmark_body+0x2d64>
80002dc8:	0347af83          	lw	x31,52(x15)
80002dcc:	0307a883          	lw	x17,48(x15)
80002dd0:	071f9c63          	bne	x31,x17,80002e48 <benchmark_body+0x2d64>
80002dd4:	0347af83          	lw	x31,52(x15)
80002dd8:	0247a883          	lw	x17,36(x15)
80002ddc:	071f9663          	bne	x31,x17,80002e48 <benchmark_body+0x2d64>
80002de0:	02c7a283          	lw	x5,44(x15)
80002de4:	0347af83          	lw	x31,52(x15)
80002de8:	07f2d063          	bge	x5,x31,80002e48 <benchmark_body+0x2d64>
80002dec:	0287a883          	lw	x17,40(x15)
80002df0:	01f283b3          	add	x7,x5,x31
80002df4:	0317a223          	sw	x17,36(x15)
80002df8:	0006a883          	lw	x17,0(x13)
80002dfc:	ffc88893          	addi	x17,x17,-4
80002e00:	0116a023          	sw	x17,0(x13)
80002e04:	04072883          	lw	x17,64(x14)
80002e08:	00289893          	slli	x17,x17,0x2
80002e0c:	011788b3          	add	x17,x15,x17
80002e10:	0058a623          	sw	x5,12(x17)
80002e14:	04072883          	lw	x17,64(x14)
80002e18:	00188893          	addi	x17,x17,1
80002e1c:	00289893          	slli	x17,x17,0x2
80002e20:	011788b3          	add	x17,x15,x17
80002e24:	01f8a623          	sw	x31,12(x17)
80002e28:	04072883          	lw	x17,64(x14)
80002e2c:	00288893          	addi	x17,x17,2
80002e30:	00289893          	slli	x17,x17,0x2
80002e34:	011788b3          	add	x17,x15,x17
80002e38:	0078a623          	sw	x7,12(x17)
80002e3c:	04072883          	lw	x17,64(x14)
80002e40:	00388893          	addi	x17,x17,3
80002e44:	05172023          	sw	x17,64(x14)
80002e48:	0006a883          	lw	x17,0(x13)
80002e4c:	0915d263          	bge	x11,x17,80002ed0 <benchmark_body+0x2dec>
80002e50:	04072883          	lw	x17,64(x14)
80002e54:	07164e63          	blt	x12,x17,80002ed0 <benchmark_body+0x2dec>
80002e58:	0347af83          	lw	x31,52(x15)
80002e5c:	0307a883          	lw	x17,48(x15)
80002e60:	071f9863          	bne	x31,x17,80002ed0 <benchmark_body+0x2dec>
80002e64:	0347af83          	lw	x31,52(x15)
80002e68:	0287a883          	lw	x17,40(x15)
80002e6c:	071f9263          	bne	x31,x17,80002ed0 <benchmark_body+0x2dec>
80002e70:	02c7a283          	lw	x5,44(x15)
80002e74:	0347af83          	lw	x31,52(x15)
80002e78:	05f2dc63          	bge	x5,x31,80002ed0 <benchmark_body+0x2dec>
80002e7c:	0006a883          	lw	x17,0(x13)
80002e80:	01f283b3          	add	x7,x5,x31
80002e84:	ffc88893          	addi	x17,x17,-4
80002e88:	0116a023          	sw	x17,0(x13)
80002e8c:	04072883          	lw	x17,64(x14)
80002e90:	00289893          	slli	x17,x17,0x2
80002e94:	011788b3          	add	x17,x15,x17
80002e98:	0058a623          	sw	x5,12(x17)
80002e9c:	04072883          	lw	x17,64(x14)
80002ea0:	00188893          	addi	x17,x17,1
80002ea4:	00289893          	slli	x17,x17,0x2
80002ea8:	011788b3          	add	x17,x15,x17
80002eac:	01f8a623          	sw	x31,12(x17)
80002eb0:	04072883          	lw	x17,64(x14)
80002eb4:	00288893          	addi	x17,x17,2
80002eb8:	00289893          	slli	x17,x17,0x2
80002ebc:	011788b3          	add	x17,x15,x17
80002ec0:	0078a623          	sw	x7,12(x17)
80002ec4:	04072883          	lw	x17,64(x14)
80002ec8:	00388893          	addi	x17,x17,3
80002ecc:	05172023          	sw	x17,64(x14)
80002ed0:	0006a883          	lw	x17,0(x13)
80002ed4:	0915d663          	bge	x11,x17,80002f60 <benchmark_body+0x2e7c>
80002ed8:	04072883          	lw	x17,64(x14)
80002edc:	09164263          	blt	x12,x17,80002f60 <benchmark_body+0x2e7c>
80002ee0:	0247af83          	lw	x31,36(x15)
80002ee4:	0287a883          	lw	x17,40(x15)
80002ee8:	071f9c63          	bne	x31,x17,80002f60 <benchmark_body+0x2e7c>
80002eec:	0247af83          	lw	x31,36(x15)
80002ef0:	0347a883          	lw	x17,52(x15)
80002ef4:	071f9663          	bne	x31,x17,80002f60 <benchmark_body+0x2e7c>
80002ef8:	0307a283          	lw	x5,48(x15)
80002efc:	0247af83          	lw	x31,36(x15)
80002f00:	07f2d063          	bge	x5,x31,80002f60 <benchmark_body+0x2e7c>
80002f04:	02c7a883          	lw	x17,44(x15)
80002f08:	01f283b3          	add	x7,x5,x31
80002f0c:	0317a223          	sw	x17,36(x15)
80002f10:	0006a883          	lw	x17,0(x13)
80002f14:	ffc88893          	addi	x17,x17,-4
80002f18:	0116a023          	sw	x17,0(x13)
80002f1c:	04072883          	lw	x17,64(x14)
80002f20:	00289893          	slli	x17,x17,0x2
80002f24:	011788b3          	add	x17,x15,x17
80002f28:	0058a623          	sw	x5,12(x17)
80002f2c:	04072883          	lw	x17,64(x14)
80002f30:	00188893          	addi	x17,x17,1
80002f34:	00289893          	slli	x17,x17,0x2
80002f38:	011788b3          	add	x17,x15,x17
80002f3c:	01f8a623          	sw	x31,12(x17)
80002f40:	04072883          	lw	x17,64(x14)
80002f44:	00288893          	addi	x17,x17,2
80002f48:	00289893          	slli	x17,x17,0x2
80002f4c:	011788b3          	add	x17,x15,x17
80002f50:	0078a623          	sw	x7,12(x17)
80002f54:	04072883          	lw	x17,64(x14)
80002f58:	00388893          	addi	x17,x17,3
80002f5c:	05172023          	sw	x17,64(x14)
80002f60:	0006a883          	lw	x17,0(x13)
80002f64:	0915d663          	bge	x11,x17,80002ff0 <benchmark_body+0x2f0c>
80002f68:	04072883          	lw	x17,64(x14)
80002f6c:	09164263          	blt	x12,x17,80002ff0 <benchmark_body+0x2f0c>
80002f70:	0247af83          	lw	x31,36(x15)
80002f74:	02c7a883          	lw	x17,44(x15)
80002f78:	071f9c63          	bne	x31,x17,80002ff0 <benchmark_body+0x2f0c>
80002f7c:	0247af83          	lw	x31,36(x15)
80002f80:	0347a883          	lw	x17,52(x15)
80002f84:	071f9663          	bne	x31,x17,80002ff0 <benchmark_body+0x2f0c>
80002f88:	0307a283          	lw	x5,48(x15)
80002f8c:	0247af83          	lw	x31,36(x15)
80002f90:	07f2d063          	bge	x5,x31,80002ff0 <benchmark_body+0x2f0c>
80002f94:	0287a883          	lw	x17,40(x15)
80002f98:	01f283b3          	add	x7,x5,x31
80002f9c:	0317a223          	sw	x17,36(x15)
80002fa0:	0006a883          	lw	x17,0(x13)
80002fa4:	ffc88893          	addi	x17,x17,-4
80002fa8:	0116a023          	sw	x17,0(x13)
80002fac:	04072883          	lw	x17,64(x14)
80002fb0:	00289893          	slli	x17,x17,0x2
80002fb4:	011788b3          	add	x17,x15,x17
80002fb8:	0058a623          	sw	x5,12(x17)
80002fbc:	04072883          	lw	x17,64(x14)
80002fc0:	00188893          	addi	x17,x17,1
80002fc4:	00289893          	slli	x17,x17,0x2
80002fc8:	011788b3          	add	x17,x15,x17
80002fcc:	01f8a623          	sw	x31,12(x17)
80002fd0:	04072883          	lw	x17,64(x14)
80002fd4:	00288893          	addi	x17,x17,2
80002fd8:	00289893          	slli	x17,x17,0x2
80002fdc:	011788b3          	add	x17,x15,x17
80002fe0:	0078a623          	sw	x7,12(x17)
80002fe4:	04072883          	lw	x17,64(x14)
80002fe8:	00388893          	addi	x17,x17,3
80002fec:	05172023          	sw	x17,64(x14)
80002ff0:	0006a883          	lw	x17,0(x13)
80002ff4:	0915d663          	bge	x11,x17,80003080 <benchmark_body+0x2f9c>
80002ff8:	04072883          	lw	x17,64(x14)
80002ffc:	09164263          	blt	x12,x17,80003080 <benchmark_body+0x2f9c>
80003000:	0247af83          	lw	x31,36(x15)
80003004:	0347a883          	lw	x17,52(x15)
80003008:	071f9c63          	bne	x31,x17,80003080 <benchmark_body+0x2f9c>
8000300c:	0247af83          	lw	x31,36(x15)
80003010:	0287a883          	lw	x17,40(x15)
80003014:	071f9663          	bne	x31,x17,80003080 <benchmark_body+0x2f9c>
80003018:	0307a283          	lw	x5,48(x15)
8000301c:	0247af83          	lw	x31,36(x15)
80003020:	07f2d063          	bge	x5,x31,80003080 <benchmark_body+0x2f9c>
80003024:	02c7a883          	lw	x17,44(x15)
80003028:	01f283b3          	add	x7,x5,x31
8000302c:	0317a223          	sw	x17,36(x15)
80003030:	0006a883          	lw	x17,0(x13)
80003034:	ffc88893          	addi	x17,x17,-4
80003038:	0116a023          	sw	x17,0(x13)
8000303c:	04072883          	lw	x17,64(x14)
80003040:	00289893          	slli	x17,x17,0x2
80003044:	011788b3          	add	x17,x15,x17
80003048:	0058a623          	sw	x5,12(x17)
8000304c:	04072883          	lw	x17,64(x14)
80003050:	00188893          	addi	x17,x17,1
80003054:	00289893          	slli	x17,x17,0x2
80003058:	011788b3          	add	x17,x15,x17
8000305c:	01f8a623          	sw	x31,12(x17)
80003060:	04072883          	lw	x17,64(x14)
80003064:	00288893          	addi	x17,x17,2
80003068:	00289893          	slli	x17,x17,0x2
8000306c:	011788b3          	add	x17,x15,x17
80003070:	0078a623          	sw	x7,12(x17)
80003074:	04072883          	lw	x17,64(x14)
80003078:	00388893          	addi	x17,x17,3
8000307c:	05172023          	sw	x17,64(x14)
80003080:	0006a883          	lw	x17,0(x13)
80003084:	0915d663          	bge	x11,x17,80003110 <benchmark_body+0x302c>
80003088:	04072883          	lw	x17,64(x14)
8000308c:	09164263          	blt	x12,x17,80003110 <benchmark_body+0x302c>
80003090:	0247af83          	lw	x31,36(x15)
80003094:	0347a883          	lw	x17,52(x15)
80003098:	071f9c63          	bne	x31,x17,80003110 <benchmark_body+0x302c>
8000309c:	0247af83          	lw	x31,36(x15)
800030a0:	02c7a883          	lw	x17,44(x15)
800030a4:	071f9663          	bne	x31,x17,80003110 <benchmark_body+0x302c>
800030a8:	0307a283          	lw	x5,48(x15)
800030ac:	0247af83          	lw	x31,36(x15)
800030b0:	07f2d063          	bge	x5,x31,80003110 <benchmark_body+0x302c>
800030b4:	0287a883          	lw	x17,40(x15)
800030b8:	01f283b3          	add	x7,x5,x31
800030bc:	0317a223          	sw	x17,36(x15)
800030c0:	0006a883          	lw	x17,0(x13)
800030c4:	ffc88893          	addi	x17,x17,-4
800030c8:	0116a023          	sw	x17,0(x13)
800030cc:	04072883          	lw	x17,64(x14)
800030d0:	00289893          	slli	x17,x17,0x2
800030d4:	011788b3          	add	x17,x15,x17
800030d8:	0058a623          	sw	x5,12(x17)
800030dc:	04072883          	lw	x17,64(x14)
800030e0:	00188893          	addi	x17,x17,1
800030e4:	00289893          	slli	x17,x17,0x2
800030e8:	011788b3          	add	x17,x15,x17
800030ec:	01f8a623          	sw	x31,12(x17)
800030f0:	04072883          	lw	x17,64(x14)
800030f4:	00288893          	addi	x17,x17,2
800030f8:	00289893          	slli	x17,x17,0x2
800030fc:	011788b3          	add	x17,x15,x17
80003100:	0078a623          	sw	x7,12(x17)
80003104:	04072883          	lw	x17,64(x14)
80003108:	00388893          	addi	x17,x17,3
8000310c:	05172023          	sw	x17,64(x14)
80003110:	0006a883          	lw	x17,0(x13)
80003114:	0915d663          	bge	x11,x17,800031a0 <benchmark_body+0x30bc>
80003118:	04072883          	lw	x17,64(x14)
8000311c:	09164263          	blt	x12,x17,800031a0 <benchmark_body+0x30bc>
80003120:	0287af83          	lw	x31,40(x15)
80003124:	0247a883          	lw	x17,36(x15)
80003128:	071f9c63          	bne	x31,x17,800031a0 <benchmark_body+0x30bc>
8000312c:	0287af83          	lw	x31,40(x15)
80003130:	0347a883          	lw	x17,52(x15)
80003134:	071f9663          	bne	x31,x17,800031a0 <benchmark_body+0x30bc>
80003138:	0307a283          	lw	x5,48(x15)
8000313c:	0287af83          	lw	x31,40(x15)
80003140:	07f2d063          	bge	x5,x31,800031a0 <benchmark_body+0x30bc>
80003144:	02c7a883          	lw	x17,44(x15)
80003148:	01f283b3          	add	x7,x5,x31
8000314c:	0317a223          	sw	x17,36(x15)
80003150:	0006a883          	lw	x17,0(x13)
80003154:	ffc88893          	addi	x17,x17,-4
80003158:	0116a023          	sw	x17,0(x13)
8000315c:	04072883          	lw	x17,64(x14)
80003160:	00289893          	slli	x17,x17,0x2
80003164:	011788b3          	add	x17,x15,x17
80003168:	0058a623          	sw	x5,12(x17)
8000316c:	04072883          	lw	x17,64(x14)
80003170:	00188893          	addi	x17,x17,1
80003174:	00289893          	slli	x17,x17,0x2
80003178:	011788b3          	add	x17,x15,x17
8000317c:	01f8a623          	sw	x31,12(x17)
80003180:	04072883          	lw	x17,64(x14)
80003184:	00288893          	addi	x17,x17,2
80003188:	00289893          	slli	x17,x17,0x2
8000318c:	011788b3          	add	x17,x15,x17
80003190:	0078a623          	sw	x7,12(x17)
80003194:	04072883          	lw	x17,64(x14)
80003198:	00388893          	addi	x17,x17,3
8000319c:	05172023          	sw	x17,64(x14)
800031a0:	0006a883          	lw	x17,0(x13)
800031a4:	0915d263          	bge	x11,x17,80003228 <benchmark_body+0x3144>
800031a8:	04072883          	lw	x17,64(x14)
800031ac:	07164e63          	blt	x12,x17,80003228 <benchmark_body+0x3144>
800031b0:	0287af83          	lw	x31,40(x15)
800031b4:	02c7a883          	lw	x17,44(x15)
800031b8:	071f9863          	bne	x31,x17,80003228 <benchmark_body+0x3144>
800031bc:	0287af83          	lw	x31,40(x15)
800031c0:	0347a883          	lw	x17,52(x15)
800031c4:	071f9263          	bne	x31,x17,80003228 <benchmark_body+0x3144>
800031c8:	0307a283          	lw	x5,48(x15)
800031cc:	0287af83          	lw	x31,40(x15)
800031d0:	05f2dc63          	bge	x5,x31,80003228 <benchmark_body+0x3144>
800031d4:	0006a883          	lw	x17,0(x13)
800031d8:	01f283b3          	add	x7,x5,x31
800031dc:	ffc88893          	addi	x17,x17,-4
800031e0:	0116a023          	sw	x17,0(x13)
800031e4:	04072883          	lw	x17,64(x14)
800031e8:	00289893          	slli	x17,x17,0x2
800031ec:	011788b3          	add	x17,x15,x17
800031f0:	0058a623          	sw	x5,12(x17)
800031f4:	04072883          	lw	x17,64(x14)
800031f8:	00188893          	addi	x17,x17,1
800031fc:	00289893          	slli	x17,x17,0x2
80003200:	011788b3          	add	x17,x15,x17
80003204:	01f8a623          	sw	x31,12(x17)
80003208:	04072883          	lw	x17,64(x14)
8000320c:	00288893          	addi	x17,x17,2
80003210:	00289893          	slli	x17,x17,0x2
80003214:	011788b3          	add	x17,x15,x17
80003218:	0078a623          	sw	x7,12(x17)
8000321c:	04072883          	lw	x17,64(x14)
80003220:	00388893          	addi	x17,x17,3
80003224:	05172023          	sw	x17,64(x14)
80003228:	0006a883          	lw	x17,0(x13)
8000322c:	0915d663          	bge	x11,x17,800032b8 <benchmark_body+0x31d4>
80003230:	04072883          	lw	x17,64(x14)
80003234:	09164263          	blt	x12,x17,800032b8 <benchmark_body+0x31d4>
80003238:	0287af83          	lw	x31,40(x15)
8000323c:	0347a883          	lw	x17,52(x15)
80003240:	071f9c63          	bne	x31,x17,800032b8 <benchmark_body+0x31d4>
80003244:	0287af83          	lw	x31,40(x15)
80003248:	0247a883          	lw	x17,36(x15)
8000324c:	071f9663          	bne	x31,x17,800032b8 <benchmark_body+0x31d4>
80003250:	0307a283          	lw	x5,48(x15)
80003254:	0287af83          	lw	x31,40(x15)
80003258:	07f2d063          	bge	x5,x31,800032b8 <benchmark_body+0x31d4>
8000325c:	02c7a883          	lw	x17,44(x15)
80003260:	01f283b3          	add	x7,x5,x31
80003264:	0317a223          	sw	x17,36(x15)
80003268:	0006a883          	lw	x17,0(x13)
8000326c:	ffc88893          	addi	x17,x17,-4
80003270:	0116a023          	sw	x17,0(x13)
80003274:	04072883          	lw	x17,64(x14)
80003278:	00289893          	slli	x17,x17,0x2
8000327c:	011788b3          	add	x17,x15,x17
80003280:	0058a623          	sw	x5,12(x17)
80003284:	04072883          	lw	x17,64(x14)
80003288:	00188893          	addi	x17,x17,1
8000328c:	00289893          	slli	x17,x17,0x2
80003290:	011788b3          	add	x17,x15,x17
80003294:	01f8a623          	sw	x31,12(x17)
80003298:	04072883          	lw	x17,64(x14)
8000329c:	00288893          	addi	x17,x17,2
800032a0:	00289893          	slli	x17,x17,0x2
800032a4:	011788b3          	add	x17,x15,x17
800032a8:	0078a623          	sw	x7,12(x17)
800032ac:	04072883          	lw	x17,64(x14)
800032b0:	00388893          	addi	x17,x17,3
800032b4:	05172023          	sw	x17,64(x14)
800032b8:	0006a883          	lw	x17,0(x13)
800032bc:	0915d263          	bge	x11,x17,80003340 <benchmark_body+0x325c>
800032c0:	04072883          	lw	x17,64(x14)
800032c4:	07164e63          	blt	x12,x17,80003340 <benchmark_body+0x325c>
800032c8:	0287af83          	lw	x31,40(x15)
800032cc:	0347a883          	lw	x17,52(x15)
800032d0:	071f9863          	bne	x31,x17,80003340 <benchmark_body+0x325c>
800032d4:	0287af83          	lw	x31,40(x15)
800032d8:	02c7a883          	lw	x17,44(x15)
800032dc:	071f9263          	bne	x31,x17,80003340 <benchmark_body+0x325c>
800032e0:	0307a283          	lw	x5,48(x15)
800032e4:	0287af83          	lw	x31,40(x15)
800032e8:	05f2dc63          	bge	x5,x31,80003340 <benchmark_body+0x325c>
800032ec:	0006a883          	lw	x17,0(x13)
800032f0:	01f283b3          	add	x7,x5,x31
800032f4:	ffc88893          	addi	x17,x17,-4
800032f8:	0116a023          	sw	x17,0(x13)
800032fc:	04072883          	lw	x17,64(x14)
80003300:	00289893          	slli	x17,x17,0x2
80003304:	011788b3          	add	x17,x15,x17
80003308:	0058a623          	sw	x5,12(x17)
8000330c:	04072883          	lw	x17,64(x14)
80003310:	00188893          	addi	x17,x17,1
80003314:	00289893          	slli	x17,x17,0x2
80003318:	011788b3          	add	x17,x15,x17
8000331c:	01f8a623          	sw	x31,12(x17)
80003320:	04072883          	lw	x17,64(x14)
80003324:	00288893          	addi	x17,x17,2
80003328:	00289893          	slli	x17,x17,0x2
8000332c:	011788b3          	add	x17,x15,x17
80003330:	0078a623          	sw	x7,12(x17)
80003334:	04072883          	lw	x17,64(x14)
80003338:	00388893          	addi	x17,x17,3
8000333c:	05172023          	sw	x17,64(x14)
80003340:	0006a883          	lw	x17,0(x13)
80003344:	0915d663          	bge	x11,x17,800033d0 <benchmark_body+0x32ec>
80003348:	04072883          	lw	x17,64(x14)
8000334c:	09164263          	blt	x12,x17,800033d0 <benchmark_body+0x32ec>
80003350:	02c7af83          	lw	x31,44(x15)
80003354:	0247a883          	lw	x17,36(x15)
80003358:	071f9c63          	bne	x31,x17,800033d0 <benchmark_body+0x32ec>
8000335c:	02c7af83          	lw	x31,44(x15)
80003360:	0347a883          	lw	x17,52(x15)
80003364:	071f9663          	bne	x31,x17,800033d0 <benchmark_body+0x32ec>
80003368:	0307a283          	lw	x5,48(x15)
8000336c:	02c7af83          	lw	x31,44(x15)
80003370:	07f2d063          	bge	x5,x31,800033d0 <benchmark_body+0x32ec>
80003374:	0287a883          	lw	x17,40(x15)
80003378:	01f283b3          	add	x7,x5,x31
8000337c:	0317a223          	sw	x17,36(x15)
80003380:	0006a883          	lw	x17,0(x13)
80003384:	ffc88893          	addi	x17,x17,-4
80003388:	0116a023          	sw	x17,0(x13)
8000338c:	04072883          	lw	x17,64(x14)
80003390:	00289893          	slli	x17,x17,0x2
80003394:	011788b3          	add	x17,x15,x17
80003398:	0058a623          	sw	x5,12(x17)
8000339c:	04072883          	lw	x17,64(x14)
800033a0:	00188893          	addi	x17,x17,1
800033a4:	00289893          	slli	x17,x17,0x2
800033a8:	011788b3          	add	x17,x15,x17
800033ac:	01f8a623          	sw	x31,12(x17)
800033b0:	04072883          	lw	x17,64(x14)
800033b4:	00288893          	addi	x17,x17,2
800033b8:	00289893          	slli	x17,x17,0x2
800033bc:	011788b3          	add	x17,x15,x17
800033c0:	0078a623          	sw	x7,12(x17)
800033c4:	04072883          	lw	x17,64(x14)
800033c8:	00388893          	addi	x17,x17,3
800033cc:	05172023          	sw	x17,64(x14)
800033d0:	0006a883          	lw	x17,0(x13)
800033d4:	0915d263          	bge	x11,x17,80003458 <benchmark_body+0x3374>
800033d8:	04072883          	lw	x17,64(x14)
800033dc:	07164e63          	blt	x12,x17,80003458 <benchmark_body+0x3374>
800033e0:	02c7af83          	lw	x31,44(x15)
800033e4:	0287a883          	lw	x17,40(x15)
800033e8:	071f9863          	bne	x31,x17,80003458 <benchmark_body+0x3374>
800033ec:	02c7af83          	lw	x31,44(x15)
800033f0:	0347a883          	lw	x17,52(x15)
800033f4:	071f9263          	bne	x31,x17,80003458 <benchmark_body+0x3374>
800033f8:	0307a283          	lw	x5,48(x15)
800033fc:	02c7af83          	lw	x31,44(x15)
80003400:	05f2dc63          	bge	x5,x31,80003458 <benchmark_body+0x3374>
80003404:	0006a883          	lw	x17,0(x13)
80003408:	01f283b3          	add	x7,x5,x31
8000340c:	ffc88893          	addi	x17,x17,-4
80003410:	0116a023          	sw	x17,0(x13)
80003414:	04072883          	lw	x17,64(x14)
80003418:	00289893          	slli	x17,x17,0x2
8000341c:	011788b3          	add	x17,x15,x17
80003420:	0058a623          	sw	x5,12(x17)
80003424:	04072883          	lw	x17,64(x14)
80003428:	00188893          	addi	x17,x17,1
8000342c:	00289893          	slli	x17,x17,0x2
80003430:	011788b3          	add	x17,x15,x17
80003434:	01f8a623          	sw	x31,12(x17)
80003438:	04072883          	lw	x17,64(x14)
8000343c:	00288893          	addi	x17,x17,2
80003440:	00289893          	slli	x17,x17,0x2
80003444:	011788b3          	add	x17,x15,x17
80003448:	0078a623          	sw	x7,12(x17)
8000344c:	04072883          	lw	x17,64(x14)
80003450:	00388893          	addi	x17,x17,3
80003454:	05172023          	sw	x17,64(x14)
80003458:	0006a883          	lw	x17,0(x13)
8000345c:	0915d663          	bge	x11,x17,800034e8 <benchmark_body+0x3404>
80003460:	04072883          	lw	x17,64(x14)
80003464:	09164263          	blt	x12,x17,800034e8 <benchmark_body+0x3404>
80003468:	02c7af83          	lw	x31,44(x15)
8000346c:	0347a883          	lw	x17,52(x15)
80003470:	071f9c63          	bne	x31,x17,800034e8 <benchmark_body+0x3404>
80003474:	02c7af83          	lw	x31,44(x15)
80003478:	0247a883          	lw	x17,36(x15)
8000347c:	071f9663          	bne	x31,x17,800034e8 <benchmark_body+0x3404>
80003480:	0307a283          	lw	x5,48(x15)
80003484:	02c7af83          	lw	x31,44(x15)
80003488:	07f2d063          	bge	x5,x31,800034e8 <benchmark_body+0x3404>
8000348c:	0287a883          	lw	x17,40(x15)
80003490:	01f283b3          	add	x7,x5,x31
80003494:	0317a223          	sw	x17,36(x15)
80003498:	0006a883          	lw	x17,0(x13)
8000349c:	ffc88893          	addi	x17,x17,-4
800034a0:	0116a023          	sw	x17,0(x13)
800034a4:	04072883          	lw	x17,64(x14)
800034a8:	00289893          	slli	x17,x17,0x2
800034ac:	011788b3          	add	x17,x15,x17
800034b0:	0058a623          	sw	x5,12(x17)
800034b4:	04072883          	lw	x17,64(x14)
800034b8:	00188893          	addi	x17,x17,1
800034bc:	00289893          	slli	x17,x17,0x2
800034c0:	011788b3          	add	x17,x15,x17
800034c4:	01f8a623          	sw	x31,12(x17)
800034c8:	04072883          	lw	x17,64(x14)
800034cc:	00288893          	addi	x17,x17,2
800034d0:	00289893          	slli	x17,x17,0x2
800034d4:	011788b3          	add	x17,x15,x17
800034d8:	0078a623          	sw	x7,12(x17)
800034dc:	04072883          	lw	x17,64(x14)
800034e0:	00388893          	addi	x17,x17,3
800034e4:	05172023          	sw	x17,64(x14)
800034e8:	0006a883          	lw	x17,0(x13)
800034ec:	0915d263          	bge	x11,x17,80003570 <benchmark_body+0x348c>
800034f0:	04072883          	lw	x17,64(x14)
800034f4:	07164e63          	blt	x12,x17,80003570 <benchmark_body+0x348c>
800034f8:	02c7af83          	lw	x31,44(x15)
800034fc:	0347a883          	lw	x17,52(x15)
80003500:	071f9863          	bne	x31,x17,80003570 <benchmark_body+0x348c>
80003504:	02c7af83          	lw	x31,44(x15)
80003508:	0287a883          	lw	x17,40(x15)
8000350c:	071f9263          	bne	x31,x17,80003570 <benchmark_body+0x348c>
80003510:	0307a283          	lw	x5,48(x15)
80003514:	02c7af83          	lw	x31,44(x15)
80003518:	05f2dc63          	bge	x5,x31,80003570 <benchmark_body+0x348c>
8000351c:	0006a883          	lw	x17,0(x13)
80003520:	01f283b3          	add	x7,x5,x31
80003524:	ffc88893          	addi	x17,x17,-4
80003528:	0116a023          	sw	x17,0(x13)
8000352c:	04072883          	lw	x17,64(x14)
80003530:	00289893          	slli	x17,x17,0x2
80003534:	011788b3          	add	x17,x15,x17
80003538:	0058a623          	sw	x5,12(x17)
8000353c:	04072883          	lw	x17,64(x14)
80003540:	00188893          	addi	x17,x17,1
80003544:	00289893          	slli	x17,x17,0x2
80003548:	011788b3          	add	x17,x15,x17
8000354c:	01f8a623          	sw	x31,12(x17)
80003550:	04072883          	lw	x17,64(x14)
80003554:	00288893          	addi	x17,x17,2
80003558:	00289893          	slli	x17,x17,0x2
8000355c:	011788b3          	add	x17,x15,x17
80003560:	0078a623          	sw	x7,12(x17)
80003564:	04072883          	lw	x17,64(x14)
80003568:	00388893          	addi	x17,x17,3
8000356c:	05172023          	sw	x17,64(x14)
80003570:	0006a883          	lw	x17,0(x13)
80003574:	0915d663          	bge	x11,x17,80003600 <benchmark_body+0x351c>
80003578:	04072883          	lw	x17,64(x14)
8000357c:	09164263          	blt	x12,x17,80003600 <benchmark_body+0x351c>
80003580:	0347af83          	lw	x31,52(x15)
80003584:	0247a883          	lw	x17,36(x15)
80003588:	071f9c63          	bne	x31,x17,80003600 <benchmark_body+0x351c>
8000358c:	0347af83          	lw	x31,52(x15)
80003590:	0287a883          	lw	x17,40(x15)
80003594:	071f9663          	bne	x31,x17,80003600 <benchmark_body+0x351c>
80003598:	0307a283          	lw	x5,48(x15)
8000359c:	0347af83          	lw	x31,52(x15)
800035a0:	07f2d063          	bge	x5,x31,80003600 <benchmark_body+0x351c>
800035a4:	02c7a883          	lw	x17,44(x15)
800035a8:	01f283b3          	add	x7,x5,x31
800035ac:	0317a223          	sw	x17,36(x15)
800035b0:	0006a883          	lw	x17,0(x13)
800035b4:	ffc88893          	addi	x17,x17,-4
800035b8:	0116a023          	sw	x17,0(x13)
800035bc:	04072883          	lw	x17,64(x14)
800035c0:	00289893          	slli	x17,x17,0x2
800035c4:	011788b3          	add	x17,x15,x17
800035c8:	0058a623          	sw	x5,12(x17)
800035cc:	04072883          	lw	x17,64(x14)
800035d0:	00188893          	addi	x17,x17,1
800035d4:	00289893          	slli	x17,x17,0x2
800035d8:	011788b3          	add	x17,x15,x17
800035dc:	01f8a623          	sw	x31,12(x17)
800035e0:	04072883          	lw	x17,64(x14)
800035e4:	00288893          	addi	x17,x17,2
800035e8:	00289893          	slli	x17,x17,0x2
800035ec:	011788b3          	add	x17,x15,x17
800035f0:	0078a623          	sw	x7,12(x17)
800035f4:	04072883          	lw	x17,64(x14)
800035f8:	00388893          	addi	x17,x17,3
800035fc:	05172023          	sw	x17,64(x14)
80003600:	0006a883          	lw	x17,0(x13)
80003604:	0915d663          	bge	x11,x17,80003690 <benchmark_body+0x35ac>
80003608:	04072883          	lw	x17,64(x14)
8000360c:	09164263          	blt	x12,x17,80003690 <benchmark_body+0x35ac>
80003610:	0347af83          	lw	x31,52(x15)
80003614:	0247a883          	lw	x17,36(x15)
80003618:	071f9c63          	bne	x31,x17,80003690 <benchmark_body+0x35ac>
8000361c:	0347af83          	lw	x31,52(x15)
80003620:	02c7a883          	lw	x17,44(x15)
80003624:	071f9663          	bne	x31,x17,80003690 <benchmark_body+0x35ac>
80003628:	0307a283          	lw	x5,48(x15)
8000362c:	0347af83          	lw	x31,52(x15)
80003630:	07f2d063          	bge	x5,x31,80003690 <benchmark_body+0x35ac>
80003634:	0287a883          	lw	x17,40(x15)
80003638:	01f283b3          	add	x7,x5,x31
8000363c:	0317a223          	sw	x17,36(x15)
80003640:	0006a883          	lw	x17,0(x13)
80003644:	ffc88893          	addi	x17,x17,-4
80003648:	0116a023          	sw	x17,0(x13)
8000364c:	04072883          	lw	x17,64(x14)
80003650:	00289893          	slli	x17,x17,0x2
80003654:	011788b3          	add	x17,x15,x17
80003658:	0058a623          	sw	x5,12(x17)
8000365c:	04072883          	lw	x17,64(x14)
80003660:	00188893          	addi	x17,x17,1
80003664:	00289893          	slli	x17,x17,0x2
80003668:	011788b3          	add	x17,x15,x17
8000366c:	01f8a623          	sw	x31,12(x17)
80003670:	04072883          	lw	x17,64(x14)
80003674:	00288893          	addi	x17,x17,2
80003678:	00289893          	slli	x17,x17,0x2
8000367c:	011788b3          	add	x17,x15,x17
80003680:	0078a623          	sw	x7,12(x17)
80003684:	04072883          	lw	x17,64(x14)
80003688:	00388893          	addi	x17,x17,3
8000368c:	05172023          	sw	x17,64(x14)
80003690:	0006a883          	lw	x17,0(x13)
80003694:	0915d663          	bge	x11,x17,80003720 <benchmark_body+0x363c>
80003698:	04072883          	lw	x17,64(x14)
8000369c:	09164263          	blt	x12,x17,80003720 <benchmark_body+0x363c>
800036a0:	0347af83          	lw	x31,52(x15)
800036a4:	0287a883          	lw	x17,40(x15)
800036a8:	071f9c63          	bne	x31,x17,80003720 <benchmark_body+0x363c>
800036ac:	0347af83          	lw	x31,52(x15)
800036b0:	0247a883          	lw	x17,36(x15)
800036b4:	071f9663          	bne	x31,x17,80003720 <benchmark_body+0x363c>
800036b8:	0307a283          	lw	x5,48(x15)
800036bc:	0347af83          	lw	x31,52(x15)
800036c0:	07f2d063          	bge	x5,x31,80003720 <benchmark_body+0x363c>
800036c4:	02c7a883          	lw	x17,44(x15)
800036c8:	01f283b3          	add	x7,x5,x31
800036cc:	0317a223          	sw	x17,36(x15)
800036d0:	0006a883          	lw	x17,0(x13)
800036d4:	ffc88893          	addi	x17,x17,-4
800036d8:	0116a023          	sw	x17,0(x13)
800036dc:	04072883          	lw	x17,64(x14)
800036e0:	00289893          	slli	x17,x17,0x2
800036e4:	011788b3          	add	x17,x15,x17
800036e8:	0058a623          	sw	x5,12(x17)
800036ec:	04072883          	lw	x17,64(x14)
800036f0:	00188893          	addi	x17,x17,1
800036f4:	00289893          	slli	x17,x17,0x2
800036f8:	011788b3          	add	x17,x15,x17
800036fc:	01f8a623          	sw	x31,12(x17)
80003700:	04072883          	lw	x17,64(x14)
80003704:	00288893          	addi	x17,x17,2
80003708:	00289893          	slli	x17,x17,0x2
8000370c:	011788b3          	add	x17,x15,x17
80003710:	0078a623          	sw	x7,12(x17)
80003714:	04072883          	lw	x17,64(x14)
80003718:	00388893          	addi	x17,x17,3
8000371c:	05172023          	sw	x17,64(x14)
80003720:	0006a883          	lw	x17,0(x13)
80003724:	0915d263          	bge	x11,x17,800037a8 <benchmark_body+0x36c4>
80003728:	04072883          	lw	x17,64(x14)
8000372c:	07164e63          	blt	x12,x17,800037a8 <benchmark_body+0x36c4>
80003730:	0347af83          	lw	x31,52(x15)
80003734:	0287a883          	lw	x17,40(x15)
80003738:	071f9863          	bne	x31,x17,800037a8 <benchmark_body+0x36c4>
8000373c:	0347af83          	lw	x31,52(x15)
80003740:	02c7a883          	lw	x17,44(x15)
80003744:	071f9263          	bne	x31,x17,800037a8 <benchmark_body+0x36c4>
80003748:	0307a283          	lw	x5,48(x15)
8000374c:	0347af83          	lw	x31,52(x15)
80003750:	05f2dc63          	bge	x5,x31,800037a8 <benchmark_body+0x36c4>
80003754:	0006a883          	lw	x17,0(x13)
80003758:	01f283b3          	add	x7,x5,x31
8000375c:	ffc88893          	addi	x17,x17,-4
80003760:	0116a023          	sw	x17,0(x13)
80003764:	04072883          	lw	x17,64(x14)
80003768:	00289893          	slli	x17,x17,0x2
8000376c:	011788b3          	add	x17,x15,x17
80003770:	0058a623          	sw	x5,12(x17)
80003774:	04072883          	lw	x17,64(x14)
80003778:	00188893          	addi	x17,x17,1
8000377c:	00289893          	slli	x17,x17,0x2
80003780:	011788b3          	add	x17,x15,x17
80003784:	01f8a623          	sw	x31,12(x17)
80003788:	04072883          	lw	x17,64(x14)
8000378c:	00288893          	addi	x17,x17,2
80003790:	00289893          	slli	x17,x17,0x2
80003794:	011788b3          	add	x17,x15,x17
80003798:	0078a623          	sw	x7,12(x17)
8000379c:	04072883          	lw	x17,64(x14)
800037a0:	00388893          	addi	x17,x17,3
800037a4:	05172023          	sw	x17,64(x14)
800037a8:	0006a883          	lw	x17,0(x13)
800037ac:	0915d663          	bge	x11,x17,80003838 <benchmark_body+0x3754>
800037b0:	04072883          	lw	x17,64(x14)
800037b4:	09164263          	blt	x12,x17,80003838 <benchmark_body+0x3754>
800037b8:	0347af83          	lw	x31,52(x15)
800037bc:	02c7a883          	lw	x17,44(x15)
800037c0:	071f9c63          	bne	x31,x17,80003838 <benchmark_body+0x3754>
800037c4:	0347af83          	lw	x31,52(x15)
800037c8:	0247a883          	lw	x17,36(x15)
800037cc:	071f9663          	bne	x31,x17,80003838 <benchmark_body+0x3754>
800037d0:	0307a283          	lw	x5,48(x15)
800037d4:	0347af83          	lw	x31,52(x15)
800037d8:	07f2d063          	bge	x5,x31,80003838 <benchmark_body+0x3754>
800037dc:	0287a883          	lw	x17,40(x15)
800037e0:	01f283b3          	add	x7,x5,x31
800037e4:	0317a223          	sw	x17,36(x15)
800037e8:	0006a883          	lw	x17,0(x13)
800037ec:	ffc88893          	addi	x17,x17,-4
800037f0:	0116a023          	sw	x17,0(x13)
800037f4:	04072883          	lw	x17,64(x14)
800037f8:	00289893          	slli	x17,x17,0x2
800037fc:	011788b3          	add	x17,x15,x17
80003800:	0058a623          	sw	x5,12(x17)
80003804:	04072883          	lw	x17,64(x14)
80003808:	00188893          	addi	x17,x17,1
8000380c:	00289893          	slli	x17,x17,0x2
80003810:	011788b3          	add	x17,x15,x17
80003814:	01f8a623          	sw	x31,12(x17)
80003818:	04072883          	lw	x17,64(x14)
8000381c:	00288893          	addi	x17,x17,2
80003820:	00289893          	slli	x17,x17,0x2
80003824:	011788b3          	add	x17,x15,x17
80003828:	0078a623          	sw	x7,12(x17)
8000382c:	04072883          	lw	x17,64(x14)
80003830:	00388893          	addi	x17,x17,3
80003834:	05172023          	sw	x17,64(x14)
80003838:	0006a883          	lw	x17,0(x13)
8000383c:	0915d263          	bge	x11,x17,800038c0 <benchmark_body+0x37dc>
80003840:	04072883          	lw	x17,64(x14)
80003844:	07164e63          	blt	x12,x17,800038c0 <benchmark_body+0x37dc>
80003848:	0347af83          	lw	x31,52(x15)
8000384c:	02c7a883          	lw	x17,44(x15)
80003850:	071f9863          	bne	x31,x17,800038c0 <benchmark_body+0x37dc>
80003854:	0347af83          	lw	x31,52(x15)
80003858:	0287a883          	lw	x17,40(x15)
8000385c:	071f9263          	bne	x31,x17,800038c0 <benchmark_body+0x37dc>
80003860:	0307a283          	lw	x5,48(x15)
80003864:	0347af83          	lw	x31,52(x15)
80003868:	05f2dc63          	bge	x5,x31,800038c0 <benchmark_body+0x37dc>
8000386c:	0006a883          	lw	x17,0(x13)
80003870:	01f283b3          	add	x7,x5,x31
80003874:	ffc88893          	addi	x17,x17,-4
80003878:	0116a023          	sw	x17,0(x13)
8000387c:	04072883          	lw	x17,64(x14)
80003880:	00289893          	slli	x17,x17,0x2
80003884:	011788b3          	add	x17,x15,x17
80003888:	0058a623          	sw	x5,12(x17)
8000388c:	04072883          	lw	x17,64(x14)
80003890:	00188893          	addi	x17,x17,1
80003894:	00289893          	slli	x17,x17,0x2
80003898:	011788b3          	add	x17,x15,x17
8000389c:	01f8a623          	sw	x31,12(x17)
800038a0:	04072883          	lw	x17,64(x14)
800038a4:	00288893          	addi	x17,x17,2
800038a8:	00289893          	slli	x17,x17,0x2
800038ac:	011788b3          	add	x17,x15,x17
800038b0:	0078a623          	sw	x7,12(x17)
800038b4:	04072883          	lw	x17,64(x14)
800038b8:	00388893          	addi	x17,x17,3
800038bc:	05172023          	sw	x17,64(x14)
800038c0:	0006a883          	lw	x17,0(x13)
800038c4:	0915d663          	bge	x11,x17,80003950 <benchmark_body+0x386c>
800038c8:	04072883          	lw	x17,64(x14)
800038cc:	09164263          	blt	x12,x17,80003950 <benchmark_body+0x386c>
800038d0:	0247af83          	lw	x31,36(x15)
800038d4:	0287a883          	lw	x17,40(x15)
800038d8:	071f9c63          	bne	x31,x17,80003950 <benchmark_body+0x386c>
800038dc:	0247af83          	lw	x31,36(x15)
800038e0:	02c7a883          	lw	x17,44(x15)
800038e4:	071f9663          	bne	x31,x17,80003950 <benchmark_body+0x386c>
800038e8:	0347a283          	lw	x5,52(x15)
800038ec:	0247af83          	lw	x31,36(x15)
800038f0:	07f2d063          	bge	x5,x31,80003950 <benchmark_body+0x386c>
800038f4:	0307a883          	lw	x17,48(x15)
800038f8:	01f283b3          	add	x7,x5,x31
800038fc:	0317a223          	sw	x17,36(x15)
80003900:	0006a883          	lw	x17,0(x13)
80003904:	ffc88893          	addi	x17,x17,-4
80003908:	0116a023          	sw	x17,0(x13)
8000390c:	04072883          	lw	x17,64(x14)
80003910:	00289893          	slli	x17,x17,0x2
80003914:	011788b3          	add	x17,x15,x17
80003918:	0058a623          	sw	x5,12(x17)
8000391c:	04072883          	lw	x17,64(x14)
80003920:	00188893          	addi	x17,x17,1
80003924:	00289893          	slli	x17,x17,0x2
80003928:	011788b3          	add	x17,x15,x17
8000392c:	01f8a623          	sw	x31,12(x17)
80003930:	04072883          	lw	x17,64(x14)
80003934:	00288893          	addi	x17,x17,2
80003938:	00289893          	slli	x17,x17,0x2
8000393c:	011788b3          	add	x17,x15,x17
80003940:	0078a623          	sw	x7,12(x17)
80003944:	04072883          	lw	x17,64(x14)
80003948:	00388893          	addi	x17,x17,3
8000394c:	05172023          	sw	x17,64(x14)
80003950:	0006a883          	lw	x17,0(x13)
80003954:	0915d663          	bge	x11,x17,800039e0 <benchmark_body+0x38fc>
80003958:	04072883          	lw	x17,64(x14)
8000395c:	09164263          	blt	x12,x17,800039e0 <benchmark_body+0x38fc>
80003960:	0247af83          	lw	x31,36(x15)
80003964:	0287a883          	lw	x17,40(x15)
80003968:	071f9c63          	bne	x31,x17,800039e0 <benchmark_body+0x38fc>
8000396c:	0247af83          	lw	x31,36(x15)
80003970:	0307a883          	lw	x17,48(x15)
80003974:	071f9663          	bne	x31,x17,800039e0 <benchmark_body+0x38fc>
80003978:	0347a283          	lw	x5,52(x15)
8000397c:	0247af83          	lw	x31,36(x15)
80003980:	07f2d063          	bge	x5,x31,800039e0 <benchmark_body+0x38fc>
80003984:	02c7a883          	lw	x17,44(x15)
80003988:	01f283b3          	add	x7,x5,x31
8000398c:	0317a223          	sw	x17,36(x15)
80003990:	0006a883          	lw	x17,0(x13)
80003994:	ffc88893          	addi	x17,x17,-4
80003998:	0116a023          	sw	x17,0(x13)
8000399c:	04072883          	lw	x17,64(x14)
800039a0:	00289893          	slli	x17,x17,0x2
800039a4:	011788b3          	add	x17,x15,x17
800039a8:	0058a623          	sw	x5,12(x17)
800039ac:	04072883          	lw	x17,64(x14)
800039b0:	00188893          	addi	x17,x17,1
800039b4:	00289893          	slli	x17,x17,0x2
800039b8:	011788b3          	add	x17,x15,x17
800039bc:	01f8a623          	sw	x31,12(x17)
800039c0:	04072883          	lw	x17,64(x14)
800039c4:	00288893          	addi	x17,x17,2
800039c8:	00289893          	slli	x17,x17,0x2
800039cc:	011788b3          	add	x17,x15,x17
800039d0:	0078a623          	sw	x7,12(x17)
800039d4:	04072883          	lw	x17,64(x14)
800039d8:	00388893          	addi	x17,x17,3
800039dc:	05172023          	sw	x17,64(x14)
800039e0:	0006a883          	lw	x17,0(x13)
800039e4:	0915d663          	bge	x11,x17,80003a70 <benchmark_body+0x398c>
800039e8:	04072883          	lw	x17,64(x14)
800039ec:	09164263          	blt	x12,x17,80003a70 <benchmark_body+0x398c>
800039f0:	0247af83          	lw	x31,36(x15)
800039f4:	02c7a883          	lw	x17,44(x15)
800039f8:	071f9c63          	bne	x31,x17,80003a70 <benchmark_body+0x398c>
800039fc:	0247af83          	lw	x31,36(x15)
80003a00:	0287a883          	lw	x17,40(x15)
80003a04:	071f9663          	bne	x31,x17,80003a70 <benchmark_body+0x398c>
80003a08:	0347a283          	lw	x5,52(x15)
80003a0c:	0247af83          	lw	x31,36(x15)
80003a10:	07f2d063          	bge	x5,x31,80003a70 <benchmark_body+0x398c>
80003a14:	0307a883          	lw	x17,48(x15)
80003a18:	01f283b3          	add	x7,x5,x31
80003a1c:	0317a223          	sw	x17,36(x15)
80003a20:	0006a883          	lw	x17,0(x13)
80003a24:	ffc88893          	addi	x17,x17,-4
80003a28:	0116a023          	sw	x17,0(x13)
80003a2c:	04072883          	lw	x17,64(x14)
80003a30:	00289893          	slli	x17,x17,0x2
80003a34:	011788b3          	add	x17,x15,x17
80003a38:	0058a623          	sw	x5,12(x17)
80003a3c:	04072883          	lw	x17,64(x14)
80003a40:	00188893          	addi	x17,x17,1
80003a44:	00289893          	slli	x17,x17,0x2
80003a48:	011788b3          	add	x17,x15,x17
80003a4c:	01f8a623          	sw	x31,12(x17)
80003a50:	04072883          	lw	x17,64(x14)
80003a54:	00288893          	addi	x17,x17,2
80003a58:	00289893          	slli	x17,x17,0x2
80003a5c:	011788b3          	add	x17,x15,x17
80003a60:	0078a623          	sw	x7,12(x17)
80003a64:	04072883          	lw	x17,64(x14)
80003a68:	00388893          	addi	x17,x17,3
80003a6c:	05172023          	sw	x17,64(x14)
80003a70:	0006a883          	lw	x17,0(x13)
80003a74:	0915d663          	bge	x11,x17,80003b00 <benchmark_body+0x3a1c>
80003a78:	04072883          	lw	x17,64(x14)
80003a7c:	09164263          	blt	x12,x17,80003b00 <benchmark_body+0x3a1c>
80003a80:	0247af83          	lw	x31,36(x15)
80003a84:	02c7a883          	lw	x17,44(x15)
80003a88:	071f9c63          	bne	x31,x17,80003b00 <benchmark_body+0x3a1c>
80003a8c:	0247af83          	lw	x31,36(x15)
80003a90:	0307a883          	lw	x17,48(x15)
80003a94:	071f9663          	bne	x31,x17,80003b00 <benchmark_body+0x3a1c>
80003a98:	0347a283          	lw	x5,52(x15)
80003a9c:	0247af83          	lw	x31,36(x15)
80003aa0:	07f2d063          	bge	x5,x31,80003b00 <benchmark_body+0x3a1c>
80003aa4:	0287a883          	lw	x17,40(x15)
80003aa8:	01f283b3          	add	x7,x5,x31
80003aac:	0317a223          	sw	x17,36(x15)
80003ab0:	0006a883          	lw	x17,0(x13)
80003ab4:	ffc88893          	addi	x17,x17,-4
80003ab8:	0116a023          	sw	x17,0(x13)
80003abc:	04072883          	lw	x17,64(x14)
80003ac0:	00289893          	slli	x17,x17,0x2
80003ac4:	011788b3          	add	x17,x15,x17
80003ac8:	0058a623          	sw	x5,12(x17)
80003acc:	04072883          	lw	x17,64(x14)
80003ad0:	00188893          	addi	x17,x17,1
80003ad4:	00289893          	slli	x17,x17,0x2
80003ad8:	011788b3          	add	x17,x15,x17
80003adc:	01f8a623          	sw	x31,12(x17)
80003ae0:	04072883          	lw	x17,64(x14)
80003ae4:	00288893          	addi	x17,x17,2
80003ae8:	00289893          	slli	x17,x17,0x2
80003aec:	011788b3          	add	x17,x15,x17
80003af0:	0078a623          	sw	x7,12(x17)
80003af4:	04072883          	lw	x17,64(x14)
80003af8:	00388893          	addi	x17,x17,3
80003afc:	05172023          	sw	x17,64(x14)
80003b00:	0006a883          	lw	x17,0(x13)
80003b04:	0915d663          	bge	x11,x17,80003b90 <benchmark_body+0x3aac>
80003b08:	04072883          	lw	x17,64(x14)
80003b0c:	09164263          	blt	x12,x17,80003b90 <benchmark_body+0x3aac>
80003b10:	0247af83          	lw	x31,36(x15)
80003b14:	0307a883          	lw	x17,48(x15)
80003b18:	071f9c63          	bne	x31,x17,80003b90 <benchmark_body+0x3aac>
80003b1c:	0247af83          	lw	x31,36(x15)
80003b20:	0287a883          	lw	x17,40(x15)
80003b24:	071f9663          	bne	x31,x17,80003b90 <benchmark_body+0x3aac>
80003b28:	0347a283          	lw	x5,52(x15)
80003b2c:	0247af83          	lw	x31,36(x15)
80003b30:	07f2d063          	bge	x5,x31,80003b90 <benchmark_body+0x3aac>
80003b34:	02c7a883          	lw	x17,44(x15)
80003b38:	01f283b3          	add	x7,x5,x31
80003b3c:	0317a223          	sw	x17,36(x15)
80003b40:	0006a883          	lw	x17,0(x13)
80003b44:	ffc88893          	addi	x17,x17,-4
80003b48:	0116a023          	sw	x17,0(x13)
80003b4c:	04072883          	lw	x17,64(x14)
80003b50:	00289893          	slli	x17,x17,0x2
80003b54:	011788b3          	add	x17,x15,x17
80003b58:	0058a623          	sw	x5,12(x17)
80003b5c:	04072883          	lw	x17,64(x14)
80003b60:	00188893          	addi	x17,x17,1
80003b64:	00289893          	slli	x17,x17,0x2
80003b68:	011788b3          	add	x17,x15,x17
80003b6c:	01f8a623          	sw	x31,12(x17)
80003b70:	04072883          	lw	x17,64(x14)
80003b74:	00288893          	addi	x17,x17,2
80003b78:	00289893          	slli	x17,x17,0x2
80003b7c:	011788b3          	add	x17,x15,x17
80003b80:	0078a623          	sw	x7,12(x17)
80003b84:	04072883          	lw	x17,64(x14)
80003b88:	00388893          	addi	x17,x17,3
80003b8c:	05172023          	sw	x17,64(x14)
80003b90:	0006a883          	lw	x17,0(x13)
80003b94:	0915d663          	bge	x11,x17,80003c20 <benchmark_body+0x3b3c>
80003b98:	04072883          	lw	x17,64(x14)
80003b9c:	09164263          	blt	x12,x17,80003c20 <benchmark_body+0x3b3c>
80003ba0:	0247af83          	lw	x31,36(x15)
80003ba4:	0307a883          	lw	x17,48(x15)
80003ba8:	071f9c63          	bne	x31,x17,80003c20 <benchmark_body+0x3b3c>
80003bac:	0247af83          	lw	x31,36(x15)
80003bb0:	02c7a883          	lw	x17,44(x15)
80003bb4:	071f9663          	bne	x31,x17,80003c20 <benchmark_body+0x3b3c>
80003bb8:	0347a283          	lw	x5,52(x15)
80003bbc:	0247af83          	lw	x31,36(x15)
80003bc0:	07f2d063          	bge	x5,x31,80003c20 <benchmark_body+0x3b3c>
80003bc4:	0287a883          	lw	x17,40(x15)
80003bc8:	01f283b3          	add	x7,x5,x31
80003bcc:	0317a223          	sw	x17,36(x15)
80003bd0:	0006a883          	lw	x17,0(x13)
80003bd4:	ffc88893          	addi	x17,x17,-4
80003bd8:	0116a023          	sw	x17,0(x13)
80003bdc:	04072883          	lw	x17,64(x14)
80003be0:	00289893          	slli	x17,x17,0x2
80003be4:	011788b3          	add	x17,x15,x17
80003be8:	0058a623          	sw	x5,12(x17)
80003bec:	04072883          	lw	x17,64(x14)
80003bf0:	00188893          	addi	x17,x17,1
80003bf4:	00289893          	slli	x17,x17,0x2
80003bf8:	011788b3          	add	x17,x15,x17
80003bfc:	01f8a623          	sw	x31,12(x17)
80003c00:	04072883          	lw	x17,64(x14)
80003c04:	00288893          	addi	x17,x17,2
80003c08:	00289893          	slli	x17,x17,0x2
80003c0c:	011788b3          	add	x17,x15,x17
80003c10:	0078a623          	sw	x7,12(x17)
80003c14:	04072883          	lw	x17,64(x14)
80003c18:	00388893          	addi	x17,x17,3
80003c1c:	05172023          	sw	x17,64(x14)
80003c20:	0006a883          	lw	x17,0(x13)
80003c24:	0915d663          	bge	x11,x17,80003cb0 <benchmark_body+0x3bcc>
80003c28:	04072883          	lw	x17,64(x14)
80003c2c:	09164263          	blt	x12,x17,80003cb0 <benchmark_body+0x3bcc>
80003c30:	0287af83          	lw	x31,40(x15)
80003c34:	0247a883          	lw	x17,36(x15)
80003c38:	071f9c63          	bne	x31,x17,80003cb0 <benchmark_body+0x3bcc>
80003c3c:	0287af83          	lw	x31,40(x15)
80003c40:	02c7a883          	lw	x17,44(x15)
80003c44:	071f9663          	bne	x31,x17,80003cb0 <benchmark_body+0x3bcc>
80003c48:	0347a283          	lw	x5,52(x15)
80003c4c:	0287af83          	lw	x31,40(x15)
80003c50:	07f2d063          	bge	x5,x31,80003cb0 <benchmark_body+0x3bcc>
80003c54:	0307a883          	lw	x17,48(x15)
80003c58:	01f283b3          	add	x7,x5,x31
80003c5c:	0317a223          	sw	x17,36(x15)
80003c60:	0006a883          	lw	x17,0(x13)
80003c64:	ffc88893          	addi	x17,x17,-4
80003c68:	0116a023          	sw	x17,0(x13)
80003c6c:	04072883          	lw	x17,64(x14)
80003c70:	00289893          	slli	x17,x17,0x2
80003c74:	011788b3          	add	x17,x15,x17
80003c78:	0058a623          	sw	x5,12(x17)
80003c7c:	04072883          	lw	x17,64(x14)
80003c80:	00188893          	addi	x17,x17,1
80003c84:	00289893          	slli	x17,x17,0x2
80003c88:	011788b3          	add	x17,x15,x17
80003c8c:	01f8a623          	sw	x31,12(x17)
80003c90:	04072883          	lw	x17,64(x14)
80003c94:	00288893          	addi	x17,x17,2
80003c98:	00289893          	slli	x17,x17,0x2
80003c9c:	011788b3          	add	x17,x15,x17
80003ca0:	0078a623          	sw	x7,12(x17)
80003ca4:	04072883          	lw	x17,64(x14)
80003ca8:	00388893          	addi	x17,x17,3
80003cac:	05172023          	sw	x17,64(x14)
80003cb0:	0006a883          	lw	x17,0(x13)
80003cb4:	0915d663          	bge	x11,x17,80003d40 <benchmark_body+0x3c5c>
80003cb8:	04072883          	lw	x17,64(x14)
80003cbc:	09164263          	blt	x12,x17,80003d40 <benchmark_body+0x3c5c>
80003cc0:	0287af83          	lw	x31,40(x15)
80003cc4:	0247a883          	lw	x17,36(x15)
80003cc8:	071f9c63          	bne	x31,x17,80003d40 <benchmark_body+0x3c5c>
80003ccc:	0287af83          	lw	x31,40(x15)
80003cd0:	0307a883          	lw	x17,48(x15)
80003cd4:	071f9663          	bne	x31,x17,80003d40 <benchmark_body+0x3c5c>
80003cd8:	0347a283          	lw	x5,52(x15)
80003cdc:	0287af83          	lw	x31,40(x15)
80003ce0:	07f2d063          	bge	x5,x31,80003d40 <benchmark_body+0x3c5c>
80003ce4:	02c7a883          	lw	x17,44(x15)
80003ce8:	01f283b3          	add	x7,x5,x31
80003cec:	0317a223          	sw	x17,36(x15)
80003cf0:	0006a883          	lw	x17,0(x13)
80003cf4:	ffc88893          	addi	x17,x17,-4
80003cf8:	0116a023          	sw	x17,0(x13)
80003cfc:	04072883          	lw	x17,64(x14)
80003d00:	00289893          	slli	x17,x17,0x2
80003d04:	011788b3          	add	x17,x15,x17
80003d08:	0058a623          	sw	x5,12(x17)
80003d0c:	04072883          	lw	x17,64(x14)
80003d10:	00188893          	addi	x17,x17,1
80003d14:	00289893          	slli	x17,x17,0x2
80003d18:	011788b3          	add	x17,x15,x17
80003d1c:	01f8a623          	sw	x31,12(x17)
80003d20:	04072883          	lw	x17,64(x14)
80003d24:	00288893          	addi	x17,x17,2
80003d28:	00289893          	slli	x17,x17,0x2
80003d2c:	011788b3          	add	x17,x15,x17
80003d30:	0078a623          	sw	x7,12(x17)
80003d34:	04072883          	lw	x17,64(x14)
80003d38:	00388893          	addi	x17,x17,3
80003d3c:	05172023          	sw	x17,64(x14)
80003d40:	0006a883          	lw	x17,0(x13)
80003d44:	0915d663          	bge	x11,x17,80003dd0 <benchmark_body+0x3cec>
80003d48:	04072883          	lw	x17,64(x14)
80003d4c:	09164263          	blt	x12,x17,80003dd0 <benchmark_body+0x3cec>
80003d50:	0287af83          	lw	x31,40(x15)
80003d54:	02c7a883          	lw	x17,44(x15)
80003d58:	071f9c63          	bne	x31,x17,80003dd0 <benchmark_body+0x3cec>
80003d5c:	0287af83          	lw	x31,40(x15)
80003d60:	0247a883          	lw	x17,36(x15)
80003d64:	071f9663          	bne	x31,x17,80003dd0 <benchmark_body+0x3cec>
80003d68:	0347a283          	lw	x5,52(x15)
80003d6c:	0287af83          	lw	x31,40(x15)
80003d70:	07f2d063          	bge	x5,x31,80003dd0 <benchmark_body+0x3cec>
80003d74:	0307a883          	lw	x17,48(x15)
80003d78:	01f283b3          	add	x7,x5,x31
80003d7c:	0317a223          	sw	x17,36(x15)
80003d80:	0006a883          	lw	x17,0(x13)
80003d84:	ffc88893          	addi	x17,x17,-4
80003d88:	0116a023          	sw	x17,0(x13)
80003d8c:	04072883          	lw	x17,64(x14)
80003d90:	00289893          	slli	x17,x17,0x2
80003d94:	011788b3          	add	x17,x15,x17
80003d98:	0058a623          	sw	x5,12(x17)
80003d9c:	04072883          	lw	x17,64(x14)
80003da0:	00188893          	addi	x17,x17,1
80003da4:	00289893          	slli	x17,x17,0x2
80003da8:	011788b3          	add	x17,x15,x17
80003dac:	01f8a623          	sw	x31,12(x17)
80003db0:	04072883          	lw	x17,64(x14)
80003db4:	00288893          	addi	x17,x17,2
80003db8:	00289893          	slli	x17,x17,0x2
80003dbc:	011788b3          	add	x17,x15,x17
80003dc0:	0078a623          	sw	x7,12(x17)
80003dc4:	04072883          	lw	x17,64(x14)
80003dc8:	00388893          	addi	x17,x17,3
80003dcc:	05172023          	sw	x17,64(x14)
80003dd0:	0006a883          	lw	x17,0(x13)
80003dd4:	0915d263          	bge	x11,x17,80003e58 <benchmark_body+0x3d74>
80003dd8:	04072883          	lw	x17,64(x14)
80003ddc:	07164e63          	blt	x12,x17,80003e58 <benchmark_body+0x3d74>
80003de0:	0287af83          	lw	x31,40(x15)
80003de4:	02c7a883          	lw	x17,44(x15)
80003de8:	071f9863          	bne	x31,x17,80003e58 <benchmark_body+0x3d74>
80003dec:	0287af83          	lw	x31,40(x15)
80003df0:	0307a883          	lw	x17,48(x15)
80003df4:	071f9263          	bne	x31,x17,80003e58 <benchmark_body+0x3d74>
80003df8:	0347a283          	lw	x5,52(x15)
80003dfc:	0287af83          	lw	x31,40(x15)
80003e00:	05f2dc63          	bge	x5,x31,80003e58 <benchmark_body+0x3d74>
80003e04:	0006a883          	lw	x17,0(x13)
80003e08:	01f283b3          	add	x7,x5,x31
80003e0c:	ffc88893          	addi	x17,x17,-4
80003e10:	0116a023          	sw	x17,0(x13)
80003e14:	04072883          	lw	x17,64(x14)
80003e18:	00289893          	slli	x17,x17,0x2
80003e1c:	011788b3          	add	x17,x15,x17
80003e20:	0058a623          	sw	x5,12(x17)
80003e24:	04072883          	lw	x17,64(x14)
80003e28:	00188893          	addi	x17,x17,1
80003e2c:	00289893          	slli	x17,x17,0x2
80003e30:	011788b3          	add	x17,x15,x17
80003e34:	01f8a623          	sw	x31,12(x17)
80003e38:	04072883          	lw	x17,64(x14)
80003e3c:	00288893          	addi	x17,x17,2
80003e40:	00289893          	slli	x17,x17,0x2
80003e44:	011788b3          	add	x17,x15,x17
80003e48:	0078a623          	sw	x7,12(x17)
80003e4c:	04072883          	lw	x17,64(x14)
80003e50:	00388893          	addi	x17,x17,3
80003e54:	05172023          	sw	x17,64(x14)
80003e58:	0006a883          	lw	x17,0(x13)
80003e5c:	0915d663          	bge	x11,x17,80003ee8 <benchmark_body+0x3e04>
80003e60:	04072883          	lw	x17,64(x14)
80003e64:	09164263          	blt	x12,x17,80003ee8 <benchmark_body+0x3e04>
80003e68:	0287af83          	lw	x31,40(x15)
80003e6c:	0307a883          	lw	x17,48(x15)
80003e70:	071f9c63          	bne	x31,x17,80003ee8 <benchmark_body+0x3e04>
80003e74:	0287af83          	lw	x31,40(x15)
80003e78:	0247a883          	lw	x17,36(x15)
80003e7c:	071f9663          	bne	x31,x17,80003ee8 <benchmark_body+0x3e04>
80003e80:	0347a283          	lw	x5,52(x15)
80003e84:	0287af83          	lw	x31,40(x15)
80003e88:	07f2d063          	bge	x5,x31,80003ee8 <benchmark_body+0x3e04>
80003e8c:	02c7a883          	lw	x17,44(x15)
80003e90:	01f283b3          	add	x7,x5,x31
80003e94:	0317a223          	sw	x17,36(x15)
80003e98:	0006a883          	lw	x17,0(x13)
80003e9c:	ffc88893          	addi	x17,x17,-4
80003ea0:	0116a023          	sw	x17,0(x13)
80003ea4:	04072883          	lw	x17,64(x14)
80003ea8:	00289893          	slli	x17,x17,0x2
80003eac:	011788b3          	add	x17,x15,x17
80003eb0:	0058a623          	sw	x5,12(x17)
80003eb4:	04072883          	lw	x17,64(x14)
80003eb8:	00188893          	addi	x17,x17,1
80003ebc:	00289893          	slli	x17,x17,0x2
80003ec0:	011788b3          	add	x17,x15,x17
80003ec4:	01f8a623          	sw	x31,12(x17)
80003ec8:	04072883          	lw	x17,64(x14)
80003ecc:	00288893          	addi	x17,x17,2
80003ed0:	00289893          	slli	x17,x17,0x2
80003ed4:	011788b3          	add	x17,x15,x17
80003ed8:	0078a623          	sw	x7,12(x17)
80003edc:	04072883          	lw	x17,64(x14)
80003ee0:	00388893          	addi	x17,x17,3
80003ee4:	05172023          	sw	x17,64(x14)
80003ee8:	0006a883          	lw	x17,0(x13)
80003eec:	0915d263          	bge	x11,x17,80003f70 <benchmark_body+0x3e8c>
80003ef0:	04072883          	lw	x17,64(x14)
80003ef4:	07164e63          	blt	x12,x17,80003f70 <benchmark_body+0x3e8c>
80003ef8:	0287af83          	lw	x31,40(x15)
80003efc:	0307a883          	lw	x17,48(x15)
80003f00:	071f9863          	bne	x31,x17,80003f70 <benchmark_body+0x3e8c>
80003f04:	0287af83          	lw	x31,40(x15)
80003f08:	02c7a883          	lw	x17,44(x15)
80003f0c:	071f9263          	bne	x31,x17,80003f70 <benchmark_body+0x3e8c>
80003f10:	0347a283          	lw	x5,52(x15)
80003f14:	0287af83          	lw	x31,40(x15)
80003f18:	05f2dc63          	bge	x5,x31,80003f70 <benchmark_body+0x3e8c>
80003f1c:	0006a883          	lw	x17,0(x13)
80003f20:	01f283b3          	add	x7,x5,x31
80003f24:	ffc88893          	addi	x17,x17,-4
80003f28:	0116a023          	sw	x17,0(x13)
80003f2c:	04072883          	lw	x17,64(x14)
80003f30:	00289893          	slli	x17,x17,0x2
80003f34:	011788b3          	add	x17,x15,x17
80003f38:	0058a623          	sw	x5,12(x17)
80003f3c:	04072883          	lw	x17,64(x14)
80003f40:	00188893          	addi	x17,x17,1
80003f44:	00289893          	slli	x17,x17,0x2
80003f48:	011788b3          	add	x17,x15,x17
80003f4c:	01f8a623          	sw	x31,12(x17)
80003f50:	04072883          	lw	x17,64(x14)
80003f54:	00288893          	addi	x17,x17,2
80003f58:	00289893          	slli	x17,x17,0x2
80003f5c:	011788b3          	add	x17,x15,x17
80003f60:	0078a623          	sw	x7,12(x17)
80003f64:	04072883          	lw	x17,64(x14)
80003f68:	00388893          	addi	x17,x17,3
80003f6c:	05172023          	sw	x17,64(x14)
80003f70:	0006a883          	lw	x17,0(x13)
80003f74:	0915d663          	bge	x11,x17,80004000 <benchmark_body+0x3f1c>
80003f78:	04072883          	lw	x17,64(x14)
80003f7c:	09164263          	blt	x12,x17,80004000 <benchmark_body+0x3f1c>
80003f80:	02c7af83          	lw	x31,44(x15)
80003f84:	0247a883          	lw	x17,36(x15)
80003f88:	071f9c63          	bne	x31,x17,80004000 <benchmark_body+0x3f1c>
80003f8c:	02c7af83          	lw	x31,44(x15)
80003f90:	0287a883          	lw	x17,40(x15)
80003f94:	071f9663          	bne	x31,x17,80004000 <benchmark_body+0x3f1c>
80003f98:	0347a283          	lw	x5,52(x15)
80003f9c:	02c7af83          	lw	x31,44(x15)
80003fa0:	07f2d063          	bge	x5,x31,80004000 <benchmark_body+0x3f1c>
80003fa4:	0307a883          	lw	x17,48(x15)
80003fa8:	01f283b3          	add	x7,x5,x31
80003fac:	0317a223          	sw	x17,36(x15)
80003fb0:	0006a883          	lw	x17,0(x13)
80003fb4:	ffc88893          	addi	x17,x17,-4
80003fb8:	0116a023          	sw	x17,0(x13)
80003fbc:	04072883          	lw	x17,64(x14)
80003fc0:	00289893          	slli	x17,x17,0x2
80003fc4:	011788b3          	add	x17,x15,x17
80003fc8:	0058a623          	sw	x5,12(x17)
80003fcc:	04072883          	lw	x17,64(x14)
80003fd0:	00188893          	addi	x17,x17,1
80003fd4:	00289893          	slli	x17,x17,0x2
80003fd8:	011788b3          	add	x17,x15,x17
80003fdc:	01f8a623          	sw	x31,12(x17)
80003fe0:	04072883          	lw	x17,64(x14)
80003fe4:	00288893          	addi	x17,x17,2
80003fe8:	00289893          	slli	x17,x17,0x2
80003fec:	011788b3          	add	x17,x15,x17
80003ff0:	0078a623          	sw	x7,12(x17)
80003ff4:	04072883          	lw	x17,64(x14)
80003ff8:	00388893          	addi	x17,x17,3
80003ffc:	05172023          	sw	x17,64(x14)
80004000:	0006a883          	lw	x17,0(x13)
80004004:	0915d663          	bge	x11,x17,80004090 <benchmark_body+0x3fac>
80004008:	04072883          	lw	x17,64(x14)
8000400c:	09164263          	blt	x12,x17,80004090 <benchmark_body+0x3fac>
80004010:	02c7af83          	lw	x31,44(x15)
80004014:	0247a883          	lw	x17,36(x15)
80004018:	071f9c63          	bne	x31,x17,80004090 <benchmark_body+0x3fac>
8000401c:	02c7af83          	lw	x31,44(x15)
80004020:	0307a883          	lw	x17,48(x15)
80004024:	071f9663          	bne	x31,x17,80004090 <benchmark_body+0x3fac>
80004028:	0347a283          	lw	x5,52(x15)
8000402c:	02c7af83          	lw	x31,44(x15)
80004030:	07f2d063          	bge	x5,x31,80004090 <benchmark_body+0x3fac>
80004034:	0287a883          	lw	x17,40(x15)
80004038:	01f283b3          	add	x7,x5,x31
8000403c:	0317a223          	sw	x17,36(x15)
80004040:	0006a883          	lw	x17,0(x13)
80004044:	ffc88893          	addi	x17,x17,-4
80004048:	0116a023          	sw	x17,0(x13)
8000404c:	04072883          	lw	x17,64(x14)
80004050:	00289893          	slli	x17,x17,0x2
80004054:	011788b3          	add	x17,x15,x17
80004058:	0058a623          	sw	x5,12(x17)
8000405c:	04072883          	lw	x17,64(x14)
80004060:	00188893          	addi	x17,x17,1
80004064:	00289893          	slli	x17,x17,0x2
80004068:	011788b3          	add	x17,x15,x17
8000406c:	01f8a623          	sw	x31,12(x17)
80004070:	04072883          	lw	x17,64(x14)
80004074:	00288893          	addi	x17,x17,2
80004078:	00289893          	slli	x17,x17,0x2
8000407c:	011788b3          	add	x17,x15,x17
80004080:	0078a623          	sw	x7,12(x17)
80004084:	04072883          	lw	x17,64(x14)
80004088:	00388893          	addi	x17,x17,3
8000408c:	05172023          	sw	x17,64(x14)
80004090:	0006a883          	lw	x17,0(x13)
80004094:	0915d663          	bge	x11,x17,80004120 <benchmark_body+0x403c>
80004098:	04072883          	lw	x17,64(x14)
8000409c:	09164263          	blt	x12,x17,80004120 <benchmark_body+0x403c>
800040a0:	02c7af83          	lw	x31,44(x15)
800040a4:	0287a883          	lw	x17,40(x15)
800040a8:	071f9c63          	bne	x31,x17,80004120 <benchmark_body+0x403c>
800040ac:	02c7af83          	lw	x31,44(x15)
800040b0:	0247a883          	lw	x17,36(x15)
800040b4:	071f9663          	bne	x31,x17,80004120 <benchmark_body+0x403c>
800040b8:	0347a283          	lw	x5,52(x15)
800040bc:	02c7af83          	lw	x31,44(x15)
800040c0:	07f2d063          	bge	x5,x31,80004120 <benchmark_body+0x403c>
800040c4:	0307a883          	lw	x17,48(x15)
800040c8:	01f283b3          	add	x7,x5,x31
800040cc:	0317a223          	sw	x17,36(x15)
800040d0:	0006a883          	lw	x17,0(x13)
800040d4:	ffc88893          	addi	x17,x17,-4
800040d8:	0116a023          	sw	x17,0(x13)
800040dc:	04072883          	lw	x17,64(x14)
800040e0:	00289893          	slli	x17,x17,0x2
800040e4:	011788b3          	add	x17,x15,x17
800040e8:	0058a623          	sw	x5,12(x17)
800040ec:	04072883          	lw	x17,64(x14)
800040f0:	00188893          	addi	x17,x17,1
800040f4:	00289893          	slli	x17,x17,0x2
800040f8:	011788b3          	add	x17,x15,x17
800040fc:	01f8a623          	sw	x31,12(x17)
80004100:	04072883          	lw	x17,64(x14)
80004104:	00288893          	addi	x17,x17,2
80004108:	00289893          	slli	x17,x17,0x2
8000410c:	011788b3          	add	x17,x15,x17
80004110:	0078a623          	sw	x7,12(x17)
80004114:	04072883          	lw	x17,64(x14)
80004118:	00388893          	addi	x17,x17,3
8000411c:	05172023          	sw	x17,64(x14)
80004120:	0006a883          	lw	x17,0(x13)
80004124:	0915d263          	bge	x11,x17,800041a8 <benchmark_body+0x40c4>
80004128:	04072883          	lw	x17,64(x14)
8000412c:	07164e63          	blt	x12,x17,800041a8 <benchmark_body+0x40c4>
80004130:	02c7af83          	lw	x31,44(x15)
80004134:	0287a883          	lw	x17,40(x15)
80004138:	071f9863          	bne	x31,x17,800041a8 <benchmark_body+0x40c4>
8000413c:	02c7af83          	lw	x31,44(x15)
80004140:	0307a883          	lw	x17,48(x15)
80004144:	071f9263          	bne	x31,x17,800041a8 <benchmark_body+0x40c4>
80004148:	0347a283          	lw	x5,52(x15)
8000414c:	02c7af83          	lw	x31,44(x15)
80004150:	05f2dc63          	bge	x5,x31,800041a8 <benchmark_body+0x40c4>
80004154:	0006a883          	lw	x17,0(x13)
80004158:	01f283b3          	add	x7,x5,x31
8000415c:	ffc88893          	addi	x17,x17,-4
80004160:	0116a023          	sw	x17,0(x13)
80004164:	04072883          	lw	x17,64(x14)
80004168:	00289893          	slli	x17,x17,0x2
8000416c:	011788b3          	add	x17,x15,x17
80004170:	0058a623          	sw	x5,12(x17)
80004174:	04072883          	lw	x17,64(x14)
80004178:	00188893          	addi	x17,x17,1
8000417c:	00289893          	slli	x17,x17,0x2
80004180:	011788b3          	add	x17,x15,x17
80004184:	01f8a623          	sw	x31,12(x17)
80004188:	04072883          	lw	x17,64(x14)
8000418c:	00288893          	addi	x17,x17,2
80004190:	00289893          	slli	x17,x17,0x2
80004194:	011788b3          	add	x17,x15,x17
80004198:	0078a623          	sw	x7,12(x17)
8000419c:	04072883          	lw	x17,64(x14)
800041a0:	00388893          	addi	x17,x17,3
800041a4:	05172023          	sw	x17,64(x14)
800041a8:	0006a883          	lw	x17,0(x13)
800041ac:	0915d663          	bge	x11,x17,80004238 <benchmark_body+0x4154>
800041b0:	04072883          	lw	x17,64(x14)
800041b4:	09164263          	blt	x12,x17,80004238 <benchmark_body+0x4154>
800041b8:	02c7af83          	lw	x31,44(x15)
800041bc:	0307a883          	lw	x17,48(x15)
800041c0:	071f9c63          	bne	x31,x17,80004238 <benchmark_body+0x4154>
800041c4:	02c7af83          	lw	x31,44(x15)
800041c8:	0247a883          	lw	x17,36(x15)
800041cc:	071f9663          	bne	x31,x17,80004238 <benchmark_body+0x4154>
800041d0:	0347a283          	lw	x5,52(x15)
800041d4:	02c7af83          	lw	x31,44(x15)
800041d8:	07f2d063          	bge	x5,x31,80004238 <benchmark_body+0x4154>
800041dc:	0287a883          	lw	x17,40(x15)
800041e0:	01f283b3          	add	x7,x5,x31
800041e4:	0317a223          	sw	x17,36(x15)
800041e8:	0006a883          	lw	x17,0(x13)
800041ec:	ffc88893          	addi	x17,x17,-4
800041f0:	0116a023          	sw	x17,0(x13)
800041f4:	04072883          	lw	x17,64(x14)
800041f8:	00289893          	slli	x17,x17,0x2
800041fc:	011788b3          	add	x17,x15,x17
80004200:	0058a623          	sw	x5,12(x17)
80004204:	04072883          	lw	x17,64(x14)
80004208:	00188893          	addi	x17,x17,1
8000420c:	00289893          	slli	x17,x17,0x2
80004210:	011788b3          	add	x17,x15,x17
80004214:	01f8a623          	sw	x31,12(x17)
80004218:	04072883          	lw	x17,64(x14)
8000421c:	00288893          	addi	x17,x17,2
80004220:	00289893          	slli	x17,x17,0x2
80004224:	011788b3          	add	x17,x15,x17
80004228:	0078a623          	sw	x7,12(x17)
8000422c:	04072883          	lw	x17,64(x14)
80004230:	00388893          	addi	x17,x17,3
80004234:	05172023          	sw	x17,64(x14)
80004238:	0006a883          	lw	x17,0(x13)
8000423c:	0915d263          	bge	x11,x17,800042c0 <benchmark_body+0x41dc>
80004240:	04072883          	lw	x17,64(x14)
80004244:	07164e63          	blt	x12,x17,800042c0 <benchmark_body+0x41dc>
80004248:	02c7af83          	lw	x31,44(x15)
8000424c:	0307a883          	lw	x17,48(x15)
80004250:	071f9863          	bne	x31,x17,800042c0 <benchmark_body+0x41dc>
80004254:	02c7af83          	lw	x31,44(x15)
80004258:	0287a883          	lw	x17,40(x15)
8000425c:	071f9263          	bne	x31,x17,800042c0 <benchmark_body+0x41dc>
80004260:	0347a283          	lw	x5,52(x15)
80004264:	02c7af83          	lw	x31,44(x15)
80004268:	05f2dc63          	bge	x5,x31,800042c0 <benchmark_body+0x41dc>
8000426c:	0006a883          	lw	x17,0(x13)
80004270:	01f283b3          	add	x7,x5,x31
80004274:	ffc88893          	addi	x17,x17,-4
80004278:	0116a023          	sw	x17,0(x13)
8000427c:	04072883          	lw	x17,64(x14)
80004280:	00289893          	slli	x17,x17,0x2
80004284:	011788b3          	add	x17,x15,x17
80004288:	0058a623          	sw	x5,12(x17)
8000428c:	04072883          	lw	x17,64(x14)
80004290:	00188893          	addi	x17,x17,1
80004294:	00289893          	slli	x17,x17,0x2
80004298:	011788b3          	add	x17,x15,x17
8000429c:	01f8a623          	sw	x31,12(x17)
800042a0:	04072883          	lw	x17,64(x14)
800042a4:	00288893          	addi	x17,x17,2
800042a8:	00289893          	slli	x17,x17,0x2
800042ac:	011788b3          	add	x17,x15,x17
800042b0:	0078a623          	sw	x7,12(x17)
800042b4:	04072883          	lw	x17,64(x14)
800042b8:	00388893          	addi	x17,x17,3
800042bc:	05172023          	sw	x17,64(x14)
800042c0:	0006a883          	lw	x17,0(x13)
800042c4:	0915d663          	bge	x11,x17,80004350 <benchmark_body+0x426c>
800042c8:	04072883          	lw	x17,64(x14)
800042cc:	09164263          	blt	x12,x17,80004350 <benchmark_body+0x426c>
800042d0:	0307af83          	lw	x31,48(x15)
800042d4:	0247a883          	lw	x17,36(x15)
800042d8:	071f9c63          	bne	x31,x17,80004350 <benchmark_body+0x426c>
800042dc:	0307af83          	lw	x31,48(x15)
800042e0:	0287a883          	lw	x17,40(x15)
800042e4:	071f9663          	bne	x31,x17,80004350 <benchmark_body+0x426c>
800042e8:	0347a283          	lw	x5,52(x15)
800042ec:	0307af83          	lw	x31,48(x15)
800042f0:	07f2d063          	bge	x5,x31,80004350 <benchmark_body+0x426c>
800042f4:	02c7a883          	lw	x17,44(x15)
800042f8:	01f283b3          	add	x7,x5,x31
800042fc:	0317a223          	sw	x17,36(x15)
80004300:	0006a883          	lw	x17,0(x13)
80004304:	ffc88893          	addi	x17,x17,-4
80004308:	0116a023          	sw	x17,0(x13)
8000430c:	04072883          	lw	x17,64(x14)
80004310:	00289893          	slli	x17,x17,0x2
80004314:	011788b3          	add	x17,x15,x17
80004318:	0058a623          	sw	x5,12(x17)
8000431c:	04072883          	lw	x17,64(x14)
80004320:	00188893          	addi	x17,x17,1
80004324:	00289893          	slli	x17,x17,0x2
80004328:	011788b3          	add	x17,x15,x17
8000432c:	01f8a623          	sw	x31,12(x17)
80004330:	04072883          	lw	x17,64(x14)
80004334:	00288893          	addi	x17,x17,2
80004338:	00289893          	slli	x17,x17,0x2
8000433c:	011788b3          	add	x17,x15,x17
80004340:	0078a623          	sw	x7,12(x17)
80004344:	04072883          	lw	x17,64(x14)
80004348:	00388893          	addi	x17,x17,3
8000434c:	05172023          	sw	x17,64(x14)
80004350:	0006a883          	lw	x17,0(x13)
80004354:	0915d663          	bge	x11,x17,800043e0 <benchmark_body+0x42fc>
80004358:	04072883          	lw	x17,64(x14)
8000435c:	09164263          	blt	x12,x17,800043e0 <benchmark_body+0x42fc>
80004360:	0307af83          	lw	x31,48(x15)
80004364:	0247a883          	lw	x17,36(x15)
80004368:	071f9c63          	bne	x31,x17,800043e0 <benchmark_body+0x42fc>
8000436c:	0307af83          	lw	x31,48(x15)
80004370:	02c7a883          	lw	x17,44(x15)
80004374:	071f9663          	bne	x31,x17,800043e0 <benchmark_body+0x42fc>
80004378:	0347a283          	lw	x5,52(x15)
8000437c:	0307af83          	lw	x31,48(x15)
80004380:	07f2d063          	bge	x5,x31,800043e0 <benchmark_body+0x42fc>
80004384:	0287a883          	lw	x17,40(x15)
80004388:	01f283b3          	add	x7,x5,x31
8000438c:	0317a223          	sw	x17,36(x15)
80004390:	0006a883          	lw	x17,0(x13)
80004394:	ffc88893          	addi	x17,x17,-4
80004398:	0116a023          	sw	x17,0(x13)
8000439c:	04072883          	lw	x17,64(x14)
800043a0:	00289893          	slli	x17,x17,0x2
800043a4:	011788b3          	add	x17,x15,x17
800043a8:	0058a623          	sw	x5,12(x17)
800043ac:	04072883          	lw	x17,64(x14)
800043b0:	00188893          	addi	x17,x17,1
800043b4:	00289893          	slli	x17,x17,0x2
800043b8:	011788b3          	add	x17,x15,x17
800043bc:	01f8a623          	sw	x31,12(x17)
800043c0:	04072883          	lw	x17,64(x14)
800043c4:	00288893          	addi	x17,x17,2
800043c8:	00289893          	slli	x17,x17,0x2
800043cc:	011788b3          	add	x17,x15,x17
800043d0:	0078a623          	sw	x7,12(x17)
800043d4:	04072883          	lw	x17,64(x14)
800043d8:	00388893          	addi	x17,x17,3
800043dc:	05172023          	sw	x17,64(x14)
800043e0:	0006a883          	lw	x17,0(x13)
800043e4:	0915d663          	bge	x11,x17,80004470 <benchmark_body+0x438c>
800043e8:	04072883          	lw	x17,64(x14)
800043ec:	09164263          	blt	x12,x17,80004470 <benchmark_body+0x438c>
800043f0:	0307af83          	lw	x31,48(x15)
800043f4:	0287a883          	lw	x17,40(x15)
800043f8:	071f9c63          	bne	x31,x17,80004470 <benchmark_body+0x438c>
800043fc:	0307af83          	lw	x31,48(x15)
80004400:	0247a883          	lw	x17,36(x15)
80004404:	071f9663          	bne	x31,x17,80004470 <benchmark_body+0x438c>
80004408:	0347a283          	lw	x5,52(x15)
8000440c:	0307af83          	lw	x31,48(x15)
80004410:	07f2d063          	bge	x5,x31,80004470 <benchmark_body+0x438c>
80004414:	02c7a883          	lw	x17,44(x15)
80004418:	01f283b3          	add	x7,x5,x31
8000441c:	0317a223          	sw	x17,36(x15)
80004420:	0006a883          	lw	x17,0(x13)
80004424:	ffc88893          	addi	x17,x17,-4
80004428:	0116a023          	sw	x17,0(x13)
8000442c:	04072883          	lw	x17,64(x14)
80004430:	00289893          	slli	x17,x17,0x2
80004434:	011788b3          	add	x17,x15,x17
80004438:	0058a623          	sw	x5,12(x17)
8000443c:	04072883          	lw	x17,64(x14)
80004440:	00188893          	addi	x17,x17,1
80004444:	00289893          	slli	x17,x17,0x2
80004448:	011788b3          	add	x17,x15,x17
8000444c:	01f8a623          	sw	x31,12(x17)
80004450:	04072883          	lw	x17,64(x14)
80004454:	00288893          	addi	x17,x17,2
80004458:	00289893          	slli	x17,x17,0x2
8000445c:	011788b3          	add	x17,x15,x17
80004460:	0078a623          	sw	x7,12(x17)
80004464:	04072883          	lw	x17,64(x14)
80004468:	00388893          	addi	x17,x17,3
8000446c:	05172023          	sw	x17,64(x14)
80004470:	0006a883          	lw	x17,0(x13)
80004474:	0915d263          	bge	x11,x17,800044f8 <benchmark_body+0x4414>
80004478:	04072883          	lw	x17,64(x14)
8000447c:	07164e63          	blt	x12,x17,800044f8 <benchmark_body+0x4414>
80004480:	0307af83          	lw	x31,48(x15)
80004484:	0287a883          	lw	x17,40(x15)
80004488:	071f9863          	bne	x31,x17,800044f8 <benchmark_body+0x4414>
8000448c:	0307af83          	lw	x31,48(x15)
80004490:	02c7a883          	lw	x17,44(x15)
80004494:	071f9263          	bne	x31,x17,800044f8 <benchmark_body+0x4414>
80004498:	0347a283          	lw	x5,52(x15)
8000449c:	0307af83          	lw	x31,48(x15)
800044a0:	05f2dc63          	bge	x5,x31,800044f8 <benchmark_body+0x4414>
800044a4:	0006a883          	lw	x17,0(x13)
800044a8:	01f283b3          	add	x7,x5,x31
800044ac:	ffc88893          	addi	x17,x17,-4
800044b0:	0116a023          	sw	x17,0(x13)
800044b4:	04072883          	lw	x17,64(x14)
800044b8:	00289893          	slli	x17,x17,0x2
800044bc:	011788b3          	add	x17,x15,x17
800044c0:	0058a623          	sw	x5,12(x17)
800044c4:	04072883          	lw	x17,64(x14)
800044c8:	00188893          	addi	x17,x17,1
800044cc:	00289893          	slli	x17,x17,0x2
800044d0:	011788b3          	add	x17,x15,x17
800044d4:	01f8a623          	sw	x31,12(x17)
800044d8:	04072883          	lw	x17,64(x14)
800044dc:	00288893          	addi	x17,x17,2
800044e0:	00289893          	slli	x17,x17,0x2
800044e4:	011788b3          	add	x17,x15,x17
800044e8:	0078a623          	sw	x7,12(x17)
800044ec:	04072883          	lw	x17,64(x14)
800044f0:	00388893          	addi	x17,x17,3
800044f4:	05172023          	sw	x17,64(x14)
800044f8:	0006a883          	lw	x17,0(x13)
800044fc:	0915d663          	bge	x11,x17,80004588 <benchmark_body+0x44a4>
80004500:	04072883          	lw	x17,64(x14)
80004504:	09164263          	blt	x12,x17,80004588 <benchmark_body+0x44a4>
80004508:	0307af83          	lw	x31,48(x15)
8000450c:	02c7a883          	lw	x17,44(x15)
80004510:	071f9c63          	bne	x31,x17,80004588 <benchmark_body+0x44a4>
80004514:	0307af83          	lw	x31,48(x15)
80004518:	0247a883          	lw	x17,36(x15)
8000451c:	071f9663          	bne	x31,x17,80004588 <benchmark_body+0x44a4>
80004520:	0347a283          	lw	x5,52(x15)
80004524:	0307af83          	lw	x31,48(x15)
80004528:	07f2d063          	bge	x5,x31,80004588 <benchmark_body+0x44a4>
8000452c:	0287a883          	lw	x17,40(x15)
80004530:	01f283b3          	add	x7,x5,x31
80004534:	0317a223          	sw	x17,36(x15)
80004538:	0006a883          	lw	x17,0(x13)
8000453c:	ffc88893          	addi	x17,x17,-4
80004540:	0116a023          	sw	x17,0(x13)
80004544:	04072883          	lw	x17,64(x14)
80004548:	00289893          	slli	x17,x17,0x2
8000454c:	011788b3          	add	x17,x15,x17
80004550:	0058a623          	sw	x5,12(x17)
80004554:	04072883          	lw	x17,64(x14)
80004558:	00188893          	addi	x17,x17,1
8000455c:	00289893          	slli	x17,x17,0x2
80004560:	011788b3          	add	x17,x15,x17
80004564:	01f8a623          	sw	x31,12(x17)
80004568:	04072883          	lw	x17,64(x14)
8000456c:	00288893          	addi	x17,x17,2
80004570:	00289893          	slli	x17,x17,0x2
80004574:	011788b3          	add	x17,x15,x17
80004578:	0078a623          	sw	x7,12(x17)
8000457c:	04072883          	lw	x17,64(x14)
80004580:	00388893          	addi	x17,x17,3
80004584:	05172023          	sw	x17,64(x14)
80004588:	0006a883          	lw	x17,0(x13)
8000458c:	0915d263          	bge	x11,x17,80004610 <benchmark_body+0x452c>
80004590:	04072883          	lw	x17,64(x14)
80004594:	07164e63          	blt	x12,x17,80004610 <benchmark_body+0x452c>
80004598:	0307af83          	lw	x31,48(x15)
8000459c:	02c7a883          	lw	x17,44(x15)
800045a0:	071f9863          	bne	x31,x17,80004610 <benchmark_body+0x452c>
800045a4:	0307af83          	lw	x31,48(x15)
800045a8:	0287a883          	lw	x17,40(x15)
800045ac:	071f9263          	bne	x31,x17,80004610 <benchmark_body+0x452c>
800045b0:	0347a283          	lw	x5,52(x15)
800045b4:	0307af83          	lw	x31,48(x15)
800045b8:	05f2dc63          	bge	x5,x31,80004610 <benchmark_body+0x452c>
800045bc:	0006a883          	lw	x17,0(x13)
800045c0:	01f283b3          	add	x7,x5,x31
800045c4:	ffc88893          	addi	x17,x17,-4
800045c8:	0116a023          	sw	x17,0(x13)
800045cc:	04072883          	lw	x17,64(x14)
800045d0:	00289893          	slli	x17,x17,0x2
800045d4:	011788b3          	add	x17,x15,x17
800045d8:	0058a623          	sw	x5,12(x17)
800045dc:	04072883          	lw	x17,64(x14)
800045e0:	00188893          	addi	x17,x17,1
800045e4:	00289893          	slli	x17,x17,0x2
800045e8:	011788b3          	add	x17,x15,x17
800045ec:	01f8a623          	sw	x31,12(x17)
800045f0:	04072883          	lw	x17,64(x14)
800045f4:	00288893          	addi	x17,x17,2
800045f8:	00289893          	slli	x17,x17,0x2
800045fc:	011788b3          	add	x17,x15,x17
80004600:	0078a623          	sw	x7,12(x17)
80004604:	04072883          	lw	x17,64(x14)
80004608:	00388893          	addi	x17,x17,3
8000460c:	05172023          	sw	x17,64(x14)
80004610:	001e0e13          	addi	x28,x28,1
80004614:	afdfb06f          	jal	x0,80000110 <benchmark_body+0x2c>

80004618 <initialise_benchmark>:
80004618:	00008067          	jalr	x0,0(x1)

8000461c <warm_caches>:
8000461c:	ac9fb06f          	jal	x0,800000e4 <benchmark_body>

80004620 <benchmark>:
80004620:	01400513          	addi	x10,x0,20
80004624:	ac1fb06f          	jal	x0,800000e4 <benchmark_body>

80004628 <verify_benchmark>:
80004628:	801017b7          	lui	x15,0x80101
8000462c:	0047a703          	lw	x14,4(x15) # 80101004 <P1_is_marked>
80004630:	fc010113          	addi	x2,x2,-64
80004634:	00012423          	sw	x0,8(x2)
80004638:	00012623          	sw	x0,12(x2)
8000463c:	00012823          	sw	x0,16(x2)
80004640:	00012a23          	sw	x0,20(x2)
80004644:	00012c23          	sw	x0,24(x2)
80004648:	00012e23          	sw	x0,28(x2)
8000464c:	02012423          	sw	x0,40(x2)
80004650:	02012623          	sw	x0,44(x2)
80004654:	02012823          	sw	x0,48(x2)
80004658:	00300793          	addi	x15,x0,3
8000465c:	00000513          	addi	x10,x0,0
80004660:	0af71463          	bne	x14,x15,80004708 <verify_benchmark+0xe0>
80004664:	801017b7          	lui	x15,0x80101
80004668:	0007a703          	lw	x14,0(x15) # 80101000 <P2_is_marked>
8000466c:	00500793          	addi	x15,x0,5
80004670:	08f71c63          	bne	x14,x15,80004708 <verify_benchmark+0xe0>
80004674:	801017b7          	lui	x15,0x80101
80004678:	0407a503          	lw	x10,64(x15) # 80101040 <P3_is_marked>
8000467c:	08051a63          	bne	x10,x0,80004710 <verify_benchmark+0xe8>
80004680:	801017b7          	lui	x15,0x80101
80004684:	00810813          	addi	x16,x2,8
80004688:	02810593          	addi	x11,x2,40
8000468c:	01410613          	addi	x12,x2,20
80004690:	00000693          	addi	x13,x0,0
80004694:	00878793          	addi	x15,x15,8 # 80101008 <P1_marking_member_0>
80004698:	00300893          	addi	x17,x0,3
8000469c:	00269713          	slli	x14,x13,0x2
800046a0:	00e78733          	add	x14,x15,x14
800046a4:	00072303          	lw	x6,0(x14)
800046a8:	00082e03          	lw	x28,0(x16)
800046ac:	046e1e63          	bne	x28,x6,80004708 <verify_benchmark+0xe0>
800046b0:	02472303          	lw	x6,36(x14)
800046b4:	00062e03          	lw	x28,0(x12)
800046b8:	046e1863          	bne	x28,x6,80004708 <verify_benchmark+0xe0>
800046bc:	00c72703          	lw	x14,12(x14)
800046c0:	0005a303          	lw	x6,0(x11)
800046c4:	04e31263          	bne	x6,x14,80004708 <verify_benchmark+0xe0>
800046c8:	00168693          	addi	x13,x13,1
800046cc:	00480813          	addi	x16,x16,4
800046d0:	00458593          	addi	x11,x11,4
800046d4:	00460613          	addi	x12,x12,4
800046d8:	fd1692e3          	bne	x13,x17,8000469c <verify_benchmark+0x74>
800046dc:	0307a703          	lw	x14,48(x15)
800046e0:	02071463          	bne	x14,x0,80004708 <verify_benchmark+0xe0>
800046e4:	0187a703          	lw	x14,24(x15)
800046e8:	00000513          	addi	x10,x0,0
800046ec:	00071e63          	bne	x14,x0,80004708 <verify_benchmark+0xe0>
800046f0:	0347a503          	lw	x10,52(x15)
800046f4:	00051e63          	bne	x10,x0,80004710 <verify_benchmark+0xe8>
800046f8:	01c7a703          	lw	x14,28(x15)
800046fc:	00071663          	bne	x14,x0,80004708 <verify_benchmark+0xe0>
80004700:	0207a503          	lw	x10,32(x15)
80004704:	00153513          	sltiu	x10,x10,1
80004708:	04010113          	addi	x2,x2,64
8000470c:	00008067          	jalr	x0,0(x1)
80004710:	00000513          	addi	x10,x0,0
80004714:	ff5ff06f          	jal	x0,80004708 <verify_benchmark+0xe0>

80004718 <initialise_board>:
80004718:	00000513          	addi	x10,x0,0
8000471c:	00008067          	jalr	x0,0(x1)

80004720 <start_trigger>:
80004720:	00000513          	addi	x10,x0,0
80004724:	deadc2b7          	lui	x5,0xdeadc
80004728:	eef28293          	addi	x5,x5,-273 # deadbeef <_end+0x5e9d6d9f>
8000472c:	00008067          	jalr	x0,0(x1)

80004730 <stop_trigger>:
80004730:	beefe2b7          	lui	x5,0xbeefe
80004734:	ead28293          	addi	x5,x5,-339 # beefdead <_end+0x3edf8d5d>
80004738:	00008067          	jalr	x0,0(x1)

Disassembly of section .data:

80100000 <stack_begin>:
	...

80101000 <P2_is_marked>:
80101000:	0005                	.insn	2, 0x0005
	...

80101004 <P1_is_marked>:
80101004:	00000003          	lb	x0,0(x0) # 0 <_stack_size-0x100>

80101008 <P1_marking_member_0>:
	...

80101014 <P3_marking_member_0>:
	...

8010102c <P2_marking_member_0>:
	...

Disassembly of section .comment:

00000000 <.comment>:
   0:	3a434347          	.insn	4, 0x3a434347
   4:	2820                	.insn	2, 0x2820
   6:	2029                	.insn	2, 0x2029
   8:	3331                	.insn	2, 0x3331
   a:	322e                	.insn	2, 0x322e
   c:	302e                	.insn	2, 0x302e
	...

Disassembly of section .riscv.attributes:

00000000 <.riscv.attributes>:
   0:	2841                	.insn	2, 0x2841
   2:	0000                	.insn	2, 0x
   4:	7200                	.insn	2, 0x7200
   6:	7369                	.insn	2, 0x7369
   8:	01007663          	bgeu	x0,x16,14 <_stack_size-0xec>
   c:	001e                	.insn	2, 0x001e
   e:	0000                	.insn	2, 0x
  10:	1004                	.insn	2, 0x1004
  12:	7205                	.insn	2, 0x7205
  14:	3376                	.insn	2, 0x3376
  16:	6932                	.insn	2, 0x6932
  18:	7032                	.insn	2, 0x7032
  1a:	5f31                	.insn	2, 0x5f31
  1c:	697a                	.insn	2, 0x697a
  1e:	32727363          	bgeu	x4,x7,344 <_stack_size+0x244>
  22:	3070                	.insn	2, 0x3070
  24:	0800                	.insn	2, 0x0800
  26:	0a01                	.insn	2, 0x0a01
  28:	Address 0x28 is out of bounds.

