
bd/src/picojpeg/picojpeg:     Dateiformat elf32-littleriscv


Disassembly of section .text:

80000000 <initSection>:
80000000:	000070b3          	and	x1,x0,x0
80000004:	00007133          	and	x2,x0,x0
80000008:	000071b3          	and	x3,x0,x0
8000000c:	00007233          	and	x4,x0,x0
80000010:	000072b3          	and	x5,x0,x0
80000014:	00007333          	and	x6,x0,x0
80000018:	000073b3          	and	x7,x0,x0
8000001c:	00007433          	and	x8,x0,x0
80000020:	000074b3          	and	x9,x0,x0
80000024:	00007533          	and	x10,x0,x0
80000028:	000075b3          	and	x11,x0,x0
8000002c:	00007633          	and	x12,x0,x0
80000030:	000076b3          	and	x13,x0,x0
80000034:	00007733          	and	x14,x0,x0
80000038:	000077b3          	and	x15,x0,x0
8000003c:	00007833          	and	x16,x0,x0
80000040:	000078b3          	and	x17,x0,x0
80000044:	00007933          	and	x18,x0,x0
80000048:	000079b3          	and	x19,x0,x0
8000004c:	00007a33          	and	x20,x0,x0
80000050:	00007ab3          	and	x21,x0,x0
80000054:	00007b33          	and	x22,x0,x0
80000058:	00007bb3          	and	x23,x0,x0
8000005c:	00007c33          	and	x24,x0,x0
80000060:	00007cb3          	and	x25,x0,x0
80000064:	00007d33          	and	x26,x0,x0
80000068:	00007db3          	and	x27,x0,x0
8000006c:	00007e33          	and	x28,x0,x0
80000070:	00007eb3          	and	x29,x0,x0
80000074:	00007f33          	and	x30,x0,x0
80000078:	00007fb3          	and	x31,x0,x0
8000007c:	00101117          	auipc	x2,0x101
80000080:	f8410113          	addi	x2,x2,-124 # 80101000 <stack_end>
80000084:	020000ef          	jal	x1,800000a4 <main>

80000088 <sys_end>:
80000088:	05d00893          	addi	x17,x0,93
8000008c:	00000513          	addi	x10,x0,0
80000090:	020102b7          	lui	x5,0x2010
80000094:	f1402873          	csrrs	x16,mhartid,x0
80000098:	0102a023          	sw	x16,0(x5) # 2010000 <SYSCALL_ADDR>
8000009c:	0112a023          	sw	x17,0(x5)
800000a0:	fe9ff06f          	jal	x0,80000088 <sys_end>

800000a4 <main>:
800000a4:	fe010113          	addi	x2,x2,-32
800000a8:	00112e23          	sw	x1,28(x2)
800000ac:	789020ef          	jal	x1,80003034 <initialise_board>
800000b0:	775020ef          	jal	x1,80003024 <initialise_benchmark>
800000b4:	00100513          	addi	x10,x0,1
800000b8:	771020ef          	jal	x1,80003028 <warm_caches>
800000bc:	781020ef          	jal	x1,8000303c <start_trigger>
800000c0:	76d020ef          	jal	x1,8000302c <benchmark>
800000c4:	00a12623          	sw	x10,12(x2)
800000c8:	785020ef          	jal	x1,8000304c <stop_trigger>
800000cc:	00c12503          	lw	x10,12(x2)
800000d0:	6d1020ef          	jal	x1,80002fa0 <verify_benchmark>
800000d4:	01c12083          	lw	x1,28(x2)
800000d8:	00153513          	sltiu	x10,x10,1
800000dc:	02010113          	addi	x2,x2,32
800000e0:	00008067          	jalr	x0,0(x1)

800000e4 <stuffChar>:
800000e4:	80102737          	lui	x14,0x80102
800000e8:	d9174783          	lbu	x15,-623(x14) # 80101d91 <gInBufOfs>
800000ec:	fff78793          	addi	x15,x15,-1
800000f0:	0ff7f793          	andi	x15,x15,255
800000f4:	d8f708a3          	sb	x15,-623(x14)
800000f8:	80101737          	lui	x14,0x80101
800000fc:	43470713          	addi	x14,x14,1076 # 80101434 <gInBuf>
80000100:	00f707b3          	add	x15,x14,x15
80000104:	80102737          	lui	x14,0x80102
80000108:	00a78023          	sb	x10,0(x15)
8000010c:	d9074783          	lbu	x15,-624(x14) # 80101d90 <gInBufLeft>
80000110:	00178793          	addi	x15,x15,1
80000114:	d8f70823          	sb	x15,-624(x14)
80000118:	00008067          	jalr	x0,0(x1)

8000011c <huffExtend>:
8000011c:	fff58593          	addi	x11,x11,-1
80000120:	0ff5f593          	andi	x11,x11,255
80000124:	00e00793          	addi	x15,x0,14
80000128:	02b7e263          	bltu	x15,x11,8000014c <huffExtend+0x30>
8000012c:	801017b7          	lui	x15,0x80101
80000130:	00159593          	slli	x11,x11,0x1
80000134:	05878793          	addi	x15,x15,88 # 80101058 <CSWTCH.299>
80000138:	00b787b3          	add	x15,x15,x11
8000013c:	0007d703          	lhu	x14,0(x15)
80000140:	00e57663          	bgeu	x10,x14,8000014c <huffExtend+0x30>
80000144:	0207d783          	lhu	x15,32(x15)
80000148:	00f50533          	add	x10,x10,x15
8000014c:	01051513          	slli	x10,x10,0x10
80000150:	41055513          	srai	x10,x10,0x10
80000154:	00008067          	jalr	x0,0(x1)

80000158 <clamp>:
80000158:	01051713          	slli	x14,x10,0x10
8000015c:	01075713          	srli	x14,x14,0x10
80000160:	0ff00793          	addi	x15,x0,255
80000164:	00e7f663          	bgeu	x15,x14,80000170 <clamp+0x18>
80000168:	fff54513          	xori	x10,x10,-1
8000016c:	41f55513          	srai	x10,x10,0x1f
80000170:	0ff57513          	andi	x10,x10,255
80000174:	00008067          	jalr	x0,0(x1)

80000178 <addAndClamp>:
80000178:	00b50533          	add	x10,x10,x11
8000017c:	01051513          	slli	x10,x10,0x10
80000180:	01055513          	srli	x10,x10,0x10
80000184:	0ff00793          	addi	x15,x0,255
80000188:	00a7f863          	bgeu	x15,x10,80000198 <addAndClamp+0x20>
8000018c:	fff54513          	xori	x10,x10,-1
80000190:	01051513          	slli	x10,x10,0x10
80000194:	41f55513          	srai	x10,x10,0x1f
80000198:	0ff57513          	andi	x10,x10,255
8000019c:	00008067          	jalr	x0,0(x1)

800001a0 <subAndClamp>:
800001a0:	40b50533          	sub	x10,x10,x11
800001a4:	01051513          	slli	x10,x10,0x10
800001a8:	01055513          	srli	x10,x10,0x10
800001ac:	0ff00793          	addi	x15,x0,255
800001b0:	00a7f863          	bgeu	x15,x10,800001c0 <subAndClamp+0x20>
800001b4:	fff54513          	xori	x10,x10,-1
800001b8:	01051513          	slli	x10,x10,0x10
800001bc:	41f55513          	srai	x10,x10,0x1f
800001c0:	0ff57513          	andi	x10,x10,255
800001c4:	00008067          	jalr	x0,0(x1)

800001c8 <upsampleCb>:
800001c8:	801017b7          	lui	x15,0x80101
800001cc:	fc010113          	addi	x2,x2,-64
800001d0:	43478793          	addi	x15,x15,1076 # 80101434 <gInBuf>
800001d4:	03512223          	sw	x21,36(x2)
800001d8:	01912a23          	sw	x25,20(x2)
800001dc:	10078a93          	addi	x21,x15,256
800001e0:	18078c93          	addi	x25,x15,384
800001e4:	00151513          	slli	x10,x10,0x1
800001e8:	28078793          	addi	x15,x15,640
800001ec:	03412423          	sw	x20,40(x2)
800001f0:	01712e23          	sw	x23,28(x2)
800001f4:	01b12623          	sw	x27,12(x2)
800001f8:	02112e23          	sw	x1,60(x2)
800001fc:	02812c23          	sw	x8,56(x2)
80000200:	02912a23          	sw	x9,52(x2)
80000204:	03212823          	sw	x18,48(x2)
80000208:	03312623          	sw	x19,44(x2)
8000020c:	03612023          	sw	x22,32(x2)
80000210:	01812c23          	sw	x24,24(x2)
80000214:	01a12823          	sw	x26,16(x2)
80000218:	00aa8ab3          	add	x21,x21,x10
8000021c:	00bc8cb3          	add	x25,x25,x11
80000220:	00b78a33          	add	x20,x15,x11
80000224:	00000b93          	addi	x23,x0,0
80000228:	04000d93          	addi	x27,x0,64
8000022c:	017a09b3          	add	x19,x20,x23
80000230:	017c8933          	add	x18,x25,x23
80000234:	000a8c13          	addi	x24,x21,0
80000238:	008a8d13          	addi	x26,x21,8
8000023c:	000c1b03          	lh	x22,0(x24)
80000240:	00094503          	lbu	x10,0(x18)
80000244:	002c0c13          	addi	x24,x24,2
80000248:	0ffb7793          	andi	x15,x22,255
8000024c:	00179413          	slli	x8,x15,0x1
80000250:	00f40433          	add	x8,x8,x15
80000254:	00241493          	slli	x9,x8,0x2
80000258:	40f484b3          	sub	x9,x9,x15
8000025c:	00349493          	slli	x9,x9,0x3
80000260:	0084d493          	srli	x9,x9,0x8
80000264:	fd448493          	addi	x9,x9,-44
80000268:	01049493          	slli	x9,x9,0x10
8000026c:	4104d493          	srai	x9,x9,0x10
80000270:	00048593          	addi	x11,x9,0
80000274:	f2dff0ef          	jal	x1,800001a0 <subAndClamp>
80000278:	00a90023          	sb	x10,0(x18)
8000027c:	00194503          	lbu	x10,1(x18)
80000280:	00048593          	addi	x11,x9,0
80000284:	0ffb7b13          	andi	x22,x22,255
80000288:	f19ff0ef          	jal	x1,800001a0 <subAndClamp>
8000028c:	00a900a3          	sb	x10,1(x18)
80000290:	00894503          	lbu	x10,8(x18)
80000294:	00048593          	addi	x11,x9,0
80000298:	f1db0b13          	addi	x22,x22,-227
8000029c:	f05ff0ef          	jal	x1,800001a0 <subAndClamp>
800002a0:	00a90423          	sb	x10,8(x18)
800002a4:	00994503          	lbu	x10,9(x18)
800002a8:	00048593          	addi	x11,x9,0
800002ac:	00290913          	addi	x18,x18,2
800002b0:	ef1ff0ef          	jal	x1,800001a0 <subAndClamp>
800002b4:	00541793          	slli	x15,x8,0x5
800002b8:	00f40433          	add	x8,x8,x15
800002bc:	00a903a3          	sb	x10,7(x18)
800002c0:	00745413          	srli	x8,x8,0x7
800002c4:	0009c503          	lbu	x10,0(x19)
800002c8:	01640433          	add	x8,x8,x22
800002cc:	00040593          	addi	x11,x8,0
800002d0:	ea9ff0ef          	jal	x1,80000178 <addAndClamp>
800002d4:	00a98023          	sb	x10,0(x19)
800002d8:	0019c503          	lbu	x10,1(x19)
800002dc:	00040593          	addi	x11,x8,0
800002e0:	00298993          	addi	x19,x19,2
800002e4:	e95ff0ef          	jal	x1,80000178 <addAndClamp>
800002e8:	fea98fa3          	sb	x10,-1(x19)
800002ec:	0069c503          	lbu	x10,6(x19)
800002f0:	00040593          	addi	x11,x8,0
800002f4:	e85ff0ef          	jal	x1,80000178 <addAndClamp>
800002f8:	00a98323          	sb	x10,6(x19)
800002fc:	0079c503          	lbu	x10,7(x19)
80000300:	00040593          	addi	x11,x8,0
80000304:	e75ff0ef          	jal	x1,80000178 <addAndClamp>
80000308:	00a983a3          	sb	x10,7(x19)
8000030c:	f3ac18e3          	bne	x24,x26,8000023c <upsampleCb+0x74>
80000310:	010b8b93          	addi	x23,x23,16
80000314:	010a8a93          	addi	x21,x21,16
80000318:	f1bb9ae3          	bne	x23,x27,8000022c <upsampleCb+0x64>
8000031c:	03c12083          	lw	x1,60(x2)
80000320:	03812403          	lw	x8,56(x2)
80000324:	03412483          	lw	x9,52(x2)
80000328:	03012903          	lw	x18,48(x2)
8000032c:	02c12983          	lw	x19,44(x2)
80000330:	02812a03          	lw	x20,40(x2)
80000334:	02412a83          	lw	x21,36(x2)
80000338:	02012b03          	lw	x22,32(x2)
8000033c:	01c12b83          	lw	x23,28(x2)
80000340:	01812c03          	lw	x24,24(x2)
80000344:	01412c83          	lw	x25,20(x2)
80000348:	01012d03          	lw	x26,16(x2)
8000034c:	00c12d83          	lw	x27,12(x2)
80000350:	04010113          	addi	x2,x2,64
80000354:	00008067          	jalr	x0,0(x1)

80000358 <upsampleCbH>:
80000358:	801017b7          	lui	x15,0x80101
8000035c:	fc010113          	addi	x2,x2,-64
80000360:	43478793          	addi	x15,x15,1076 # 80101434 <gInBuf>
80000364:	03212823          	sw	x18,48(x2)
80000368:	01812c23          	sw	x24,24(x2)
8000036c:	10078913          	addi	x18,x15,256
80000370:	18078c13          	addi	x24,x15,384
80000374:	00151513          	slli	x10,x10,0x1
80000378:	28078793          	addi	x15,x15,640
8000037c:	02912a23          	sw	x9,52(x2)
80000380:	03612023          	sw	x22,32(x2)
80000384:	01a12823          	sw	x26,16(x2)
80000388:	02112e23          	sw	x1,60(x2)
8000038c:	02812c23          	sw	x8,56(x2)
80000390:	03312623          	sw	x19,44(x2)
80000394:	03412423          	sw	x20,40(x2)
80000398:	03512223          	sw	x21,36(x2)
8000039c:	01712e23          	sw	x23,28(x2)
800003a0:	01912a23          	sw	x25,20(x2)
800003a4:	00a90933          	add	x18,x18,x10
800003a8:	00bc0c33          	add	x24,x24,x11
800003ac:	00b784b3          	add	x9,x15,x11
800003b0:	00000b13          	addi	x22,x0,0
800003b4:	04000d13          	addi	x26,x0,64
800003b8:	01648a33          	add	x20,x9,x22
800003bc:	016c09b3          	add	x19,x24,x22
800003c0:	00090b93          	addi	x23,x18,0
800003c4:	00890c93          	addi	x25,x18,8
800003c8:	000b9a83          	lh	x21,0(x23)
800003cc:	0009c503          	lbu	x10,0(x19)
800003d0:	002b8b93          	addi	x23,x23,2
800003d4:	0ffaf793          	andi	x15,x21,255
800003d8:	00179413          	slli	x8,x15,0x1
800003dc:	00f40433          	add	x8,x8,x15
800003e0:	00241593          	slli	x11,x8,0x2
800003e4:	40f585b3          	sub	x11,x11,x15
800003e8:	00359593          	slli	x11,x11,0x3
800003ec:	0085d593          	srli	x11,x11,0x8
800003f0:	fd458593          	addi	x11,x11,-44
800003f4:	01059593          	slli	x11,x11,0x10
800003f8:	4105d593          	srai	x11,x11,0x10
800003fc:	00b12623          	sw	x11,12(x2)
80000400:	da1ff0ef          	jal	x1,800001a0 <subAndClamp>
80000404:	00c12583          	lw	x11,12(x2)
80000408:	00a98023          	sb	x10,0(x19)
8000040c:	0019c503          	lbu	x10,1(x19)
80000410:	0ffafa93          	andi	x21,x21,255
80000414:	f1da8a93          	addi	x21,x21,-227
80000418:	d89ff0ef          	jal	x1,800001a0 <subAndClamp>
8000041c:	00541793          	slli	x15,x8,0x5
80000420:	00a980a3          	sb	x10,1(x19)
80000424:	00f405b3          	add	x11,x8,x15
80000428:	000a4503          	lbu	x10,0(x20)
8000042c:	0075d593          	srli	x11,x11,0x7
80000430:	015585b3          	add	x11,x11,x21
80000434:	00b12623          	sw	x11,12(x2)
80000438:	d41ff0ef          	jal	x1,80000178 <addAndClamp>
8000043c:	00aa0023          	sb	x10,0(x20)
80000440:	00c12583          	lw	x11,12(x2)
80000444:	001a4503          	lbu	x10,1(x20)
80000448:	00298993          	addi	x19,x19,2
8000044c:	002a0a13          	addi	x20,x20,2
80000450:	d29ff0ef          	jal	x1,80000178 <addAndClamp>
80000454:	feaa0fa3          	sb	x10,-1(x20)
80000458:	f79b98e3          	bne	x23,x25,800003c8 <upsampleCbH+0x70>
8000045c:	008b0b13          	addi	x22,x22,8
80000460:	01090913          	addi	x18,x18,16
80000464:	f5ab1ae3          	bne	x22,x26,800003b8 <upsampleCbH+0x60>
80000468:	03c12083          	lw	x1,60(x2)
8000046c:	03812403          	lw	x8,56(x2)
80000470:	03412483          	lw	x9,52(x2)
80000474:	03012903          	lw	x18,48(x2)
80000478:	02c12983          	lw	x19,44(x2)
8000047c:	02812a03          	lw	x20,40(x2)
80000480:	02412a83          	lw	x21,36(x2)
80000484:	02012b03          	lw	x22,32(x2)
80000488:	01c12b83          	lw	x23,28(x2)
8000048c:	01812c03          	lw	x24,24(x2)
80000490:	01412c83          	lw	x25,20(x2)
80000494:	01012d03          	lw	x26,16(x2)
80000498:	04010113          	addi	x2,x2,64
8000049c:	00008067          	jalr	x0,0(x1)

800004a0 <upsampleCbV>:
800004a0:	801017b7          	lui	x15,0x80101
800004a4:	fc010113          	addi	x2,x2,-64
800004a8:	43478793          	addi	x15,x15,1076 # 80101434 <gInBuf>
800004ac:	02912a23          	sw	x9,52(x2)
800004b0:	01712e23          	sw	x23,28(x2)
800004b4:	10078493          	addi	x9,x15,256
800004b8:	18078b93          	addi	x23,x15,384
800004bc:	00151513          	slli	x10,x10,0x1
800004c0:	28078793          	addi	x15,x15,640
800004c4:	03312623          	sw	x19,44(x2)
800004c8:	03612023          	sw	x22,32(x2)
800004cc:	01912a23          	sw	x25,20(x2)
800004d0:	02112e23          	sw	x1,60(x2)
800004d4:	02812c23          	sw	x8,56(x2)
800004d8:	03212823          	sw	x18,48(x2)
800004dc:	03412423          	sw	x20,40(x2)
800004e0:	03512223          	sw	x21,36(x2)
800004e4:	01812c23          	sw	x24,24(x2)
800004e8:	00a484b3          	add	x9,x9,x10
800004ec:	00bb8bb3          	add	x23,x23,x11
800004f0:	00b789b3          	add	x19,x15,x11
800004f4:	00000b13          	addi	x22,x0,0
800004f8:	04000c93          	addi	x25,x0,64
800004fc:	01698ab3          	add	x21,x19,x22
80000500:	016b8a33          	add	x20,x23,x22
80000504:	01048c13          	addi	x24,x9,16
80000508:	00049903          	lh	x18,0(x9)
8000050c:	000a4503          	lbu	x10,0(x20)
80000510:	00248493          	addi	x9,x9,2
80000514:	0ff97793          	andi	x15,x18,255
80000518:	00179413          	slli	x8,x15,0x1
8000051c:	00f40433          	add	x8,x8,x15
80000520:	00241593          	slli	x11,x8,0x2
80000524:	40f585b3          	sub	x11,x11,x15
80000528:	00359593          	slli	x11,x11,0x3
8000052c:	0085d593          	srli	x11,x11,0x8
80000530:	fd458593          	addi	x11,x11,-44
80000534:	01059593          	slli	x11,x11,0x10
80000538:	4105d593          	srai	x11,x11,0x10
8000053c:	00b12623          	sw	x11,12(x2)
80000540:	c61ff0ef          	jal	x1,800001a0 <subAndClamp>
80000544:	00c12583          	lw	x11,12(x2)
80000548:	00aa0023          	sb	x10,0(x20)
8000054c:	008a4503          	lbu	x10,8(x20)
80000550:	0ff97913          	andi	x18,x18,255
80000554:	f1d90913          	addi	x18,x18,-227
80000558:	c49ff0ef          	jal	x1,800001a0 <subAndClamp>
8000055c:	00541793          	slli	x15,x8,0x5
80000560:	00aa0423          	sb	x10,8(x20)
80000564:	00f405b3          	add	x11,x8,x15
80000568:	000ac503          	lbu	x10,0(x21)
8000056c:	0075d593          	srli	x11,x11,0x7
80000570:	012585b3          	add	x11,x11,x18
80000574:	00b12623          	sw	x11,12(x2)
80000578:	c01ff0ef          	jal	x1,80000178 <addAndClamp>
8000057c:	00aa8023          	sb	x10,0(x21)
80000580:	00c12583          	lw	x11,12(x2)
80000584:	008ac503          	lbu	x10,8(x21)
80000588:	001a0a13          	addi	x20,x20,1
8000058c:	001a8a93          	addi	x21,x21,1
80000590:	be9ff0ef          	jal	x1,80000178 <addAndClamp>
80000594:	00aa83a3          	sb	x10,7(x21)
80000598:	f78498e3          	bne	x9,x24,80000508 <upsampleCbV+0x68>
8000059c:	010b0b13          	addi	x22,x22,16
800005a0:	f59b1ee3          	bne	x22,x25,800004fc <upsampleCbV+0x5c>
800005a4:	03c12083          	lw	x1,60(x2)
800005a8:	03812403          	lw	x8,56(x2)
800005ac:	03412483          	lw	x9,52(x2)
800005b0:	03012903          	lw	x18,48(x2)
800005b4:	02c12983          	lw	x19,44(x2)
800005b8:	02812a03          	lw	x20,40(x2)
800005bc:	02412a83          	lw	x21,36(x2)
800005c0:	02012b03          	lw	x22,32(x2)
800005c4:	01c12b83          	lw	x23,28(x2)
800005c8:	01812c03          	lw	x24,24(x2)
800005cc:	01412c83          	lw	x25,20(x2)
800005d0:	04010113          	addi	x2,x2,64
800005d4:	00008067          	jalr	x0,0(x1)

800005d8 <upsampleCr>:
800005d8:	801017b7          	lui	x15,0x80101
800005dc:	fc010113          	addi	x2,x2,-64
800005e0:	43478793          	addi	x15,x15,1076 # 80101434 <gInBuf>
800005e4:	03512223          	sw	x21,36(x2)
800005e8:	01812c23          	sw	x24,24(x2)
800005ec:	10078a93          	addi	x21,x15,256
800005f0:	38078c13          	addi	x24,x15,896
800005f4:	00151513          	slli	x10,x10,0x1
800005f8:	18078793          	addi	x15,x15,384
800005fc:	03412423          	sw	x20,40(x2)
80000600:	03612023          	sw	x22,32(x2)
80000604:	01a12823          	sw	x26,16(x2)
80000608:	02112e23          	sw	x1,60(x2)
8000060c:	02812c23          	sw	x8,56(x2)
80000610:	02912a23          	sw	x9,52(x2)
80000614:	03212823          	sw	x18,48(x2)
80000618:	03312623          	sw	x19,44(x2)
8000061c:	01712e23          	sw	x23,28(x2)
80000620:	01912a23          	sw	x25,20(x2)
80000624:	01b12623          	sw	x27,12(x2)
80000628:	00aa8ab3          	add	x21,x21,x10
8000062c:	00bc0c33          	add	x24,x24,x11
80000630:	00b78a33          	add	x20,x15,x11
80000634:	00000b13          	addi	x22,x0,0
80000638:	04000d13          	addi	x26,x0,64
8000063c:	016a09b3          	add	x19,x20,x22
80000640:	016c0933          	add	x18,x24,x22
80000644:	000a8b93          	addi	x23,x21,0
80000648:	008a8c93          	addi	x25,x21,8
8000064c:	000b9783          	lh	x15,0(x23)
80000650:	00094503          	lbu	x10,0(x18)
80000654:	002b8b93          	addi	x23,x23,2
80000658:	0ff7fd93          	andi	x27,x15,255
8000065c:	001d9413          	slli	x8,x27,0x1
80000660:	01b40433          	add	x8,x8,x27
80000664:	00241493          	slli	x9,x8,0x2
80000668:	01b484b3          	add	x9,x9,x27
8000066c:	00349493          	slli	x9,x9,0x3
80000670:	41b484b3          	sub	x9,x9,x27
80000674:	0ff7f793          	andi	x15,x15,255
80000678:	f4d78793          	addi	x15,x15,-179
8000067c:	0084d493          	srli	x9,x9,0x8
80000680:	00f484b3          	add	x9,x9,x15
80000684:	01049493          	slli	x9,x9,0x10
80000688:	4104d493          	srai	x9,x9,0x10
8000068c:	00048593          	addi	x11,x9,0
80000690:	ae9ff0ef          	jal	x1,80000178 <addAndClamp>
80000694:	00a90023          	sb	x10,0(x18)
80000698:	00194503          	lbu	x10,1(x18)
8000069c:	00048593          	addi	x11,x9,0
800006a0:	00341413          	slli	x8,x8,0x3
800006a4:	ad5ff0ef          	jal	x1,80000178 <addAndClamp>
800006a8:	00a900a3          	sb	x10,1(x18)
800006ac:	00894503          	lbu	x10,8(x18)
800006b0:	00048593          	addi	x11,x9,0
800006b4:	41b40433          	sub	x8,x8,x27
800006b8:	ac1ff0ef          	jal	x1,80000178 <addAndClamp>
800006bc:	00a90423          	sb	x10,8(x18)
800006c0:	00341413          	slli	x8,x8,0x3
800006c4:	00994503          	lbu	x10,9(x18)
800006c8:	41b40433          	sub	x8,x8,x27
800006cc:	00048593          	addi	x11,x9,0
800006d0:	00845413          	srli	x8,x8,0x8
800006d4:	aa5ff0ef          	jal	x1,80000178 <addAndClamp>
800006d8:	fa540413          	addi	x8,x8,-91
800006dc:	00a904a3          	sb	x10,9(x18)
800006e0:	01041413          	slli	x8,x8,0x10
800006e4:	0009c503          	lbu	x10,0(x19)
800006e8:	41045413          	srai	x8,x8,0x10
800006ec:	00040593          	addi	x11,x8,0
800006f0:	ab1ff0ef          	jal	x1,800001a0 <subAndClamp>
800006f4:	00a98023          	sb	x10,0(x19)
800006f8:	0019c503          	lbu	x10,1(x19)
800006fc:	00040593          	addi	x11,x8,0
80000700:	00290913          	addi	x18,x18,2
80000704:	a9dff0ef          	jal	x1,800001a0 <subAndClamp>
80000708:	00a980a3          	sb	x10,1(x19)
8000070c:	0089c503          	lbu	x10,8(x19)
80000710:	00040593          	addi	x11,x8,0
80000714:	00298993          	addi	x19,x19,2
80000718:	a89ff0ef          	jal	x1,800001a0 <subAndClamp>
8000071c:	00a98323          	sb	x10,6(x19)
80000720:	0079c503          	lbu	x10,7(x19)
80000724:	00040593          	addi	x11,x8,0
80000728:	a79ff0ef          	jal	x1,800001a0 <subAndClamp>
8000072c:	00a983a3          	sb	x10,7(x19)
80000730:	f19b9ee3          	bne	x23,x25,8000064c <upsampleCr+0x74>
80000734:	010b0b13          	addi	x22,x22,16
80000738:	010a8a93          	addi	x21,x21,16
8000073c:	f1ab10e3          	bne	x22,x26,8000063c <upsampleCr+0x64>
80000740:	03c12083          	lw	x1,60(x2)
80000744:	03812403          	lw	x8,56(x2)
80000748:	03412483          	lw	x9,52(x2)
8000074c:	03012903          	lw	x18,48(x2)
80000750:	02c12983          	lw	x19,44(x2)
80000754:	02812a03          	lw	x20,40(x2)
80000758:	02412a83          	lw	x21,36(x2)
8000075c:	02012b03          	lw	x22,32(x2)
80000760:	01c12b83          	lw	x23,28(x2)
80000764:	01812c03          	lw	x24,24(x2)
80000768:	01412c83          	lw	x25,20(x2)
8000076c:	01012d03          	lw	x26,16(x2)
80000770:	00c12d83          	lw	x27,12(x2)
80000774:	04010113          	addi	x2,x2,64
80000778:	00008067          	jalr	x0,0(x1)

8000077c <upsampleCrH>:
8000077c:	801017b7          	lui	x15,0x80101
80000780:	fc010113          	addi	x2,x2,-64
80000784:	43478793          	addi	x15,x15,1076 # 80101434 <gInBuf>
80000788:	03212823          	sw	x18,48(x2)
8000078c:	01712e23          	sw	x23,28(x2)
80000790:	10078913          	addi	x18,x15,256
80000794:	38078b93          	addi	x23,x15,896
80000798:	00151513          	slli	x10,x10,0x1
8000079c:	18078793          	addi	x15,x15,384
800007a0:	02912a23          	sw	x9,52(x2)
800007a4:	03512223          	sw	x21,36(x2)
800007a8:	01912a23          	sw	x25,20(x2)
800007ac:	02112e23          	sw	x1,60(x2)
800007b0:	02812c23          	sw	x8,56(x2)
800007b4:	03312623          	sw	x19,44(x2)
800007b8:	03412423          	sw	x20,40(x2)
800007bc:	03612023          	sw	x22,32(x2)
800007c0:	01812c23          	sw	x24,24(x2)
800007c4:	01a12823          	sw	x26,16(x2)
800007c8:	00a90933          	add	x18,x18,x10
800007cc:	00bb8bb3          	add	x23,x23,x11
800007d0:	00b784b3          	add	x9,x15,x11
800007d4:	00000a93          	addi	x21,x0,0
800007d8:	04000c93          	addi	x25,x0,64
800007dc:	01548a33          	add	x20,x9,x21
800007e0:	015b89b3          	add	x19,x23,x21
800007e4:	00090b13          	addi	x22,x18,0
800007e8:	00890c13          	addi	x24,x18,8
800007ec:	000b1783          	lh	x15,0(x22)
800007f0:	0009c503          	lbu	x10,0(x19)
800007f4:	002b0b13          	addi	x22,x22,2
800007f8:	0ff7fd13          	andi	x26,x15,255
800007fc:	001d1413          	slli	x8,x26,0x1
80000800:	01a40433          	add	x8,x8,x26
80000804:	00241593          	slli	x11,x8,0x2
80000808:	01a585b3          	add	x11,x11,x26
8000080c:	00359593          	slli	x11,x11,0x3
80000810:	41a585b3          	sub	x11,x11,x26
80000814:	0ff7f793          	andi	x15,x15,255
80000818:	f4d78793          	addi	x15,x15,-179
8000081c:	0085d593          	srli	x11,x11,0x8
80000820:	00f585b3          	add	x11,x11,x15
80000824:	01059593          	slli	x11,x11,0x10
80000828:	4105d593          	srai	x11,x11,0x10
8000082c:	00b12623          	sw	x11,12(x2)
80000830:	949ff0ef          	jal	x1,80000178 <addAndClamp>
80000834:	00c12583          	lw	x11,12(x2)
80000838:	00a98023          	sb	x10,0(x19)
8000083c:	0019c503          	lbu	x10,1(x19)
80000840:	002a0a13          	addi	x20,x20,2
80000844:	00298993          	addi	x19,x19,2
80000848:	931ff0ef          	jal	x1,80000178 <addAndClamp>
8000084c:	00341593          	slli	x11,x8,0x3
80000850:	41a585b3          	sub	x11,x11,x26
80000854:	00359593          	slli	x11,x11,0x3
80000858:	41a585b3          	sub	x11,x11,x26
8000085c:	0085d593          	srli	x11,x11,0x8
80000860:	fea98fa3          	sb	x10,-1(x19)
80000864:	fa558593          	addi	x11,x11,-91
80000868:	ffea4503          	lbu	x10,-2(x20)
8000086c:	01059593          	slli	x11,x11,0x10
80000870:	4105d593          	srai	x11,x11,0x10
80000874:	00b12623          	sw	x11,12(x2)
80000878:	929ff0ef          	jal	x1,800001a0 <subAndClamp>
8000087c:	feaa0f23          	sb	x10,-2(x20)
80000880:	00c12583          	lw	x11,12(x2)
80000884:	fffa4503          	lbu	x10,-1(x20)
80000888:	919ff0ef          	jal	x1,800001a0 <subAndClamp>
8000088c:	feaa0fa3          	sb	x10,-1(x20)
80000890:	f58b1ee3          	bne	x22,x24,800007ec <upsampleCrH+0x70>
80000894:	008a8a93          	addi	x21,x21,8
80000898:	01090913          	addi	x18,x18,16
8000089c:	f59a90e3          	bne	x21,x25,800007dc <upsampleCrH+0x60>
800008a0:	03c12083          	lw	x1,60(x2)
800008a4:	03812403          	lw	x8,56(x2)
800008a8:	03412483          	lw	x9,52(x2)
800008ac:	03012903          	lw	x18,48(x2)
800008b0:	02c12983          	lw	x19,44(x2)
800008b4:	02812a03          	lw	x20,40(x2)
800008b8:	02412a83          	lw	x21,36(x2)
800008bc:	02012b03          	lw	x22,32(x2)
800008c0:	01c12b83          	lw	x23,28(x2)
800008c4:	01812c03          	lw	x24,24(x2)
800008c8:	01412c83          	lw	x25,20(x2)
800008cc:	01012d03          	lw	x26,16(x2)
800008d0:	04010113          	addi	x2,x2,64
800008d4:	00008067          	jalr	x0,0(x1)

800008d8 <upsampleCrV>:
800008d8:	801017b7          	lui	x15,0x80101
800008dc:	fc010113          	addi	x2,x2,-64
800008e0:	43478793          	addi	x15,x15,1076 # 80101434 <gInBuf>
800008e4:	02912a23          	sw	x9,52(x2)
800008e8:	01712e23          	sw	x23,28(x2)
800008ec:	10078493          	addi	x9,x15,256
800008f0:	38078b93          	addi	x23,x15,896
800008f4:	00151513          	slli	x10,x10,0x1
800008f8:	18078793          	addi	x15,x15,384
800008fc:	03212823          	sw	x18,48(x2)
80000900:	03612023          	sw	x22,32(x2)
80000904:	01912a23          	sw	x25,20(x2)
80000908:	02112e23          	sw	x1,60(x2)
8000090c:	02812c23          	sw	x8,56(x2)
80000910:	03312623          	sw	x19,44(x2)
80000914:	03412423          	sw	x20,40(x2)
80000918:	03512223          	sw	x21,36(x2)
8000091c:	01812c23          	sw	x24,24(x2)
80000920:	00a484b3          	add	x9,x9,x10
80000924:	00bb8bb3          	add	x23,x23,x11
80000928:	00b78933          	add	x18,x15,x11
8000092c:	00000b13          	addi	x22,x0,0
80000930:	04000c93          	addi	x25,x0,64
80000934:	01690a33          	add	x20,x18,x22
80000938:	016b89b3          	add	x19,x23,x22
8000093c:	01048c13          	addi	x24,x9,16
80000940:	00049783          	lh	x15,0(x9)
80000944:	0009c503          	lbu	x10,0(x19)
80000948:	00248493          	addi	x9,x9,2
8000094c:	0ff7fa93          	andi	x21,x15,255
80000950:	001a9413          	slli	x8,x21,0x1
80000954:	01540433          	add	x8,x8,x21
80000958:	00241593          	slli	x11,x8,0x2
8000095c:	015585b3          	add	x11,x11,x21
80000960:	00359593          	slli	x11,x11,0x3
80000964:	415585b3          	sub	x11,x11,x21
80000968:	0ff7f793          	andi	x15,x15,255
8000096c:	f4d78793          	addi	x15,x15,-179
80000970:	0085d593          	srli	x11,x11,0x8
80000974:	00f585b3          	add	x11,x11,x15
80000978:	01059593          	slli	x11,x11,0x10
8000097c:	4105d593          	srai	x11,x11,0x10
80000980:	00b12623          	sw	x11,12(x2)
80000984:	ff4ff0ef          	jal	x1,80000178 <addAndClamp>
80000988:	00c12583          	lw	x11,12(x2)
8000098c:	00a98023          	sb	x10,0(x19)
80000990:	0089c503          	lbu	x10,8(x19)
80000994:	001a0a13          	addi	x20,x20,1
80000998:	00198993          	addi	x19,x19,1
8000099c:	fdcff0ef          	jal	x1,80000178 <addAndClamp>
800009a0:	00341593          	slli	x11,x8,0x3
800009a4:	415585b3          	sub	x11,x11,x21
800009a8:	00359593          	slli	x11,x11,0x3
800009ac:	415585b3          	sub	x11,x11,x21
800009b0:	0085d593          	srli	x11,x11,0x8
800009b4:	00a983a3          	sb	x10,7(x19)
800009b8:	fa558593          	addi	x11,x11,-91
800009bc:	fffa4503          	lbu	x10,-1(x20)
800009c0:	01059593          	slli	x11,x11,0x10
800009c4:	4105d593          	srai	x11,x11,0x10
800009c8:	00b12623          	sw	x11,12(x2)
800009cc:	fd4ff0ef          	jal	x1,800001a0 <subAndClamp>
800009d0:	feaa0fa3          	sb	x10,-1(x20)
800009d4:	00c12583          	lw	x11,12(x2)
800009d8:	007a4503          	lbu	x10,7(x20)
800009dc:	fc4ff0ef          	jal	x1,800001a0 <subAndClamp>
800009e0:	00aa03a3          	sb	x10,7(x20)
800009e4:	f5849ee3          	bne	x9,x24,80000940 <upsampleCrV+0x68>
800009e8:	010b0b13          	addi	x22,x22,16
800009ec:	f59b14e3          	bne	x22,x25,80000934 <upsampleCrV+0x5c>
800009f0:	03c12083          	lw	x1,60(x2)
800009f4:	03812403          	lw	x8,56(x2)
800009f8:	03412483          	lw	x9,52(x2)
800009fc:	03012903          	lw	x18,48(x2)
80000a00:	02c12983          	lw	x19,44(x2)
80000a04:	02812a03          	lw	x20,40(x2)
80000a08:	02412a83          	lw	x21,36(x2)
80000a0c:	02012b03          	lw	x22,32(x2)
80000a10:	01c12b83          	lw	x23,28(x2)
80000a14:	01812c03          	lw	x24,24(x2)
80000a18:	01412c83          	lw	x25,20(x2)
80000a1c:	04010113          	addi	x2,x2,64
80000a20:	00008067          	jalr	x0,0(x1)

80000a24 <copyY>:
80000a24:	801017b7          	lui	x15,0x80101
80000a28:	43478793          	addi	x15,x15,1076 # 80101434 <gInBuf>
80000a2c:	10078593          	addi	x11,x15,256
80000a30:	38078e13          	addi	x28,x15,896
80000a34:	18078313          	addi	x6,x15,384
80000a38:	00000693          	addi	x13,x0,0
80000a3c:	28078793          	addi	x15,x15,640
80000a40:	04000813          	addi	x16,x0,64
80000a44:	0005c603          	lbu	x12,0(x11)
80000a48:	00d50733          	add	x14,x10,x13
80000a4c:	00ee08b3          	add	x17,x28,x14
80000a50:	00c88023          	sb	x12,0(x17)
80000a54:	00e308b3          	add	x17,x6,x14
80000a58:	00e78733          	add	x14,x15,x14
80000a5c:	00c88023          	sb	x12,0(x17)
80000a60:	00c70023          	sb	x12,0(x14)
80000a64:	00168693          	addi	x13,x13,1
80000a68:	00258593          	addi	x11,x11,2
80000a6c:	fd069ce3          	bne	x13,x16,80000a44 <copyY+0x20>
80000a70:	00008067          	jalr	x0,0(x1)

80000a74 <getChar>:
80000a74:	ff010113          	addi	x2,x2,-16
80000a78:	00912223          	sw	x9,4(x2)
80000a7c:	801024b7          	lui	x9,0x80102
80000a80:	d904c783          	lbu	x15,-624(x9) # 80101d90 <gInBufLeft>
80000a84:	00812423          	sw	x8,8(x2)
80000a88:	01212023          	sw	x18,0(x2)
80000a8c:	80101437          	lui	x8,0x80101
80000a90:	00112623          	sw	x1,12(x2)
80000a94:	80102937          	lui	x18,0x80102
80000a98:	43440413          	addi	x8,x8,1076 # 80101434 <gInBuf>
80000a9c:	06079e63          	bne	x15,x0,80000b18 <getChar+0xa4>
80000aa0:	00400793          	addi	x15,x0,4
80000aa4:	d8f908a3          	sb	x15,-623(x18) # 80101d91 <gInBufOfs>
80000aa8:	80102737          	lui	x14,0x80102
80000aac:	801027b7          	lui	x15,0x80102
80000ab0:	d4c7a783          	lw	x15,-692(x15) # 80101d4c <g_pNeedBytesCallback>
80000ab4:	d4872683          	lw	x13,-696(x14) # 80101d48 <g_pCallback_data>
80000ab8:	d9048613          	addi	x12,x9,-624
80000abc:	0fc00593          	addi	x11,x0,252
80000ac0:	00440513          	addi	x10,x8,4
80000ac4:	d8048823          	sb	x0,-624(x9)
80000ac8:	000780e7          	jalr	x1,0(x15)
80000acc:	00050663          	beq	x10,x0,80000ad8 <getChar+0x64>
80000ad0:	801027b7          	lui	x15,0x80102
80000ad4:	d4a782a3          	sb	x10,-699(x15) # 80101d45 <gCallbackStatus>
80000ad8:	d904c783          	lbu	x15,-624(x9)
80000adc:	02079e63          	bne	x15,x0,80000b18 <getChar+0xa4>
80000ae0:	80102737          	lui	x14,0x80102
80000ae4:	d9274783          	lbu	x15,-622(x14) # 80101d92 <gTemFlag>
80000ae8:	0d900513          	addi	x10,x0,217
80000aec:	fff7c793          	xori	x15,x15,-1
80000af0:	0ff7f793          	andi	x15,x15,255
80000af4:	d8f70923          	sb	x15,-622(x14)
80000af8:	00078463          	beq	x15,x0,80000b00 <getChar+0x8c>
80000afc:	0ff00513          	addi	x10,x0,255
80000b00:	00c12083          	lw	x1,12(x2)
80000b04:	00812403          	lw	x8,8(x2)
80000b08:	00412483          	lw	x9,4(x2)
80000b0c:	00012903          	lw	x18,0(x2)
80000b10:	01010113          	addi	x2,x2,16
80000b14:	00008067          	jalr	x0,0(x1)
80000b18:	d904c783          	lbu	x15,-624(x9)
80000b1c:	fff78793          	addi	x15,x15,-1
80000b20:	d8f48823          	sb	x15,-624(x9)
80000b24:	d9194783          	lbu	x15,-623(x18)
80000b28:	00178713          	addi	x14,x15,1
80000b2c:	00f40433          	add	x8,x8,x15
80000b30:	00044503          	lbu	x10,0(x8)
80000b34:	d8e908a3          	sb	x14,-623(x18)
80000b38:	fc9ff06f          	jal	x0,80000b00 <getChar+0x8c>

80000b3c <getOctet>:
80000b3c:	ff010113          	addi	x2,x2,-16
80000b40:	00812423          	sw	x8,8(x2)
80000b44:	00912223          	sw	x9,4(x2)
80000b48:	00112623          	sw	x1,12(x2)
80000b4c:	00050493          	addi	x9,x10,0
80000b50:	f25ff0ef          	jal	x1,80000a74 <getChar>
80000b54:	00050413          	addi	x8,x10,0
80000b58:	02048063          	beq	x9,x0,80000b78 <getOctet+0x3c>
80000b5c:	0ff00793          	addi	x15,x0,255
80000b60:	00f51c63          	bne	x10,x15,80000b78 <getOctet+0x3c>
80000b64:	f11ff0ef          	jal	x1,80000a74 <getChar>
80000b68:	00050863          	beq	x10,x0,80000b78 <getOctet+0x3c>
80000b6c:	d78ff0ef          	jal	x1,800000e4 <stuffChar>
80000b70:	0ff00513          	addi	x10,x0,255
80000b74:	d70ff0ef          	jal	x1,800000e4 <stuffChar>
80000b78:	00c12083          	lw	x1,12(x2)
80000b7c:	00040513          	addi	x10,x8,0
80000b80:	00812403          	lw	x8,8(x2)
80000b84:	00412483          	lw	x9,4(x2)
80000b88:	01010113          	addi	x2,x2,16
80000b8c:	00008067          	jalr	x0,0(x1)

80000b90 <getBits>:
80000b90:	fe010113          	addi	x2,x2,-32
80000b94:	00812c23          	sw	x8,24(x2)
80000b98:	00912a23          	sw	x9,20(x2)
80000b9c:	01212823          	sw	x18,16(x2)
80000ba0:	01312623          	sw	x19,12(x2)
80000ba4:	01412423          	sw	x20,8(x2)
80000ba8:	01512223          	sw	x21,4(x2)
80000bac:	01612023          	sw	x22,0(x2)
80000bb0:	80102437          	lui	x8,0x80102
80000bb4:	00112e23          	sw	x1,28(x2)
80000bb8:	00800b13          	addi	x22,x0,8
80000bbc:	d8e45483          	lhu	x9,-626(x8) # 80101d8e <gBitBuf>
80000bc0:	00050993          	addi	x19,x10,0
80000bc4:	00058a13          	addi	x20,x11,0
80000bc8:	80102ab7          	lui	x21,0x80102
80000bcc:	00050913          	addi	x18,x10,0
80000bd0:	04ab7a63          	bgeu	x22,x10,80000c24 <getBits+0x94>
80000bd4:	d8cac783          	lbu	x15,-628(x21) # 80101d8c <gBitsLeft>
80000bd8:	ff850913          	addi	x18,x10,-8
80000bdc:	00058513          	addi	x10,x11,0
80000be0:	00f497b3          	sll	x15,x9,x15
80000be4:	d8f41723          	sh	x15,-626(x8)
80000be8:	f55ff0ef          	jal	x1,80000b3c <getOctet>
80000bec:	d8e45783          	lhu	x15,-626(x8)
80000bf0:	d8cac703          	lbu	x14,-628(x21)
80000bf4:	f004f493          	andi	x9,x9,-256
80000bf8:	00f567b3          	or	x15,x10,x15
80000bfc:	01079793          	slli	x15,x15,0x10
80000c00:	0107d793          	srli	x15,x15,0x10
80000c04:	40eb0b33          	sub	x22,x22,x14
80000c08:	016797b3          	sll	x15,x15,x22
80000c0c:	01079793          	slli	x15,x15,0x10
80000c10:	0107d793          	srli	x15,x15,0x10
80000c14:	d8f41723          	sh	x15,-626(x8)
80000c18:	0087d793          	srli	x15,x15,0x8
80000c1c:	0ff97913          	andi	x18,x18,255
80000c20:	0097e4b3          	or	x9,x15,x9
80000c24:	d8cac703          	lbu	x14,-628(x21)
80000c28:	d8e45783          	lhu	x15,-626(x8)
80000c2c:	07277e63          	bgeu	x14,x18,80000ca8 <getBits+0x118>
80000c30:	00e797b3          	sll	x15,x15,x14
80000c34:	000a0513          	addi	x10,x20,0
80000c38:	d8f41723          	sh	x15,-626(x8)
80000c3c:	f01ff0ef          	jal	x1,80000b3c <getOctet>
80000c40:	d8e45783          	lhu	x15,-626(x8)
80000c44:	d8cac703          	lbu	x14,-628(x21)
80000c48:	00f567b3          	or	x15,x10,x15
80000c4c:	01079793          	slli	x15,x15,0x10
80000c50:	40e906b3          	sub	x13,x18,x14
80000c54:	0107d793          	srli	x15,x15,0x10
80000c58:	00870713          	addi	x14,x14,8
80000c5c:	00d797b3          	sll	x15,x15,x13
80000c60:	41270733          	sub	x14,x14,x18
80000c64:	d8f41723          	sh	x15,-626(x8)
80000c68:	d8ea8623          	sb	x14,-628(x21)
80000c6c:	01000793          	addi	x15,x0,16
80000c70:	01c12083          	lw	x1,28(x2)
80000c74:	01812403          	lw	x8,24(x2)
80000c78:	413787b3          	sub	x15,x15,x19
80000c7c:	40f4d533          	sra	x10,x9,x15
80000c80:	01051513          	slli	x10,x10,0x10
80000c84:	01412483          	lw	x9,20(x2)
80000c88:	01012903          	lw	x18,16(x2)
80000c8c:	00c12983          	lw	x19,12(x2)
80000c90:	00812a03          	lw	x20,8(x2)
80000c94:	00412a83          	lw	x21,4(x2)
80000c98:	00012b03          	lw	x22,0(x2)
80000c9c:	01055513          	srli	x10,x10,0x10
80000ca0:	02010113          	addi	x2,x2,32
80000ca4:	00008067          	jalr	x0,0(x1)
80000ca8:	41270733          	sub	x14,x14,x18
80000cac:	012797b3          	sll	x15,x15,x18
80000cb0:	d8ea8623          	sb	x14,-628(x21)
80000cb4:	d8f41723          	sh	x15,-626(x8)
80000cb8:	fb5ff06f          	jal	x0,80000c6c <getBits+0xdc>

80000cbc <getBits1>:
80000cbc:	00000593          	addi	x11,x0,0
80000cc0:	ed1ff06f          	jal	x0,80000b90 <getBits>

80000cc4 <getBits2>:
80000cc4:	00100593          	addi	x11,x0,1
80000cc8:	ec9ff06f          	jal	x0,80000b90 <getBits>

80000ccc <getBit>:
80000ccc:	ff010113          	addi	x2,x2,-16
80000cd0:	00812423          	sw	x8,8(x2)
80000cd4:	00912223          	sw	x9,4(x2)
80000cd8:	80102437          	lui	x8,0x80102
80000cdc:	801024b7          	lui	x9,0x80102
80000ce0:	01212023          	sw	x18,0(x2)
80000ce4:	d8c4c783          	lbu	x15,-628(x9) # 80101d8c <gBitsLeft>
80000ce8:	d8e45903          	lhu	x18,-626(x8) # 80101d8e <gBitBuf>
80000cec:	00112623          	sw	x1,12(x2)
80000cf0:	00f95913          	srli	x18,x18,0xf
80000cf4:	02079263          	bne	x15,x0,80000d18 <getBit+0x4c>
80000cf8:	00100513          	addi	x10,x0,1
80000cfc:	e41ff0ef          	jal	x1,80000b3c <getOctet>
80000d00:	d8e45783          	lhu	x15,-626(x8)
80000d04:	00f56533          	or	x10,x10,x15
80000d08:	d8c4c783          	lbu	x15,-628(x9)
80000d0c:	d8a41723          	sh	x10,-626(x8)
80000d10:	00878793          	addi	x15,x15,8
80000d14:	d8f48623          	sb	x15,-628(x9)
80000d18:	d8c4c783          	lbu	x15,-628(x9)
80000d1c:	00c12083          	lw	x1,12(x2)
80000d20:	00090513          	addi	x10,x18,0
80000d24:	fff78793          	addi	x15,x15,-1
80000d28:	d8f48623          	sb	x15,-628(x9)
80000d2c:	d8e45783          	lhu	x15,-626(x8)
80000d30:	00412483          	lw	x9,4(x2)
80000d34:	00012903          	lw	x18,0(x2)
80000d38:	00179793          	slli	x15,x15,0x1
80000d3c:	d8f41723          	sh	x15,-626(x8)
80000d40:	00812403          	lw	x8,8(x2)
80000d44:	01010113          	addi	x2,x2,16
80000d48:	00008067          	jalr	x0,0(x1)

80000d4c <huffDecode>:
80000d4c:	fe010113          	addi	x2,x2,-32
80000d50:	00912a23          	sw	x9,20(x2)
80000d54:	01512223          	sw	x21,4(x2)
80000d58:	00050493          	addi	x9,x10,0
80000d5c:	00010ab7          	lui	x21,0x10
80000d60:	01212823          	sw	x18,16(x2)
80000d64:	01312623          	sw	x19,12(x2)
80000d68:	01412423          	sw	x20,8(x2)
80000d6c:	01612023          	sw	x22,0(x2)
80000d70:	00112e23          	sw	x1,28(x2)
80000d74:	00812c23          	sw	x8,24(x2)
80000d78:	00058993          	addi	x19,x11,0
80000d7c:	02048a13          	addi	x20,x9,32
80000d80:	f4dff0ef          	jal	x1,80000ccc <getBit>
80000d84:	00000913          	addi	x18,x0,0
80000d88:	fffa8a93          	addi	x21,x21,-1 # ffff <_stack_size+0xefff>
80000d8c:	01000b13          	addi	x22,x0,16
80000d90:	000a5783          	lhu	x15,0(x20)
80000d94:	00a7e463          	bltu	x15,x10,80000d9c <huffDecode+0x50>
80000d98:	03579a63          	bne	x15,x21,80000dcc <huffDecode+0x80>
80000d9c:	00151413          	slli	x8,x10,0x1
80000da0:	01041413          	slli	x8,x8,0x10
80000da4:	01045413          	srli	x8,x8,0x10
80000da8:	f25ff0ef          	jal	x1,80000ccc <getBit>
80000dac:	00856533          	or	x10,x10,x8
80000db0:	01051513          	slli	x10,x10,0x10
80000db4:	00190913          	addi	x18,x18,1
80000db8:	01055513          	srli	x10,x10,0x10
80000dbc:	002a0a13          	addi	x20,x20,2
80000dc0:	fd6918e3          	bne	x18,x22,80000d90 <huffDecode+0x44>
80000dc4:	00000513          	addi	x10,x0,0
80000dc8:	02c0006f          	jal	x0,80000df4 <huffDecode+0xa8>
80000dcc:	012487b3          	add	x15,x9,x18
80000dd0:	00191913          	slli	x18,x18,0x1
80000dd4:	0407c783          	lbu	x15,64(x15)
80000dd8:	012484b3          	add	x9,x9,x18
80000ddc:	0004d703          	lhu	x14,0(x9)
80000de0:	00a787b3          	add	x15,x15,x10
80000de4:	40e787b3          	sub	x15,x15,x14
80000de8:	0ff7f793          	andi	x15,x15,255
80000dec:	00f989b3          	add	x19,x19,x15
80000df0:	0009c503          	lbu	x10,0(x19)
80000df4:	01c12083          	lw	x1,28(x2)
80000df8:	01812403          	lw	x8,24(x2)
80000dfc:	01412483          	lw	x9,20(x2)
80000e00:	01012903          	lw	x18,16(x2)
80000e04:	00c12983          	lw	x19,12(x2)
80000e08:	00812a03          	lw	x20,8(x2)
80000e0c:	00412a83          	lw	x21,4(x2)
80000e10:	00012b03          	lw	x22,0(x2)
80000e14:	02010113          	addi	x2,x2,32
80000e18:	00008067          	jalr	x0,0(x1)

80000e1c <processMarkers>:
80000e1c:	fa010113          	addi	x2,x2,-96
80000e20:	05412423          	sw	x20,72(x2)
80000e24:	03812c23          	sw	x24,56(x2)
80000e28:	03912a23          	sw	x25,52(x2)
80000e2c:	04112e23          	sw	x1,92(x2)
80000e30:	04812c23          	sw	x8,88(x2)
80000e34:	04912a23          	sw	x9,84(x2)
80000e38:	05212823          	sw	x18,80(x2)
80000e3c:	05312623          	sw	x19,76(x2)
80000e40:	05512223          	sw	x21,68(x2)
80000e44:	05612023          	sw	x22,64(x2)
80000e48:	03712e23          	sw	x23,60(x2)
80000e4c:	03a12823          	sw	x26,48(x2)
80000e50:	03b12623          	sw	x27,44(x2)
80000e54:	00a12423          	sw	x10,8(x2)
80000e58:	0ff00a13          	addi	x20,x0,255
80000e5c:	0d700c13          	addi	x24,x0,215
80000e60:	08000c93          	addi	x25,x0,128
80000e64:	00800513          	addi	x10,x0,8
80000e68:	e55ff0ef          	jal	x1,80000cbc <getBits1>
80000e6c:	0ff57513          	andi	x10,x10,255
80000e70:	ff451ae3          	bne	x10,x20,80000e64 <processMarkers+0x48>
80000e74:	00800513          	addi	x10,x0,8
80000e78:	e45ff0ef          	jal	x1,80000cbc <getBits1>
80000e7c:	0ff57793          	andi	x15,x10,255
80000e80:	ff478ae3          	beq	x15,x20,80000e74 <processMarkers+0x58>
80000e84:	fe0780e3          	beq	x15,x0,80000e64 <processMarkers+0x48>
80000e88:	0cfc6863          	bltu	x24,x15,80000f58 <processMarkers+0x13c>
80000e8c:	0c400713          	addi	x14,x0,196
80000e90:	04f76a63          	bltu	x14,x15,80000ee4 <processMarkers+0xc8>
80000e94:	0ee78e63          	beq	x15,x14,80000f90 <processMarkers+0x174>
80000e98:	00100713          	addi	x14,x0,1
80000e9c:	3ae78263          	beq	x15,x14,80001240 <processMarkers+0x424>
80000ea0:	04078713          	addi	x14,x15,64
80000ea4:	0ff77713          	andi	x14,x14,255
80000ea8:	00300693          	addi	x13,x0,3
80000eac:	06e6f263          	bgeu	x13,x14,80000f10 <processMarkers+0xf4>
80000eb0:	01000513          	addi	x10,x0,16
80000eb4:	e09ff0ef          	jal	x1,80000cbc <getBits1>
80000eb8:	00100793          	addi	x15,x0,1
80000ebc:	faa7f4e3          	bgeu	x15,x10,80000e64 <processMarkers+0x48>
80000ec0:	ffe50513          	addi	x10,x10,-2
80000ec4:	01051413          	slli	x8,x10,0x10
80000ec8:	01045413          	srli	x8,x8,0x10
80000ecc:	f8040ce3          	beq	x8,x0,80000e64 <processMarkers+0x48>
80000ed0:	00800513          	addi	x10,x0,8
80000ed4:	fff40413          	addi	x8,x8,-1
80000ed8:	de5ff0ef          	jal	x1,80000cbc <getBits1>
80000edc:	01041413          	slli	x8,x8,0x10
80000ee0:	fe9ff06f          	jal	x0,80000ec8 <processMarkers+0xac>
80000ee4:	03b78693          	addi	x13,x15,59
80000ee8:	00100713          	addi	x14,x0,1
80000eec:	00d71733          	sll	x14,x14,x13
80000ef0:	000806b7          	lui	x13,0x80
80000ef4:	80868693          	addi	x13,x13,-2040 # 7f808 <_stack_size+0x7e808>
80000ef8:	00d776b3          	and	x13,x14,x13
80000efc:	01200513          	addi	x10,x0,18
80000f00:	00069e63          	bne	x13,x0,80000f1c <processMarkers+0x100>
80000f04:	77777713          	andi	x14,x14,1911
80000f08:	01100513          	addi	x10,x0,17
80000f0c:	00070863          	beq	x14,x0,80000f1c <processMarkers+0x100>
80000f10:	00812703          	lw	x14,8(x2)
80000f14:	00000513          	addi	x10,x0,0
80000f18:	00f70023          	sb	x15,0(x14)
80000f1c:	05c12083          	lw	x1,92(x2)
80000f20:	05812403          	lw	x8,88(x2)
80000f24:	05412483          	lw	x9,84(x2)
80000f28:	05012903          	lw	x18,80(x2)
80000f2c:	04c12983          	lw	x19,76(x2)
80000f30:	04812a03          	lw	x20,72(x2)
80000f34:	04412a83          	lw	x21,68(x2)
80000f38:	04012b03          	lw	x22,64(x2)
80000f3c:	03c12b83          	lw	x23,60(x2)
80000f40:	03812c03          	lw	x24,56(x2)
80000f44:	03412c83          	lw	x25,52(x2)
80000f48:	03012d03          	lw	x26,48(x2)
80000f4c:	02c12d83          	lw	x27,44(x2)
80000f50:	06010113          	addi	x2,x2,96
80000f54:	00008067          	jalr	x0,0(x1)
80000f58:	0db00713          	addi	x14,x0,219
80000f5c:	1ce78463          	beq	x15,x14,80001124 <processMarkers+0x308>
80000f60:	faf778e3          	bgeu	x14,x15,80000f10 <processMarkers+0xf4>
80000f64:	0dd00713          	addi	x14,x0,221
80000f68:	f4e794e3          	bne	x15,x14,80000eb0 <processMarkers+0x94>
80000f6c:	01000513          	addi	x10,x0,16
80000f70:	d4dff0ef          	jal	x1,80000cbc <getBits1>
80000f74:	00400793          	addi	x15,x0,4
80000f78:	eef516e3          	bne	x10,x15,80000e64 <processMarkers+0x48>
80000f7c:	01000513          	addi	x10,x0,16
80000f80:	d3dff0ef          	jal	x1,80000cbc <getBits1>
80000f84:	801027b7          	lui	x15,0x80102
80000f88:	d6a79a23          	sh	x10,-652(x15) # 80101d74 <gRestartInterval>
80000f8c:	ed9ff06f          	jal	x0,80000e64 <processMarkers+0x48>
80000f90:	01000513          	addi	x10,x0,16
80000f94:	d29ff0ef          	jal	x1,80000cbc <getBits1>
80000f98:	00100793          	addi	x15,x0,1
80000f9c:	eca7f4e3          	bgeu	x15,x10,80000e64 <processMarkers+0x48>
80000fa0:	ffe50513          	addi	x10,x10,-2
80000fa4:	01051b93          	slli	x23,x10,0x10
80000fa8:	801019b7          	lui	x19,0x80101
80000fac:	00010ab7          	lui	x21,0x10
80000fb0:	010bdb93          	srli	x23,x23,0x10
80000fb4:	05898993          	addi	x19,x19,88 # 80101058 <CSWTCH.299>
80000fb8:	80102b37          	lui	x22,0x80102
80000fbc:	fffa8a93          	addi	x21,x21,-1 # ffff <_stack_size+0xefff>
80000fc0:	ea0b82e3          	beq	x23,x0,80000e64 <processMarkers+0x48>
80000fc4:	00800513          	addi	x10,x0,8
80000fc8:	cf5ff0ef          	jal	x1,80000cbc <getBits1>
80000fcc:	00e57913          	andi	x18,x10,14
80000fd0:	0ff57d93          	andi	x27,x10,255
80000fd4:	e80918e3          	bne	x18,x0,80000e64 <processMarkers+0x48>
80000fd8:	0f0df793          	andi	x15,x27,240
80000fdc:	01000693          	addi	x13,x0,16
80000fe0:	e8f6e2e3          	bltu	x13,x15,80000e64 <processMarkers+0x48>
80000fe4:	003ddd93          	srli	x27,x27,0x3
80000fe8:	00157513          	andi	x10,x10,1
80000fec:	00adedb3          	or	x27,x27,x10
80000ff0:	002d9793          	slli	x15,x27,0x2
80000ff4:	00f987b3          	add	x15,x19,x15
80000ff8:	0407a483          	lw	x9,64(x15)
80000ffc:	0507ad03          	lw	x26,80(x15)
80001000:	d94b4783          	lbu	x15,-620(x22) # 80101d94 <gValidHuffTables>
80001004:	00100693          	addi	x13,x0,1
80001008:	01b696b3          	sll	x13,x13,x27
8000100c:	00d7e7b3          	or	x15,x15,x13
80001010:	d8fb0a23          	sb	x15,-620(x22)
80001014:	00000413          	addi	x8,x0,0
80001018:	00000793          	addi	x15,x0,0
8000101c:	00800513          	addi	x10,x0,8
80001020:	00f12623          	sw	x15,12(x2)
80001024:	c99ff0ef          	jal	x1,80000cbc <getBits1>
80001028:	00c12783          	lw	x15,12(x2)
8000102c:	01000693          	addi	x13,x0,16
80001030:	01078713          	addi	x14,x15,16
80001034:	00270633          	add	x12,x14,x2
80001038:	00a60023          	sb	x10,0(x12)
8000103c:	0ff57513          	andi	x10,x10,255
80001040:	00a40433          	add	x8,x8,x10
80001044:	01041413          	slli	x8,x8,0x10
80001048:	00178793          	addi	x15,x15,1
8000104c:	01045413          	srli	x8,x8,0x10
80001050:	fcd796e3          	bne	x15,x13,8000101c <processMarkers+0x200>
80001054:	00100693          	addi	x13,x0,1
80001058:	0ff00793          	addi	x15,x0,255
8000105c:	01b6e463          	bltu	x13,x27,80001064 <processMarkers+0x248>
80001060:	00c00793          	addi	x15,x0,12
80001064:	e087e0e3          	bltu	x15,x8,80000e64 <processMarkers+0x48>
80001068:	00000d93          	addi	x27,x0,0
8000106c:	088de863          	bltu	x27,x8,800010fc <processMarkers+0x2e0>
80001070:	01140413          	addi	x8,x8,17
80001074:	01041413          	slli	x8,x8,0x10
80001078:	01045413          	srli	x8,x8,0x10
8000107c:	de8be4e3          	bltu	x23,x8,80000e64 <processMarkers+0x48>
80001080:	408b8433          	sub	x8,x23,x8
80001084:	01041b93          	slli	x23,x8,0x10
80001088:	010bdb93          	srli	x23,x23,0x10
8000108c:	01010813          	addi	x16,x2,16
80001090:	04048513          	addi	x10,x9,64
80001094:	02048313          	addi	x6,x9,32
80001098:	00000793          	addi	x15,x0,0
8000109c:	00084683          	lbu	x13,0(x16)
800010a0:	06068c63          	beq	x13,x0,80001118 <processMarkers+0x2fc>
800010a4:	00f685b3          	add	x11,x13,x15
800010a8:	01059593          	slli	x11,x11,0x10
800010ac:	0105d593          	srli	x11,x11,0x10
800010b0:	fff58613          	addi	x12,x11,-1
800010b4:	01268e33          	add	x28,x13,x18
800010b8:	01061613          	slli	x12,x12,0x10
800010bc:	00078893          	addi	x17,x15,0
800010c0:	00090693          	addi	x13,x18,0
800010c4:	01065613          	srli	x12,x12,0x10
800010c8:	00058793          	addi	x15,x11,0
800010cc:	0ffe7913          	andi	x18,x28,255
800010d0:	01149023          	sh	x17,0(x9)
800010d4:	02c49023          	sh	x12,32(x9)
800010d8:	00179793          	slli	x15,x15,0x1
800010dc:	00d50023          	sb	x13,0(x10)
800010e0:	01079793          	slli	x15,x15,0x10
800010e4:	00248493          	addi	x9,x9,2
800010e8:	0107d793          	srli	x15,x15,0x10
800010ec:	00180813          	addi	x16,x16,1
800010f0:	00150513          	addi	x10,x10,1
800010f4:	fa6494e3          	bne	x9,x6,8000109c <processMarkers+0x280>
800010f8:	ec9ff06f          	jal	x0,80000fc0 <processMarkers+0x1a4>
800010fc:	00800513          	addi	x10,x0,8
80001100:	bbdff0ef          	jal	x1,80000cbc <getBits1>
80001104:	01bd07b3          	add	x15,x26,x27
80001108:	001d8d93          	addi	x27,x27,1
8000110c:	00a78023          	sb	x10,0(x15)
80001110:	0ffdfd93          	andi	x27,x27,255
80001114:	f59ff06f          	jal	x0,8000106c <processMarkers+0x250>
80001118:	00000893          	addi	x17,x0,0
8000111c:	000a8613          	addi	x12,x21,0
80001120:	fb1ff06f          	jal	x0,800010d0 <processMarkers+0x2b4>
80001124:	01000513          	addi	x10,x0,16
80001128:	b95ff0ef          	jal	x1,80000cbc <getBits1>
8000112c:	00100793          	addi	x15,x0,1
80001130:	d2a7fae3          	bgeu	x15,x10,80000e64 <processMarkers+0x48>
80001134:	ffe50513          	addi	x10,x10,-2
80001138:	801014b7          	lui	x9,0x80101
8000113c:	43448493          	addi	x9,x9,1076 # 80101434 <gInBuf>
80001140:	01051413          	slli	x8,x10,0x10
80001144:	801019b7          	lui	x19,0x80101
80001148:	50048b13          	addi	x22,x9,1280
8000114c:	01045413          	srli	x8,x8,0x10
80001150:	80102ab7          	lui	x21,0x80102
80001154:	48048493          	addi	x9,x9,1152
80001158:	05898993          	addi	x19,x19,88 # 80101058 <CSWTCH.299>
8000115c:	d00404e3          	beq	x8,x0,80000e64 <processMarkers+0x48>
80001160:	00800513          	addi	x10,x0,8
80001164:	b59ff0ef          	jal	x1,80000cbc <getBits1>
80001168:	0ff57513          	andi	x10,x10,255
8000116c:	00455b93          	srli	x23,x10,0x4
80001170:	00f57913          	andi	x18,x10,15
80001174:	00e57513          	andi	x10,x10,14
80001178:	ce0516e3          	bne	x10,x0,80000e64 <processMarkers+0x48>
8000117c:	d93ac783          	lbu	x15,-621(x21) # 80101d93 <gValidQuantTables>
80001180:	012036b3          	sltu	x13,x0,x18
80001184:	00168693          	addi	x13,x13,1
80001188:	00d7e7b3          	or	x15,x15,x13
8000118c:	d8fa89a3          	sb	x15,-621(x21)
80001190:	00000d93          	addi	x27,x0,0
80001194:	00800513          	addi	x10,x0,8
80001198:	b25ff0ef          	jal	x1,80000cbc <getBits1>
8000119c:	020b8263          	beq	x23,x0,800011c0 <processMarkers+0x3a4>
800011a0:	00851513          	slli	x10,x10,0x8
800011a4:	01051d13          	slli	x26,x10,0x10
800011a8:	00800513          	addi	x10,x0,8
800011ac:	010d5d13          	srli	x26,x26,0x10
800011b0:	b0dff0ef          	jal	x1,80000cbc <getBits1>
800011b4:	00ad0533          	add	x10,x26,x10
800011b8:	01051513          	slli	x10,x10,0x10
800011bc:	01055513          	srli	x10,x10,0x10
800011c0:	01051793          	slli	x15,x10,0x10
800011c4:	4107d793          	srai	x15,x15,0x10
800011c8:	01b486b3          	add	x13,x9,x27
800011cc:	00091463          	bne	x18,x0,800011d4 <processMarkers+0x3b8>
800011d0:	01bb06b3          	add	x13,x22,x27
800011d4:	00f69023          	sh	x15,0(x13)
800011d8:	002d8d93          	addi	x27,x27,2
800011dc:	fb9d9ce3          	bne	x27,x25,80001194 <processMarkers+0x378>
800011e0:	000b0d13          	addi	x26,x22,0
800011e4:	00090463          	beq	x18,x0,800011ec <processMarkers+0x3d0>
800011e8:	00048d13          	addi	x26,x9,0
800011ec:	06098d93          	addi	x27,x19,96
800011f0:	080d0793          	addi	x15,x26,128
800011f4:	000d1583          	lh	x11,0(x26)
800011f8:	000dc503          	lbu	x10,0(x27)
800011fc:	00f12623          	sw	x15,12(x2)
80001200:	002d0d13          	addi	x26,x26,2
80001204:	655010ef          	jal	x1,80003058 <__mulsi3>
80001208:	00450513          	addi	x10,x10,4
8000120c:	00c12783          	lw	x15,12(x2)
80001210:	40355513          	srai	x10,x10,0x3
80001214:	fead1f23          	sh	x10,-2(x26)
80001218:	001d8d93          	addi	x27,x27,1
8000121c:	fcfd1ce3          	bne	x26,x15,800011f4 <processMarkers+0x3d8>
80001220:	08100793          	addi	x15,x0,129
80001224:	000b9463          	bne	x23,x0,8000122c <processMarkers+0x410>
80001228:	04100793          	addi	x15,x0,65
8000122c:	c2f46ce3          	bltu	x8,x15,80000e64 <processMarkers+0x48>
80001230:	40f407b3          	sub	x15,x8,x15
80001234:	01079413          	slli	x8,x15,0x10
80001238:	01045413          	srli	x8,x8,0x10
8000123c:	f21ff06f          	jal	x0,8000115c <processMarkers+0x340>
80001240:	01200513          	addi	x10,x0,18
80001244:	cd9ff06f          	jal	x0,80000f1c <processMarkers+0x100>

80001248 <pjpeg_decode_mcu>:
80001248:	801027b7          	lui	x15,0x80102
8000124c:	d457c503          	lbu	x10,-699(x15) # 80101d45 <gCallbackStatus>
80001250:	00050463          	beq	x10,x0,80001258 <pjpeg_decode_mcu+0x10>
80001254:	3900106f          	jal	x0,800025e4 <pjpeg_decode_mcu+0x139c>
80001258:	f9010113          	addi	x2,x2,-112
8000125c:	03b12e23          	sw	x27,60(x2)
80001260:	80102db7          	lui	x27,0x80102
80001264:	d56dd783          	lhu	x15,-682(x27) # 80101d56 <gNumMCUSRemaining>
80001268:	06112623          	sw	x1,108(x2)
8000126c:	06812423          	sw	x8,104(x2)
80001270:	06912223          	sw	x9,100(x2)
80001274:	07212023          	sw	x18,96(x2)
80001278:	05312e23          	sw	x19,92(x2)
8000127c:	05412c23          	sw	x20,88(x2)
80001280:	05512a23          	sw	x21,84(x2)
80001284:	05612823          	sw	x22,80(x2)
80001288:	05712623          	sw	x23,76(x2)
8000128c:	05812423          	sw	x24,72(x2)
80001290:	05912223          	sw	x25,68(x2)
80001294:	05a12023          	sw	x26,64(x2)
80001298:	00100513          	addi	x10,x0,1
8000129c:	06078e63          	beq	x15,x0,80001318 <pjpeg_decode_mcu+0xd0>
800012a0:	80102937          	lui	x18,0x80102
800012a4:	d7495783          	lhu	x15,-652(x18) # 80101d74 <gRestartInterval>
800012a8:	00079463          	bne	x15,x0,800012b0 <pjpeg_decode_mcu+0x68>
800012ac:	2f40106f          	jal	x0,800025a0 <pjpeg_decode_mcu+0x1358>
800012b0:	801024b7          	lui	x9,0x80102
800012b4:	d704d783          	lhu	x15,-656(x9) # 80101d70 <gRestartsLeft>
800012b8:	00078463          	beq	x15,x0,800012c0 <pjpeg_decode_mcu+0x78>
800012bc:	2d80106f          	jal	x0,80002594 <pjpeg_decode_mcu+0x134c>
800012c0:	60000413          	addi	x8,x0,1536
800012c4:	0ff00993          	addi	x19,x0,255
800012c8:	facff0ef          	jal	x1,80000a74 <getChar>
800012cc:	03351463          	bne	x10,x19,800012f4 <pjpeg_decode_mcu+0xac>
800012d0:	0ff00993          	addi	x19,x0,255
800012d4:	fa0ff0ef          	jal	x1,80000a74 <getChar>
800012d8:	01350463          	beq	x10,x19,800012e0 <pjpeg_decode_mcu+0x98>
800012dc:	2640106f          	jal	x0,80002540 <pjpeg_decode_mcu+0x12f8>
800012e0:	fff40413          	addi	x8,x8,-1
800012e4:	01041413          	slli	x8,x8,0x10
800012e8:	01045413          	srli	x8,x8,0x10
800012ec:	fe0414e3          	bne	x8,x0,800012d4 <pjpeg_decode_mcu+0x8c>
800012f0:	0140006f          	jal	x0,80001304 <pjpeg_decode_mcu+0xbc>
800012f4:	fff40413          	addi	x8,x8,-1
800012f8:	01041413          	slli	x8,x8,0x10
800012fc:	01045413          	srli	x8,x8,0x10
80001300:	fc0414e3          	bne	x8,x0,800012c8 <pjpeg_decode_mcu+0x80>
80001304:	01d00793          	addi	x15,x0,29
80001308:	80102737          	lui	x14,0x80102
8000130c:	d4574503          	lbu	x10,-699(x14) # 80101d45 <gCallbackStatus>
80001310:	00051463          	bne	x10,x0,80001318 <pjpeg_decode_mcu+0xd0>
80001314:	00078513          	addi	x10,x15,0
80001318:	06c12083          	lw	x1,108(x2)
8000131c:	06812403          	lw	x8,104(x2)
80001320:	06412483          	lw	x9,100(x2)
80001324:	06012903          	lw	x18,96(x2)
80001328:	05c12983          	lw	x19,92(x2)
8000132c:	05812a03          	lw	x20,88(x2)
80001330:	05412a83          	lw	x21,84(x2)
80001334:	05012b03          	lw	x22,80(x2)
80001338:	04c12b83          	lw	x23,76(x2)
8000133c:	04812c03          	lw	x24,72(x2)
80001340:	04412c83          	lw	x25,68(x2)
80001344:	04012d03          	lw	x26,64(x2)
80001348:	03c12d83          	lw	x27,60(x2)
8000134c:	07010113          	addi	x2,x2,112
80001350:	00008067          	jalr	x0,0(x1)
80001354:	01012783          	lw	x15,16(x2)
80001358:	00878733          	add	x14,x15,x8
8000135c:	00074483          	lbu	x9,0(x14)
80001360:	80102737          	lui	x14,0x80102
80001364:	d6870713          	addi	x14,x14,-664 # 80101d68 <gCompDCTab>
80001368:	00e48733          	add	x14,x9,x14
8000136c:	00074683          	lbu	x13,0(x14)
80001370:	80102737          	lui	x14,0x80102
80001374:	d7870713          	addi	x14,x14,-648 # 80101d78 <gCompQuant>
80001378:	00e48733          	add	x14,x9,x14
8000137c:	00074703          	lbu	x14,0(x14)
80001380:	801027b7          	lui	x15,0x80102
80001384:	93478913          	addi	x18,x15,-1740 # 80101934 <gQuant0>
80001388:	00070463          	beq	x14,x0,80001390 <pjpeg_decode_mcu+0x148>
8000138c:	480d0913          	addi	x18,x26,1152
80001390:	0e068063          	beq	x13,x0,80001470 <pjpeg_decode_mcu+0x228>
80001394:	580d0513          	addi	x10,x26,1408
80001398:	5d0d0593          	addi	x11,x26,1488
8000139c:	9b1ff0ef          	jal	x1,80000d4c <huffDecode>
800013a0:	00f57713          	andi	x14,x10,15
800013a4:	00050593          	addi	x11,x10,0
800013a8:	00000513          	addi	x10,x0,0
800013ac:	00070a63          	beq	x14,x0,800013c0 <pjpeg_decode_mcu+0x178>
800013b0:	00070513          	addi	x10,x14,0
800013b4:	00b12623          	sw	x11,12(x2)
800013b8:	90dff0ef          	jal	x1,80000cc4 <getBits2>
800013bc:	00c12583          	lw	x11,12(x2)
800013c0:	d5dfe0ef          	jal	x1,8000011c <huffExtend>
800013c4:	80102737          	lui	x14,0x80102
800013c8:	00149693          	slli	x13,x9,0x1
800013cc:	d9870713          	addi	x14,x14,-616 # 80101d98 <gLastDC>
800013d0:	00d70733          	add	x14,x14,x13
800013d4:	00075683          	lhu	x13,0(x14)
800013d8:	00095583          	lhu	x11,0(x18)
800013dc:	00d50533          	add	x10,x10,x13
800013e0:	01051513          	slli	x10,x10,0x10
800013e4:	01055513          	srli	x10,x10,0x10
800013e8:	00a71023          	sh	x10,0(x14)
800013ec:	46d010ef          	jal	x1,80003058 <__mulsi3>
800013f0:	80102737          	lui	x14,0x80102
800013f4:	d6470713          	addi	x14,x14,-668 # 80101d64 <gCompACTab>
800013f8:	00e484b3          	add	x9,x9,x14
800013fc:	801026b7          	lui	x13,0x80102
80001400:	0004c703          	lbu	x14,0(x9)
80001404:	d446c683          	lbu	x13,-700(x13) # 80101d44 <gReduce>
80001408:	801024b7          	lui	x9,0x80102
8000140c:	10ad1023          	sh	x10,256(x26)
80001410:	00e03733          	sltu	x14,x0,x14
80001414:	43448493          	addi	x9,x9,1076 # 80102434 <jpeg_off+0x694>
80001418:	62068263          	beq	x13,x0,80001a3c <pjpeg_decode_mcu+0x7f4>
8000141c:	06070063          	beq	x14,x0,8000147c <pjpeg_decode_mcu+0x234>
80001420:	640d0993          	addi	x19,x26,1600
80001424:	84048493          	addi	x9,x9,-1984
80001428:	00100b93          	addi	x23,x0,1
8000142c:	00f00a13          	addi	x20,x0,15
80001430:	03000a93          	addi	x21,x0,48
80001434:	03f00913          	addi	x18,x0,63
80001438:	00098593          	addi	x11,x19,0
8000143c:	00048513          	addi	x10,x9,0
80001440:	90dff0ef          	jal	x1,80000d4c <huffDecode>
80001444:	00050c13          	addi	x24,x10,0
80001448:	00f57513          	andi	x10,x10,15
8000144c:	004c5c13          	srli	x24,x24,0x4
80001450:	02050c63          	beq	x10,x0,80001488 <pjpeg_decode_mcu+0x240>
80001454:	0ffc7c13          	andi	x24,x24,255
80001458:	86dff0ef          	jal	x1,80000cc4 <getBits2>
8000145c:	060c1e63          	bne	x24,x0,800014d8 <pjpeg_decode_mcu+0x290>
80001460:	001b8b93          	addi	x23,x23,1
80001464:	0ffbfb93          	andi	x23,x23,255
80001468:	fd7978e3          	bgeu	x18,x23,80001438 <pjpeg_decode_mcu+0x1f0>
8000146c:	0240006f          	jal	x0,80001490 <pjpeg_decode_mcu+0x248>
80001470:	5e0d0513          	addi	x10,x26,1504
80001474:	630d0593          	addi	x11,x26,1584
80001478:	f25ff06f          	jal	x0,8000139c <pjpeg_decode_mcu+0x154>
8000147c:	740d0993          	addi	x19,x26,1856
80001480:	89048493          	addi	x9,x9,-1904
80001484:	fa5ff06f          	jal	x0,80001428 <pjpeg_decode_mcu+0x1e0>
80001488:	0ffc7c13          	andi	x24,x24,255
8000148c:	054c0e63          	beq	x24,x20,800014e8 <pjpeg_decode_mcu+0x2a0>
80001490:	100d1503          	lh	x10,256(x26)
80001494:	04050513          	addi	x10,x10,64
80001498:	00755513          	srli	x10,x10,0x7
8000149c:	08050513          	addi	x10,x10,128
800014a0:	01051513          	slli	x10,x10,0x10
800014a4:	41055513          	srai	x10,x10,0x10
800014a8:	cb1fe0ef          	jal	x1,80000158 <clamp>
800014ac:	80102737          	lui	x14,0x80102
800014b0:	d6072703          	lw	x14,-672(x14) # 80101d60 <gScanType>
800014b4:	00400693          	addi	x13,x0,4
800014b8:	00050493          	addi	x9,x10,0
800014bc:	04e6e063          	bltu	x13,x14,800014fc <pjpeg_decode_mcu+0x2b4>
800014c0:	801016b7          	lui	x13,0x80101
800014c4:	00271713          	slli	x14,x14,0x2
800014c8:	00068693          	addi	x13,x13,0 # 80101000 <stack_end>
800014cc:	00d70733          	add	x14,x14,x13
800014d0:	00072703          	lw	x14,0(x14)
800014d4:	00070067          	jalr	x0,0(x14)
800014d8:	018b8bb3          	add	x23,x23,x24
800014dc:	01795a63          	bge	x18,x23,800014f0 <pjpeg_decode_mcu+0x2a8>
800014e0:	01c00793          	addi	x15,x0,28
800014e4:	e25ff06f          	jal	x0,80001308 <pjpeg_decode_mcu+0xc0>
800014e8:	ff7aece3          	bltu	x21,x23,800014e0 <pjpeg_decode_mcu+0x298>
800014ec:	00fb8b93          	addi	x23,x23,15
800014f0:	0ffbfb93          	andi	x23,x23,255
800014f4:	f6dff06f          	jal	x0,80001460 <pjpeg_decode_mcu+0x218>
800014f8:	38ad0023          	sb	x10,896(x26)
800014fc:	00140413          	addi	x8,x8,1
80001500:	0ff47413          	andi	x8,x8,255
80001504:	0bc0106f          	jal	x0,800025c0 <pjpeg_decode_mcu+0x1378>
80001508:	00100713          	addi	x14,x0,1
8000150c:	02e40063          	beq	x8,x14,8000152c <pjpeg_decode_mcu+0x2e4>
80001510:	00200713          	addi	x14,x0,2
80001514:	06e40c63          	beq	x8,x14,8000158c <pjpeg_decode_mcu+0x344>
80001518:	fe0412e3          	bne	x8,x0,800014fc <pjpeg_decode_mcu+0x2b4>
8000151c:	389d0023          	sb	x9,896(x26)
80001520:	189d0023          	sb	x9,384(x26)
80001524:	289d0023          	sb	x9,640(x26)
80001528:	fd5ff06f          	jal	x0,800014fc <pjpeg_decode_mcu+0x2b4>
8000152c:	00151913          	slli	x18,x10,0x1
80001530:	00a90933          	add	x18,x18,x10
80001534:	00291593          	slli	x11,x18,0x2
80001538:	40a585b3          	sub	x11,x11,x10
8000153c:	00359593          	slli	x11,x11,0x3
80001540:	0085d593          	srli	x11,x11,0x8
80001544:	180d4503          	lbu	x10,384(x26)
80001548:	fd458593          	addi	x11,x11,-44
8000154c:	01059593          	slli	x11,x11,0x10
80001550:	4105d593          	srai	x11,x11,0x10
80001554:	c4dfe0ef          	jal	x1,800001a0 <subAndClamp>
80001558:	00591713          	slli	x14,x18,0x5
8000155c:	00e905b3          	add	x11,x18,x14
80001560:	00159593          	slli	x11,x11,0x1
80001564:	0085d593          	srli	x11,x11,0x8
80001568:	f1d48493          	addi	x9,x9,-227
8000156c:	18ad0023          	sb	x10,384(x26)
80001570:	009585b3          	add	x11,x11,x9
80001574:	280d4503          	lbu	x10,640(x26)
80001578:	01059593          	slli	x11,x11,0x10
8000157c:	4105d593          	srai	x11,x11,0x10
80001580:	bf9fe0ef          	jal	x1,80000178 <addAndClamp>
80001584:	28ad0023          	sb	x10,640(x26)
80001588:	f75ff06f          	jal	x0,800014fc <pjpeg_decode_mcu+0x2b4>
8000158c:	00151913          	slli	x18,x10,0x1
80001590:	00a90933          	add	x18,x18,x10
80001594:	00291593          	slli	x11,x18,0x2
80001598:	00a585b3          	add	x11,x11,x10
8000159c:	00359593          	slli	x11,x11,0x3
800015a0:	40a585b3          	sub	x11,x11,x10
800015a4:	f4d50713          	addi	x14,x10,-179
800015a8:	0085d593          	srli	x11,x11,0x8
800015ac:	00e585b3          	add	x11,x11,x14
800015b0:	380d4503          	lbu	x10,896(x26)
800015b4:	01059593          	slli	x11,x11,0x10
800015b8:	4105d593          	srai	x11,x11,0x10
800015bc:	bbdfe0ef          	jal	x1,80000178 <addAndClamp>
800015c0:	00391593          	slli	x11,x18,0x3
800015c4:	409585b3          	sub	x11,x11,x9
800015c8:	00359593          	slli	x11,x11,0x3
800015cc:	409585b3          	sub	x11,x11,x9
800015d0:	0085d593          	srli	x11,x11,0x8
800015d4:	38ad0023          	sb	x10,896(x26)
800015d8:	fa558593          	addi	x11,x11,-91
800015dc:	180d4503          	lbu	x10,384(x26)
800015e0:	01059593          	slli	x11,x11,0x10
800015e4:	4105d593          	srai	x11,x11,0x10
800015e8:	bb9fe0ef          	jal	x1,800001a0 <subAndClamp>
800015ec:	18ad0023          	sb	x10,384(x26)
800015f0:	f0dff06f          	jal	x0,800014fc <pjpeg_decode_mcu+0x2b4>
800015f4:	00200713          	addi	x14,x0,2
800015f8:	0ae40a63          	beq	x8,x14,800016ac <pjpeg_decode_mcu+0x464>
800015fc:	00876c63          	bltu	x14,x8,80001614 <pjpeg_decode_mcu+0x3cc>
80001600:	f0040ee3          	beq	x8,x0,8000151c <pjpeg_decode_mcu+0x2d4>
80001604:	409d0023          	sb	x9,1024(x26)
80001608:	209d0023          	sb	x9,512(x26)
8000160c:	309d0023          	sb	x9,768(x26)
80001610:	eedff06f          	jal	x0,800014fc <pjpeg_decode_mcu+0x2b4>
80001614:	00300713          	addi	x14,x0,3
80001618:	eee412e3          	bne	x8,x14,800014fc <pjpeg_decode_mcu+0x2b4>
8000161c:	00151913          	slli	x18,x10,0x1
80001620:	00a90933          	add	x18,x18,x10
80001624:	00291593          	slli	x11,x18,0x2
80001628:	00a585b3          	add	x11,x11,x10
8000162c:	00359593          	slli	x11,x11,0x3
80001630:	40a585b3          	sub	x11,x11,x10
80001634:	f4d50713          	addi	x14,x10,-179
80001638:	0085d593          	srli	x11,x11,0x8
8000163c:	00e585b3          	add	x11,x11,x14
80001640:	380d4503          	lbu	x10,896(x26)
80001644:	01059593          	slli	x11,x11,0x10
80001648:	4105d593          	srai	x11,x11,0x10
8000164c:	00b12623          	sw	x11,12(x2)
80001650:	b29fe0ef          	jal	x1,80000178 <addAndClamp>
80001654:	00c12583          	lw	x11,12(x2)
80001658:	38ad0023          	sb	x10,896(x26)
8000165c:	400d4503          	lbu	x10,1024(x26)
80001660:	b19fe0ef          	jal	x1,80000178 <addAndClamp>
80001664:	00391593          	slli	x11,x18,0x3
80001668:	409585b3          	sub	x11,x11,x9
8000166c:	00359593          	slli	x11,x11,0x3
80001670:	409585b3          	sub	x11,x11,x9
80001674:	0085d593          	srli	x11,x11,0x8
80001678:	40ad0023          	sb	x10,1024(x26)
8000167c:	fa558593          	addi	x11,x11,-91
80001680:	180d4503          	lbu	x10,384(x26)
80001684:	01059593          	slli	x11,x11,0x10
80001688:	4105d593          	srai	x11,x11,0x10
8000168c:	00b12623          	sw	x11,12(x2)
80001690:	b11fe0ef          	jal	x1,800001a0 <subAndClamp>
80001694:	18ad0023          	sb	x10,384(x26)
80001698:	00c12583          	lw	x11,12(x2)
8000169c:	200d4503          	lbu	x10,512(x26)
800016a0:	b01fe0ef          	jal	x1,800001a0 <subAndClamp>
800016a4:	20ad0023          	sb	x10,512(x26)
800016a8:	e55ff06f          	jal	x0,800014fc <pjpeg_decode_mcu+0x2b4>
800016ac:	00151913          	slli	x18,x10,0x1
800016b0:	00a90933          	add	x18,x18,x10
800016b4:	00291593          	slli	x11,x18,0x2
800016b8:	40a585b3          	sub	x11,x11,x10
800016bc:	00359593          	slli	x11,x11,0x3
800016c0:	0085d593          	srli	x11,x11,0x8
800016c4:	180d4503          	lbu	x10,384(x26)
800016c8:	fd458593          	addi	x11,x11,-44
800016cc:	01059593          	slli	x11,x11,0x10
800016d0:	4105d593          	srai	x11,x11,0x10
800016d4:	00b12623          	sw	x11,12(x2)
800016d8:	ac9fe0ef          	jal	x1,800001a0 <subAndClamp>
800016dc:	00c12583          	lw	x11,12(x2)
800016e0:	18ad0023          	sb	x10,384(x26)
800016e4:	200d4503          	lbu	x10,512(x26)
800016e8:	f1d48493          	addi	x9,x9,-227
800016ec:	ab5fe0ef          	jal	x1,800001a0 <subAndClamp>
800016f0:	00591713          	slli	x14,x18,0x5
800016f4:	00e905b3          	add	x11,x18,x14
800016f8:	00159593          	slli	x11,x11,0x1
800016fc:	0085d593          	srli	x11,x11,0x8
80001700:	20ad0023          	sb	x10,512(x26)
80001704:	009585b3          	add	x11,x11,x9
80001708:	280d4503          	lbu	x10,640(x26)
8000170c:	01059593          	slli	x11,x11,0x10
80001710:	4105d593          	srai	x11,x11,0x10
80001714:	00b12623          	sw	x11,12(x2)
80001718:	a61fe0ef          	jal	x1,80000178 <addAndClamp>
8000171c:	28ad0023          	sb	x10,640(x26)
80001720:	00c12583          	lw	x11,12(x2)
80001724:	300d4503          	lbu	x10,768(x26)
80001728:	a51fe0ef          	jal	x1,80000178 <addAndClamp>
8000172c:	30ad0023          	sb	x10,768(x26)
80001730:	dcdff06f          	jal	x0,800014fc <pjpeg_decode_mcu+0x2b4>
80001734:	00200713          	addi	x14,x0,2
80001738:	0ae40a63          	beq	x8,x14,800017ec <pjpeg_decode_mcu+0x5a4>
8000173c:	00876c63          	bltu	x14,x8,80001754 <pjpeg_decode_mcu+0x50c>
80001740:	dc040ee3          	beq	x8,x0,8000151c <pjpeg_decode_mcu+0x2d4>
80001744:	3c9d0023          	sb	x9,960(x26)
80001748:	1c9d0023          	sb	x9,448(x26)
8000174c:	2c9d0023          	sb	x9,704(x26)
80001750:	dadff06f          	jal	x0,800014fc <pjpeg_decode_mcu+0x2b4>
80001754:	00300713          	addi	x14,x0,3
80001758:	dae412e3          	bne	x8,x14,800014fc <pjpeg_decode_mcu+0x2b4>
8000175c:	00151913          	slli	x18,x10,0x1
80001760:	00a90933          	add	x18,x18,x10
80001764:	00291593          	slli	x11,x18,0x2
80001768:	00a585b3          	add	x11,x11,x10
8000176c:	00359593          	slli	x11,x11,0x3
80001770:	40a585b3          	sub	x11,x11,x10
80001774:	f4d50713          	addi	x14,x10,-179
80001778:	0085d593          	srli	x11,x11,0x8
8000177c:	00e585b3          	add	x11,x11,x14
80001780:	380d4503          	lbu	x10,896(x26)
80001784:	01059593          	slli	x11,x11,0x10
80001788:	4105d593          	srai	x11,x11,0x10
8000178c:	00b12623          	sw	x11,12(x2)
80001790:	9e9fe0ef          	jal	x1,80000178 <addAndClamp>
80001794:	00c12583          	lw	x11,12(x2)
80001798:	38ad0023          	sb	x10,896(x26)
8000179c:	3c0d4503          	lbu	x10,960(x26)
800017a0:	9d9fe0ef          	jal	x1,80000178 <addAndClamp>
800017a4:	00391593          	slli	x11,x18,0x3
800017a8:	409585b3          	sub	x11,x11,x9
800017ac:	00359593          	slli	x11,x11,0x3
800017b0:	409585b3          	sub	x11,x11,x9
800017b4:	0085d593          	srli	x11,x11,0x8
800017b8:	3cad0023          	sb	x10,960(x26)
800017bc:	fa558593          	addi	x11,x11,-91
800017c0:	180d4503          	lbu	x10,384(x26)
800017c4:	01059593          	slli	x11,x11,0x10
800017c8:	4105d593          	srai	x11,x11,0x10
800017cc:	00b12623          	sw	x11,12(x2)
800017d0:	9d1fe0ef          	jal	x1,800001a0 <subAndClamp>
800017d4:	18ad0023          	sb	x10,384(x26)
800017d8:	00c12583          	lw	x11,12(x2)
800017dc:	1c0d4503          	lbu	x10,448(x26)
800017e0:	9c1fe0ef          	jal	x1,800001a0 <subAndClamp>
800017e4:	1cad0023          	sb	x10,448(x26)
800017e8:	d15ff06f          	jal	x0,800014fc <pjpeg_decode_mcu+0x2b4>
800017ec:	00151913          	slli	x18,x10,0x1
800017f0:	00a90933          	add	x18,x18,x10
800017f4:	00291593          	slli	x11,x18,0x2
800017f8:	40a585b3          	sub	x11,x11,x10
800017fc:	00359593          	slli	x11,x11,0x3
80001800:	0085d593          	srli	x11,x11,0x8
80001804:	180d4503          	lbu	x10,384(x26)
80001808:	fd458593          	addi	x11,x11,-44
8000180c:	01059593          	slli	x11,x11,0x10
80001810:	4105d593          	srai	x11,x11,0x10
80001814:	00b12623          	sw	x11,12(x2)
80001818:	989fe0ef          	jal	x1,800001a0 <subAndClamp>
8000181c:	00c12583          	lw	x11,12(x2)
80001820:	18ad0023          	sb	x10,384(x26)
80001824:	1c0d4503          	lbu	x10,448(x26)
80001828:	f1d48493          	addi	x9,x9,-227
8000182c:	975fe0ef          	jal	x1,800001a0 <subAndClamp>
80001830:	00591713          	slli	x14,x18,0x5
80001834:	00e905b3          	add	x11,x18,x14
80001838:	00159593          	slli	x11,x11,0x1
8000183c:	0085d593          	srli	x11,x11,0x8
80001840:	1cad0023          	sb	x10,448(x26)
80001844:	009585b3          	add	x11,x11,x9
80001848:	280d4503          	lbu	x10,640(x26)
8000184c:	01059593          	slli	x11,x11,0x10
80001850:	4105d593          	srai	x11,x11,0x10
80001854:	00b12623          	sw	x11,12(x2)
80001858:	921fe0ef          	jal	x1,80000178 <addAndClamp>
8000185c:	28ad0023          	sb	x10,640(x26)
80001860:	00c12583          	lw	x11,12(x2)
80001864:	2c0d4503          	lbu	x10,704(x26)
80001868:	911fe0ef          	jal	x1,80000178 <addAndClamp>
8000186c:	2cad0023          	sb	x10,704(x26)
80001870:	c8dff06f          	jal	x0,800014fc <pjpeg_decode_mcu+0x2b4>
80001874:	00500713          	addi	x14,x0,5
80001878:	c88762e3          	bltu	x14,x8,800014fc <pjpeg_decode_mcu+0x2b4>
8000187c:	801016b7          	lui	x13,0x80101
80001880:	00241713          	slli	x14,x8,0x2
80001884:	01468693          	addi	x13,x13,20 # 80101014 <stack_end+0x14>
80001888:	00d70733          	add	x14,x14,x13
8000188c:	00072703          	lw	x14,0(x14)
80001890:	00070067          	jalr	x0,0(x14)
80001894:	44ad0023          	sb	x10,1088(x26)
80001898:	24ad0023          	sb	x10,576(x26)
8000189c:	34ad0023          	sb	x10,832(x26)
800018a0:	c5dff06f          	jal	x0,800014fc <pjpeg_decode_mcu+0x2b4>
800018a4:	00151913          	slli	x18,x10,0x1
800018a8:	00a90933          	add	x18,x18,x10
800018ac:	00291993          	slli	x19,x18,0x2
800018b0:	40a989b3          	sub	x19,x19,x10
800018b4:	00399993          	slli	x19,x19,0x3
800018b8:	0089d993          	srli	x19,x19,0x8
800018bc:	fd498993          	addi	x19,x19,-44
800018c0:	180d4503          	lbu	x10,384(x26)
800018c4:	01099993          	slli	x19,x19,0x10
800018c8:	4109d993          	srai	x19,x19,0x10
800018cc:	00098593          	addi	x11,x19,0
800018d0:	8d1fe0ef          	jal	x1,800001a0 <subAndClamp>
800018d4:	18ad0023          	sb	x10,384(x26)
800018d8:	1c0d4503          	lbu	x10,448(x26)
800018dc:	00098593          	addi	x11,x19,0
800018e0:	f1d48493          	addi	x9,x9,-227
800018e4:	8bdfe0ef          	jal	x1,800001a0 <subAndClamp>
800018e8:	1cad0023          	sb	x10,448(x26)
800018ec:	200d4503          	lbu	x10,512(x26)
800018f0:	00098593          	addi	x11,x19,0
800018f4:	8adfe0ef          	jal	x1,800001a0 <subAndClamp>
800018f8:	20ad0023          	sb	x10,512(x26)
800018fc:	240d4503          	lbu	x10,576(x26)
80001900:	00098593          	addi	x11,x19,0
80001904:	89dfe0ef          	jal	x1,800001a0 <subAndClamp>
80001908:	00591713          	slli	x14,x18,0x5
8000190c:	00e905b3          	add	x11,x18,x14
80001910:	00159593          	slli	x11,x11,0x1
80001914:	0085d593          	srli	x11,x11,0x8
80001918:	009584b3          	add	x9,x11,x9
8000191c:	24ad0023          	sb	x10,576(x26)
80001920:	01049493          	slli	x9,x9,0x10
80001924:	280d4503          	lbu	x10,640(x26)
80001928:	4104d493          	srai	x9,x9,0x10
8000192c:	00048593          	addi	x11,x9,0
80001930:	849fe0ef          	jal	x1,80000178 <addAndClamp>
80001934:	28ad0023          	sb	x10,640(x26)
80001938:	2c0d4503          	lbu	x10,704(x26)
8000193c:	00048593          	addi	x11,x9,0
80001940:	839fe0ef          	jal	x1,80000178 <addAndClamp>
80001944:	2cad0023          	sb	x10,704(x26)
80001948:	300d4503          	lbu	x10,768(x26)
8000194c:	00048593          	addi	x11,x9,0
80001950:	829fe0ef          	jal	x1,80000178 <addAndClamp>
80001954:	30ad0023          	sb	x10,768(x26)
80001958:	340d4503          	lbu	x10,832(x26)
8000195c:	00048593          	addi	x11,x9,0
80001960:	819fe0ef          	jal	x1,80000178 <addAndClamp>
80001964:	34ad0023          	sb	x10,832(x26)
80001968:	b95ff06f          	jal	x0,800014fc <pjpeg_decode_mcu+0x2b4>
8000196c:	00151913          	slli	x18,x10,0x1
80001970:	00a90933          	add	x18,x18,x10
80001974:	00291993          	slli	x19,x18,0x2
80001978:	00a989b3          	add	x19,x19,x10
8000197c:	00399993          	slli	x19,x19,0x3
80001980:	40a989b3          	sub	x19,x19,x10
80001984:	f4d50713          	addi	x14,x10,-179
80001988:	0089d993          	srli	x19,x19,0x8
8000198c:	00e989b3          	add	x19,x19,x14
80001990:	380d4503          	lbu	x10,896(x26)
80001994:	01099993          	slli	x19,x19,0x10
80001998:	4109d993          	srai	x19,x19,0x10
8000199c:	00098593          	addi	x11,x19,0
800019a0:	fd8fe0ef          	jal	x1,80000178 <addAndClamp>
800019a4:	38ad0023          	sb	x10,896(x26)
800019a8:	3c0d4503          	lbu	x10,960(x26)
800019ac:	00098593          	addi	x11,x19,0
800019b0:	00391913          	slli	x18,x18,0x3
800019b4:	fc4fe0ef          	jal	x1,80000178 <addAndClamp>
800019b8:	3cad0023          	sb	x10,960(x26)
800019bc:	400d4503          	lbu	x10,1024(x26)
800019c0:	00098593          	addi	x11,x19,0
800019c4:	40990933          	sub	x18,x18,x9
800019c8:	fb0fe0ef          	jal	x1,80000178 <addAndClamp>
800019cc:	40ad0023          	sb	x10,1024(x26)
800019d0:	00391913          	slli	x18,x18,0x3
800019d4:	440d4503          	lbu	x10,1088(x26)
800019d8:	409904b3          	sub	x9,x18,x9
800019dc:	00098593          	addi	x11,x19,0
800019e0:	0084d493          	srli	x9,x9,0x8
800019e4:	f94fe0ef          	jal	x1,80000178 <addAndClamp>
800019e8:	fa548493          	addi	x9,x9,-91
800019ec:	44ad0023          	sb	x10,1088(x26)
800019f0:	01049493          	slli	x9,x9,0x10
800019f4:	180d4503          	lbu	x10,384(x26)
800019f8:	4104d493          	srai	x9,x9,0x10
800019fc:	00048593          	addi	x11,x9,0
80001a00:	fa0fe0ef          	jal	x1,800001a0 <subAndClamp>
80001a04:	18ad0023          	sb	x10,384(x26)
80001a08:	1c0d4503          	lbu	x10,448(x26)
80001a0c:	00048593          	addi	x11,x9,0
80001a10:	f90fe0ef          	jal	x1,800001a0 <subAndClamp>
80001a14:	1cad0023          	sb	x10,448(x26)
80001a18:	200d4503          	lbu	x10,512(x26)
80001a1c:	00048593          	addi	x11,x9,0
80001a20:	f80fe0ef          	jal	x1,800001a0 <subAndClamp>
80001a24:	20ad0023          	sb	x10,512(x26)
80001a28:	240d4503          	lbu	x10,576(x26)
80001a2c:	00048593          	addi	x11,x9,0
80001a30:	f70fe0ef          	jal	x1,800001a0 <subAndClamp>
80001a34:	24ad0023          	sb	x10,576(x26)
80001a38:	ac5ff06f          	jal	x0,800014fc <pjpeg_decode_mcu+0x2b4>
80001a3c:	0c070a63          	beq	x14,x0,80001b10 <pjpeg_decode_mcu+0x8c8>
80001a40:	640d0a13          	addi	x20,x26,1600
80001a44:	84048493          	addi	x9,x9,-1984
80001a48:	00100c13          	addi	x24,x0,1
80001a4c:	00f00a93          	addi	x21,x0,15
80001a50:	03000b93          	addi	x23,x0,48
80001a54:	03f00993          	addi	x19,x0,63
80001a58:	000a0593          	addi	x11,x20,0
80001a5c:	00048513          	addi	x10,x9,0
80001a60:	aecff0ef          	jal	x1,80000d4c <huffDecode>
80001a64:	00f57593          	andi	x11,x10,15
80001a68:	00050c93          	addi	x25,x10,0
80001a6c:	00000513          	addi	x10,x0,0
80001a70:	00058a63          	beq	x11,x0,80001a84 <pjpeg_decode_mcu+0x83c>
80001a74:	00058513          	addi	x10,x11,0
80001a78:	00b12623          	sw	x11,12(x2)
80001a7c:	a48ff0ef          	jal	x1,80000cc4 <getBits2>
80001a80:	00c12583          	lw	x11,12(x2)
80001a84:	004cd713          	srli	x14,x25,0x4
80001a88:	0ff77713          	andi	x14,x14,255
80001a8c:	08058863          	beq	x11,x0,80001b1c <pjpeg_decode_mcu+0x8d4>
80001a90:	000c0c93          	addi	x25,x24,0
80001a94:	04070063          	beq	x14,x0,80001ad4 <pjpeg_decode_mcu+0x88c>
80001a98:	01870c33          	add	x24,x14,x24
80001a9c:	a589c2e3          	blt	x19,x24,800014e0 <pjpeg_decode_mcu+0x298>
80001aa0:	0ffc7c13          	andi	x24,x24,255
80001aa4:	40ec06b3          	sub	x13,x24,x14
80001aa8:	0ff6f693          	andi	x13,x13,255
80001aac:	00db06b3          	add	x13,x22,x13
80001ab0:	0a068683          	lb	x13,160(x13)
80001ab4:	fff70713          	addi	x14,x14,-1
80001ab8:	01071713          	slli	x14,x14,0x10
80001abc:	00169693          	slli	x13,x13,0x1
80001ac0:	00dd06b3          	add	x13,x26,x13
80001ac4:	10069023          	sh	x0,256(x13)
80001ac8:	01075713          	srli	x14,x14,0x10
80001acc:	000c0c93          	addi	x25,x24,0
80001ad0:	fc071ae3          	bne	x14,x0,80001aa4 <pjpeg_decode_mcu+0x85c>
80001ad4:	e48fe0ef          	jal	x1,8000011c <huffExtend>
80001ad8:	019b0733          	add	x14,x22,x25
80001adc:	0a070c03          	lb	x24,160(x14)
80001ae0:	001c9713          	slli	x14,x25,0x1
80001ae4:	00e90733          	add	x14,x18,x14
80001ae8:	00050593          	addi	x11,x10,0
80001aec:	00075503          	lhu	x10,0(x14)
80001af0:	001c1c13          	slli	x24,x24,0x1
80001af4:	018d0c33          	add	x24,x26,x24
80001af8:	560010ef          	jal	x1,80003058 <__mulsi3>
80001afc:	10ac1023          	sh	x10,256(x24)
80001b00:	001c8c93          	addi	x25,x25,1
80001b04:	0ffcfc13          	andi	x24,x25,255
80001b08:	f589f8e3          	bgeu	x19,x24,80001a58 <pjpeg_decode_mcu+0x810>
80001b0c:	0140006f          	jal	x0,80001b20 <pjpeg_decode_mcu+0x8d8>
80001b10:	740d0a13          	addi	x20,x26,1856
80001b14:	89048493          	addi	x9,x9,-1904
80001b18:	f31ff06f          	jal	x0,80001a48 <pjpeg_decode_mcu+0x800>
80001b1c:	3d570863          	beq	x14,x21,80001eec <pjpeg_decode_mcu+0xca4>
80001b20:	801017b7          	lui	x15,0x80101
80001b24:	0f878793          	addi	x15,x15,248 # 801010f8 <ZAG>
80001b28:	018786b3          	add	x13,x15,x24
80001b2c:	03f00613          	addi	x12,x0,63
80001b30:	3f867e63          	bgeu	x12,x24,80001f2c <pjpeg_decode_mcu+0xce4>
80001b34:	80101c37          	lui	x24,0x80101
80001b38:	100d0913          	addi	x18,x26,256
80001b3c:	534c0c13          	addi	x24,x24,1332 # 80101534 <gCoeffBuf>
80001b40:	180d0793          	addi	x15,x26,384
80001b44:	00291583          	lh	x11,2(x18)
80001b48:	00491a03          	lh	x20,4(x18)
80001b4c:	00691603          	lh	x12,6(x18)
80001b50:	00891b83          	lh	x23,8(x18)
80001b54:	00a91683          	lh	x13,10(x18)
80001b58:	0145e733          	or	x14,x11,x20
80001b5c:	00c91a83          	lh	x21,12(x18)
80001b60:	00e66733          	or	x14,x12,x14
80001b64:	00e91503          	lh	x10,14(x18)
80001b68:	00ebe733          	or	x14,x23,x14
80001b6c:	00e6e733          	or	x14,x13,x14
80001b70:	00eae733          	or	x14,x21,x14
80001b74:	00e56733          	or	x14,x10,x14
80001b78:	00091983          	lh	x19,0(x18)
80001b7c:	3c070863          	beq	x14,x0,80001f4c <pjpeg_decode_mcu+0xd04>
80001b80:	01061713          	slli	x14,x12,0x10
80001b84:	01069693          	slli	x13,x13,0x10
80001b88:	01075713          	srli	x14,x14,0x10
80001b8c:	0106d693          	srli	x13,x13,0x10
80001b90:	40e68633          	sub	x12,x13,x14
80001b94:	01051893          	slli	x17,x10,0x10
80001b98:	01061613          	slli	x12,x12,0x10
80001b9c:	01059593          	slli	x11,x11,0x10
80001ba0:	0108d893          	srli	x17,x17,0x10
80001ba4:	01065613          	srli	x12,x12,0x10
80001ba8:	0105d593          	srli	x11,x11,0x10
80001bac:	01158533          	add	x10,x11,x17
80001bb0:	40b60833          	sub	x16,x12,x11
80001bb4:	411585b3          	sub	x11,x11,x17
80001bb8:	01059593          	slli	x11,x11,0x10
80001bbc:	4105d593          	srai	x11,x11,0x10
80001bc0:	00459493          	slli	x9,x11,0x4
80001bc4:	01088833          	add	x16,x17,x16
80001bc8:	00b484b3          	add	x9,x9,x11
80001bcc:	01081813          	slli	x16,x16,0x10
80001bd0:	00249493          	slli	x9,x9,0x2
80001bd4:	41085813          	srai	x16,x16,0x10
80001bd8:	00b484b3          	add	x9,x9,x11
80001bdc:	00e686b3          	add	x13,x13,x14
80001be0:	00249493          	slli	x9,x9,0x2
80001be4:	00181713          	slli	x14,x16,0x1
80001be8:	01070733          	add	x14,x14,x16
80001bec:	00b484b3          	add	x9,x9,x11
80001bf0:	01061593          	slli	x11,x12,0x10
80001bf4:	4105d593          	srai	x11,x11,0x10
80001bf8:	00471713          	slli	x14,x14,0x4
80001bfc:	01070733          	add	x14,x14,x16
80001c00:	00359613          	slli	x12,x11,0x3
80001c04:	40b60633          	sub	x12,x12,x11
80001c08:	01069693          	slli	x13,x13,0x10
80001c0c:	01051513          	slli	x10,x10,0x10
80001c10:	00271713          	slli	x14,x14,0x2
80001c14:	0106d693          	srli	x13,x13,0x10
80001c18:	01055513          	srli	x10,x10,0x10
80001c1c:	08070713          	addi	x14,x14,128
80001c20:	00561613          	slli	x12,x12,0x5
80001c24:	40b60633          	sub	x12,x12,x11
80001c28:	00a68833          	add	x16,x13,x10
80001c2c:	40875713          	srai	x14,x14,0x8
80001c30:	40d50533          	sub	x10,x10,x13
80001c34:	00261313          	slli	x6,x12,0x2
80001c38:	01071713          	slli	x14,x14,0x10
80001c3c:	01051513          	slli	x10,x10,0x10
80001c40:	40c30333          	sub	x6,x6,x12
80001c44:	01075713          	srli	x14,x14,0x10
80001c48:	16a00593          	addi	x11,x0,362
80001c4c:	08048493          	addi	x9,x9,128
80001c50:	41055513          	srai	x10,x10,0x10
80001c54:	01081c93          	slli	x25,x16,0x10
80001c58:	00e12a23          	sw	x14,20(x2)
80001c5c:	00612623          	sw	x6,12(x2)
80001c60:	4084d493          	srai	x9,x9,0x8
80001c64:	3f4010ef          	jal	x1,80003058 <__mulsi3>
80001c68:	01412703          	lw	x14,20(x2)
80001c6c:	01049493          	slli	x9,x9,0x10
80001c70:	010cdc93          	srli	x25,x25,0x10
80001c74:	0104d493          	srli	x9,x9,0x10
80001c78:	409c8633          	sub	x12,x25,x9
80001c7c:	00c12303          	lw	x6,12(x2)
80001c80:	00c70633          	add	x12,x14,x12
80001c84:	08050893          	addi	x17,x10,128
80001c88:	01061613          	slli	x12,x12,0x10
80001c8c:	01065613          	srli	x12,x12,0x10
80001c90:	01099593          	slli	x11,x19,0x10
80001c94:	4088d893          	srai	x17,x17,0x8
80001c98:	010b9b93          	slli	x23,x23,0x10
80001c9c:	011608b3          	add	x17,x12,x17
80001ca0:	0105d593          	srli	x11,x11,0x10
80001ca4:	08030693          	addi	x13,x6,128
80001ca8:	010bdb93          	srli	x23,x23,0x10
80001cac:	01758333          	add	x6,x11,x23
80001cb0:	01089893          	slli	x17,x17,0x10
80001cb4:	41758bb3          	sub	x23,x11,x23
80001cb8:	4086d693          	srai	x13,x13,0x8
80001cbc:	010a9593          	slli	x11,x21,0x10
80001cc0:	010a1a13          	slli	x20,x20,0x10
80001cc4:	0108d893          	srli	x17,x17,0x10
80001cc8:	40d706b3          	sub	x13,x14,x13
80001ccc:	0105d593          	srli	x11,x11,0x10
80001cd0:	010a5a13          	srli	x20,x20,0x10
80001cd4:	00d886b3          	add	x13,x17,x13
80001cd8:	00ba0ab3          	add	x21,x20,x11
80001cdc:	40ba0a33          	sub	x20,x20,x11
80001ce0:	01069693          	slli	x13,x13,0x10
80001ce4:	01031313          	slli	x6,x6,0x10
80001ce8:	010a1513          	slli	x10,x20,0x10
80001cec:	0106d693          	srli	x13,x13,0x10
80001cf0:	01035313          	srli	x6,x6,0x10
80001cf4:	16a00593          	addi	x11,x0,362
80001cf8:	41055513          	srai	x10,x10,0x10
80001cfc:	02c12023          	sw	x12,32(x2)
80001d00:	00e12e23          	sw	x14,28(x2)
80001d04:	01112c23          	sw	x17,24(x2)
80001d08:	00d12a23          	sw	x13,20(x2)
80001d0c:	00612623          	sw	x6,12(x2)
80001d10:	348010ef          	jal	x1,80003058 <__mulsi3>
80001d14:	08050593          	addi	x11,x10,128
80001d18:	00c12303          	lw	x6,12(x2)
80001d1c:	010b9b93          	slli	x23,x23,0x10
80001d20:	010a9a93          	slli	x21,x21,0x10
80001d24:	4085d593          	srai	x11,x11,0x8
80001d28:	010ada93          	srli	x21,x21,0x10
80001d2c:	010bdb93          	srli	x23,x23,0x10
80001d30:	01059593          	slli	x11,x11,0x10
80001d34:	0105d593          	srli	x11,x11,0x10
80001d38:	415b8533          	sub	x10,x23,x21
80001d3c:	015309b3          	add	x19,x6,x21
80001d40:	00a58533          	add	x10,x11,x10
80001d44:	015b8bb3          	add	x23,x23,x21
80001d48:	01c12703          	lw	x14,28(x2)
80001d4c:	01812883          	lw	x17,24(x2)
80001d50:	01412683          	lw	x13,20(x2)
80001d54:	40bb8bb3          	sub	x23,x23,x11
80001d58:	02012603          	lw	x12,32(x2)
80001d5c:	01099993          	slli	x19,x19,0x10
80001d60:	41530333          	sub	x6,x6,x21
80001d64:	01051513          	slli	x10,x10,0x10
80001d68:	0109d993          	srli	x19,x19,0x10
80001d6c:	01055513          	srli	x10,x10,0x10
80001d70:	01031313          	slli	x6,x6,0x10
80001d74:	010b9b93          	slli	x23,x23,0x10
80001d78:	419484b3          	sub	x9,x9,x25
80001d7c:	013c85b3          	add	x11,x25,x19
80001d80:	01035313          	srli	x6,x6,0x10
80001d84:	010bdb93          	srli	x23,x23,0x10
80001d88:	009504b3          	add	x9,x10,x9
80001d8c:	40e484b3          	sub	x9,x9,x14
80001d90:	00b91023          	sh	x11,0(x18)
80001d94:	01788e33          	add	x28,x17,x23
80001d98:	40d305b3          	sub	x11,x6,x13
80001d9c:	411b8733          	sub	x14,x23,x17
80001da0:	006686b3          	add	x13,x13,x6
80001da4:	00a60633          	add	x12,x12,x10
80001da8:	419989b3          	sub	x19,x19,x25
80001dac:	01049493          	slli	x9,x9,0x10
80001db0:	010e1e13          	slli	x28,x28,0x10
80001db4:	01059593          	slli	x11,x11,0x10
80001db8:	01069693          	slli	x13,x13,0x10
80001dbc:	01071713          	slli	x14,x14,0x10
80001dc0:	01061613          	slli	x12,x12,0x10
80001dc4:	01099993          	slli	x19,x19,0x10
80001dc8:	801017b7          	lui	x15,0x80101
80001dcc:	4104d493          	srai	x9,x9,0x10
80001dd0:	410e5e13          	srai	x28,x28,0x10
80001dd4:	4105d593          	srai	x11,x11,0x10
80001dd8:	4106d693          	srai	x13,x13,0x10
80001ddc:	41075713          	srai	x14,x14,0x10
80001de0:	41065613          	srai	x12,x12,0x10
80001de4:	4109d993          	srai	x19,x19,0x10
80001de8:	5b478793          	addi	x15,x15,1460 # 801015b4 <gMCUBufG>
80001dec:	00991123          	sh	x9,2(x18)
80001df0:	01c91223          	sh	x28,4(x18)
80001df4:	00b91323          	sh	x11,6(x18)
80001df8:	00d91423          	sh	x13,8(x18)
80001dfc:	00e91523          	sh	x14,10(x18)
80001e00:	00c91623          	sh	x12,12(x18)
80001e04:	01391723          	sh	x19,14(x18)
80001e08:	01090913          	addi	x18,x18,16
80001e0c:	d2f91ce3          	bne	x18,x15,80001b44 <pjpeg_decode_mcu+0x8fc>
80001e10:	000c0713          	addi	x14,x24,0
80001e14:	01071583          	lh	x11,16(x14)
80001e18:	02071a83          	lh	x21,32(x14)
80001e1c:	03071803          	lh	x16,48(x14)
80001e20:	04071a03          	lh	x20,64(x14)
80001e24:	05071683          	lh	x13,80(x14)
80001e28:	0155e633          	or	x12,x11,x21
80001e2c:	06071b83          	lh	x23,96(x14)
80001e30:	00c86633          	or	x12,x16,x12
80001e34:	07071503          	lh	x10,112(x14)
80001e38:	00ca6633          	or	x12,x20,x12
80001e3c:	00c6e633          	or	x12,x13,x12
80001e40:	00cbe633          	or	x12,x23,x12
80001e44:	00c56633          	or	x12,x10,x12
80001e48:	00071483          	lh	x9,0(x14)
80001e4c:	10061e63          	bne	x12,x0,80001f68 <pjpeg_decode_mcu+0xd20>
80001e50:	04048513          	addi	x10,x9,64
80001e54:	00755513          	srli	x10,x10,0x7
80001e58:	08050513          	addi	x10,x10,128
80001e5c:	01051513          	slli	x10,x10,0x10
80001e60:	41055513          	srai	x10,x10,0x10
80001e64:	00e12623          	sw	x14,12(x2)
80001e68:	af0fe0ef          	jal	x1,80000158 <clamp>
80001e6c:	01051693          	slli	x13,x10,0x10
80001e70:	00c12703          	lw	x14,12(x2)
80001e74:	4106d693          	srai	x13,x13,0x10
80001e78:	00068593          	addi	x11,x13,0
80001e7c:	00068c93          	addi	x25,x13,0
80001e80:	00068a93          	addi	x21,x13,0
80001e84:	00068b93          	addi	x23,x13,0
80001e88:	00068993          	addi	x19,x13,0
80001e8c:	00068493          	addi	x9,x13,0
80001e90:	00068913          	addi	x18,x13,0
80001e94:	801017b7          	lui	x15,0x80101
80001e98:	00b71023          	sh	x11,0(x14)
80001e9c:	01971823          	sh	x25,16(x14)
80001ea0:	03571023          	sh	x21,32(x14)
80001ea4:	03771823          	sh	x23,48(x14)
80001ea8:	05371023          	sh	x19,64(x14)
80001eac:	04971823          	sh	x9,80(x14)
80001eb0:	07271023          	sh	x18,96(x14)
80001eb4:	06d71823          	sh	x13,112(x14)
80001eb8:	54478793          	addi	x15,x15,1348 # 80101544 <gCoeffBuf+0x10>
80001ebc:	00270713          	addi	x14,x14,2
80001ec0:	f4f71ae3          	bne	x14,x15,80001e14 <pjpeg_decode_mcu+0xbcc>
80001ec4:	80102737          	lui	x14,0x80102
80001ec8:	d6072703          	lw	x14,-672(x14) # 80101d60 <gScanType>
80001ecc:	00400693          	addi	x13,x0,4
80001ed0:	e2e6e663          	bltu	x13,x14,800014fc <pjpeg_decode_mcu+0x2b4>
80001ed4:	801016b7          	lui	x13,0x80101
80001ed8:	00271713          	slli	x14,x14,0x2
80001edc:	02c68693          	addi	x13,x13,44 # 8010102c <stack_end+0x2c>
80001ee0:	00d70733          	add	x14,x14,x13
80001ee4:	00072703          	lw	x14,0(x14)
80001ee8:	00070067          	jalr	x0,0(x14)
80001eec:	df8bea63          	bltu	x23,x24,800014e0 <pjpeg_decode_mcu+0x298>
80001ef0:	010c0613          	addi	x12,x24,16
80001ef4:	0ff67613          	andi	x12,x12,255
80001ef8:	000c0713          	addi	x14,x24,0
80001efc:	00070693          	addi	x13,x14,0
80001f00:	00db06b3          	add	x13,x22,x13
80001f04:	0a068683          	lb	x13,160(x13)
80001f08:	00170713          	addi	x14,x14,1
80001f0c:	0ff77713          	andi	x14,x14,255
80001f10:	00169693          	slli	x13,x13,0x1
80001f14:	00dd06b3          	add	x13,x26,x13
80001f18:	10069023          	sh	x0,256(x13)
80001f1c:	fec710e3          	bne	x14,x12,80001efc <pjpeg_decode_mcu+0xcb4>
80001f20:	00fc0c93          	addi	x25,x24,15
80001f24:	0ffcfc93          	andi	x25,x25,255
80001f28:	bd9ff06f          	jal	x0,80001b00 <pjpeg_decode_mcu+0x8b8>
80001f2c:	00068703          	lb	x14,0(x13)
80001f30:	001c0c13          	addi	x24,x24,1
80001f34:	0ffc7c13          	andi	x24,x24,255
80001f38:	00171713          	slli	x14,x14,0x1
80001f3c:	00ed0733          	add	x14,x26,x14
80001f40:	10071023          	sh	x0,256(x14)
80001f44:	00168693          	addi	x13,x13,1
80001f48:	be9ff06f          	jal	x0,80001b30 <pjpeg_decode_mcu+0x8e8>
80001f4c:	00098493          	addi	x9,x19,0
80001f50:	00098e13          	addi	x28,x19,0
80001f54:	00098593          	addi	x11,x19,0
80001f58:	00098693          	addi	x13,x19,0
80001f5c:	00098713          	addi	x14,x19,0
80001f60:	00098613          	addi	x12,x19,0
80001f64:	e89ff06f          	jal	x0,80001dec <pjpeg_decode_mcu+0xba4>
80001f68:	01069693          	slli	x13,x13,0x10
80001f6c:	01081813          	slli	x16,x16,0x10
80001f70:	01085813          	srli	x16,x16,0x10
80001f74:	0106d693          	srli	x13,x13,0x10
80001f78:	41068633          	sub	x12,x13,x16
80001f7c:	01051893          	slli	x17,x10,0x10
80001f80:	01061613          	slli	x12,x12,0x10
80001f84:	01059593          	slli	x11,x11,0x10
80001f88:	0108d893          	srli	x17,x17,0x10
80001f8c:	0105d593          	srli	x11,x11,0x10
80001f90:	01065613          	srli	x12,x12,0x10
80001f94:	01158533          	add	x10,x11,x17
80001f98:	010686b3          	add	x13,x13,x16
80001f9c:	40b60833          	sub	x16,x12,x11
80001fa0:	411585b3          	sub	x11,x11,x17
80001fa4:	01059593          	slli	x11,x11,0x10
80001fa8:	4105d593          	srai	x11,x11,0x10
80001fac:	00459913          	slli	x18,x11,0x4
80001fb0:	00b90933          	add	x18,x18,x11
80001fb4:	00291913          	slli	x18,x18,0x2
80001fb8:	00b90933          	add	x18,x18,x11
80001fbc:	01061613          	slli	x12,x12,0x10
80001fc0:	01088833          	add	x16,x17,x16
80001fc4:	41065613          	srai	x12,x12,0x10
80001fc8:	00291913          	slli	x18,x18,0x2
80001fcc:	00b90933          	add	x18,x18,x11
80001fd0:	01081813          	slli	x16,x16,0x10
80001fd4:	00361593          	slli	x11,x12,0x3
80001fd8:	41085813          	srai	x16,x16,0x10
80001fdc:	40c585b3          	sub	x11,x11,x12
80001fe0:	01069693          	slli	x13,x13,0x10
80001fe4:	01051513          	slli	x10,x10,0x10
80001fe8:	0106d693          	srli	x13,x13,0x10
80001fec:	00181993          	slli	x19,x16,0x1
80001ff0:	01055513          	srli	x10,x10,0x10
80001ff4:	00559593          	slli	x11,x11,0x5
80001ff8:	010989b3          	add	x19,x19,x16
80001ffc:	00a68cb3          	add	x25,x13,x10
80002000:	40c585b3          	sub	x11,x11,x12
80002004:	40d50533          	sub	x10,x10,x13
80002008:	00259613          	slli	x12,x11,0x2
8000200c:	00499993          	slli	x19,x19,0x4
80002010:	01051513          	slli	x10,x10,0x10
80002014:	40b60633          	sub	x12,x12,x11
80002018:	010989b3          	add	x19,x19,x16
8000201c:	16a00593          	addi	x11,x0,362
80002020:	08090913          	addi	x18,x18,128
80002024:	41055513          	srai	x10,x10,0x10
80002028:	02e12623          	sw	x14,44(x2)
8000202c:	02c12423          	sw	x12,40(x2)
80002030:	00299993          	slli	x19,x19,0x2
80002034:	024010ef          	jal	x1,80003058 <__mulsi3>
80002038:	40895913          	srai	x18,x18,0x8
8000203c:	08050693          	addi	x13,x10,128
80002040:	01091913          	slli	x18,x18,0x10
80002044:	08098993          	addi	x19,x19,128
80002048:	01095913          	srli	x18,x18,0x10
8000204c:	4089d993          	srai	x19,x19,0x8
80002050:	010c9c93          	slli	x25,x25,0x10
80002054:	4086d693          	srai	x13,x13,0x8
80002058:	010cdc93          	srli	x25,x25,0x10
8000205c:	412686b3          	sub	x13,x13,x18
80002060:	01099993          	slli	x19,x19,0x10
80002064:	0109d993          	srli	x19,x19,0x10
80002068:	00dc86b3          	add	x13,x25,x13
8000206c:	00d986b3          	add	x13,x19,x13
80002070:	01069793          	slli	x15,x13,0x10
80002074:	01049493          	slli	x9,x9,0x10
80002078:	010a1693          	slli	x13,x20,0x10
8000207c:	0106d693          	srli	x13,x13,0x10
80002080:	0104d493          	srli	x9,x9,0x10
80002084:	00d48a33          	add	x20,x9,x13
80002088:	010a9a93          	slli	x21,x21,0x10
8000208c:	40d484b3          	sub	x9,x9,x13
80002090:	010b9693          	slli	x13,x23,0x10
80002094:	0106d693          	srli	x13,x13,0x10
80002098:	010ada93          	srli	x21,x21,0x10
8000209c:	00da8bb3          	add	x23,x21,x13
800020a0:	40da8ab3          	sub	x21,x21,x13
800020a4:	010a9513          	slli	x10,x21,0x10
800020a8:	0107d793          	srli	x15,x15,0x10
800020ac:	16a00593          	addi	x11,x0,362
800020b0:	010a1a13          	slli	x20,x20,0x10
800020b4:	010b9b93          	slli	x23,x23,0x10
800020b8:	41055513          	srai	x10,x10,0x10
800020bc:	00f12623          	sw	x15,12(x2)
800020c0:	010bdb93          	srli	x23,x23,0x10
800020c4:	795000ef          	jal	x1,80003058 <__mulsi3>
800020c8:	010a5a13          	srli	x20,x20,0x10
800020cc:	017a06b3          	add	x13,x20,x23
800020d0:	01069813          	slli	x16,x13,0x10
800020d4:	010c9893          	slli	x17,x25,0x10
800020d8:	41085813          	srai	x16,x16,0x10
800020dc:	4108d893          	srai	x17,x17,0x10
800020e0:	08050a93          	addi	x21,x10,128
800020e4:	01180533          	add	x10,x16,x17
800020e8:	04050513          	addi	x10,x10,64
800020ec:	00755513          	srli	x10,x10,0x7
800020f0:	08050513          	addi	x10,x10,128
800020f4:	01051513          	slli	x10,x10,0x10
800020f8:	01049493          	slli	x9,x9,0x10
800020fc:	408ada93          	srai	x21,x21,0x8
80002100:	41055513          	srai	x10,x10,0x10
80002104:	03112223          	sw	x17,36(x2)
80002108:	03012023          	sw	x16,32(x2)
8000210c:	0104d493          	srli	x9,x9,0x10
80002110:	848fe0ef          	jal	x1,80000158 <clamp>
80002114:	010a9a93          	slli	x21,x21,0x10
80002118:	010ada93          	srli	x21,x21,0x10
8000211c:	417486b3          	sub	x13,x9,x23
80002120:	41990933          	sub	x18,x18,x25
80002124:	00da86b3          	add	x13,x21,x13
80002128:	41390933          	sub	x18,x18,x19
8000212c:	01069693          	slli	x13,x13,0x10
80002130:	01091913          	slli	x18,x18,0x10
80002134:	4106d693          	srai	x13,x13,0x10
80002138:	41095913          	srai	x18,x18,0x10
8000213c:	01051593          	slli	x11,x10,0x10
80002140:	01268533          	add	x10,x13,x18
80002144:	04050513          	addi	x10,x10,64
80002148:	00755513          	srli	x10,x10,0x7
8000214c:	08050513          	addi	x10,x10,128
80002150:	01051513          	slli	x10,x10,0x10
80002154:	4105d593          	srai	x11,x11,0x10
80002158:	41055513          	srai	x10,x10,0x10
8000215c:	00b12e23          	sw	x11,28(x2)
80002160:	00d12c23          	sw	x13,24(x2)
80002164:	017484b3          	add	x9,x9,x23
80002168:	ff1fd0ef          	jal	x1,80000158 <clamp>
8000216c:	00c11303          	lh	x6,12(x2)
80002170:	415484b3          	sub	x9,x9,x21
80002174:	01049493          	slli	x9,x9,0x10
80002178:	4104d493          	srai	x9,x9,0x10
8000217c:	01051c93          	slli	x25,x10,0x10
80002180:	00648533          	add	x10,x9,x6
80002184:	04050513          	addi	x10,x10,64
80002188:	00755513          	srli	x10,x10,0x7
8000218c:	08050513          	addi	x10,x10,128
80002190:	01051513          	slli	x10,x10,0x10
80002194:	41055513          	srai	x10,x10,0x10
80002198:	00612a23          	sw	x6,20(x2)
8000219c:	fbdfd0ef          	jal	x1,80000158 <clamp>
800021a0:	02812603          	lw	x12,40(x2)
800021a4:	00c12783          	lw	x15,12(x2)
800021a8:	417a0a33          	sub	x20,x20,x23
800021ac:	08060613          	addi	x12,x12,128
800021b0:	40865613          	srai	x12,x12,0x8
800021b4:	40c989b3          	sub	x19,x19,x12
800021b8:	013789b3          	add	x19,x15,x19
800021bc:	010a1a13          	slli	x20,x20,0x10
800021c0:	01099993          	slli	x19,x19,0x10
800021c4:	4109d993          	srai	x19,x19,0x10
800021c8:	410a5a13          	srai	x20,x20,0x10
800021cc:	01051a93          	slli	x21,x10,0x10
800021d0:	413a0533          	sub	x10,x20,x19
800021d4:	04050513          	addi	x10,x10,64
800021d8:	00755513          	srli	x10,x10,0x7
800021dc:	08050513          	addi	x10,x10,128
800021e0:	01051513          	slli	x10,x10,0x10
800021e4:	41055513          	srai	x10,x10,0x10
800021e8:	f71fd0ef          	jal	x1,80000158 <clamp>
800021ec:	01051b93          	slli	x23,x10,0x10
800021f0:	013a0533          	add	x10,x20,x19
800021f4:	04050513          	addi	x10,x10,64
800021f8:	00755513          	srli	x10,x10,0x7
800021fc:	08050513          	addi	x10,x10,128
80002200:	01051513          	slli	x10,x10,0x10
80002204:	41055513          	srai	x10,x10,0x10
80002208:	f51fd0ef          	jal	x1,80000158 <clamp>
8000220c:	01412303          	lw	x6,20(x2)
80002210:	01051993          	slli	x19,x10,0x10
80002214:	410cdc93          	srai	x25,x25,0x10
80002218:	40648533          	sub	x10,x9,x6
8000221c:	04050513          	addi	x10,x10,64
80002220:	00755513          	srli	x10,x10,0x7
80002224:	08050513          	addi	x10,x10,128
80002228:	01051513          	slli	x10,x10,0x10
8000222c:	41055513          	srai	x10,x10,0x10
80002230:	f29fd0ef          	jal	x1,80000158 <clamp>
80002234:	01812683          	lw	x13,24(x2)
80002238:	01051493          	slli	x9,x10,0x10
8000223c:	410ada93          	srai	x21,x21,0x10
80002240:	41268533          	sub	x10,x13,x18
80002244:	04050513          	addi	x10,x10,64
80002248:	00755513          	srli	x10,x10,0x7
8000224c:	08050513          	addi	x10,x10,128
80002250:	01051513          	slli	x10,x10,0x10
80002254:	41055513          	srai	x10,x10,0x10
80002258:	f01fd0ef          	jal	x1,80000158 <clamp>
8000225c:	02012803          	lw	x16,32(x2)
80002260:	02412883          	lw	x17,36(x2)
80002264:	01051913          	slli	x18,x10,0x10
80002268:	410bdb93          	srai	x23,x23,0x10
8000226c:	411806b3          	sub	x13,x16,x17
80002270:	04068693          	addi	x13,x13,64
80002274:	0076d693          	srli	x13,x13,0x7
80002278:	08068693          	addi	x13,x13,128
8000227c:	01069513          	slli	x10,x13,0x10
80002280:	41055513          	srai	x10,x10,0x10
80002284:	ed5fd0ef          	jal	x1,80000158 <clamp>
80002288:	01051693          	slli	x13,x10,0x10
8000228c:	02c12703          	lw	x14,44(x2)
80002290:	01c12583          	lw	x11,28(x2)
80002294:	4109d993          	srai	x19,x19,0x10
80002298:	4104d493          	srai	x9,x9,0x10
8000229c:	41095913          	srai	x18,x18,0x10
800022a0:	4106d693          	srai	x13,x13,0x10
800022a4:	bf1ff06f          	jal	x0,80001e94 <pjpeg_decode_mcu+0xc4c>
800022a8:	00100713          	addi	x14,x0,1
800022ac:	00e40e63          	beq	x8,x14,800022c8 <pjpeg_decode_mcu+0x1080>
800022b0:	00200713          	addi	x14,x0,2
800022b4:	08e40c63          	beq	x8,x14,8000234c <pjpeg_decode_mcu+0x1104>
800022b8:	a4041263          	bne	x8,x0,800014fc <pjpeg_decode_mcu+0x2b4>
800022bc:	00000513          	addi	x10,x0,0
800022c0:	f64fe0ef          	jal	x1,80000a24 <copyY>
800022c4:	a38ff06f          	jal	x0,800014fc <pjpeg_decode_mcu+0x2b4>
800022c8:	00000993          	addi	x19,x0,0
800022cc:	280d0a13          	addi	x20,x26,640
800022d0:	180d0a93          	addi	x21,x26,384
800022d4:	08000b93          	addi	x23,x0,128
800022d8:	013c0733          	add	x14,x24,x19
800022dc:	00071903          	lh	x18,0(x14)
800022e0:	000ac503          	lbu	x10,0(x21)
800022e4:	00298993          	addi	x19,x19,2
800022e8:	0ff97713          	andi	x14,x18,255
800022ec:	00171493          	slli	x9,x14,0x1
800022f0:	00e484b3          	add	x9,x9,x14
800022f4:	00249593          	slli	x11,x9,0x2
800022f8:	40e585b3          	sub	x11,x11,x14
800022fc:	00359593          	slli	x11,x11,0x3
80002300:	0085d593          	srli	x11,x11,0x8
80002304:	fd458593          	addi	x11,x11,-44
80002308:	01059593          	slli	x11,x11,0x10
8000230c:	4105d593          	srai	x11,x11,0x10
80002310:	e91fd0ef          	jal	x1,800001a0 <subAndClamp>
80002314:	00549713          	slli	x14,x9,0x5
80002318:	00aa8023          	sb	x10,0(x21)
8000231c:	00e484b3          	add	x9,x9,x14
80002320:	000a4503          	lbu	x10,0(x20)
80002324:	0ff97593          	andi	x11,x18,255
80002328:	0074d493          	srli	x9,x9,0x7
8000232c:	f1d58593          	addi	x11,x11,-227
80002330:	00b485b3          	add	x11,x9,x11
80002334:	e45fd0ef          	jal	x1,80000178 <addAndClamp>
80002338:	00aa0023          	sb	x10,0(x20)
8000233c:	001a8a93          	addi	x21,x21,1
80002340:	001a0a13          	addi	x20,x20,1
80002344:	f9799ae3          	bne	x19,x23,800022d8 <pjpeg_decode_mcu+0x1090>
80002348:	9b4ff06f          	jal	x0,800014fc <pjpeg_decode_mcu+0x2b4>
8000234c:	00000913          	addi	x18,x0,0
80002350:	180d0993          	addi	x19,x26,384
80002354:	380d0a13          	addi	x20,x26,896
80002358:	08000a93          	addi	x21,x0,128
8000235c:	012c0733          	add	x14,x24,x18
80002360:	00071703          	lh	x14,0(x14)
80002364:	000a4503          	lbu	x10,0(x20)
80002368:	00290913          	addi	x18,x18,2
8000236c:	0ff77b93          	andi	x23,x14,255
80002370:	001b9493          	slli	x9,x23,0x1
80002374:	017484b3          	add	x9,x9,x23
80002378:	00249593          	slli	x11,x9,0x2
8000237c:	017585b3          	add	x11,x11,x23
80002380:	00359593          	slli	x11,x11,0x3
80002384:	417585b3          	sub	x11,x11,x23
80002388:	0ff77713          	andi	x14,x14,255
8000238c:	f4d70713          	addi	x14,x14,-179
80002390:	0085d593          	srli	x11,x11,0x8
80002394:	00e585b3          	add	x11,x11,x14
80002398:	01059593          	slli	x11,x11,0x10
8000239c:	4105d593          	srai	x11,x11,0x10
800023a0:	dd9fd0ef          	jal	x1,80000178 <addAndClamp>
800023a4:	00349593          	slli	x11,x9,0x3
800023a8:	417585b3          	sub	x11,x11,x23
800023ac:	00359593          	slli	x11,x11,0x3
800023b0:	417585b3          	sub	x11,x11,x23
800023b4:	0085d593          	srli	x11,x11,0x8
800023b8:	00aa0023          	sb	x10,0(x20)
800023bc:	fa558593          	addi	x11,x11,-91
800023c0:	0009c503          	lbu	x10,0(x19)
800023c4:	01059593          	slli	x11,x11,0x10
800023c8:	4105d593          	srai	x11,x11,0x10
800023cc:	dd5fd0ef          	jal	x1,800001a0 <subAndClamp>
800023d0:	00a98023          	sb	x10,0(x19)
800023d4:	001a0a13          	addi	x20,x20,1
800023d8:	00198993          	addi	x19,x19,1
800023dc:	f95910e3          	bne	x18,x21,8000235c <pjpeg_decode_mcu+0x1114>
800023e0:	91cff06f          	jal	x0,800014fc <pjpeg_decode_mcu+0x2b4>
800023e4:	00200713          	addi	x14,x0,2
800023e8:	02e40c63          	beq	x8,x14,80002420 <pjpeg_decode_mcu+0x11d8>
800023ec:	00876863          	bltu	x14,x8,800023fc <pjpeg_decode_mcu+0x11b4>
800023f0:	ec0406e3          	beq	x8,x0,800022bc <pjpeg_decode_mcu+0x1074>
800023f4:	08000513          	addi	x10,x0,128
800023f8:	ec9ff06f          	jal	x0,800022c0 <pjpeg_decode_mcu+0x1078>
800023fc:	00300713          	addi	x14,x0,3
80002400:	8ee41e63          	bne	x8,x14,800014fc <pjpeg_decode_mcu+0x2b4>
80002404:	00000593          	addi	x11,x0,0
80002408:	00000513          	addi	x10,x0,0
8000240c:	cccfe0ef          	jal	x1,800008d8 <upsampleCrV>
80002410:	08000593          	addi	x11,x0,128
80002414:	02000513          	addi	x10,x0,32
80002418:	cc0fe0ef          	jal	x1,800008d8 <upsampleCrV>
8000241c:	8e0ff06f          	jal	x0,800014fc <pjpeg_decode_mcu+0x2b4>
80002420:	00000593          	addi	x11,x0,0
80002424:	00000513          	addi	x10,x0,0
80002428:	878fe0ef          	jal	x1,800004a0 <upsampleCbV>
8000242c:	08000593          	addi	x11,x0,128
80002430:	02000513          	addi	x10,x0,32
80002434:	86cfe0ef          	jal	x1,800004a0 <upsampleCbV>
80002438:	8c4ff06f          	jal	x0,800014fc <pjpeg_decode_mcu+0x2b4>
8000243c:	00200713          	addi	x14,x0,2
80002440:	02e40e63          	beq	x8,x14,8000247c <pjpeg_decode_mcu+0x1234>
80002444:	00876863          	bltu	x14,x8,80002454 <pjpeg_decode_mcu+0x120c>
80002448:	e6040ae3          	beq	x8,x0,800022bc <pjpeg_decode_mcu+0x1074>
8000244c:	04000513          	addi	x10,x0,64
80002450:	e71ff06f          	jal	x0,800022c0 <pjpeg_decode_mcu+0x1078>
80002454:	00300713          	addi	x14,x0,3
80002458:	00e40463          	beq	x8,x14,80002460 <pjpeg_decode_mcu+0x1218>
8000245c:	8a0ff06f          	jal	x0,800014fc <pjpeg_decode_mcu+0x2b4>
80002460:	00000593          	addi	x11,x0,0
80002464:	00000513          	addi	x10,x0,0
80002468:	b14fe0ef          	jal	x1,8000077c <upsampleCrH>
8000246c:	04000593          	addi	x11,x0,64
80002470:	00400513          	addi	x10,x0,4
80002474:	b08fe0ef          	jal	x1,8000077c <upsampleCrH>
80002478:	884ff06f          	jal	x0,800014fc <pjpeg_decode_mcu+0x2b4>
8000247c:	00000593          	addi	x11,x0,0
80002480:	00000513          	addi	x10,x0,0
80002484:	ed5fd0ef          	jal	x1,80000358 <upsampleCbH>
80002488:	04000593          	addi	x11,x0,64
8000248c:	00400513          	addi	x10,x0,4
80002490:	ec9fd0ef          	jal	x1,80000358 <upsampleCbH>
80002494:	868ff06f          	jal	x0,800014fc <pjpeg_decode_mcu+0x2b4>
80002498:	00500713          	addi	x14,x0,5
8000249c:	00877463          	bgeu	x14,x8,800024a4 <pjpeg_decode_mcu+0x125c>
800024a0:	85cff06f          	jal	x0,800014fc <pjpeg_decode_mcu+0x2b4>
800024a4:	801016b7          	lui	x13,0x80101
800024a8:	00241713          	slli	x14,x8,0x2
800024ac:	04068693          	addi	x13,x13,64 # 80101040 <stack_end+0x40>
800024b0:	00d70733          	add	x14,x14,x13
800024b4:	00072703          	lw	x14,0(x14)
800024b8:	00070067          	jalr	x0,0(x14)
800024bc:	0c000513          	addi	x10,x0,192
800024c0:	e01ff06f          	jal	x0,800022c0 <pjpeg_decode_mcu+0x1078>
800024c4:	00000593          	addi	x11,x0,0
800024c8:	00000513          	addi	x10,x0,0
800024cc:	cfdfd0ef          	jal	x1,800001c8 <upsampleCb>
800024d0:	04000593          	addi	x11,x0,64
800024d4:	00400513          	addi	x10,x0,4
800024d8:	cf1fd0ef          	jal	x1,800001c8 <upsampleCb>
800024dc:	08000593          	addi	x11,x0,128
800024e0:	02000513          	addi	x10,x0,32
800024e4:	ce5fd0ef          	jal	x1,800001c8 <upsampleCb>
800024e8:	0c000593          	addi	x11,x0,192
800024ec:	02400513          	addi	x10,x0,36
800024f0:	cd9fd0ef          	jal	x1,800001c8 <upsampleCb>
800024f4:	808ff06f          	jal	x0,800014fc <pjpeg_decode_mcu+0x2b4>
800024f8:	00000593          	addi	x11,x0,0
800024fc:	00000513          	addi	x10,x0,0
80002500:	8d8fe0ef          	jal	x1,800005d8 <upsampleCr>
80002504:	04000593          	addi	x11,x0,64
80002508:	00400513          	addi	x10,x0,4
8000250c:	8ccfe0ef          	jal	x1,800005d8 <upsampleCr>
80002510:	08000593          	addi	x11,x0,128
80002514:	02000513          	addi	x10,x0,32
80002518:	8c0fe0ef          	jal	x1,800005d8 <upsampleCr>
8000251c:	0c000593          	addi	x11,x0,192
80002520:	02400513          	addi	x10,x0,36
80002524:	8b4fe0ef          	jal	x1,800005d8 <upsampleCr>
80002528:	fd5fe06f          	jal	x0,800014fc <pjpeg_decode_mcu+0x2b4>
8000252c:	d56dd783          	lhu	x15,-682(x27)
80002530:	00000513          	addi	x10,x0,0
80002534:	fff78793          	addi	x15,x15,-1
80002538:	d4fd9b23          	sh	x15,-682(x27)
8000253c:	dddfe06f          	jal	x0,80001318 <pjpeg_decode_mcu+0xd0>
80002540:	801026b7          	lui	x13,0x80102
80002544:	d726d783          	lhu	x15,-654(x13) # 80101d72 <gNextRestartNum>
80002548:	0d078713          	addi	x14,x15,208
8000254c:	00e50463          	beq	x10,x14,80002554 <pjpeg_decode_mcu+0x130c>
80002550:	db5fe06f          	jal	x0,80001304 <pjpeg_decode_mcu+0xbc>
80002554:	80102737          	lui	x14,0x80102
80002558:	d8072c23          	sw	x0,-616(x14) # 80101d98 <gLastDC>
8000255c:	d9870713          	addi	x14,x14,-616
80002560:	00071223          	sh	x0,4(x14)
80002564:	d7495703          	lhu	x14,-652(x18)
80002568:	00178793          	addi	x15,x15,1
8000256c:	0077f793          	andi	x15,x15,7
80002570:	d6e49823          	sh	x14,-656(x9)
80002574:	d6f69923          	sh	x15,-654(x13)
80002578:	00800713          	addi	x14,x0,8
8000257c:	801027b7          	lui	x15,0x80102
80002580:	00800513          	addi	x10,x0,8
80002584:	d8e78623          	sb	x14,-628(x15) # 80101d8c <gBitsLeft>
80002588:	f3cfe0ef          	jal	x1,80000cc4 <getBits2>
8000258c:	00800513          	addi	x10,x0,8
80002590:	f34fe0ef          	jal	x1,80000cc4 <getBits2>
80002594:	d704d783          	lhu	x15,-656(x9)
80002598:	fff78793          	addi	x15,x15,-1
8000259c:	d6f49823          	sh	x15,-656(x9)
800025a0:	801027b7          	lui	x15,0x80102
800025a4:	d5078793          	addi	x15,x15,-688 # 80101d50 <gMCUOrg>
800025a8:	00f12823          	sw	x15,16(x2)
800025ac:	80101b37          	lui	x22,0x80101
800025b0:	801017b7          	lui	x15,0x80101
800025b4:	00000413          	addi	x8,x0,0
800025b8:	43478d13          	addi	x26,x15,1076 # 80101434 <gInBuf>
800025bc:	058b0b13          	addi	x22,x22,88 # 80101058 <CSWTCH.299>
800025c0:	80102737          	lui	x14,0x80102
800025c4:	d5e74703          	lbu	x14,-674(x14) # 80101d5e <gMaxBlocksPerMCU>
800025c8:	00e47463          	bgeu	x8,x14,800025d0 <pjpeg_decode_mcu+0x1388>
800025cc:	d89fe06f          	jal	x0,80001354 <pjpeg_decode_mcu+0x10c>
800025d0:	801027b7          	lui	x15,0x80102
800025d4:	d457c783          	lbu	x15,-699(x15) # 80101d45 <gCallbackStatus>
800025d8:	f4078ae3          	beq	x15,x0,8000252c <pjpeg_decode_mcu+0x12e4>
800025dc:	00000793          	addi	x15,x0,0
800025e0:	d29fe06f          	jal	x0,80001308 <pjpeg_decode_mcu+0xc0>
800025e4:	00008067          	jalr	x0,0(x1)

800025e8 <pjpeg_decode_init>:
800025e8:	801027b7          	lui	x15,0x80102
800025ec:	d4b7a623          	sw	x11,-692(x15) # 80101d4c <g_pNeedBytesCallback>
800025f0:	801027b7          	lui	x15,0x80102
800025f4:	fa010113          	addi	x2,x2,-96
800025f8:	d4c7a423          	sw	x12,-696(x15) # 80101d48 <g_pCallback_data>
800025fc:	801027b7          	lui	x15,0x80102
80002600:	04112e23          	sw	x1,92(x2)
80002604:	04812c23          	sw	x8,88(x2)
80002608:	04912a23          	sw	x9,84(x2)
8000260c:	05212823          	sw	x18,80(x2)
80002610:	05312623          	sw	x19,76(x2)
80002614:	05412423          	sw	x20,72(x2)
80002618:	03712e23          	sw	x23,60(x2)
8000261c:	03912a23          	sw	x25,52(x2)
80002620:	03a12823          	sw	x26,48(x2)
80002624:	05512223          	sw	x21,68(x2)
80002628:	05612023          	sw	x22,64(x2)
8000262c:	03812c23          	sw	x24,56(x2)
80002630:	03b12623          	sw	x27,44(x2)
80002634:	d4d78223          	sb	x13,-700(x15) # 80101d44 <gReduce>
80002638:	80102937          	lui	x18,0x80102
8000263c:	801027b7          	lui	x15,0x80102
80002640:	80102d37          	lui	x26,0x80102
80002644:	801024b7          	lui	x9,0x80102
80002648:	801029b7          	lui	x19,0x80102
8000264c:	00052023          	sw	x0,0(x10)
80002650:	00052223          	sw	x0,4(x10)
80002654:	00052423          	sw	x0,8(x10)
80002658:	00052623          	sw	x0,12(x10)
8000265c:	00052823          	sw	x0,16(x10)
80002660:	00052a23          	sw	x0,20(x10)
80002664:	00052c23          	sw	x0,24(x10)
80002668:	00052e23          	sw	x0,28(x10)
8000266c:	02052023          	sw	x0,32(x10)
80002670:	02052223          	sw	x0,36(x10)
80002674:	02052423          	sw	x0,40(x10)
80002678:	d6079a23          	sh	x0,-652(x15) # 80101d74 <gRestartInterval>
8000267c:	d40902a3          	sb	x0,-699(x18) # 80101d45 <gCallbackStatus>
80002680:	801027b7          	lui	x15,0x80102
80002684:	d80d1523          	sh	x0,-630(x26) # 80101d8a <gImageXSize>
80002688:	d8049423          	sh	x0,-632(x9) # 80101d88 <gImageYSize>
8000268c:	d80983a3          	sb	x0,-633(x19) # 80101d87 <gCompsInFrame>
80002690:	80102a37          	lui	x20,0x80102
80002694:	d60a07a3          	sb	x0,-657(x20) # 80101d6f <gCompsInScan>
80002698:	d8078a23          	sb	x0,-620(x15) # 80101d94 <gValidHuffTables>
8000269c:	801027b7          	lui	x15,0x80102
800026a0:	d8078923          	sb	x0,-622(x15) # 80101d92 <gTemFlag>
800026a4:	801027b7          	lui	x15,0x80102
800026a8:	d80788a3          	sb	x0,-623(x15) # 80101d91 <gInBufOfs>
800026ac:	801027b7          	lui	x15,0x80102
800026b0:	00800713          	addi	x14,x0,8
800026b4:	d8078823          	sb	x0,-624(x15) # 80101d90 <gInBufLeft>
800026b8:	00050413          	addi	x8,x10,0
800026bc:	801027b7          	lui	x15,0x80102
800026c0:	80102bb7          	lui	x23,0x80102
800026c4:	80102cb7          	lui	x25,0x80102
800026c8:	00800513          	addi	x10,x0,8
800026cc:	d8e78623          	sb	x14,-628(x15) # 80101d8c <gBitsLeft>
800026d0:	d80b89a3          	sb	x0,-621(x23) # 80101d93 <gValidQuantTables>
800026d4:	d80c9723          	sh	x0,-626(x25) # 80101d8e <gBitBuf>
800026d8:	de4fe0ef          	jal	x1,80000cbc <getBits1>
800026dc:	00800513          	addi	x10,x0,8
800026e0:	ddcfe0ef          	jal	x1,80000cbc <getBits1>
800026e4:	d4594503          	lbu	x10,-699(x18)
800026e8:	04051663          	bne	x10,x0,80002734 <pjpeg_decode_init+0x14c>
800026ec:	00800513          	addi	x10,x0,8
800026f0:	dccfe0ef          	jal	x1,80000cbc <getBits1>
800026f4:	00050c13          	addi	x24,x10,0
800026f8:	00800513          	addi	x10,x0,8
800026fc:	dc0fe0ef          	jal	x1,80000cbc <getBits1>
80002700:	0ffc7c13          	andi	x24,x24,255
80002704:	0ff00793          	addi	x15,x0,255
80002708:	0ff57d93          	andi	x27,x10,255
8000270c:	06fc1263          	bne	x24,x15,80002770 <pjpeg_decode_init+0x188>
80002710:	0d800793          	addi	x15,x0,216
80002714:	04fd9e63          	bne	x27,x15,80002770 <pjpeg_decode_init+0x188>
80002718:	01f10513          	addi	x10,x2,31
8000271c:	f00fe0ef          	jal	x1,80000e1c <processMarkers>
80002720:	00050a93          	addi	x21,x10,0
80002724:	0a050263          	beq	x10,x0,800027c8 <pjpeg_decode_init+0x1e0>
80002728:	d4594503          	lbu	x10,-699(x18)
8000272c:	00051463          	bne	x10,x0,80002734 <pjpeg_decode_init+0x14c>
80002730:	000a8513          	addi	x10,x21,0
80002734:	05c12083          	lw	x1,92(x2)
80002738:	05812403          	lw	x8,88(x2)
8000273c:	05412483          	lw	x9,84(x2)
80002740:	05012903          	lw	x18,80(x2)
80002744:	04c12983          	lw	x19,76(x2)
80002748:	04812a03          	lw	x20,72(x2)
8000274c:	04412a83          	lw	x21,68(x2)
80002750:	04012b03          	lw	x22,64(x2)
80002754:	03c12b83          	lw	x23,60(x2)
80002758:	03812c03          	lw	x24,56(x2)
8000275c:	03412c83          	lw	x25,52(x2)
80002760:	03012d03          	lw	x26,48(x2)
80002764:	02c12d83          	lw	x27,44(x2)
80002768:	06010113          	addi	x2,x2,96
8000276c:	00008067          	jalr	x0,0(x1)
80002770:	00001c37          	lui	x24,0x1
80002774:	fffc0c13          	addi	x24,x24,-1 # fff <_heap_size+0xfff>
80002778:	0ff00a93          	addi	x21,x0,255
8000277c:	0d900b13          	addi	x22,x0,217
80002780:	00800513          	addi	x10,x0,8
80002784:	d38fe0ef          	jal	x1,80000cbc <getBits1>
80002788:	000d8613          	addi	x12,x27,0
8000278c:	0d800693          	addi	x13,x0,216
80002790:	0ff57d93          	andi	x27,x10,255
80002794:	01561663          	bne	x12,x21,800027a0 <pjpeg_decode_init+0x1b8>
80002798:	02dd8063          	beq	x27,x13,800027b8 <pjpeg_decode_init+0x1d0>
8000279c:	016d8a63          	beq	x27,x22,800027b0 <pjpeg_decode_init+0x1c8>
800027a0:	fffc0c13          	addi	x24,x24,-1
800027a4:	010c1c13          	slli	x24,x24,0x10
800027a8:	010c5c13          	srli	x24,x24,0x10
800027ac:	fc0c1ae3          	bne	x24,x0,80002780 <pjpeg_decode_init+0x198>
800027b0:	01300a93          	addi	x21,x0,19
800027b4:	f75ff06f          	jal	x0,80002728 <pjpeg_decode_init+0x140>
800027b8:	d8ecd783          	lhu	x15,-626(x25)
800027bc:	0087d793          	srli	x15,x15,0x8
800027c0:	f5578ce3          	beq	x15,x21,80002718 <pjpeg_decode_init+0x130>
800027c4:	fedff06f          	jal	x0,800027b0 <pjpeg_decode_init+0x1c8>
800027c8:	01f14783          	lbu	x15,31(x2)
800027cc:	0c200693          	addi	x13,x0,194
800027d0:	24d78863          	beq	x15,x13,80002a20 <pjpeg_decode_init+0x438>
800027d4:	0c900693          	addi	x13,x0,201
800027d8:	22d78c63          	beq	x15,x13,80002a10 <pjpeg_decode_init+0x428>
800027dc:	0c000693          	addi	x13,x0,192
800027e0:	22d79463          	bne	x15,x13,80002a08 <pjpeg_decode_init+0x420>
800027e4:	01000513          	addi	x10,x0,16
800027e8:	cd4fe0ef          	jal	x1,80000cbc <getBits1>
800027ec:	00050c13          	addi	x24,x10,0
800027f0:	00800513          	addi	x10,x0,8
800027f4:	cc8fe0ef          	jal	x1,80000cbc <getBits1>
800027f8:	00800793          	addi	x15,x0,8
800027fc:	00f50663          	beq	x10,x15,80002808 <pjpeg_decode_init+0x220>
80002800:	00700a93          	addi	x21,x0,7
80002804:	f25ff06f          	jal	x0,80002728 <pjpeg_decode_init+0x140>
80002808:	01000513          	addi	x10,x0,16
8000280c:	cb0fe0ef          	jal	x1,80000cbc <getBits1>
80002810:	fff50793          	addi	x15,x10,-1
80002814:	01079793          	slli	x15,x15,0x10
80002818:	d8a49423          	sh	x10,-632(x9)
8000281c:	0107d793          	srli	x15,x15,0x10
80002820:	00004cb7          	lui	x25,0x4
80002824:	1f97fa63          	bgeu	x15,x25,80002a18 <pjpeg_decode_init+0x430>
80002828:	01000513          	addi	x10,x0,16
8000282c:	c90fe0ef          	jal	x1,80000cbc <getBits1>
80002830:	fff50793          	addi	x15,x10,-1
80002834:	01079793          	slli	x15,x15,0x10
80002838:	d8ad1523          	sh	x10,-630(x26)
8000283c:	0107d793          	srli	x15,x15,0x10
80002840:	0197e663          	bltu	x15,x25,8000284c <pjpeg_decode_init+0x264>
80002844:	00900a93          	addi	x21,x0,9
80002848:	ee1ff06f          	jal	x0,80002728 <pjpeg_decode_init+0x140>
8000284c:	00800513          	addi	x10,x0,8
80002850:	c6cfe0ef          	jal	x1,80000cbc <getBits1>
80002854:	0ff57793          	andi	x15,x10,255
80002858:	d8f983a3          	sb	x15,-633(x19)
8000285c:	00300693          	addi	x13,x0,3
80002860:	00f6f663          	bgeu	x13,x15,8000286c <pjpeg_decode_init+0x284>
80002864:	00a00a93          	addi	x21,x0,10
80002868:	ec1ff06f          	jal	x0,80002728 <pjpeg_decode_init+0x140>
8000286c:	00179693          	slli	x13,x15,0x1
80002870:	00f686b3          	add	x13,x13,x15
80002874:	00868693          	addi	x13,x13,8
80002878:	00000b13          	addi	x22,x0,0
8000287c:	12dc1263          	bne	x24,x13,800029a0 <pjpeg_decode_init+0x3b8>
80002880:	80102c37          	lui	x24,0x80102
80002884:	80102cb7          	lui	x25,0x80102
80002888:	80102db7          	lui	x27,0x80102
8000288c:	d84c0c13          	addi	x24,x24,-636 # 80101d84 <gCompIdent>
80002890:	d80c8c93          	addi	x25,x25,-640 # 80101d80 <gCompHSamp>
80002894:	d7cd8d93          	addi	x27,x27,-644 # 80101d7c <gCompVSamp>
80002898:	d879c603          	lbu	x12,-633(x19)
8000289c:	10cb6663          	bltu	x22,x12,800029a8 <pjpeg_decode_init+0x3c0>
800028a0:	d4594783          	lbu	x15,-699(x18)
800028a4:	180a9663          	bne	x21,x0,80002a30 <pjpeg_decode_init+0x448>
800028a8:	e80790e3          	bne	x15,x0,80002728 <pjpeg_decode_init+0x140>
800028ac:	d879c783          	lbu	x15,-633(x19)
800028b0:	00100693          	addi	x13,x0,1
800028b4:	18d79263          	bne	x15,x13,80002a38 <pjpeg_decode_init+0x450>
800028b8:	80102737          	lui	x14,0x80102
800028bc:	d8074703          	lbu	x14,-640(x14) # 80101d80 <gCompHSamp>
800028c0:	01b00513          	addi	x10,x0,27
800028c4:	e6f718e3          	bne	x14,x15,80002734 <pjpeg_decode_init+0x14c>
800028c8:	801027b7          	lui	x15,0x80102
800028cc:	d7c7c783          	lbu	x15,-644(x15) # 80101d7c <gCompVSamp>
800028d0:	e6e792e3          	bne	x15,x14,80002734 <pjpeg_decode_init+0x14c>
800028d4:	80102737          	lui	x14,0x80102
800028d8:	d6072023          	sw	x0,-672(x14) # 80101d60 <gScanType>
800028dc:	80102737          	lui	x14,0x80102
800028e0:	d4f70f23          	sb	x15,-674(x14) # 80101d5e <gMaxBlocksPerMCU>
800028e4:	801027b7          	lui	x15,0x80102
800028e8:	d4078823          	sb	x0,-688(x15) # 80101d50 <gMCUOrg>
800028ec:	00800713          	addi	x14,x0,8
800028f0:	00800793          	addi	x15,x0,8
800028f4:	d8ad5503          	lhu	x10,-630(x26)
800028f8:	80102c37          	lui	x24,0x80102
800028fc:	80102cb7          	lui	x25,0x80102
80002900:	fff70693          	addi	x13,x14,-1
80002904:	d4ec0ea3          	sb	x14,-675(x24) # 80101d5d <gMaxMCUXSize>
80002908:	d4fc8e23          	sb	x15,-676(x25) # 80101d5c <gMaxMCUYSize>
8000290c:	00800613          	addi	x12,x0,8
80002910:	00d50533          	add	x10,x10,x13
80002914:	00400693          	addi	x13,x0,4
80002918:	00c71463          	bne	x14,x12,80002920 <pjpeg_decode_init+0x338>
8000291c:	00300693          	addi	x13,x0,3
80002920:	40d55533          	sra	x10,x10,x13
80002924:	d884d583          	lhu	x11,-632(x9)
80002928:	01051513          	slli	x10,x10,0x10
8000292c:	01055513          	srli	x10,x10,0x10
80002930:	80102d37          	lui	x26,0x80102
80002934:	fff78713          	addi	x14,x15,-1
80002938:	d4ad1d23          	sh	x10,-678(x26) # 80101d5a <gMaxMCUSPerRow>
8000293c:	00800693          	addi	x13,x0,8
80002940:	00e585b3          	add	x11,x11,x14
80002944:	00400713          	addi	x14,x0,4
80002948:	00d79463          	bne	x15,x13,80002950 <pjpeg_decode_init+0x368>
8000294c:	00300713          	addi	x14,x0,3
80002950:	40e5d5b3          	sra	x11,x11,x14
80002954:	01059593          	slli	x11,x11,0x10
80002958:	0105d593          	srli	x11,x11,0x10
8000295c:	80102db7          	lui	x27,0x80102
80002960:	d4bd9c23          	sh	x11,-680(x27) # 80101d58 <gMaxMCUSPerCol>
80002964:	6f4000ef          	jal	x1,80003058 <__mulsi3>
80002968:	801027b7          	lui	x15,0x80102
8000296c:	d4a79b23          	sh	x10,-682(x15) # 80101d56 <gNumMCUSRemaining>
80002970:	01f10513          	addi	x10,x2,31
80002974:	ca8fe0ef          	jal	x1,80000e1c <processMarkers>
80002978:	00050493          	addi	x9,x10,0
8000297c:	00051a63          	bne	x10,x0,80002990 <pjpeg_decode_init+0x3a8>
80002980:	01f14703          	lbu	x14,31(x2)
80002984:	0da00793          	addi	x15,x0,218
80002988:	1ef70a63          	beq	x14,x15,80002b7c <pjpeg_decode_init+0x594>
8000298c:	01200493          	addi	x9,x0,18
80002990:	d4594503          	lbu	x10,-699(x18)
80002994:	da0510e3          	bne	x10,x0,80002734 <pjpeg_decode_init+0x14c>
80002998:	00048513          	addi	x10,x9,0
8000299c:	d99ff06f          	jal	x0,80002734 <pjpeg_decode_init+0x14c>
800029a0:	00b00a93          	addi	x21,x0,11
800029a4:	d85ff06f          	jal	x0,80002728 <pjpeg_decode_init+0x140>
800029a8:	00800513          	addi	x10,x0,8
800029ac:	b10fe0ef          	jal	x1,80000cbc <getBits1>
800029b0:	018b0633          	add	x12,x22,x24
800029b4:	00a60023          	sb	x10,0(x12)
800029b8:	00400513          	addi	x10,x0,4
800029bc:	b00fe0ef          	jal	x1,80000cbc <getBits1>
800029c0:	019b0633          	add	x12,x22,x25
800029c4:	00a60023          	sb	x10,0(x12)
800029c8:	00400513          	addi	x10,x0,4
800029cc:	af0fe0ef          	jal	x1,80000cbc <getBits1>
800029d0:	01bb0633          	add	x12,x22,x27
800029d4:	00a60023          	sb	x10,0(x12)
800029d8:	00800513          	addi	x10,x0,8
800029dc:	ae0fe0ef          	jal	x1,80000cbc <getBits1>
800029e0:	801027b7          	lui	x15,0x80102
800029e4:	d7878693          	addi	x13,x15,-648 # 80101d78 <gCompQuant>
800029e8:	00db0633          	add	x12,x22,x13
800029ec:	0ff57513          	andi	x10,x10,255
800029f0:	00a60023          	sb	x10,0(x12)
800029f4:	00100613          	addi	x12,x0,1
800029f8:	02a66863          	bltu	x12,x10,80002a28 <pjpeg_decode_init+0x440>
800029fc:	001b0793          	addi	x15,x22,1
80002a00:	0ff7fb13          	andi	x22,x15,255
80002a04:	e95ff06f          	jal	x0,80002898 <pjpeg_decode_init+0x2b0>
80002a08:	01400a93          	addi	x21,x0,20
80002a0c:	d1dff06f          	jal	x0,80002728 <pjpeg_decode_init+0x140>
80002a10:	01100a93          	addi	x21,x0,17
80002a14:	d15ff06f          	jal	x0,80002728 <pjpeg_decode_init+0x140>
80002a18:	00800a93          	addi	x21,x0,8
80002a1c:	d0dff06f          	jal	x0,80002728 <pjpeg_decode_init+0x140>
80002a20:	02500a93          	addi	x21,x0,37
80002a24:	d05ff06f          	jal	x0,80002728 <pjpeg_decode_init+0x140>
80002a28:	02400a93          	addi	x21,x0,36
80002a2c:	e75ff06f          	jal	x0,800028a0 <pjpeg_decode_init+0x2b8>
80002a30:	02400a93          	addi	x21,x0,36
80002a34:	cf5ff06f          	jal	x0,80002728 <pjpeg_decode_init+0x140>
80002a38:	00300713          	addi	x14,x0,3
80002a3c:	01a00513          	addi	x10,x0,26
80002a40:	cee79ae3          	bne	x15,x14,80002734 <pjpeg_decode_init+0x14c>
80002a44:	80102737          	lui	x14,0x80102
80002a48:	d8070613          	addi	x12,x14,-640 # 80101d80 <gCompHSamp>
80002a4c:	00164803          	lbu	x16,1(x12)
80002a50:	01b00513          	addi	x10,x0,27
80002a54:	ced810e3          	bne	x16,x13,80002734 <pjpeg_decode_init+0x14c>
80002a58:	801027b7          	lui	x15,0x80102
80002a5c:	d7c78693          	addi	x13,x15,-644 # 80101d7c <gCompVSamp>
80002a60:	0016c583          	lbu	x11,1(x13)
80002a64:	cd0598e3          	bne	x11,x16,80002734 <pjpeg_decode_init+0x14c>
80002a68:	00264603          	lbu	x12,2(x12)
80002a6c:	ccb614e3          	bne	x12,x11,80002734 <pjpeg_decode_init+0x14c>
80002a70:	0026c683          	lbu	x13,2(x13)
80002a74:	ccc690e3          	bne	x13,x12,80002734 <pjpeg_decode_init+0x14c>
80002a78:	d8074703          	lbu	x14,-640(x14)
80002a7c:	06d71e63          	bne	x14,x13,80002af8 <pjpeg_decode_init+0x510>
80002a80:	d7c7c783          	lbu	x15,-644(x15)
80002a84:	02e79c63          	bne	x15,x14,80002abc <pjpeg_decode_init+0x4d4>
80002a88:	801027b7          	lui	x15,0x80102
80002a8c:	00100713          	addi	x14,x0,1
80002a90:	d6e7a023          	sw	x14,-672(x15) # 80101d60 <gScanType>
80002a94:	801027b7          	lui	x15,0x80102
80002a98:	00300713          	addi	x14,x0,3
80002a9c:	d4e78f23          	sb	x14,-674(x15) # 80101d5e <gMaxBlocksPerMCU>
80002aa0:	801027b7          	lui	x15,0x80102
80002aa4:	10000713          	addi	x14,x0,256
80002aa8:	d4e79823          	sh	x14,-688(x15) # 80101d50 <gMCUOrg>
80002aac:	d5078793          	addi	x15,x15,-688
80002ab0:	00200713          	addi	x14,x0,2
80002ab4:	00e78123          	sb	x14,2(x15)
80002ab8:	e35ff06f          	jal	x0,800028ec <pjpeg_decode_init+0x304>
80002abc:	00200713          	addi	x14,x0,2
80002ac0:	01b00513          	addi	x10,x0,27
80002ac4:	c6e798e3          	bne	x15,x14,80002734 <pjpeg_decode_init+0x14c>
80002ac8:	801027b7          	lui	x15,0x80102
80002acc:	00300713          	addi	x14,x0,3
80002ad0:	d6e7a023          	sw	x14,-672(x15) # 80101d60 <gScanType>
80002ad4:	801027b7          	lui	x15,0x80102
80002ad8:	00400713          	addi	x14,x0,4
80002adc:	d4e78f23          	sb	x14,-674(x15) # 80101d5e <gMaxBlocksPerMCU>
80002ae0:	02010737          	lui	x14,0x2010
80002ae4:	801027b7          	lui	x15,0x80102
80002ae8:	d4e7a823          	sw	x14,-688(x15) # 80101d50 <gMCUOrg>
80002aec:	00800713          	addi	x14,x0,8
80002af0:	01000793          	addi	x15,x0,16
80002af4:	e01ff06f          	jal	x0,800028f4 <pjpeg_decode_init+0x30c>
80002af8:	00200693          	addi	x13,x0,2
80002afc:	01b00513          	addi	x10,x0,27
80002b00:	c2d71ae3          	bne	x14,x13,80002734 <pjpeg_decode_init+0x14c>
80002b04:	d7c7c783          	lbu	x15,-644(x15)
80002b08:	00100713          	addi	x14,x0,1
80002b0c:	02e79863          	bne	x15,x14,80002b3c <pjpeg_decode_init+0x554>
80002b10:	801027b7          	lui	x15,0x80102
80002b14:	00200713          	addi	x14,x0,2
80002b18:	d6e7a023          	sw	x14,-672(x15) # 80101d60 <gScanType>
80002b1c:	801027b7          	lui	x15,0x80102
80002b20:	00400713          	addi	x14,x0,4
80002b24:	d4e78f23          	sb	x14,-674(x15) # 80101d5e <gMaxBlocksPerMCU>
80002b28:	02010737          	lui	x14,0x2010
80002b2c:	801027b7          	lui	x15,0x80102
80002b30:	d4e7a823          	sw	x14,-688(x15) # 80101d50 <gMCUOrg>
80002b34:	01000713          	addi	x14,x0,16
80002b38:	db9ff06f          	jal	x0,800028f0 <pjpeg_decode_init+0x308>
80002b3c:	00200713          	addi	x14,x0,2
80002b40:	01b00513          	addi	x10,x0,27
80002b44:	bee798e3          	bne	x15,x14,80002734 <pjpeg_decode_init+0x14c>
80002b48:	801027b7          	lui	x15,0x80102
80002b4c:	00400713          	addi	x14,x0,4
80002b50:	d6e7a023          	sw	x14,-672(x15) # 80101d60 <gScanType>
80002b54:	801027b7          	lui	x15,0x80102
80002b58:	00600713          	addi	x14,x0,6
80002b5c:	d4e78f23          	sb	x14,-674(x15) # 80101d5e <gMaxBlocksPerMCU>
80002b60:	801027b7          	lui	x15,0x80102
80002b64:	20100713          	addi	x14,x0,513
80002b68:	d407a823          	sw	x0,-688(x15) # 80101d50 <gMCUOrg>
80002b6c:	d5078793          	addi	x15,x15,-688
80002b70:	00e79223          	sh	x14,4(x15)
80002b74:	01000713          	addi	x14,x0,16
80002b78:	f79ff06f          	jal	x0,80002af0 <pjpeg_decode_init+0x508>
80002b7c:	01000513          	addi	x10,x0,16
80002b80:	93cfe0ef          	jal	x1,80000cbc <getBits1>
80002b84:	00050a93          	addi	x21,x10,0
80002b88:	00800513          	addi	x10,x0,8
80002b8c:	930fe0ef          	jal	x1,80000cbc <getBits1>
80002b90:	0ff57713          	andi	x14,x10,255
80002b94:	ffda8793          	addi	x15,x21,-3
80002b98:	01079a93          	slli	x21,x15,0x10
80002b9c:	00171693          	slli	x13,x14,0x1
80002ba0:	d6ea07a3          	sb	x14,-657(x20)
80002ba4:	010ada93          	srli	x21,x21,0x10
80002ba8:	00368693          	addi	x13,x13,3
80002bac:	00da8663          	beq	x21,x13,80002bb8 <pjpeg_decode_init+0x5d0>
80002bb0:	00e00493          	addi	x9,x0,14
80002bb4:	dddff06f          	jal	x0,80002990 <pjpeg_decode_init+0x3a8>
80002bb8:	fff70713          	addi	x14,x14,-1 # 200ffff <_stack_size+0x200efff>
80002bbc:	0ff77713          	andi	x14,x14,255
80002bc0:	00200693          	addi	x13,x0,2
80002bc4:	fee6e6e3          	bltu	x13,x14,80002bb0 <pjpeg_decode_init+0x5c8>
80002bc8:	00000693          	addi	x13,x0,0
80002bcc:	d6fa4703          	lbu	x14,-657(x20)
80002bd0:	08e6ea63          	bltu	x13,x14,80002c64 <pjpeg_decode_init+0x67c>
80002bd4:	00800513          	addi	x10,x0,8
80002bd8:	8e4fe0ef          	jal	x1,80000cbc <getBits1>
80002bdc:	80102737          	lui	x14,0x80102
80002be0:	0ff57513          	andi	x10,x10,255
80002be4:	d4a701a3          	sb	x10,-701(x14) # 80101d43 <spectral_start>
80002be8:	00800513          	addi	x10,x0,8
80002bec:	8d0fe0ef          	jal	x1,80000cbc <getBits1>
80002bf0:	80102737          	lui	x14,0x80102
80002bf4:	0ff57513          	andi	x10,x10,255
80002bf8:	d4a70123          	sb	x10,-702(x14) # 80101d42 <spectral_end>
80002bfc:	00400513          	addi	x10,x0,4
80002c00:	8bcfe0ef          	jal	x1,80000cbc <getBits1>
80002c04:	80102737          	lui	x14,0x80102
80002c08:	0ff57513          	andi	x10,x10,255
80002c0c:	d4a700a3          	sb	x10,-703(x14) # 80101d41 <successive_high>
80002c10:	00400513          	addi	x10,x0,4
80002c14:	8a8fe0ef          	jal	x1,80000cbc <getBits1>
80002c18:	0ff57513          	andi	x10,x10,255
80002c1c:	80102737          	lui	x14,0x80102
80002c20:	ffda8793          	addi	x15,x21,-3
80002c24:	d4a70023          	sb	x10,-704(x14) # 80101d40 <successive_low>
80002c28:	01079993          	slli	x19,x15,0x10
80002c2c:	0109d993          	srli	x19,x19,0x10
80002c30:	0e099263          	bne	x19,x0,80002d14 <pjpeg_decode_init+0x72c>
80002c34:	801027b7          	lui	x15,0x80102
80002c38:	801028b7          	lui	x17,0x80102
80002c3c:	80102537          	lui	x10,0x80102
80002c40:	80102637          	lui	x12,0x80102
80002c44:	d6fa4583          	lbu	x11,-657(x20)
80002c48:	d947c303          	lbu	x6,-620(x15) # 80101d94 <gValidHuffTables>
80002c4c:	00000693          	addi	x13,x0,0
80002c50:	d6c88893          	addi	x17,x17,-660 # 80101d6c <gCompList>
80002c54:	d6450513          	addi	x10,x10,-668 # 80101d64 <gCompACTab>
80002c58:	00100813          	addi	x16,x0,1
80002c5c:	d6860613          	addi	x12,x12,-664 # 80101d68 <gCompDCTab>
80002c60:	0fc0006f          	jal	x0,80002d5c <pjpeg_decode_init+0x774>
80002c64:	00800513          	addi	x10,x0,8
80002c68:	00d12623          	sw	x13,12(x2)
80002c6c:	850fe0ef          	jal	x1,80000cbc <getBits1>
80002c70:	0ff57313          	andi	x6,x10,255
80002c74:	00800513          	addi	x10,x0,8
80002c78:	00612423          	sw	x6,8(x2)
80002c7c:	840fe0ef          	jal	x1,80000cbc <getBits1>
80002c80:	ffea8793          	addi	x15,x21,-2
80002c84:	01079a93          	slli	x21,x15,0x10
80002c88:	801027b7          	lui	x15,0x80102
80002c8c:	d8478593          	addi	x11,x15,-636 # 80101d84 <gCompIdent>
80002c90:	d879cf03          	lbu	x30,-633(x19)
80002c94:	801027b7          	lui	x15,0x80102
80002c98:	00812303          	lw	x6,8(x2)
80002c9c:	00c12683          	lw	x13,12(x2)
80002ca0:	d6c78813          	addi	x16,x15,-660 # 80101d6c <gCompList>
80002ca4:	801027b7          	lui	x15,0x80102
80002ca8:	0ff57613          	andi	x12,x10,255
80002cac:	010ada93          	srli	x21,x21,0x10
80002cb0:	00000713          	addi	x14,x0,0
80002cb4:	d6878893          	addi	x17,x15,-664 # 80101d68 <gCompDCTab>
80002cb8:	80102eb7          	lui	x29,0x80102
80002cbc:	0ff77513          	andi	x10,x14,255
80002cc0:	01e56663          	bltu	x10,x30,80002ccc <pjpeg_decode_init+0x6e4>
80002cc4:	00f00493          	addi	x9,x0,15
80002cc8:	cc9ff06f          	jal	x0,80002990 <pjpeg_decode_init+0x3a8>
80002ccc:	00170e13          	addi	x28,x14,1
80002cd0:	00be0fb3          	add	x31,x28,x11
80002cd4:	ffffcf83          	lbu	x31,-1(x31)
80002cd8:	006f8663          	beq	x31,x6,80002ce4 <pjpeg_decode_init+0x6fc>
80002cdc:	000e0713          	addi	x14,x28,0
80002ce0:	fddff06f          	jal	x0,80002cbc <pjpeg_decode_init+0x6d4>
80002ce4:	01068333          	add	x6,x13,x16
80002ce8:	00a30023          	sb	x10,0(x6)
80002cec:	01170533          	add	x10,x14,x17
80002cf0:	00465313          	srli	x6,x12,0x4
80002cf4:	00650023          	sb	x6,0(x10)
80002cf8:	d64e8513          	addi	x10,x29,-668 # 80101d64 <gCompACTab>
80002cfc:	00a70733          	add	x14,x14,x10
80002d00:	00f67613          	andi	x12,x12,15
80002d04:	00168693          	addi	x13,x13,1
80002d08:	00c70023          	sb	x12,0(x14)
80002d0c:	0ff6f693          	andi	x13,x13,255
80002d10:	ebdff06f          	jal	x0,80002bcc <pjpeg_decode_init+0x5e4>
80002d14:	00800513          	addi	x10,x0,8
80002d18:	fff98993          	addi	x19,x19,-1
80002d1c:	fa1fd0ef          	jal	x1,80000cbc <getBits1>
80002d20:	01099993          	slli	x19,x19,0x10
80002d24:	f09ff06f          	jal	x0,80002c2c <pjpeg_decode_init+0x644>
80002d28:	011687b3          	add	x15,x13,x17
80002d2c:	0007c703          	lbu	x14,0(x15)
80002d30:	00168693          	addi	x13,x13,1
80002d34:	00a707b3          	add	x15,x14,x10
80002d38:	0007c783          	lbu	x15,0(x15)
80002d3c:	00c70733          	add	x14,x14,x12
80002d40:	00074703          	lbu	x14,0(x14)
80002d44:	00278793          	addi	x15,x15,2
80002d48:	00f817b3          	sll	x15,x16,x15
80002d4c:	00e81733          	sll	x14,x16,x14
80002d50:	00e7e7b3          	or	x15,x15,x14
80002d54:	00f37733          	and	x14,x6,x15
80002d58:	12f71e63          	bne	x14,x15,80002e94 <pjpeg_decode_init+0x8ac>
80002d5c:	0ff6f793          	andi	x15,x13,255
80002d60:	fcb7e4e3          	bltu	x15,x11,80002d28 <pjpeg_decode_init+0x740>
80002d64:	80102637          	lui	x12,0x80102
80002d68:	801026b7          	lui	x13,0x80102
80002d6c:	d93bc503          	lbu	x10,-621(x23)
80002d70:	00000713          	addi	x14,x0,0
80002d74:	d6c60613          	addi	x12,x12,-660 # 80101d6c <gCompList>
80002d78:	d7868693          	addi	x13,x13,-648 # 80101d78 <gCompQuant>
80002d7c:	0280006f          	jal	x0,80002da4 <pjpeg_decode_init+0x7bc>
80002d80:	00c707b3          	add	x15,x14,x12
80002d84:	0007c783          	lbu	x15,0(x15)
80002d88:	00170713          	addi	x14,x14,1
80002d8c:	00d787b3          	add	x15,x15,x13
80002d90:	0007c783          	lbu	x15,0(x15)
80002d94:	00f037b3          	sltu	x15,x0,x15
80002d98:	00178793          	addi	x15,x15,1
80002d9c:	00f577b3          	and	x15,x10,x15
80002da0:	0e078e63          	beq	x15,x0,80002e9c <pjpeg_decode_init+0x8b4>
80002da4:	0ff77793          	andi	x15,x14,255
80002da8:	fcb7ece3          	bltu	x15,x11,80002d80 <pjpeg_decode_init+0x798>
80002dac:	801027b7          	lui	x15,0x80102
80002db0:	d807ac23          	sw	x0,-616(x15) # 80101d98 <gLastDC>
80002db4:	d9878793          	addi	x15,x15,-616
80002db8:	00079223          	sh	x0,4(x15)
80002dbc:	801027b7          	lui	x15,0x80102
80002dc0:	d747d783          	lhu	x15,-652(x15) # 80101d74 <gRestartInterval>
80002dc4:	00078a63          	beq	x15,x0,80002dd8 <pjpeg_decode_init+0x7f0>
80002dc8:	80102737          	lui	x14,0x80102
80002dcc:	d6f71823          	sh	x15,-656(x14) # 80101d70 <gRestartsLeft>
80002dd0:	801027b7          	lui	x15,0x80102
80002dd4:	d6079923          	sh	x0,-654(x15) # 80101d72 <gNextRestartNum>
80002dd8:	801027b7          	lui	x15,0x80102
80002ddc:	801029b7          	lui	x19,0x80102
80002de0:	d8e7da03          	lhu	x20,-626(x15) # 80101d8e <gBitBuf>
80002de4:	d8c9c783          	lbu	x15,-628(x19) # 80101d8c <gBitsLeft>
80002de8:	00078663          	beq	x15,x0,80002df4 <pjpeg_decode_init+0x80c>
80002dec:	0ffa7513          	andi	x10,x20,255
80002df0:	af4fd0ef          	jal	x1,800000e4 <stuffChar>
80002df4:	008a5513          	srli	x10,x20,0x8
80002df8:	aecfd0ef          	jal	x1,800000e4 <stuffChar>
80002dfc:	00800793          	addi	x15,x0,8
80002e00:	00800513          	addi	x10,x0,8
80002e04:	d8f98623          	sb	x15,-628(x19)
80002e08:	ebdfd0ef          	jal	x1,80000cc4 <getBits2>
80002e0c:	00800513          	addi	x10,x0,8
80002e10:	eb5fd0ef          	jal	x1,80000cc4 <getBits2>
80002e14:	801027b7          	lui	x15,0x80102
80002e18:	d457c503          	lbu	x10,-699(x15) # 80101d45 <gCallbackStatus>
80002e1c:	b6051ae3          	bne	x10,x0,80002990 <pjpeg_decode_init+0x3a8>
80002e20:	801027b7          	lui	x15,0x80102
80002e24:	d8a7d783          	lhu	x15,-630(x15) # 80101d8a <gImageXSize>
80002e28:	00f42023          	sw	x15,0(x8)
80002e2c:	801027b7          	lui	x15,0x80102
80002e30:	d887d783          	lhu	x15,-632(x15) # 80101d88 <gImageYSize>
80002e34:	00f42223          	sw	x15,4(x8)
80002e38:	801027b7          	lui	x15,0x80102
80002e3c:	d877c783          	lbu	x15,-633(x15) # 80101d87 <gCompsInFrame>
80002e40:	00f42423          	sw	x15,8(x8)
80002e44:	801027b7          	lui	x15,0x80102
80002e48:	d607a783          	lw	x15,-672(x15) # 80101d60 <gScanType>
80002e4c:	00f42a23          	sw	x15,20(x8)
80002e50:	d5ad5783          	lhu	x15,-678(x26)
80002e54:	00f42623          	sw	x15,12(x8)
80002e58:	d58dd783          	lhu	x15,-680(x27)
80002e5c:	00f42823          	sw	x15,16(x8)
80002e60:	d5dc4783          	lbu	x15,-675(x24)
80002e64:	00f42c23          	sw	x15,24(x8)
80002e68:	d5ccc783          	lbu	x15,-676(x25)
80002e6c:	00f42e23          	sw	x15,28(x8)
80002e70:	801017b7          	lui	x15,0x80101
80002e74:	43478793          	addi	x15,x15,1076 # 80101434 <gInBuf>
80002e78:	38078713          	addi	x14,x15,896
80002e7c:	02e42023          	sw	x14,32(x8)
80002e80:	18078713          	addi	x14,x15,384
80002e84:	28078793          	addi	x15,x15,640
80002e88:	02e42223          	sw	x14,36(x8)
80002e8c:	02f42423          	sw	x15,40(x8)
80002e90:	8a5ff06f          	jal	x0,80002734 <pjpeg_decode_init+0x14c>
80002e94:	01800493          	addi	x9,x0,24
80002e98:	af9ff06f          	jal	x0,80002990 <pjpeg_decode_init+0x3a8>
80002e9c:	01700493          	addi	x9,x0,23
80002ea0:	af1ff06f          	jal	x0,80002990 <pjpeg_decode_init+0x3a8>

80002ea4 <pjpeg_need_bytes_callback>:
80002ea4:	ff010113          	addi	x2,x2,-16
80002ea8:	00912223          	sw	x9,4(x2)
80002eac:	801024b7          	lui	x9,0x80102
80002eb0:	da04a703          	lw	x14,-608(x9) # 80101da0 <jpeg_off>
80002eb4:	00812423          	sw	x8,8(x2)
80002eb8:	23a00413          	addi	x8,x0,570
80002ebc:	01212023          	sw	x18,0(x2)
80002ec0:	00112623          	sw	x1,12(x2)
80002ec4:	40e40433          	sub	x8,x8,x14
80002ec8:	00060913          	addi	x18,x12,0
80002ecc:	0085f463          	bgeu	x11,x8,80002ed4 <pjpeg_need_bytes_callback+0x30>
80002ed0:	00058413          	addi	x8,x11,0
80002ed4:	801017b7          	lui	x15,0x80101
80002ed8:	13878793          	addi	x15,x15,312 # 80101138 <jpeg_data>
80002edc:	00040613          	addi	x12,x8,0
80002ee0:	00e785b3          	add	x11,x15,x14
80002ee4:	214000ef          	jal	x1,800030f8 <memcpy>
80002ee8:	00890023          	sb	x8,0(x18)
80002eec:	da04a783          	lw	x15,-608(x9)
80002ef0:	00c12083          	lw	x1,12(x2)
80002ef4:	00012903          	lw	x18,0(x2)
80002ef8:	008787b3          	add	x15,x15,x8
80002efc:	00812403          	lw	x8,8(x2)
80002f00:	daf4a023          	sw	x15,-608(x9)
80002f04:	00000513          	addi	x10,x0,0
80002f08:	00412483          	lw	x9,4(x2)
80002f0c:	01010113          	addi	x2,x2,16
80002f10:	00008067          	jalr	x0,0(x1)

80002f14 <benchmark_body>:
80002f14:	fe010113          	addi	x2,x2,-32
80002f18:	00812c23          	sw	x8,24(x2)
80002f1c:	00912a23          	sw	x9,20(x2)
80002f20:	01212823          	sw	x18,16(x2)
80002f24:	01312623          	sw	x19,12(x2)
80002f28:	01412423          	sw	x20,8(x2)
80002f2c:	01512223          	sw	x21,4(x2)
80002f30:	00112e23          	sw	x1,28(x2)
80002f34:	00050413          	addi	x8,x10,0
80002f38:	00000493          	addi	x9,x0,0
80002f3c:	80102937          	lui	x18,0x80102
80002f40:	801029b7          	lui	x19,0x80102
80002f44:	80003a37          	lui	x20,0x80003
80002f48:	00100a93          	addi	x21,x0,1
80002f4c:	0284c663          	blt	x9,x8,80002f78 <benchmark_body+0x64>
80002f50:	01c12083          	lw	x1,28(x2)
80002f54:	01812403          	lw	x8,24(x2)
80002f58:	01412483          	lw	x9,20(x2)
80002f5c:	01012903          	lw	x18,16(x2)
80002f60:	00c12983          	lw	x19,12(x2)
80002f64:	00812a03          	lw	x20,8(x2)
80002f68:	00412a83          	lw	x21,4(x2)
80002f6c:	00000513          	addi	x10,x0,0
80002f70:	02010113          	addi	x2,x2,32
80002f74:	00008067          	jalr	x0,0(x1)
80002f78:	00000693          	addi	x13,x0,0
80002f7c:	00000613          	addi	x12,x0,0
80002f80:	ea4a0593          	addi	x11,x20,-348 # 80002ea4 <pjpeg_need_bytes_callback>
80002f84:	d1498513          	addi	x10,x19,-748 # 80101d14 <pInfo>
80002f88:	da092023          	sw	x0,-608(x18) # 80101da0 <jpeg_off>
80002f8c:	e5cff0ef          	jal	x1,800025e8 <pjpeg_decode_init>
80002f90:	ab8fe0ef          	jal	x1,80001248 <pjpeg_decode_mcu>
80002f94:	ff551ee3          	bne	x10,x21,80002f90 <benchmark_body+0x7c>
80002f98:	00148493          	addi	x9,x9,1
80002f9c:	fb1ff06f          	jal	x0,80002f4c <benchmark_body+0x38>

80002fa0 <verify_benchmark>:
80002fa0:	ff010113          	addi	x2,x2,-16
80002fa4:	00912223          	sw	x9,4(x2)
80002fa8:	801024b7          	lui	x9,0x80102
80002fac:	d1448493          	addi	x9,x9,-748 # 80101d14 <pInfo>
80002fb0:	01212023          	sw	x18,0(x2)
80002fb4:	0204a503          	lw	x10,32(x9)
80002fb8:	80101937          	lui	x18,0x80101
80002fbc:	13890913          	addi	x18,x18,312 # 80101138 <jpeg_data>
80002fc0:	04000613          	addi	x12,x0,64
80002fc4:	23c90593          	addi	x11,x18,572
80002fc8:	00812423          	sw	x8,8(x2)
80002fcc:	00112623          	sw	x1,12(x2)
80002fd0:	0ac000ef          	jal	x1,8000307c <memcmp>
80002fd4:	00000413          	addi	x8,x0,0
80002fd8:	02051863          	bne	x10,x0,80003008 <verify_benchmark+0x68>
80002fdc:	00050413          	addi	x8,x10,0
80002fe0:	0244a503          	lw	x10,36(x9)
80002fe4:	04000613          	addi	x12,x0,64
80002fe8:	27c90593          	addi	x11,x18,636
80002fec:	090000ef          	jal	x1,8000307c <memcmp>
80002ff0:	00051c63          	bne	x10,x0,80003008 <verify_benchmark+0x68>
80002ff4:	0284a503          	lw	x10,40(x9)
80002ff8:	04000613          	addi	x12,x0,64
80002ffc:	2bc90593          	addi	x11,x18,700
80003000:	07c000ef          	jal	x1,8000307c <memcmp>
80003004:	00153413          	sltiu	x8,x10,1
80003008:	00c12083          	lw	x1,12(x2)
8000300c:	00040513          	addi	x10,x8,0
80003010:	00812403          	lw	x8,8(x2)
80003014:	00412483          	lw	x9,4(x2)
80003018:	00012903          	lw	x18,0(x2)
8000301c:	01010113          	addi	x2,x2,16
80003020:	00008067          	jalr	x0,0(x1)

80003024 <initialise_benchmark>:
80003024:	00008067          	jalr	x0,0(x1)

80003028 <warm_caches>:
80003028:	eedff06f          	jal	x0,80002f14 <benchmark_body>

8000302c <benchmark>:
8000302c:	00100513          	addi	x10,x0,1
80003030:	ee5ff06f          	jal	x0,80002f14 <benchmark_body>

80003034 <initialise_board>:
80003034:	00000513          	addi	x10,x0,0
80003038:	00008067          	jalr	x0,0(x1)

8000303c <start_trigger>:
8000303c:	00000513          	addi	x10,x0,0
80003040:	deadc2b7          	lui	x5,0xdeadc
80003044:	eef28293          	addi	x5,x5,-273 # deadbeef <_end+0x5e9d913f>
80003048:	00008067          	jalr	x0,0(x1)

8000304c <stop_trigger>:
8000304c:	beefe2b7          	lui	x5,0xbeefe
80003050:	ead28293          	addi	x5,x5,-339 # beefdead <_end+0x3edfb0fd>
80003054:	00008067          	jalr	x0,0(x1)

80003058 <__mulsi3>:
80003058:	00050613          	addi	x12,x10,0
8000305c:	00000513          	addi	x10,x0,0
80003060:	0015f693          	andi	x13,x11,1
80003064:	00068463          	beq	x13,x0,8000306c <__mulsi3+0x14>
80003068:	00c50533          	add	x10,x10,x12
8000306c:	0015d593          	srli	x11,x11,0x1
80003070:	00161613          	slli	x12,x12,0x1
80003074:	fe0596e3          	bne	x11,x0,80003060 <__mulsi3+0x8>
80003078:	00008067          	jalr	x0,0(x1)

8000307c <memcmp>:
8000307c:	00300793          	addi	x15,x0,3
80003080:	02c7fe63          	bgeu	x15,x12,800030bc <memcmp+0x40>
80003084:	00a5e7b3          	or	x15,x11,x10
80003088:	0037f793          	andi	x15,x15,3
8000308c:	02079463          	bne	x15,x0,800030b4 <memcmp+0x38>
80003090:	00300693          	addi	x13,x0,3
80003094:	0140006f          	jal	x0,800030a8 <memcmp+0x2c>
80003098:	ffc60613          	addi	x12,x12,-4
8000309c:	00450513          	addi	x10,x10,4
800030a0:	00458593          	addi	x11,x11,4
800030a4:	00c6fc63          	bgeu	x13,x12,800030bc <memcmp+0x40>
800030a8:	00052703          	lw	x14,0(x10)
800030ac:	0005a783          	lw	x15,0(x11)
800030b0:	fef704e3          	beq	x14,x15,80003098 <memcmp+0x1c>
800030b4:	fff60693          	addi	x13,x12,-1
800030b8:	00c0006f          	jal	x0,800030c4 <memcmp+0x48>
800030bc:	fff60693          	addi	x13,x12,-1
800030c0:	02060863          	beq	x12,x0,800030f0 <memcmp+0x74>
800030c4:	00168693          	addi	x13,x13,1
800030c8:	00d506b3          	add	x13,x10,x13
800030cc:	0080006f          	jal	x0,800030d4 <memcmp+0x58>
800030d0:	02a68063          	beq	x13,x10,800030f0 <memcmp+0x74>
800030d4:	00054783          	lbu	x15,0(x10)
800030d8:	0005c703          	lbu	x14,0(x11)
800030dc:	00150513          	addi	x10,x10,1
800030e0:	00158593          	addi	x11,x11,1
800030e4:	fee786e3          	beq	x15,x14,800030d0 <memcmp+0x54>
800030e8:	40e78533          	sub	x10,x15,x14
800030ec:	00008067          	jalr	x0,0(x1)
800030f0:	00000513          	addi	x10,x0,0
800030f4:	00008067          	jalr	x0,0(x1)

800030f8 <memcpy>:
800030f8:	00a5c7b3          	xor	x15,x11,x10
800030fc:	0037f793          	andi	x15,x15,3
80003100:	00c508b3          	add	x17,x10,x12
80003104:	06079463          	bne	x15,x0,8000316c <memcpy+0x74>
80003108:	00300793          	addi	x15,x0,3
8000310c:	06c7f063          	bgeu	x15,x12,8000316c <memcpy+0x74>
80003110:	00357793          	andi	x15,x10,3
80003114:	00050713          	addi	x14,x10,0
80003118:	06079a63          	bne	x15,x0,8000318c <memcpy+0x94>
8000311c:	ffc8f613          	andi	x12,x17,-4
80003120:	40e606b3          	sub	x13,x12,x14
80003124:	02000793          	addi	x15,x0,32
80003128:	08d7ce63          	blt	x15,x13,800031c4 <memcpy+0xcc>
8000312c:	00058693          	addi	x13,x11,0
80003130:	00070793          	addi	x15,x14,0
80003134:	02c77863          	bgeu	x14,x12,80003164 <memcpy+0x6c>
80003138:	0006a803          	lw	x16,0(x13)
8000313c:	00478793          	addi	x15,x15,4
80003140:	00468693          	addi	x13,x13,4
80003144:	ff07ae23          	sw	x16,-4(x15)
80003148:	fec7e8e3          	bltu	x15,x12,80003138 <memcpy+0x40>
8000314c:	fff60793          	addi	x15,x12,-1
80003150:	40e787b3          	sub	x15,x15,x14
80003154:	ffc7f793          	andi	x15,x15,-4
80003158:	00478793          	addi	x15,x15,4
8000315c:	00f70733          	add	x14,x14,x15
80003160:	00f585b3          	add	x11,x11,x15
80003164:	01176863          	bltu	x14,x17,80003174 <memcpy+0x7c>
80003168:	00008067          	jalr	x0,0(x1)
8000316c:	00050713          	addi	x14,x10,0
80003170:	05157863          	bgeu	x10,x17,800031c0 <memcpy+0xc8>
80003174:	0005c783          	lbu	x15,0(x11)
80003178:	00170713          	addi	x14,x14,1
8000317c:	00158593          	addi	x11,x11,1
80003180:	fef70fa3          	sb	x15,-1(x14)
80003184:	fee898e3          	bne	x17,x14,80003174 <memcpy+0x7c>
80003188:	00008067          	jalr	x0,0(x1)
8000318c:	0005c683          	lbu	x13,0(x11)
80003190:	00170713          	addi	x14,x14,1
80003194:	00377793          	andi	x15,x14,3
80003198:	fed70fa3          	sb	x13,-1(x14)
8000319c:	00158593          	addi	x11,x11,1
800031a0:	f6078ee3          	beq	x15,x0,8000311c <memcpy+0x24>
800031a4:	0005c683          	lbu	x13,0(x11)
800031a8:	00170713          	addi	x14,x14,1
800031ac:	00377793          	andi	x15,x14,3
800031b0:	fed70fa3          	sb	x13,-1(x14)
800031b4:	00158593          	addi	x11,x11,1
800031b8:	fc079ae3          	bne	x15,x0,8000318c <memcpy+0x94>
800031bc:	f61ff06f          	jal	x0,8000311c <memcpy+0x24>
800031c0:	00008067          	jalr	x0,0(x1)
800031c4:	ff010113          	addi	x2,x2,-16
800031c8:	00812623          	sw	x8,12(x2)
800031cc:	02000413          	addi	x8,x0,32
800031d0:	0005a383          	lw	x7,0(x11)
800031d4:	0045a283          	lw	x5,4(x11)
800031d8:	0085af83          	lw	x31,8(x11)
800031dc:	00c5af03          	lw	x30,12(x11)
800031e0:	0105ae83          	lw	x29,16(x11)
800031e4:	0145ae03          	lw	x28,20(x11)
800031e8:	0185a303          	lw	x6,24(x11)
800031ec:	01c5a803          	lw	x16,28(x11)
800031f0:	0205a683          	lw	x13,32(x11)
800031f4:	02470713          	addi	x14,x14,36
800031f8:	40e607b3          	sub	x15,x12,x14
800031fc:	fc772e23          	sw	x7,-36(x14)
80003200:	fe572023          	sw	x5,-32(x14)
80003204:	fff72223          	sw	x31,-28(x14)
80003208:	ffe72423          	sw	x30,-24(x14)
8000320c:	ffd72623          	sw	x29,-20(x14)
80003210:	ffc72823          	sw	x28,-16(x14)
80003214:	fe672a23          	sw	x6,-12(x14)
80003218:	ff072c23          	sw	x16,-8(x14)
8000321c:	fed72e23          	sw	x13,-4(x14)
80003220:	02458593          	addi	x11,x11,36
80003224:	faf446e3          	blt	x8,x15,800031d0 <memcpy+0xd8>
80003228:	00058693          	addi	x13,x11,0
8000322c:	00070793          	addi	x15,x14,0
80003230:	02c77863          	bgeu	x14,x12,80003260 <memcpy+0x168>
80003234:	0006a803          	lw	x16,0(x13)
80003238:	00478793          	addi	x15,x15,4
8000323c:	00468693          	addi	x13,x13,4
80003240:	ff07ae23          	sw	x16,-4(x15)
80003244:	fec7e8e3          	bltu	x15,x12,80003234 <memcpy+0x13c>
80003248:	fff60793          	addi	x15,x12,-1
8000324c:	40e787b3          	sub	x15,x15,x14
80003250:	ffc7f793          	andi	x15,x15,-4
80003254:	00478793          	addi	x15,x15,4
80003258:	00f70733          	add	x14,x14,x15
8000325c:	00f585b3          	add	x11,x11,x15
80003260:	01176863          	bltu	x14,x17,80003270 <memcpy+0x178>
80003264:	00c12403          	lw	x8,12(x2)
80003268:	01010113          	addi	x2,x2,16
8000326c:	00008067          	jalr	x0,0(x1)
80003270:	0005c783          	lbu	x15,0(x11)
80003274:	00170713          	addi	x14,x14,1
80003278:	00158593          	addi	x11,x11,1
8000327c:	fef70fa3          	sb	x15,-1(x14)
80003280:	fee882e3          	beq	x17,x14,80003264 <memcpy+0x16c>
80003284:	0005c783          	lbu	x15,0(x11)
80003288:	00170713          	addi	x14,x14,1
8000328c:	00158593          	addi	x11,x11,1
80003290:	fef70fa3          	sb	x15,-1(x14)
80003294:	fce89ee3          	bne	x17,x14,80003270 <memcpy+0x178>
80003298:	fcdff06f          	jal	x0,80003264 <memcpy+0x16c>

Disassembly of section .data:

80100000 <stack_begin>:
	...

80101000 <stack_end>:
80101000:	14f8                	.insn	2, 0x14f8
80101002:	8000                	.insn	2, 0x8000
80101004:	1508                	.insn	2, 0x1508
80101006:	8000                	.insn	2, 0x8000
80101008:	1734                	.insn	2, 0x1734
8010100a:	8000                	.insn	2, 0x8000
8010100c:	15f4                	.insn	2, 0x15f4
8010100e:	8000                	.insn	2, 0x8000
80101010:	1874                	.insn	2, 0x1874
80101012:	8000                	.insn	2, 0x8000
80101014:	151c                	.insn	2, 0x151c
80101016:	8000                	.insn	2, 0x8000
80101018:	1744                	.insn	2, 0x1744
8010101a:	8000                	.insn	2, 0x8000
8010101c:	1604                	.insn	2, 0x1604
8010101e:	8000                	.insn	2, 0x8000
80101020:	1894                	.insn	2, 0x1894
80101022:	8000                	.insn	2, 0x8000
80101024:	18a4                	.insn	2, 0x18a4
80101026:	8000                	.insn	2, 0x8000
80101028:	196c                	.insn	2, 0x196c
8010102a:	8000                	.insn	2, 0x8000
8010102c:	22bc                	.insn	2, 0x22bc
8010102e:	8000                	.insn	2, 0x8000
80101030:	22a8                	.insn	2, 0x22a8
80101032:	8000                	.insn	2, 0x8000
80101034:	243c                	.insn	2, 0x243c
80101036:	8000                	.insn	2, 0x8000
80101038:	23e4                	.insn	2, 0x23e4
8010103a:	8000                	.insn	2, 0x8000
8010103c:	2498                	.insn	2, 0x2498
8010103e:	8000                	.insn	2, 0x8000
80101040:	22bc                	.insn	2, 0x22bc
80101042:	8000                	.insn	2, 0x8000
80101044:	244c                	.insn	2, 0x244c
80101046:	8000                	.insn	2, 0x8000
80101048:	23f4                	.insn	2, 0x23f4
8010104a:	8000                	.insn	2, 0x8000
8010104c:	24bc                	.insn	2, 0x24bc
8010104e:	8000                	.insn	2, 0x8000
80101050:	24c4                	.insn	2, 0x24c4
80101052:	8000                	.insn	2, 0x8000
80101054:	24f8                	.insn	2, 0x24f8
80101056:	8000                	.insn	2, 0x8000

80101058 <CSWTCH.299>:
80101058:	0001                	.insn	2, 0x0001
8010105a:	0002                	.insn	2, 0x0002
8010105c:	0004                	.insn	2, 0x0004
8010105e:	0008                	.insn	2, 0x0008
80101060:	0010                	.insn	2, 0x0010
80101062:	0020                	.insn	2, 0x0020
80101064:	0040                	.insn	2, 0x0040
80101066:	0080                	.insn	2, 0x0080
80101068:	0100                	.insn	2, 0x0100
8010106a:	0200                	.insn	2, 0x0200
8010106c:	0400                	.insn	2, 0x0400
8010106e:	0800                	.insn	2, 0x0800
80101070:	1000                	.insn	2, 0x1000
80101072:	2000                	.insn	2, 0x2000
80101074:	4000                	.insn	2, 0x4000
	...

80101078 <CSWTCH.301>:
80101078:	ffff                	.insn	2, 0xffff
8010107a:	fffd                	.insn	2, 0xfffd
8010107c:	fff9                	.insn	2, 0xfff9
8010107e:	fff1                	.insn	2, 0xfff1
80101080:	ffe1                	.insn	2, 0xffe1
80101082:	ffc1                	.insn	2, 0xffc1
80101084:	ff81                	.insn	2, 0xff81
80101086:	ff01                	.insn	2, 0xff01
80101088:	fe01                	.insn	2, 0xfe01
8010108a:	fc01                	.insn	2, 0xfc01
8010108c:	f801                	.insn	2, 0xf801
8010108e:	f001                	.insn	2, 0xf001
80101090:	e001                	.insn	2, 0xe001
80101092:	c001                	.insn	2, 0xc001
80101094:	8001                	.insn	2, 0x8001
	...

80101098 <CSWTCH.306>:
80101098:	1a14                	.insn	2, 0x1a14
8010109a:	8010                	.insn	2, 0x8010
8010109c:	19b4                	.insn	2, 0x19b4
8010109e:	8010                	.insn	2, 0x8010
801010a0:	1cc4                	.insn	2, 0x1cc4
801010a2:	8010                	.insn	2, 0x8010
801010a4:	1c74                	.insn	2, 0x1c74
801010a6:	8010                	.insn	2, 0x8010

801010a8 <CSWTCH.308>:
801010a8:	1a64                	.insn	2, 0x1a64
801010aa:	8010                	.insn	2, 0x8010
801010ac:	1a04                	.insn	2, 0x1a04
801010ae:	8010                	.insn	2, 0x8010
801010b0:	1b74                	.insn	2, 0x1b74
801010b2:	8010                	.insn	2, 0x8010
801010b4:	1a74                	.insn	2, 0x1a74
801010b6:	8010                	.insn	2, 0x8010

801010b8 <gWinogradQuant>:
801010b8:	b280                	.insn	2, 0xb280
801010ba:	a7b2                	.insn	2, 0xa7b2
801010bc:	a7f6                	.insn	2, 0xa7f6
801010be:	97e8e897          	auipc	x17,0x97e8e
801010c2:	d180                	.insn	2, 0xd180
801010c4:	6580d1db          	.insn	4, 0x6580d1db
801010c8:	c5b2                	.insn	2, 0xc5b2
801010ca:	b2c5                	.insn	2, 0xb2c5
801010cc:	4565                	.insn	2, 0x4565
801010ce:	a7b1a78b          	.insn	4, 0xa7b1a78b
801010d2:	6023458b          	.insn	4, 0x6023458b
801010d6:	83979783          	lh	x15,-1991(x15)
801010da:	2360                	.insn	2, 0x2360
801010dc:	5b31                	.insn	2, 0x5b31
801010de:	8076                	.insn	2, 0x8076
801010e0:	5b76                	.insn	2, 0x5b76
801010e2:	2e31                	.insn	2, 0x2e31
801010e4:	6551                	.insn	2, 0x6551
801010e6:	5165                	.insn	2, 0x5165
801010e8:	2a2e                	.insn	2, 0x2a2e
801010ea:	4f45                	.insn	2, 0x4f45
801010ec:	2a45                	.insn	2, 0x2a45
801010ee:	23363623          	.insn	4, 0x23363623
801010f2:	251c                	.insn	2, 0x251c
801010f4:	131c                	.insn	2, 0x131c
801010f6:	          	addi	x20,x0,16

801010f8 <ZAG>:
801010f8:	0100                	.insn	2, 0x0100
801010fa:	1008                	.insn	2, 0x1008
801010fc:	0209                	.insn	2, 0x0209
801010fe:	18110a03          	lb	x20,385(x2)
80101102:	1920                	.insn	2, 0x1920
80101104:	0b12                	.insn	2, 0x0b12
80101106:	0504                	.insn	2, 0x0504
80101108:	130c                	.insn	2, 0x130c
8010110a:	211a                	.insn	2, 0x211a
8010110c:	3028                	.insn	2, 0x3028
8010110e:	2229                	.insn	2, 0x2229
80101110:	060d141b          	.insn	4, 0x060d141b
80101114:	1c150e07          	.insn	4, 0x1c150e07
80101118:	38312a23          	sw	x3,916(x2)
8010111c:	3239                	.insn	2, 0x3239
8010111e:	161d242b          	.insn	4, 0x161d242b
80101122:	251e170f          	.insn	4, 0x251e170f
80101126:	332c                	.insn	2, 0x332c
80101128:	3b3a                	.insn	2, 0x3b3a
8010112a:	2d34                	.insn	2, 0x2d34
8010112c:	1f26                	.insn	2, 0x1f26
8010112e:	3c352e27          	.insn	4, 0x3c352e27
80101132:	363d                	.insn	2, 0x363d
80101134:	3f3e372f          	.insn	4, 0x3f3e372f

80101138 <jpeg_data>:
80101138:	e0ffd8ff 464a1000 	.insn	20, 0x48004800010101004649464a1000e0ffd8ff
80101140:	01004649 48000101 
80101148:	00004800 
8010114c:	4300dbff 3c375000 	.insn	20, 0x785f50555a46414650323c463c3750004300dbff
80101154:	50323c46 5a464146 
8010115c:	785f5055 
80101160:	82c8                	.insn	2, 0x82c8
80101162:	6e78                	.insn	2, 0x6e78
80101164:	786e                	.insn	2, 0x786e
80101166:	aff5                	.insn	2, 0xaff5
80101168:	91b9                	.insn	2, 0x91b9
8010116a:	ffc8                	.insn	2, 0xffc8
8010116c:	ffff                	.insn	2, 0xffff
8010116e:	ffff                	.insn	2, 0xffff
80101170:	ffff                	.insn	2, 0xffff
80101172:	ffff                	.insn	2, 0xffff
80101174:	ffff                	.insn	2, 0xffff
80101176:	ffff                	.insn	2, 0xffff
80101178:	ffff                	.insn	2, 0xffff
8010117a:	ffff                	.insn	2, 0xffff
8010117c:	ffff                	.insn	2, 0xffff
8010117e:	ffff                	.insn	2, 0xffff
80101180:	ffff                	.insn	2, 0xffff
80101182:	ffff                	.insn	2, 0xffff
80101184:	ffff                	.insn	2, 0xffff
80101186:	ffff                	.insn	2, 0xffff
80101188:	ffff                	.insn	2, 0xffff
8010118a:	ffff                	.insn	2, 0xffff
8010118c:	ffff                	.insn	2, 0xffff
8010118e:	ffff                	.insn	2, 0xffff
80101190:	ffff                	.insn	2, 0xffff
80101192:	014300db          	.insn	4, 0x014300db
80101196:	5a55                	.insn	2, 0x5a55
80101198:	785a                	.insn	2, 0x785a
8010119a:	7869                	.insn	2, 0x7869
8010119c:	eb8282eb          	.insn	4, 0xeb8282eb
801011a0:	ffff                	.insn	2, 0xffff
801011a2:	ffff                	.insn	2, 0xffff
801011a4:	ffff                	.insn	2, 0xffff
801011a6:	ffff                	.insn	2, 0xffff
801011a8:	ffff                	.insn	2, 0xffff
801011aa:	ffff                	.insn	2, 0xffff
801011ac:	ffff                	.insn	2, 0xffff
801011ae:	ffff                	.insn	2, 0xffff
801011b0:	ffff                	.insn	2, 0xffff
801011b2:	ffff                	.insn	2, 0xffff
801011b4:	ffff                	.insn	2, 0xffff
801011b6:	ffff                	.insn	2, 0xffff
801011b8:	ffff                	.insn	2, 0xffff
801011ba:	ffff                	.insn	2, 0xffff
801011bc:	ffff                	.insn	2, 0xffff
801011be:	ffff                	.insn	2, 0xffff
801011c0:	ffff                	.insn	2, 0xffff
801011c2:	ffff                	.insn	2, 0xffff
801011c4:	ffff                	.insn	2, 0xffff
801011c6:	ffff                	.insn	2, 0xffff
801011c8:	ffff                	.insn	2, 0xffff
801011ca:	ffff                	.insn	2, 0xffff
801011cc:	ffff                	.insn	2, 0xffff
801011ce:	ffff                	.insn	2, 0xffff
801011d0:	ffff                	.insn	2, 0xffff
801011d2:	ffff                	.insn	2, 0xffff
801011d4:	ffff                	.insn	2, 0xffff
801011d6:	c0ff 1100 0008 0040 	.insn	18, 0x11030111020011010333004000081100c0ff
801011de:	0333 1101 0200 0111 
801011e6:	1103 
801011e8:	ff01                	.insn	2, 0xff01
801011ea:	00c4                	.insn	2, 0x00c4
801011ec:	0018                	.insn	2, 0x0018
801011ee:	0300                	.insn	2, 0x0300
801011f0:	0101                	.insn	2, 0x0101
	...
801011fe:	0201                	.insn	2, 0x0201
80101200:	ff040003          	lb	x0,-16(x8)
80101204:	00c4                	.insn	2, 0x00c4
80101206:	1026                	.insn	2, 0x1026
80101208:	0200                	.insn	2, 0x0200
8010120a:	0102                	.insn	2, 0x0102
8010120c:	03040303          	lb	x6,48(x8)
80101210:	0001                	.insn	2, 0x0001
80101212:	0000                	.insn	2, 0x
80101214:	0000                	.insn	2, 0x
80101216:	0000                	.insn	2, 0x
80101218:	0201                	.insn	2, 0x0201
8010121a:	1100                	.insn	2, 0x1100
8010121c:	31211203          	lh	x4,786(x2)
80101220:	6141                	.insn	2, 0x6141
80101222:	0471                	.insn	2, 0x0471
80101224:	5322                	.insn	2, 0x5322
80101226:	1391                	.insn	2, 0x1391
80101228:	ff625123          	.insn	4, 0xff625123
8010122c:	00c4                	.insn	2, 0x00c4
8010122e:	0115                	.insn	2, 0x0115
80101230:	0101                	.insn	2, 0x0101
	...
8010123e:	0000                	.insn	2, 0x
80101240:	0100                	.insn	2, 0x0100
80101242:	c4ff 1400 0111 0000 	.insn	18, 0x01111400c4ff
8010124a:	0000 0000 0000 0000 
80101252:	0000 
80101254:	0000                	.insn	2, 0x
80101256:	0000                	.insn	2, 0x
80101258:	0c00daff 02000103 	.insn	20, 0x664d280b88c7003f00110311020001030c00daff
80101260:	00110311 88c7003f 
80101268:	664d280b 
8010126c:	02e1                	.insn	2, 0x02e1
8010126e:	450558cf          	.insn	4, 0x450558cf
80101272:	0088                	.insn	2, 0x0088
80101274:	10a9                	.insn	2, 0x10a9
80101276:	0e34                	.insn	2, 0x0e34
80101278:	54686faf          	.insn	4, 0x54686faf
8010127c:	61036433          	.insn	4, 0x61036433
80101280:	6a02                	.insn	2, 0x6a02
80101282:	db49                	.insn	2, 0xdb49
80101284:	8449                	.insn	2, 0x8449
80101286:	5059                	.insn	2, 0x5059
80101288:	5091                	.insn	2, 0x5091
8010128a:	3da0                	.insn	2, 0x3da0
8010128c:	80a4                	.insn	2, 0x80a4
8010128e:	887c                	.insn	2, 0x887c
80101290:	d518                	.insn	2, 0xd518
80101292:	0548                	.insn	2, 0x0548
80101294:	4309                	.insn	2, 0x4309
80101296:	2b00ffeb          	.insn	4, 0x2b00ffeb
8010129a:	02f5                	.insn	2, 0x02f5
8010129c:	d478                	.insn	2, 0xd478
8010129e:	ac1c                	.insn	2, 0xac1c
801012a0:	1048                	.insn	2, 0x1048
801012a2:	b58e                	.insn	2, 0xb58e
801012a4:	a855                	.insn	2, 0xa855
801012a6:	a50c                	.insn	2, 0xa50c
801012a8:	2a52db2f          	.insn	4, 0x2a52db2f
801012ac:	5319                	.insn	2, 0x5319
801012ae:	82f6                	.insn	2, 0x82f6
801012b0:	a104                	.insn	2, 0xa104
801012b2:	450e                	.insn	2, 0x450e
801012b4:	84f8                	.insn	2, 0x84f8
801012b6:	ad0d                	.insn	2, 0xad0d
801012b8:	217e                	.insn	2, 0x217e
801012ba:	d020                	.insn	2, 0xd020
801012bc:	0430                	.insn	2, 0x0430
801012be:	43995c93          	srai	x25,x18,0x39
801012c2:	c6e2                	.insn	2, 0xc6e2
801012c4:	d7d42057          	.insn	4, 0xd7d42057
801012c8:	207d                	.insn	2, 0x207d
801012ca:	e13a                	.insn	2, 0xe13a
801012cc:	f640                	.insn	2, 0xf640
801012ce:	f149                	.insn	2, 0xf149
801012d0:	a320                	.insn	2, 0xa320
801012d2:	09c5178b          	.insn	4, 0x09c5178b
801012d6:	05352647          	.insn	4, 0x05352647
801012da:	1eb5                	.insn	2, 0x1eb5
801012dc:	7520                	.insn	2, 0x7520
801012de:	9502                	.insn	2, 0x9502
801012e0:	fac0                	.insn	2, 0xfac0
801012e2:	cf81                	.insn	2, 0xcf81
801012e4:	0c52                	.insn	2, 0x0c52
801012e6:	0d6c                	.insn	2, 0x0d6c
801012e8:	25a0                	.insn	2, 0x25a0
801012ea:	ddbd                	.insn	2, 0xddbd
801012ec:	f3d1                	.insn	2, 0xf3d1
801012ee:	282a                	.insn	2, 0x282a
801012f0:	0e04b043          	.insn	4, 0x0e04b043
801012f4:	dc3a                	.insn	2, 0xdc3a
801012f6:	b229                	.insn	2, 0xb229
801012f8:	116af813          	andi	x16,x21,278
801012fc:	5325                	.insn	2, 0x5325
801012fe:	a922                	.insn	2, 0xa922
80101300:	e07d                	.insn	2, 0xe07d
80101302:	a82e                	.insn	2, 0xa82e
80101304:	c106                	.insn	2, 0xc106
80101306:	a0da                	.insn	2, 0xa0da
80101308:	2129                	.insn	2, 0x2129
8010130a:	304d                	.insn	2, 0x304d
8010130c:	2a35                	.insn	2, 0x2a35
8010130e:	b928                	.insn	2, 0xb928
80101310:	15068517          	auipc	x10,0x15068
80101314:	9750                	.insn	2, 0x9750
80101316:	d88c                	.insn	2, 0xd88c
80101318:	01e520ef          	jal	x1,80153336 <_end+0x50586>
8010131c:	d3f9                	.insn	2, 0xd3f9
8010131e:	a152                	.insn	2, 0xa152
80101320:	0eb5                	.insn	2, 0x0eb5
80101322:	14b0                	.insn	2, 0x14b0
80101324:	3990                	.insn	2, 0x3990
80101326:	2832                	.insn	2, 0x2832
80101328:	60e2                	.insn	2, 0x60e2
8010132a:	17d9                	.insn	2, 0x17d9
8010132c:	a2cc                	.insn	2, 0xa2cc
8010132e:	b1d9                	.insn	2, 0xb1d9
80101330:	3502                	.insn	2, 0x3502
80101332:	1e58                	.insn	2, 0x1e58
80101334:	0c60                	.insn	2, 0x0c60
80101336:	9558                	.insn	2, 0x9558
80101338:	a606                	.insn	2, 0xa606
8010133a:	f820                	.insn	2, 0xf820
8010133c:	3b90                	.insn	2, 0x3b90
8010133e:	b3b04167          	.insn	4, 0xb3b04167
80101342:	4f02                	.insn	2, 0x4f02
80101344:	559c                	.insn	2, 0x559c
80101346:	8e40                	.insn	2, 0x8e40
80101348:	feb5                	.insn	2, 0xfeb5
8010134a:	5109                	.insn	2, 0x5109
8010134c:	d712                	.insn	2, 0xd712
8010134e:	fd01                	.insn	2, 0xfd01
80101350:	7b99113b          	.insn	4, 0x7b99113b
80101354:	5598                	.insn	2, 0x5598
80101356:	4b7d                	.insn	2, 0x4b7d
80101358:	ec0064bb          	.insn	4, 0xec0064bb
8010135c:	04bd                	.insn	2, 0x04bd
8010135e:	4505                	.insn	2, 0x4505
80101360:	3662                	.insn	2, 0x3662
80101362:	3bb2                	.insn	2, 0x3bb2
80101364:	1b42                	.insn	2, 0x1b42
80101366:	1c2a                	.insn	2, 0x1c2a
80101368:	7440                	.insn	2, 0x7440
8010136a:	11b8                	.insn	2, 0x11b8
8010136c:	0006                	.insn	2, 0x0006
8010136e:	1fb8                	.insn	2, 0x1fb8
80101370:	0000d9ff  	.insn	20, 0x202020202020202021212121212121210000d9ff
80101378:	  
80101380:	 

80101374 <r_ref.2>:
80101374:	2121                	.insn	2, 0x2121
80101376:	2121                	.insn	2, 0x2121
80101378:	2121                	.insn	2, 0x2121
8010137a:	2121                	.insn	2, 0x2121
8010137c:	2020                	.insn	2, 0x2020
8010137e:	2020                	.insn	2, 0x2020
80101380:	2020                	.insn	2, 0x2020
80101382:	2020                	.insn	2, 0x2020
80101384:	1d1d                	.insn	2, 0x1d1d
80101386:	1d1d                	.insn	2, 0x1d1d
80101388:	1d1d                	.insn	2, 0x1d1d
8010138a:	1d1d                	.insn	2, 0x1d1d
8010138c:	1919                	.insn	2, 0x1919
8010138e:	1919                	.insn	2, 0x1919
80101390:	1919                	.insn	2, 0x1919
80101392:	1919                	.insn	2, 0x1919
80101394:	1515                	.insn	2, 0x1515
80101396:	1515                	.insn	2, 0x1515
80101398:	1515                	.insn	2, 0x1515
8010139a:	1515                	.insn	2, 0x1515
8010139c:	1111                	.insn	2, 0x1111
8010139e:	1111                	.insn	2, 0x1111
801013a0:	1111                	.insn	2, 0x1111
801013a2:	1111                	.insn	2, 0x1111
801013a4:	0e0e                	.insn	2, 0x0e0e
801013a6:	0e0e                	.insn	2, 0x0e0e
801013a8:	0e0e                	.insn	2, 0x0e0e
801013aa:	0e0e                	.insn	2, 0x0e0e
801013ac:	0d0d                	.insn	2, 0x0d0d
801013ae:	0d0d                	.insn	2, 0x0d0d
801013b0:	0d0d                	.insn	2, 0x0d0d
801013b2:	0d0d                	.insn	2, 0x0d0d

801013b4 <g_ref.1>:
801013b4:	3535                	.insn	2, 0x3535
801013b6:	3535                	.insn	2, 0x3535
801013b8:	3535                	.insn	2, 0x3535
801013ba:	3535                	.insn	2, 0x3535
801013bc:	3434                	.insn	2, 0x3434
801013be:	3434                	.insn	2, 0x3434
801013c0:	3434                	.insn	2, 0x3434
801013c2:	3434                	.insn	2, 0x3434
801013c4:	3131                	.insn	2, 0x3131
801013c6:	3131                	.insn	2, 0x3131
801013c8:	3131                	.insn	2, 0x3131
801013ca:	3131                	.insn	2, 0x3131
801013cc:	2d2d                	.insn	2, 0x2d2d
801013ce:	2d2d                	.insn	2, 0x2d2d
801013d0:	2d2d                	.insn	2, 0x2d2d
801013d2:	2d2d                	.insn	2, 0x2d2d
801013d4:	2929                	.insn	2, 0x2929
801013d6:	2929                	.insn	2, 0x2929
801013d8:	2929                	.insn	2, 0x2929
801013da:	2929                	.insn	2, 0x2929
801013dc:	2525                	.insn	2, 0x2525
801013de:	2525                	.insn	2, 0x2525
801013e0:	2525                	.insn	2, 0x2525
801013e2:	2525                	.insn	2, 0x2525
801013e4:	2222                	.insn	2, 0x2222
801013e6:	2222                	.insn	2, 0x2222
801013e8:	2222                	.insn	2, 0x2222
801013ea:	2222                	.insn	2, 0x2222
801013ec:	2121                	.insn	2, 0x2121
801013ee:	2121                	.insn	2, 0x2121
801013f0:	2121                	.insn	2, 0x2121
801013f2:	2121                	.insn	2, 0x2121

801013f4 <b_ref.0>:
801013f4:	43434343          	.insn	4, 0x43434343
801013f8:	43434343          	.insn	4, 0x43434343
801013fc:	4242                	.insn	2, 0x4242
801013fe:	4242                	.insn	2, 0x4242
80101400:	4242                	.insn	2, 0x4242
80101402:	4242                	.insn	2, 0x4242
80101404:	3f3f3f3f 3f3f3f3f 	.insn	8, 0x3f3f3f3f3f3f3f3f
8010140c:	3b3b3b3b          	.insn	4, 0x3b3b3b3b
80101410:	3b3b3b3b          	.insn	4, 0x3b3b3b3b
80101414:	37373737          	lui	x14,0x37373
80101418:	37373737          	lui	x14,0x37373
8010141c:	33333333          	.insn	4, 0x33333333
80101420:	33333333          	.insn	4, 0x33333333
80101424:	3030                	.insn	2, 0x3030
80101426:	3030                	.insn	2, 0x3030
80101428:	3030                	.insn	2, 0x3030
8010142a:	3030                	.insn	2, 0x3030
8010142c:	2f2f2f2f          	.insn	4, 0x2f2f2f2f
80101430:	2f2f2f2f          	.insn	4, 0x2f2f2f2f

80101434 <gInBuf>:
	...

80101534 <gCoeffBuf>:
	...

801015b4 <gMCUBufG>:
	...

801016b4 <gMCUBufB>:
	...

801017b4 <gMCUBufR>:
	...

801018b4 <gQuant1>:
	...

80101934 <gQuant0>:
	...

801019b4 <gHuffTab1>:
	...

80101a04 <gHuffVal1>:
	...

80101a14 <gHuffTab0>:
	...

80101a64 <gHuffVal0>:
	...

80101a74 <gHuffVal3>:
	...

80101b74 <gHuffVal2>:
	...

80101c74 <gHuffTab3>:
	...

80101cc4 <gHuffTab2>:
	...

80101d14 <pInfo>:
	...

80101d40 <successive_low>:
	...

80101d41 <successive_high>:
	...

80101d42 <spectral_end>:
	...

80101d43 <spectral_start>:
	...

80101d44 <gReduce>:
	...

80101d45 <gCallbackStatus>:
80101d45:	0000                	.insn	2, 0x
	...

80101d48 <g_pCallback_data>:
80101d48:	0000                	.insn	2, 0x
	...

80101d4c <g_pNeedBytesCallback>:
80101d4c:	0000                	.insn	2, 0x
	...

80101d50 <gMCUOrg>:
80101d50:	0000                	.insn	2, 0x
80101d52:	0000                	.insn	2, 0x
	...

80101d56 <gNumMCUSRemaining>:
	...

80101d58 <gMaxMCUSPerCol>:
	...

80101d5a <gMaxMCUSPerRow>:
	...

80101d5c <gMaxMCUYSize>:
	...

80101d5d <gMaxMCUXSize>:
	...

80101d5e <gMaxBlocksPerMCU>:
	...

80101d60 <gScanType>:
80101d60:	0000                	.insn	2, 0x
	...

80101d64 <gCompACTab>:
80101d64:	0000                	.insn	2, 0x
	...

80101d68 <gCompDCTab>:
80101d68:	0000                	.insn	2, 0x
	...

80101d6c <gCompList>:
80101d6c:	0000                	.insn	2, 0x
	...

80101d6f <gCompsInScan>:
	...

80101d70 <gRestartsLeft>:
	...

80101d72 <gNextRestartNum>:
	...

80101d74 <gRestartInterval>:
80101d74:	0000                	.insn	2, 0x
	...

80101d78 <gCompQuant>:
80101d78:	0000                	.insn	2, 0x
	...

80101d7c <gCompVSamp>:
80101d7c:	0000                	.insn	2, 0x
	...

80101d80 <gCompHSamp>:
80101d80:	0000                	.insn	2, 0x
	...

80101d84 <gCompIdent>:
80101d84:	0000                	.insn	2, 0x
	...

80101d87 <gCompsInFrame>:
	...

80101d88 <gImageYSize>:
	...

80101d8a <gImageXSize>:
	...

80101d8c <gBitsLeft>:
	...

80101d8e <gBitBuf>:
	...

80101d90 <gInBufLeft>:
	...

80101d91 <gInBufOfs>:
	...

80101d92 <gTemFlag>:
	...

80101d93 <gValidQuantTables>:
	...

80101d94 <gValidHuffTables>:
80101d94:	0000                	.insn	2, 0x
	...

80101d98 <gLastDC>:
	...

80101da0 <jpeg_off>:
	...

Disassembly of section .comment:

00000000 <.comment>:
   0:	3a434347          	.insn	4, 0x3a434347
   4:	2820                	.insn	2, 0x2820
   6:	2029                	.insn	2, 0x2029
   8:	3331                	.insn	2, 0x3331
   a:	322e                	.insn	2, 0x322e
   c:	302e                	.insn	2, 0x302e
   e:	4700                	.insn	2, 0x4700
  10:	203a4343          	.insn	4, 0x203a4343
  14:	4728                	.insn	2, 0x4728
  16:	554e                	.insn	2, 0x554e
  18:	2029                	.insn	2, 0x2029
  1a:	3331                	.insn	2, 0x3331
  1c:	322e                	.insn	2, 0x322e
  1e:	302e                	.insn	2, 0x302e
	...

Disassembly of section .riscv.attributes:

00000000 <.riscv.attributes>:
   0:	2841                	.insn	2, 0x2841
   2:	0000                	.insn	2, 0x
   4:	7200                	.insn	2, 0x7200
   6:	7369                	.insn	2, 0x7369
   8:	01007663          	bgeu	x0,x16,14 <_heap_size+0x14>
   c:	001e                	.insn	2, 0x001e
   e:	0000                	.insn	2, 0x
  10:	1004                	.insn	2, 0x1004
  12:	7205                	.insn	2, 0x7205
  14:	3376                	.insn	2, 0x3376
  16:	6932                	.insn	2, 0x6932
  18:	7032                	.insn	2, 0x7032
  1a:	5f31                	.insn	2, 0x5f31
  1c:	697a                	.insn	2, 0x697a
  1e:	32727363          	bgeu	x4,x7,344 <_heap_size+0x344>
  22:	3070                	.insn	2, 0x3070
  24:	0800                	.insn	2, 0x0800
  26:	0a01                	.insn	2, 0x0a01
  28:	Address 0x28 is out of bounds.


Disassembly of section .debug_line:

00000000 <.debug_line>:
   0:	0076                	.insn	2, 0x0076
   2:	0000                	.insn	2, 0x
   4:	0005                	.insn	2, 0x0005
   6:	0004                	.insn	2, 0x0004
   8:	002e                	.insn	2, 0x002e
   a:	0000                	.insn	2, 0x
   c:	0101                	.insn	2, 0x0101
   e:	fb01                	.insn	2, 0xfb01
  10:	0d0e                	.insn	2, 0x0d0e
  12:	0100                	.insn	2, 0x0100
  14:	0101                	.insn	2, 0x0101
  16:	0001                	.insn	2, 0x0001
  18:	0000                	.insn	2, 0x
  1a:	0001                	.insn	2, 0x0001
  1c:	0100                	.insn	2, 0x0100
  1e:	0101                	.insn	2, 0x0101
  20:	021f 0000 0000      	.insn	6, 0x021f
  26:	0066                	.insn	2, 0x0066
  28:	0000                	.insn	2, 0x
  2a:	0102                	.insn	2, 0x0102
  2c:	021f 020f 008f      	.insn	6, 0x008f020f021f
  32:	0000                	.insn	2, 0x
  34:	8f01                	.insn	2, 0x8f01
  36:	0000                	.insn	2, 0x
  38:	0100                	.insn	2, 0x0100
  3a:	0500                	.insn	2, 0x0500
  3c:	5802                	.insn	2, 0x5802
  3e:	0030                	.insn	2, 0x0030
  40:	0380                	.insn	2, 0x0380
  42:	0124                	.insn	2, 0x0124
  44:	04090103          	lb	x2,64(x18)
  48:	0100                	.insn	2, 0x0100
  4a:	04090203          	lb	x4,64(x18)
  4e:	0100                	.insn	2, 0x0100
  50:	04090103          	lb	x2,64(x18)
  54:	0100                	.insn	2, 0x0100
  56:	04090103          	lb	x2,64(x18)
  5a:	0100                	.insn	2, 0x0100
  5c:	04090203          	lb	x4,64(x18)
  60:	0100                	.insn	2, 0x0100
  62:	04090103          	lb	x2,64(x18)
  66:	0100                	.insn	2, 0x0100
  68:	04090103          	lb	x2,64(x18)
  6c:	0100                	.insn	2, 0x0100
  6e:	04090103          	lb	x2,64(x18)
  72:	0100                	.insn	2, 0x0100
  74:	0409                	.insn	2, 0x0409
  76:	0000                	.insn	2, 0x
  78:	0101                	.insn	2, 0x0101

Disassembly of section .debug_line_str:

00000000 <.debug_line_str>:
   0:	6d6f682f          	.insn	4, 0x6d6f682f
   4:	2f65                	.insn	2, 0x2f65
   6:	6c6c6173          	.insn	4, 0x6c6c6173
   a:	7261                	.insn	2, 0x7261
   c:	6f6f742f          	.insn	4, 0x6f6f742f
  10:	736c                	.insn	2, 0x736c
  12:	7369722f          	.insn	4, 0x7369722f
  16:	672d7663          	bgeu	x26,x18,682 <_heap_size+0x682>
  1a:	756e                	.insn	2, 0x756e
  1c:	742d                	.insn	2, 0x742d
  1e:	636c6f6f          	jal	x30,c6654 <_stack_size+0xc5654>
  22:	6168                	.insn	2, 0x6168
  24:	6e69                	.insn	2, 0x6e69
  26:	6975622f          	.insn	4, 0x6975622f
  2a:	646c                	.insn	2, 0x646c
  2c:	672d                	.insn	2, 0x672d
  2e:	6e2d6363          	bltu	x26,x2,714 <_heap_size+0x714>
  32:	7765                	.insn	2, 0x7765
  34:	696c                	.insn	2, 0x696c
  36:	2d62                	.insn	2, 0x2d62
  38:	67617473          	.insn	4, 0x67617473
  3c:	3265                	.insn	2, 0x3265
  3e:	7369722f          	.insn	4, 0x7369722f
  42:	34367663          	bgeu	x12,x3,38e <_heap_size+0x38e>
  46:	752d                	.insn	2, 0x752d
  48:	6b6e                	.insn	2, 0x6b6e
  4a:	6f6e                	.insn	2, 0x6f6e
  4c:	652d6e77          	.insn	4, 0x652d6e77
  50:	666c                	.insn	2, 0x666c
  52:	3376722f          	.insn	4, 0x3376722f
  56:	6932                	.insn	2, 0x6932
  58:	706c692f          	.insn	4, 0x706c692f
  5c:	6c2f3233          	.insn	4, 0x6c2f3233
  60:	6269                	.insn	2, 0x6269
  62:	00636367          	.insn	4, 0x00636367
  66:	2e2e                	.insn	2, 0x2e2e
  68:	2f2e2e2f          	.insn	4, 0x2f2e2e2f
  6c:	2e2e                	.insn	2, 0x2e2e
  6e:	2f2e2e2f          	.insn	4, 0x2f2e2e2f
  72:	2e2e                	.insn	2, 0x2e2e
  74:	672f2e2f          	.insn	4, 0x672f2e2f
  78:	6c2f6363          	bltu	x30,x2,73e <_heap_size+0x73e>
  7c:	6269                	.insn	2, 0x6269
  7e:	2f636367          	.insn	4, 0x2f636367
  82:	666e6f63          	bltu	x28,x6,700 <_heap_size+0x700>
  86:	6769                	.insn	2, 0x6769
  88:	7369722f          	.insn	4, 0x7369722f
  8c:	6d007663          	bgeu	x0,x16,758 <_heap_size+0x758>
  90:	6c75                	.insn	2, 0x6c75
  92:	6964                	.insn	2, 0x6964
  94:	00532e33          	slt	x28,x6,x5

Disassembly of section .debug_info:

00000000 <.debug_info>:
   0:	002d                	.insn	2, 0x002d
   2:	0000                	.insn	2, 0x
   4:	0005                	.insn	2, 0x0005
   6:	0401                	.insn	2, 0x0401
   8:	0000                	.insn	2, 0x
   a:	0000                	.insn	2, 0x
   c:	0001                	.insn	2, 0x0001
   e:	0000                	.insn	2, 0x
  10:	5800                	.insn	2, 0x5800
  12:	0030                	.insn	2, 0x0030
  14:	2480                	.insn	2, 0x2480
  16:	0000                	.insn	2, 0x
  18:	0000                	.insn	2, 0x
  1a:	0032                	.insn	2, 0x0032
  1c:	0000                	.insn	2, 0x
  1e:	0098                	.insn	2, 0x0098
  20:	0000                	.insn	2, 0x
  22:	8001                	.insn	2, 0x8001
  24:	a402                	.insn	2, 0xa402
  26:	0000                	.insn	2, 0x
  28:	2f00                	.insn	2, 0x2f00
  2a:	3058                	.insn	2, 0x3058
  2c:	8000                	.insn	2, 0x8000
  2e:	0324                	.insn	2, 0x0324
	...

Disassembly of section .debug_abbrev:

00000000 <.debug_abbrev>:
   0:	1101                	.insn	2, 0x1101
   2:	1001                	.insn	2, 0x1001
   4:	12011117          	auipc	x2,0x12011
   8:	1b0e030f          	.insn	4, 0x1b0e030f
   c:	250e                	.insn	2, 0x250e
   e:	130e                	.insn	2, 0x130e
  10:	0005                	.insn	2, 0x0005
  12:	0200                	.insn	2, 0x0200
  14:	002e                	.insn	2, 0x002e
  16:	193f0e03          	lb	x28,403(x30)
  1a:	1549                	.insn	2, 0x1549
  1c:	0111                	.insn	2, 0x0111
  1e:	0f12                	.insn	2, 0x0f12
  20:	0000                	.insn	2, 0x
  22:	00003b03          	.insn	4, 0x3b03
	...

Disassembly of section .debug_aranges:

00000000 <.debug_aranges>:
   0:	001c                	.insn	2, 0x001c
   2:	0000                	.insn	2, 0x
   4:	0002                	.insn	2, 0x0002
   6:	0000                	.insn	2, 0x
   8:	0000                	.insn	2, 0x
   a:	0004                	.insn	2, 0x0004
   c:	0000                	.insn	2, 0x
   e:	0000                	.insn	2, 0x
  10:	3058                	.insn	2, 0x3058
  12:	8000                	.insn	2, 0x8000
  14:	0024                	.insn	2, 0x0024
	...

Disassembly of section .debug_str:

00000000 <.debug_str>:
   0:	2e2e                	.insn	2, 0x2e2e
   2:	2f2e2e2f          	.insn	4, 0x2f2e2e2f
   6:	2e2e                	.insn	2, 0x2e2e
   8:	2f2e2e2f          	.insn	4, 0x2f2e2e2f
   c:	2e2e                	.insn	2, 0x2e2e
   e:	672f2e2f          	.insn	4, 0x672f2e2f
  12:	6c2f6363          	bltu	x30,x2,6d8 <_heap_size+0x6d8>
  16:	6269                	.insn	2, 0x6269
  18:	2f636367          	.insn	4, 0x2f636367
  1c:	666e6f63          	bltu	x28,x6,69a <_heap_size+0x69a>
  20:	6769                	.insn	2, 0x6769
  22:	7369722f          	.insn	4, 0x7369722f
  26:	6d2f7663          	bgeu	x30,x18,6f2 <_heap_size+0x6f2>
  2a:	6c75                	.insn	2, 0x6c75
  2c:	6964                	.insn	2, 0x6964
  2e:	00532e33          	slt	x28,x6,x5
  32:	6d6f682f          	.insn	4, 0x6d6f682f
  36:	2f65                	.insn	2, 0x2f65
  38:	6c6c6173          	.insn	4, 0x6c6c6173
  3c:	7261                	.insn	2, 0x7261
  3e:	6f6f742f          	.insn	4, 0x6f6f742f
  42:	736c                	.insn	2, 0x736c
  44:	7369722f          	.insn	4, 0x7369722f
  48:	672d7663          	bgeu	x26,x18,6b4 <_heap_size+0x6b4>
  4c:	756e                	.insn	2, 0x756e
  4e:	742d                	.insn	2, 0x742d
  50:	636c6f6f          	jal	x30,c6686 <_stack_size+0xc5686>
  54:	6168                	.insn	2, 0x6168
  56:	6e69                	.insn	2, 0x6e69
  58:	6975622f          	.insn	4, 0x6975622f
  5c:	646c                	.insn	2, 0x646c
  5e:	672d                	.insn	2, 0x672d
  60:	6e2d6363          	bltu	x26,x2,746 <_heap_size+0x746>
  64:	7765                	.insn	2, 0x7765
  66:	696c                	.insn	2, 0x696c
  68:	2d62                	.insn	2, 0x2d62
  6a:	67617473          	.insn	4, 0x67617473
  6e:	3265                	.insn	2, 0x3265
  70:	7369722f          	.insn	4, 0x7369722f
  74:	34367663          	bgeu	x12,x3,3c0 <_heap_size+0x3c0>
  78:	752d                	.insn	2, 0x752d
  7a:	6b6e                	.insn	2, 0x6b6e
  7c:	6f6e                	.insn	2, 0x6f6e
  7e:	652d6e77          	.insn	4, 0x652d6e77
  82:	666c                	.insn	2, 0x666c
  84:	3376722f          	.insn	4, 0x3376722f
  88:	6932                	.insn	2, 0x6932
  8a:	706c692f          	.insn	4, 0x706c692f
  8e:	6c2f3233          	.insn	4, 0x6c2f3233
  92:	6269                	.insn	2, 0x6269
  94:	00636367          	.insn	4, 0x00636367
  98:	20554e47          	.insn	4, 0x20554e47
  9c:	5341                	.insn	2, 0x5341
  9e:	3220                	.insn	2, 0x3220
  a0:	342e                	.insn	2, 0x342e
  a2:	0032                	.insn	2, 0x0032
  a4:	5f5f 756d 736c      	.insn	6, 0x736c756d5f5f
  aa:	3369                	.insn	2, 0x3369
	...
