
riscv-main.elf:     Dateiformat elf32-littleriscv


Disassembly of section .text:

80000000 <boot>:
80000000:	00002fb7          	lui	t6,0x2
80000004:	800f8f93          	addi	t6,t6,-2048 # 1800 <_STACK_SIZE-0xe800>
80000008:	300f9073          	csrw	mstatus,t6
8000000c:	0340006f          	j	80000040 <_mstart>
80000010:	00000013          	nop
80000014:	00000013          	nop
80000018:	00000013          	nop
8000001c:	00000013          	nop
80000020:	00000013          	nop
80000024:	00000013          	nop
80000028:	00000013          	nop
8000002c:	00000013          	nop
80000030:	00000013          	nop
80000034:	00000013          	nop
80000038:	00000013          	nop
8000003c:	00000013          	nop

80000040 <_mstart>:
80000040:	00000297          	auipc	t0,0x0
80000044:	1d028293          	addi	t0,t0,464 # 80000210 <trap_entry>
80000048:	30529073          	csrw	mtvec,t0
8000004c:	00000093          	li	ra,0
80000050:	00000113          	li	sp,0
80000054:	00000193          	li	gp,0
80000058:	00000213          	li	tp,0
8000005c:	00000293          	li	t0,0
80000060:	00000313          	li	t1,0
80000064:	00000393          	li	t2,0
80000068:	00000413          	li	s0,0
8000006c:	00000493          	li	s1,0
80000070:	00000513          	li	a0,0
80000074:	00000593          	li	a1,0
80000078:	00000613          	li	a2,0
8000007c:	00000693          	li	a3,0
80000080:	00000713          	li	a4,0
80000084:	00000793          	li	a5,0
80000088:	00000813          	li	a6,0
8000008c:	00000893          	li	a7,0
80000090:	00000913          	li	s2,0
80000094:	00000993          	li	s3,0
80000098:	00000a13          	li	s4,0
8000009c:	00000a93          	li	s5,0
800000a0:	00000b13          	li	s6,0
800000a4:	00000b93          	li	s7,0
800000a8:	00000c13          	li	s8,0
800000ac:	00000c93          	li	s9,0
800000b0:	00000d13          	li	s10,0
800000b4:	00000d93          	li	s11,0
800000b8:	00000e13          	li	t3,0
800000bc:	00000e93          	li	t4,0
800000c0:	00000f13          	li	t5,0
800000c4:	00000f93          	li	t6,0
800000c8:	00051197          	auipc	gp,0x51
800000cc:	c4018193          	addi	gp,gp,-960 # 80050d08 <_gp>

800000d0 <init_bss>:
800000d0:	00050517          	auipc	a0,0x50
800000d4:	57050513          	addi	a0,a0,1392 # 80050640 <xStartContext>
800000d8:	0006a597          	auipc	a1,0x6a
800000dc:	89858593          	addi	a1,a1,-1896 # 80069970 <uxLastPollingCycles.0>
800000e0:	00000613          	li	a2,0
800000e4:	25c000ef          	jal	ra,80000340 <fill_block>

800000e8 <init_sbss>:
800000e8:	00050517          	auipc	a0,0x50
800000ec:	39850513          	addi	a0,a0,920 # 80050480 <pxCurrentTCB>
800000f0:	00050597          	auipc	a1,0x50
800000f4:	41458593          	addi	a1,a1,1044 # 80050504 <fromhost+0x4>
800000f8:	00000613          	li	a2,0
800000fc:	244000ef          	jal	ra,80000340 <fill_block>

80000100 <write_stack_pattern>:
80000100:	0016a517          	auipc	a0,0x16a
80000104:	87450513          	addi	a0,a0,-1932 # 80169974 <_heap_end>
80000108:	0017a597          	auipc	a1,0x17a
8000010c:	86858593          	addi	a1,a1,-1944 # 80179970 <_heap_end+0xfffc>
80000110:	ababb637          	lui	a2,0xababb
80000114:	bab60613          	addi	a2,a2,-1109 # abababab <__stack+0x2b941237>
80000118:	228000ef          	jal	ra,80000340 <fill_block>

8000011c <init_stack>:
8000011c:	0017a117          	auipc	sp,0x17a
80000120:	85810113          	addi	sp,sp,-1960 # 80179974 <__stack>
80000124:	1040706f          	j	80007228 <vSyscallInit>

80000128 <interrupt>:
80000128:	00129293          	slli	t0,t0,0x1
8000012c:	0012d293          	srli	t0,t0,0x1
80000130:	ffd28293          	addi	t0,t0,-3
80000134:	0c028863          	beqz	t0,80000204 <softwareInterrupt>
80000138:	ff828293          	addi	t0,t0,-8
8000013c:	00028c63          	beqz	t0,80000154 <externalInterrupt>
80000140:	0040006f          	j	80000144 <timerInterrupt>

80000144 <timerInterrupt>:
80000144:	00012283          	lw	t0,0(sp)
80000148:	00410113          	addi	sp,sp,4
8000014c:	2280006f          	j	80000374 <TIMER_CMP_INT>
80000150:	30200073          	mret

80000154 <externalInterrupt>:
80000154:	000012b7          	lui	t0,0x1
80000158:	80028293          	addi	t0,t0,-2048 # 800 <_STACK_SIZE-0xf800>
8000015c:	3442b073          	csrc	mip,t0
80000160:	f8010113          	addi	sp,sp,-128
80000164:	00112023          	sw	ra,0(sp)
80000168:	00612a23          	sw	t1,20(sp)
8000016c:	00712c23          	sw	t2,24(sp)
80000170:	02a12223          	sw	a0,36(sp)
80000174:	02b12423          	sw	a1,40(sp)
80000178:	02c12623          	sw	a2,44(sp)
8000017c:	02d12823          	sw	a3,48(sp)
80000180:	02e12a23          	sw	a4,52(sp)
80000184:	02f12c23          	sw	a5,56(sp)
80000188:	03012e23          	sw	a6,60(sp)
8000018c:	05112023          	sw	a7,64(sp)
80000190:	07c12623          	sw	t3,108(sp)
80000194:	07d12823          	sw	t4,112(sp)
80000198:	07e12a23          	sw	t5,116(sp)
8000019c:	07f12c23          	sw	t6,120(sp)
800001a0:	30d070ef          	jal	ra,80007cac <xExternalInterruptHandler>
800001a4:	00050293          	mv	t0,a0
800001a8:	00012083          	lw	ra,0(sp)
800001ac:	01412303          	lw	t1,20(sp)
800001b0:	01812383          	lw	t2,24(sp)
800001b4:	02412503          	lw	a0,36(sp)
800001b8:	02812583          	lw	a1,40(sp)
800001bc:	02c12603          	lw	a2,44(sp)
800001c0:	03012683          	lw	a3,48(sp)
800001c4:	03412703          	lw	a4,52(sp)
800001c8:	03812783          	lw	a5,56(sp)
800001cc:	03c12803          	lw	a6,60(sp)
800001d0:	04012883          	lw	a7,64(sp)
800001d4:	06c12e03          	lw	t3,108(sp)
800001d8:	07012e83          	lw	t4,112(sp)
800001dc:	07412f03          	lw	t5,116(sp)
800001e0:	07812f83          	lw	t6,120(sp)
800001e4:	08010113          	addi	sp,sp,128
800001e8:	00504863          	bgtz	t0,800001f8 <yield_from_isr>
800001ec:	00012283          	lw	t0,0(sp)
800001f0:	00410113          	addi	sp,sp,4
800001f4:	30200073          	mret

800001f8 <yield_from_isr>:
800001f8:	00012283          	lw	t0,0(sp)
800001fc:	00410113          	addi	sp,sp,4
80000200:	4540006f          	j	80000654 <vPortYield>

80000204 <softwareInterrupt>:
80000204:	00012283          	lw	t0,0(sp)
80000208:	00410113          	addi	sp,sp,4
8000020c:	30200073          	mret

80000210 <trap_entry>:
80000210:	ffc10113          	addi	sp,sp,-4
80000214:	00512023          	sw	t0,0(sp)
80000218:	342022f3          	csrr	t0,mcause
8000021c:	f002c6e3          	bltz	t0,80000128 <interrupt>
80000220:	00012283          	lw	t0,0(sp)
80000224:	00410113          	addi	sp,sp,4
80000228:	f8010113          	addi	sp,sp,-128
8000022c:	00112223          	sw	ra,4(sp)
80000230:	00212423          	sw	sp,8(sp)
80000234:	00312623          	sw	gp,12(sp)
80000238:	00412823          	sw	tp,16(sp)
8000023c:	00512a23          	sw	t0,20(sp)
80000240:	00612c23          	sw	t1,24(sp)
80000244:	00712e23          	sw	t2,28(sp)
80000248:	02812023          	sw	s0,32(sp)
8000024c:	02912223          	sw	s1,36(sp)
80000250:	02a12423          	sw	a0,40(sp)
80000254:	02b12623          	sw	a1,44(sp)
80000258:	02c12823          	sw	a2,48(sp)
8000025c:	02d12a23          	sw	a3,52(sp)
80000260:	02e12c23          	sw	a4,56(sp)
80000264:	02f12e23          	sw	a5,60(sp)
80000268:	05012023          	sw	a6,64(sp)
8000026c:	05112223          	sw	a7,68(sp)
80000270:	05212423          	sw	s2,72(sp)
80000274:	05312623          	sw	s3,76(sp)
80000278:	05412823          	sw	s4,80(sp)
8000027c:	05512a23          	sw	s5,84(sp)
80000280:	05612c23          	sw	s6,88(sp)
80000284:	05712e23          	sw	s7,92(sp)
80000288:	07812023          	sw	s8,96(sp)
8000028c:	07912223          	sw	s9,100(sp)
80000290:	07a12423          	sw	s10,104(sp)
80000294:	07b12623          	sw	s11,108(sp)
80000298:	07c12823          	sw	t3,112(sp)
8000029c:	07d12a23          	sw	t4,116(sp)
800002a0:	07e12c23          	sw	t5,120(sp)
800002a4:	07f12e23          	sw	t6,124(sp)
800002a8:	34202573          	csrr	a0,mcause
800002ac:	341025f3          	csrr	a1,mepc
800002b0:	00010613          	mv	a2,sp
800002b4:	7b1060ef          	jal	ra,80007264 <ulSyscallTrap>
800002b8:	34151073          	csrw	mepc,a0
800002bc:	00412083          	lw	ra,4(sp)
800002c0:	00812103          	lw	sp,8(sp)
800002c4:	00c12183          	lw	gp,12(sp)
800002c8:	01012203          	lw	tp,16(sp)
800002cc:	01412283          	lw	t0,20(sp)
800002d0:	01812303          	lw	t1,24(sp)
800002d4:	01c12383          	lw	t2,28(sp)
800002d8:	02012403          	lw	s0,32(sp)
800002dc:	02412483          	lw	s1,36(sp)
800002e0:	02812503          	lw	a0,40(sp)
800002e4:	02c12583          	lw	a1,44(sp)
800002e8:	03012603          	lw	a2,48(sp)
800002ec:	03412683          	lw	a3,52(sp)
800002f0:	03812703          	lw	a4,56(sp)
800002f4:	03c12783          	lw	a5,60(sp)
800002f8:	04012803          	lw	a6,64(sp)
800002fc:	04412883          	lw	a7,68(sp)
80000300:	04812903          	lw	s2,72(sp)
80000304:	04c12983          	lw	s3,76(sp)
80000308:	05012a03          	lw	s4,80(sp)
8000030c:	05412a83          	lw	s5,84(sp)
80000310:	05812b03          	lw	s6,88(sp)
80000314:	05c12b83          	lw	s7,92(sp)
80000318:	06012c03          	lw	s8,96(sp)
8000031c:	06412c83          	lw	s9,100(sp)
80000320:	06812d03          	lw	s10,104(sp)
80000324:	06c12d83          	lw	s11,108(sp)
80000328:	07012e03          	lw	t3,112(sp)
8000032c:	07412e83          	lw	t4,116(sp)
80000330:	07812f03          	lw	t5,120(sp)
80000334:	07c12f83          	lw	t6,124(sp)
80000338:	08010113          	addi	sp,sp,128
8000033c:	30200073          	mret

80000340 <fill_block>:
80000340:	00c52023          	sw	a2,0(a0)
80000344:	00b57663          	bgeu	a0,a1,80000350 <fb_end>
80000348:	00450513          	addi	a0,a0,4
8000034c:	ff5ff06f          	j	80000340 <fill_block>

80000350 <fb_end>:
80000350:	00008067          	ret

80000354 <terminate_platform>:
80000354:	05d00893          	li	a7,93
80000358:	020102b7          	lui	t0,0x2010
8000035c:	f1402873          	csrr	a6,mhartid
80000360:	0102a023          	sw	a6,0(t0) # 2010000 <SYSCALL_ADDR>
	...

80000374 <TIMER_CMP_INT>:
80000374:	f8010113          	addi	sp,sp,-128
80000378:	00112023          	sw	ra,0(sp)
8000037c:	00212223          	sw	sp,4(sp)
80000380:	00312423          	sw	gp,8(sp)
80000384:	00412623          	sw	tp,12(sp)
80000388:	00512823          	sw	t0,16(sp)
8000038c:	00612a23          	sw	t1,20(sp)
80000390:	00712c23          	sw	t2,24(sp)
80000394:	00812e23          	sw	s0,28(sp)
80000398:	02912023          	sw	s1,32(sp)
8000039c:	02a12223          	sw	a0,36(sp)
800003a0:	02b12423          	sw	a1,40(sp)
800003a4:	02c12623          	sw	a2,44(sp)
800003a8:	02d12823          	sw	a3,48(sp)
800003ac:	02e12a23          	sw	a4,52(sp)
800003b0:	02f12c23          	sw	a5,56(sp)
800003b4:	03012e23          	sw	a6,60(sp)
800003b8:	05112023          	sw	a7,64(sp)
800003bc:	05212223          	sw	s2,68(sp)
800003c0:	05312423          	sw	s3,72(sp)
800003c4:	05412623          	sw	s4,76(sp)
800003c8:	05512823          	sw	s5,80(sp)
800003cc:	05612a23          	sw	s6,84(sp)
800003d0:	05712c23          	sw	s7,88(sp)
800003d4:	05812e23          	sw	s8,92(sp)
800003d8:	07912023          	sw	s9,96(sp)
800003dc:	07a12223          	sw	s10,100(sp)
800003e0:	07b12423          	sw	s11,104(sp)
800003e4:	07c12623          	sw	t3,108(sp)
800003e8:	07d12823          	sw	t4,112(sp)
800003ec:	07e12a23          	sw	t5,116(sp)
800003f0:	07f12c23          	sw	t6,120(sp)
800003f4:	00050297          	auipc	t0,0x50
800003f8:	08c2a283          	lw	t0,140(t0) # 80050480 <pxCurrentTCB>
800003fc:	0022a023          	sw	sp,0(t0)
80000400:	341022f3          	csrr	t0,mepc
80000404:	06512e23          	sw	t0,124(sp)
80000408:	508000ef          	jal	ra,80000910 <vPortSysTickHandler>
8000040c:	00050117          	auipc	sp,0x50
80000410:	07412103          	lw	sp,116(sp) # 80050480 <pxCurrentTCB>
80000414:	00012103          	lw	sp,0(sp)
80000418:	07c12283          	lw	t0,124(sp)
8000041c:	34129073          	csrw	mepc,t0
80000420:	000022b7          	lui	t0,0x2
80000424:	88028293          	addi	t0,t0,-1920 # 1880 <_STACK_SIZE-0xe780>
80000428:	3002a073          	csrs	mstatus,t0
8000042c:	00012083          	lw	ra,0(sp)
80000430:	00c12203          	lw	tp,12(sp)
80000434:	01012283          	lw	t0,16(sp)
80000438:	01412303          	lw	t1,20(sp)
8000043c:	01812383          	lw	t2,24(sp)
80000440:	01c12403          	lw	s0,28(sp)
80000444:	02012483          	lw	s1,32(sp)
80000448:	02412503          	lw	a0,36(sp)
8000044c:	02812583          	lw	a1,40(sp)
80000450:	02c12603          	lw	a2,44(sp)
80000454:	03012683          	lw	a3,48(sp)
80000458:	03412703          	lw	a4,52(sp)
8000045c:	03812783          	lw	a5,56(sp)
80000460:	03c12803          	lw	a6,60(sp)
80000464:	04012883          	lw	a7,64(sp)
80000468:	04412903          	lw	s2,68(sp)
8000046c:	04812983          	lw	s3,72(sp)
80000470:	04c12a03          	lw	s4,76(sp)
80000474:	05012a83          	lw	s5,80(sp)
80000478:	05412b03          	lw	s6,84(sp)
8000047c:	05812b83          	lw	s7,88(sp)
80000480:	05c12c03          	lw	s8,92(sp)
80000484:	06012c83          	lw	s9,96(sp)
80000488:	06412d03          	lw	s10,100(sp)
8000048c:	06812d83          	lw	s11,104(sp)
80000490:	06c12e03          	lw	t3,108(sp)
80000494:	07012e83          	lw	t4,112(sp)
80000498:	07412f03          	lw	t5,116(sp)
8000049c:	07812f83          	lw	t6,120(sp)
800004a0:	08010113          	addi	sp,sp,128
800004a4:	30200073          	mret

800004a8 <xPortStartScheduler>:
800004a8:	00050297          	auipc	t0,0x50
800004ac:	19828293          	addi	t0,t0,408 # 80050640 <xStartContext>
800004b0:	0012a023          	sw	ra,0(t0)
800004b4:	0022a223          	sw	sp,4(t0)
800004b8:	0032a423          	sw	gp,8(t0)
800004bc:	0042a623          	sw	tp,12(t0)
800004c0:	0052a823          	sw	t0,16(t0)
800004c4:	0062aa23          	sw	t1,20(t0)
800004c8:	0072ac23          	sw	t2,24(t0)
800004cc:	0082ae23          	sw	s0,28(t0)
800004d0:	0292a023          	sw	s1,32(t0)
800004d4:	02a2a223          	sw	a0,36(t0)
800004d8:	02b2a423          	sw	a1,40(t0)
800004dc:	02c2a623          	sw	a2,44(t0)
800004e0:	02d2a823          	sw	a3,48(t0)
800004e4:	02e2aa23          	sw	a4,52(t0)
800004e8:	02f2ac23          	sw	a5,56(t0)
800004ec:	0302ae23          	sw	a6,60(t0)
800004f0:	0512a023          	sw	a7,64(t0)
800004f4:	0522a223          	sw	s2,68(t0)
800004f8:	0532a423          	sw	s3,72(t0)
800004fc:	0542a623          	sw	s4,76(t0)
80000500:	0552a823          	sw	s5,80(t0)
80000504:	0562aa23          	sw	s6,84(t0)
80000508:	0572ac23          	sw	s7,88(t0)
8000050c:	0582ae23          	sw	s8,92(t0)
80000510:	0792a023          	sw	s9,96(t0)
80000514:	07a2a223          	sw	s10,100(t0)
80000518:	07b2a423          	sw	s11,104(t0)
8000051c:	07c2a623          	sw	t3,108(t0)
80000520:	07d2a823          	sw	t4,112(t0)
80000524:	07e2aa23          	sw	t5,116(t0)
80000528:	07f2ac23          	sw	t6,120(t0)
8000052c:	2d8000ef          	jal	ra,80000804 <vPortSetupTimer>
80000530:	00050117          	auipc	sp,0x50
80000534:	f5012103          	lw	sp,-176(sp) # 80050480 <pxCurrentTCB>
80000538:	00012103          	lw	sp,0(sp)
8000053c:	07c12283          	lw	t0,124(sp)
80000540:	34129073          	csrw	mepc,t0
80000544:	000022b7          	lui	t0,0x2
80000548:	88028293          	addi	t0,t0,-1920 # 1880 <_STACK_SIZE-0xe780>
8000054c:	3002a073          	csrs	mstatus,t0
80000550:	00012083          	lw	ra,0(sp)
80000554:	00c12203          	lw	tp,12(sp)
80000558:	01012283          	lw	t0,16(sp)
8000055c:	01412303          	lw	t1,20(sp)
80000560:	01812383          	lw	t2,24(sp)
80000564:	01c12403          	lw	s0,28(sp)
80000568:	02012483          	lw	s1,32(sp)
8000056c:	02412503          	lw	a0,36(sp)
80000570:	02812583          	lw	a1,40(sp)
80000574:	02c12603          	lw	a2,44(sp)
80000578:	03012683          	lw	a3,48(sp)
8000057c:	03412703          	lw	a4,52(sp)
80000580:	03812783          	lw	a5,56(sp)
80000584:	03c12803          	lw	a6,60(sp)
80000588:	04012883          	lw	a7,64(sp)
8000058c:	04412903          	lw	s2,68(sp)
80000590:	04812983          	lw	s3,72(sp)
80000594:	04c12a03          	lw	s4,76(sp)
80000598:	05012a83          	lw	s5,80(sp)
8000059c:	05412b03          	lw	s6,84(sp)
800005a0:	05812b83          	lw	s7,88(sp)
800005a4:	05c12c03          	lw	s8,92(sp)
800005a8:	06012c83          	lw	s9,96(sp)
800005ac:	06412d03          	lw	s10,100(sp)
800005b0:	06812d83          	lw	s11,104(sp)
800005b4:	06c12e03          	lw	t3,108(sp)
800005b8:	07012e83          	lw	t4,112(sp)
800005bc:	07412f03          	lw	t5,116(sp)
800005c0:	07812f83          	lw	t6,120(sp)
800005c4:	08010113          	addi	sp,sp,128
800005c8:	30200073          	mret

800005cc <vPortEndScheduler>:
800005cc:	00050297          	auipc	t0,0x50
800005d0:	07428293          	addi	t0,t0,116 # 80050640 <xStartContext>
800005d4:	0002a083          	lw	ra,0(t0)
800005d8:	0042a103          	lw	sp,4(t0)
800005dc:	0082a183          	lw	gp,8(t0)
800005e0:	00c2a203          	lw	tp,12(t0)
800005e4:	0102a283          	lw	t0,16(t0)
800005e8:	0142a303          	lw	t1,20(t0)
800005ec:	0182a383          	lw	t2,24(t0)
800005f0:	01c2a403          	lw	s0,28(t0)
800005f4:	0202a483          	lw	s1,32(t0)
800005f8:	0242a503          	lw	a0,36(t0)
800005fc:	0282a583          	lw	a1,40(t0)
80000600:	02c2a603          	lw	a2,44(t0)
80000604:	0302a683          	lw	a3,48(t0)
80000608:	0342a703          	lw	a4,52(t0)
8000060c:	0382a783          	lw	a5,56(t0)
80000610:	03c2a803          	lw	a6,60(t0)
80000614:	0402a883          	lw	a7,64(t0)
80000618:	0442a903          	lw	s2,68(t0)
8000061c:	0482a983          	lw	s3,72(t0)
80000620:	04c2aa03          	lw	s4,76(t0)
80000624:	0502aa83          	lw	s5,80(t0)
80000628:	0542ab03          	lw	s6,84(t0)
8000062c:	0582ab83          	lw	s7,88(t0)
80000630:	05c2ac03          	lw	s8,92(t0)
80000634:	0602ac83          	lw	s9,96(t0)
80000638:	0642ad03          	lw	s10,100(t0)
8000063c:	0682ad83          	lw	s11,104(t0)
80000640:	06c2ae03          	lw	t3,108(t0)
80000644:	0702ae83          	lw	t4,112(t0)
80000648:	09c2af03          	lw	t5,156(t0)
8000064c:	0782af83          	lw	t6,120(t0)
80000650:	00008067          	ret

80000654 <vPortYield>:
80000654:	30047073          	csrci	mstatus,8
80000658:	f8010113          	addi	sp,sp,-128
8000065c:	00112023          	sw	ra,0(sp)
80000660:	00212223          	sw	sp,4(sp)
80000664:	00312423          	sw	gp,8(sp)
80000668:	00412623          	sw	tp,12(sp)
8000066c:	00512823          	sw	t0,16(sp)
80000670:	00612a23          	sw	t1,20(sp)
80000674:	00712c23          	sw	t2,24(sp)
80000678:	00812e23          	sw	s0,28(sp)
8000067c:	02912023          	sw	s1,32(sp)
80000680:	02a12223          	sw	a0,36(sp)
80000684:	02b12423          	sw	a1,40(sp)
80000688:	02c12623          	sw	a2,44(sp)
8000068c:	02d12823          	sw	a3,48(sp)
80000690:	02e12a23          	sw	a4,52(sp)
80000694:	02f12c23          	sw	a5,56(sp)
80000698:	03012e23          	sw	a6,60(sp)
8000069c:	05112023          	sw	a7,64(sp)
800006a0:	05212223          	sw	s2,68(sp)
800006a4:	05312423          	sw	s3,72(sp)
800006a8:	05412623          	sw	s4,76(sp)
800006ac:	05512823          	sw	s5,80(sp)
800006b0:	05612a23          	sw	s6,84(sp)
800006b4:	05712c23          	sw	s7,88(sp)
800006b8:	05812e23          	sw	s8,92(sp)
800006bc:	07912023          	sw	s9,96(sp)
800006c0:	07a12223          	sw	s10,100(sp)
800006c4:	07b12423          	sw	s11,104(sp)
800006c8:	07c12623          	sw	t3,108(sp)
800006cc:	07d12823          	sw	t4,112(sp)
800006d0:	07e12a23          	sw	t5,116(sp)
800006d4:	07f12c23          	sw	t6,120(sp)
800006d8:	00050297          	auipc	t0,0x50
800006dc:	da82a283          	lw	t0,-600(t0) # 80050480 <pxCurrentTCB>
800006e0:	0022a023          	sw	sp,0(t0)
800006e4:	06112e23          	sw	ra,124(sp)
800006e8:	598030ef          	jal	ra,80003c80 <vTaskSwitchContext>
800006ec:	00050117          	auipc	sp,0x50
800006f0:	d9412103          	lw	sp,-620(sp) # 80050480 <pxCurrentTCB>
800006f4:	00012103          	lw	sp,0(sp)
800006f8:	07c12283          	lw	t0,124(sp)
800006fc:	34129073          	csrw	mepc,t0
80000700:	000022b7          	lui	t0,0x2
80000704:	88028293          	addi	t0,t0,-1920 # 1880 <_STACK_SIZE-0xe780>
80000708:	3002a073          	csrs	mstatus,t0
8000070c:	00012083          	lw	ra,0(sp)
80000710:	00c12203          	lw	tp,12(sp)
80000714:	01012283          	lw	t0,16(sp)
80000718:	01412303          	lw	t1,20(sp)
8000071c:	01812383          	lw	t2,24(sp)
80000720:	01c12403          	lw	s0,28(sp)
80000724:	02012483          	lw	s1,32(sp)
80000728:	02412503          	lw	a0,36(sp)
8000072c:	02812583          	lw	a1,40(sp)
80000730:	02c12603          	lw	a2,44(sp)
80000734:	03012683          	lw	a3,48(sp)
80000738:	03412703          	lw	a4,52(sp)
8000073c:	03812783          	lw	a5,56(sp)
80000740:	03c12803          	lw	a6,60(sp)
80000744:	04012883          	lw	a7,64(sp)
80000748:	04412903          	lw	s2,68(sp)
8000074c:	04812983          	lw	s3,72(sp)
80000750:	04c12a03          	lw	s4,76(sp)
80000754:	05012a83          	lw	s5,80(sp)
80000758:	05412b03          	lw	s6,84(sp)
8000075c:	05812b83          	lw	s7,88(sp)
80000760:	05c12c03          	lw	s8,92(sp)
80000764:	06012c83          	lw	s9,96(sp)
80000768:	06412d03          	lw	s10,100(sp)
8000076c:	06812d83          	lw	s11,104(sp)
80000770:	06c12e03          	lw	t3,108(sp)
80000774:	07012e83          	lw	t4,112(sp)
80000778:	07412f03          	lw	t5,116(sp)
8000077c:	07812f83          	lw	t6,120(sp)
80000780:	08010113          	addi	sp,sp,128
80000784:	30200073          	mret

80000788 <prvSetNextTimerInterrupt>:
80000788:	00050797          	auipc	a5,0x50
8000078c:	d9478793          	addi	a5,a5,-620 # 8005051c <mtime>
80000790:	0007a783          	lw	a5,0(a5)
80000794:	06078463          	beqz	a5,800007fc <prvSetNextTimerInterrupt+0x74>
80000798:	00050797          	auipc	a5,0x50
8000079c:	d8878793          	addi	a5,a5,-632 # 80050520 <timecmp>
800007a0:	0007a783          	lw	a5,0(a5)
800007a4:	04078c63          	beqz	a5,800007fc <prvSetNextTimerInterrupt+0x74>
800007a8:	00050797          	auipc	a5,0x50
800007ac:	d7478793          	addi	a5,a5,-652 # 8005051c <mtime>
800007b0:	0007a783          	lw	a5,0(a5)
800007b4:	0007a703          	lw	a4,0(a5)
800007b8:	0047a783          	lw	a5,4(a5)
800007bc:	00050697          	auipc	a3,0x50
800007c0:	d6468693          	addi	a3,a3,-668 # 80050520 <timecmp>
800007c4:	0006a803          	lw	a6,0(a3)
800007c8:	0003b537          	lui	a0,0x3b
800007cc:	98050513          	addi	a0,a0,-1664 # 3a980 <_STACK_SIZE+0x2a980>
800007d0:	00000593          	li	a1,0
800007d4:	00a70633          	add	a2,a4,a0
800007d8:	00060893          	mv	a7,a2
800007dc:	00e8b8b3          	sltu	a7,a7,a4
800007e0:	00b786b3          	add	a3,a5,a1
800007e4:	00d887b3          	add	a5,a7,a3
800007e8:	00078693          	mv	a3,a5
800007ec:	00060713          	mv	a4,a2
800007f0:	00068793          	mv	a5,a3
800007f4:	00e82023          	sw	a4,0(a6)
800007f8:	00f82223          	sw	a5,4(a6)
800007fc:	00000013          	nop
80000800:	00008067          	ret

80000804 <vPortSetupTimer>:
80000804:	ff010113          	addi	sp,sp,-16
80000808:	00112623          	sw	ra,12(sp)
8000080c:	f7dff0ef          	jal	ra,80000788 <prvSetNextTimerInterrupt>
80000810:	08000793          	li	a5,128
80000814:	3047a073          	csrs	mie,a5
80000818:	00000013          	nop
8000081c:	00c12083          	lw	ra,12(sp)
80000820:	01010113          	addi	sp,sp,16
80000824:	00008067          	ret

80000828 <prvTaskExitError>:
80000828:	00050797          	auipc	a5,0x50
8000082c:	cf078793          	addi	a5,a5,-784 # 80050518 <uxCriticalNesting>
80000830:	0007a703          	lw	a4,0(a5)
80000834:	fff00793          	li	a5,-1
80000838:	00f70663          	beq	a4,a5,80000844 <prvTaskExitError+0x1c>
8000083c:	30047073          	csrci	mstatus,8
80000840:	0000006f          	j	80000840 <prvTaskExitError+0x18>
80000844:	30047073          	csrci	mstatus,8
80000848:	0000006f          	j	80000848 <prvTaskExitError+0x20>

8000084c <vPortClearInterruptMask>:
8000084c:	ff010113          	addi	sp,sp,-16
80000850:	00a12623          	sw	a0,12(sp)
80000854:	00c12783          	lw	a5,12(sp)
80000858:	30479073          	csrw	mie,a5
8000085c:	00000013          	nop
80000860:	01010113          	addi	sp,sp,16
80000864:	00008067          	ret

80000868 <vPortSetInterruptMask>:
80000868:	ff010113          	addi	sp,sp,-16
8000086c:	304027f3          	csrr	a5,mie
80000870:	00f12623          	sw	a5,12(sp)
80000874:	3043f073          	csrci	mie,7
80000878:	00c12783          	lw	a5,12(sp)
8000087c:	00078513          	mv	a0,a5
80000880:	01010113          	addi	sp,sp,16
80000884:	00008067          	ret

80000888 <pxPortInitialiseStack>:
80000888:	ff010113          	addi	sp,sp,-16
8000088c:	00a12623          	sw	a0,12(sp)
80000890:	00b12423          	sw	a1,8(sp)
80000894:	00c12223          	sw	a2,4(sp)
80000898:	00c12783          	lw	a5,12(sp)
8000089c:	ffc78793          	addi	a5,a5,-4
800008a0:	00f12623          	sw	a5,12(sp)
800008a4:	00812703          	lw	a4,8(sp)
800008a8:	00c12783          	lw	a5,12(sp)
800008ac:	00e7a023          	sw	a4,0(a5)
800008b0:	00c12783          	lw	a5,12(sp)
800008b4:	fa878793          	addi	a5,a5,-88
800008b8:	00f12623          	sw	a5,12(sp)
800008bc:	00412703          	lw	a4,4(sp)
800008c0:	00c12783          	lw	a5,12(sp)
800008c4:	00e7a023          	sw	a4,0(a5)
800008c8:	00c12783          	lw	a5,12(sp)
800008cc:	fe878793          	addi	a5,a5,-24
800008d0:	00f12623          	sw	a5,12(sp)
800008d4:	00018793          	mv	a5,gp
800008d8:	00078713          	mv	a4,a5
800008dc:	00c12783          	lw	a5,12(sp)
800008e0:	00e7a023          	sw	a4,0(a5)
800008e4:	00c12783          	lw	a5,12(sp)
800008e8:	ff478793          	addi	a5,a5,-12
800008ec:	00f12623          	sw	a5,12(sp)
800008f0:	00000717          	auipc	a4,0x0
800008f4:	f3870713          	addi	a4,a4,-200 # 80000828 <prvTaskExitError>
800008f8:	00c12783          	lw	a5,12(sp)
800008fc:	00e7a023          	sw	a4,0(a5)
80000900:	00c12783          	lw	a5,12(sp)
80000904:	00078513          	mv	a0,a5
80000908:	01010113          	addi	sp,sp,16
8000090c:	00008067          	ret

80000910 <vPortSysTickHandler>:
80000910:	ff010113          	addi	sp,sp,-16
80000914:	00112623          	sw	ra,12(sp)
80000918:	e71ff0ef          	jal	ra,80000788 <prvSetNextTimerInterrupt>
8000091c:	0d4030ef          	jal	ra,800039f0 <xTaskIncrementTick>
80000920:	00050793          	mv	a5,a0
80000924:	00078463          	beqz	a5,8000092c <vPortSysTickHandler+0x1c>
80000928:	358030ef          	jal	ra,80003c80 <vTaskSwitchContext>
8000092c:	00000013          	nop
80000930:	00c12083          	lw	ra,12(sp)
80000934:	01010113          	addi	sp,sp,16
80000938:	00008067          	ret

8000093c <vListInitialise>:
8000093c:	ff010113          	addi	sp,sp,-16
80000940:	00a12623          	sw	a0,12(sp)
80000944:	00c12783          	lw	a5,12(sp)
80000948:	00878713          	addi	a4,a5,8
8000094c:	00c12783          	lw	a5,12(sp)
80000950:	00e7a223          	sw	a4,4(a5)
80000954:	00c12783          	lw	a5,12(sp)
80000958:	fff00713          	li	a4,-1
8000095c:	00e7a423          	sw	a4,8(a5)
80000960:	00c12783          	lw	a5,12(sp)
80000964:	00878713          	addi	a4,a5,8
80000968:	00c12783          	lw	a5,12(sp)
8000096c:	00e7a623          	sw	a4,12(a5)
80000970:	00c12783          	lw	a5,12(sp)
80000974:	00878713          	addi	a4,a5,8
80000978:	00c12783          	lw	a5,12(sp)
8000097c:	00e7a823          	sw	a4,16(a5)
80000980:	00c12783          	lw	a5,12(sp)
80000984:	0007a023          	sw	zero,0(a5)
80000988:	00000013          	nop
8000098c:	01010113          	addi	sp,sp,16
80000990:	00008067          	ret

80000994 <vListInitialiseItem>:
80000994:	ff010113          	addi	sp,sp,-16
80000998:	00a12623          	sw	a0,12(sp)
8000099c:	00c12783          	lw	a5,12(sp)
800009a0:	0007a823          	sw	zero,16(a5)
800009a4:	00000013          	nop
800009a8:	01010113          	addi	sp,sp,16
800009ac:	00008067          	ret

800009b0 <vListInsertEnd>:
800009b0:	fe010113          	addi	sp,sp,-32
800009b4:	00a12623          	sw	a0,12(sp)
800009b8:	00b12423          	sw	a1,8(sp)
800009bc:	00c12783          	lw	a5,12(sp)
800009c0:	0047a783          	lw	a5,4(a5)
800009c4:	00f12e23          	sw	a5,28(sp)
800009c8:	00812783          	lw	a5,8(sp)
800009cc:	01c12703          	lw	a4,28(sp)
800009d0:	00e7a223          	sw	a4,4(a5)
800009d4:	01c12783          	lw	a5,28(sp)
800009d8:	0087a703          	lw	a4,8(a5)
800009dc:	00812783          	lw	a5,8(sp)
800009e0:	00e7a423          	sw	a4,8(a5)
800009e4:	01c12783          	lw	a5,28(sp)
800009e8:	0087a783          	lw	a5,8(a5)
800009ec:	00812703          	lw	a4,8(sp)
800009f0:	00e7a223          	sw	a4,4(a5)
800009f4:	01c12783          	lw	a5,28(sp)
800009f8:	00812703          	lw	a4,8(sp)
800009fc:	00e7a423          	sw	a4,8(a5)
80000a00:	00812783          	lw	a5,8(sp)
80000a04:	00c12703          	lw	a4,12(sp)
80000a08:	00e7a823          	sw	a4,16(a5)
80000a0c:	00c12783          	lw	a5,12(sp)
80000a10:	0007a783          	lw	a5,0(a5)
80000a14:	00178713          	addi	a4,a5,1
80000a18:	00c12783          	lw	a5,12(sp)
80000a1c:	00e7a023          	sw	a4,0(a5)
80000a20:	00000013          	nop
80000a24:	02010113          	addi	sp,sp,32
80000a28:	00008067          	ret

80000a2c <vListInsert>:
80000a2c:	fe010113          	addi	sp,sp,-32
80000a30:	00a12623          	sw	a0,12(sp)
80000a34:	00b12423          	sw	a1,8(sp)
80000a38:	00812783          	lw	a5,8(sp)
80000a3c:	0007a783          	lw	a5,0(a5)
80000a40:	00f12c23          	sw	a5,24(sp)
80000a44:	01812703          	lw	a4,24(sp)
80000a48:	fff00793          	li	a5,-1
80000a4c:	00f71a63          	bne	a4,a5,80000a60 <vListInsert+0x34>
80000a50:	00c12783          	lw	a5,12(sp)
80000a54:	0107a783          	lw	a5,16(a5)
80000a58:	00f12e23          	sw	a5,28(sp)
80000a5c:	0340006f          	j	80000a90 <vListInsert+0x64>
80000a60:	00c12783          	lw	a5,12(sp)
80000a64:	00878793          	addi	a5,a5,8
80000a68:	00f12e23          	sw	a5,28(sp)
80000a6c:	0100006f          	j	80000a7c <vListInsert+0x50>
80000a70:	01c12783          	lw	a5,28(sp)
80000a74:	0047a783          	lw	a5,4(a5)
80000a78:	00f12e23          	sw	a5,28(sp)
80000a7c:	01c12783          	lw	a5,28(sp)
80000a80:	0047a783          	lw	a5,4(a5)
80000a84:	0007a783          	lw	a5,0(a5)
80000a88:	01812703          	lw	a4,24(sp)
80000a8c:	fef772e3          	bgeu	a4,a5,80000a70 <vListInsert+0x44>
80000a90:	01c12783          	lw	a5,28(sp)
80000a94:	0047a703          	lw	a4,4(a5)
80000a98:	00812783          	lw	a5,8(sp)
80000a9c:	00e7a223          	sw	a4,4(a5)
80000aa0:	00812783          	lw	a5,8(sp)
80000aa4:	0047a783          	lw	a5,4(a5)
80000aa8:	00812703          	lw	a4,8(sp)
80000aac:	00e7a423          	sw	a4,8(a5)
80000ab0:	00812783          	lw	a5,8(sp)
80000ab4:	01c12703          	lw	a4,28(sp)
80000ab8:	00e7a423          	sw	a4,8(a5)
80000abc:	01c12783          	lw	a5,28(sp)
80000ac0:	00812703          	lw	a4,8(sp)
80000ac4:	00e7a223          	sw	a4,4(a5)
80000ac8:	00812783          	lw	a5,8(sp)
80000acc:	00c12703          	lw	a4,12(sp)
80000ad0:	00e7a823          	sw	a4,16(a5)
80000ad4:	00c12783          	lw	a5,12(sp)
80000ad8:	0007a783          	lw	a5,0(a5)
80000adc:	00178713          	addi	a4,a5,1
80000ae0:	00c12783          	lw	a5,12(sp)
80000ae4:	00e7a023          	sw	a4,0(a5)
80000ae8:	00000013          	nop
80000aec:	02010113          	addi	sp,sp,32
80000af0:	00008067          	ret

80000af4 <uxListRemove>:
80000af4:	fe010113          	addi	sp,sp,-32
80000af8:	00a12623          	sw	a0,12(sp)
80000afc:	00c12783          	lw	a5,12(sp)
80000b00:	0107a783          	lw	a5,16(a5)
80000b04:	00f12e23          	sw	a5,28(sp)
80000b08:	00c12783          	lw	a5,12(sp)
80000b0c:	0047a783          	lw	a5,4(a5)
80000b10:	00c12703          	lw	a4,12(sp)
80000b14:	00872703          	lw	a4,8(a4)
80000b18:	00e7a423          	sw	a4,8(a5)
80000b1c:	00c12783          	lw	a5,12(sp)
80000b20:	0087a783          	lw	a5,8(a5)
80000b24:	00c12703          	lw	a4,12(sp)
80000b28:	00472703          	lw	a4,4(a4)
80000b2c:	00e7a223          	sw	a4,4(a5)
80000b30:	01c12783          	lw	a5,28(sp)
80000b34:	0047a783          	lw	a5,4(a5)
80000b38:	00c12703          	lw	a4,12(sp)
80000b3c:	00f71a63          	bne	a4,a5,80000b50 <uxListRemove+0x5c>
80000b40:	00c12783          	lw	a5,12(sp)
80000b44:	0087a703          	lw	a4,8(a5)
80000b48:	01c12783          	lw	a5,28(sp)
80000b4c:	00e7a223          	sw	a4,4(a5)
80000b50:	00c12783          	lw	a5,12(sp)
80000b54:	0007a823          	sw	zero,16(a5)
80000b58:	01c12783          	lw	a5,28(sp)
80000b5c:	0007a783          	lw	a5,0(a5)
80000b60:	fff78713          	addi	a4,a5,-1
80000b64:	01c12783          	lw	a5,28(sp)
80000b68:	00e7a023          	sw	a4,0(a5)
80000b6c:	01c12783          	lw	a5,28(sp)
80000b70:	0007a783          	lw	a5,0(a5)
80000b74:	00078513          	mv	a0,a5
80000b78:	02010113          	addi	sp,sp,32
80000b7c:	00008067          	ret

80000b80 <xQueueGenericReset>:
80000b80:	fd010113          	addi	sp,sp,-48
80000b84:	02112623          	sw	ra,44(sp)
80000b88:	02812423          	sw	s0,40(sp)
80000b8c:	00a12623          	sw	a0,12(sp)
80000b90:	00b12423          	sw	a1,8(sp)
80000b94:	00c12783          	lw	a5,12(sp)
80000b98:	00f12e23          	sw	a5,28(sp)
80000b9c:	01c12783          	lw	a5,28(sp)
80000ba0:	00079663          	bnez	a5,80000bac <xQueueGenericReset+0x2c>
80000ba4:	30047073          	csrci	mstatus,8
80000ba8:	0000006f          	j	80000ba8 <xQueueGenericReset+0x28>
80000bac:	238040ef          	jal	ra,80004de4 <vTaskEnterCritical>
80000bb0:	01c12783          	lw	a5,28(sp)
80000bb4:	0007a403          	lw	s0,0(a5)
80000bb8:	01c12783          	lw	a5,28(sp)
80000bbc:	03c7a703          	lw	a4,60(a5)
80000bc0:	01c12783          	lw	a5,28(sp)
80000bc4:	0407a783          	lw	a5,64(a5)
80000bc8:	00078593          	mv	a1,a5
80000bcc:	00070513          	mv	a0,a4
80000bd0:	4f0090ef          	jal	ra,8000a0c0 <__mulsi3>
80000bd4:	00050793          	mv	a5,a0
80000bd8:	00f40733          	add	a4,s0,a5
80000bdc:	01c12783          	lw	a5,28(sp)
80000be0:	00e7a223          	sw	a4,4(a5)
80000be4:	01c12783          	lw	a5,28(sp)
80000be8:	0207ac23          	sw	zero,56(a5)
80000bec:	01c12783          	lw	a5,28(sp)
80000bf0:	0007a703          	lw	a4,0(a5)
80000bf4:	01c12783          	lw	a5,28(sp)
80000bf8:	00e7a423          	sw	a4,8(a5)
80000bfc:	01c12783          	lw	a5,28(sp)
80000c00:	0007a403          	lw	s0,0(a5)
80000c04:	01c12783          	lw	a5,28(sp)
80000c08:	03c7a783          	lw	a5,60(a5)
80000c0c:	fff78713          	addi	a4,a5,-1
80000c10:	01c12783          	lw	a5,28(sp)
80000c14:	0407a783          	lw	a5,64(a5)
80000c18:	00078593          	mv	a1,a5
80000c1c:	00070513          	mv	a0,a4
80000c20:	4a0090ef          	jal	ra,8000a0c0 <__mulsi3>
80000c24:	00050793          	mv	a5,a0
80000c28:	00f40733          	add	a4,s0,a5
80000c2c:	01c12783          	lw	a5,28(sp)
80000c30:	00e7a623          	sw	a4,12(a5)
80000c34:	01c12783          	lw	a5,28(sp)
80000c38:	fff00713          	li	a4,-1
80000c3c:	04e78223          	sb	a4,68(a5)
80000c40:	01c12783          	lw	a5,28(sp)
80000c44:	fff00713          	li	a4,-1
80000c48:	04e782a3          	sb	a4,69(a5)
80000c4c:	00812783          	lw	a5,8(sp)
80000c50:	02079863          	bnez	a5,80000c80 <xQueueGenericReset+0x100>
80000c54:	01c12783          	lw	a5,28(sp)
80000c58:	0107a783          	lw	a5,16(a5)
80000c5c:	04078263          	beqz	a5,80000ca0 <xQueueGenericReset+0x120>
80000c60:	01c12783          	lw	a5,28(sp)
80000c64:	01078793          	addi	a5,a5,16
80000c68:	00078513          	mv	a0,a5
80000c6c:	324030ef          	jal	ra,80003f90 <xTaskRemoveFromEventList>
80000c70:	00050793          	mv	a5,a0
80000c74:	02078663          	beqz	a5,80000ca0 <xQueueGenericReset+0x120>
80000c78:	9ddff0ef          	jal	ra,80000654 <vPortYield>
80000c7c:	0240006f          	j	80000ca0 <xQueueGenericReset+0x120>
80000c80:	01c12783          	lw	a5,28(sp)
80000c84:	01078793          	addi	a5,a5,16
80000c88:	00078513          	mv	a0,a5
80000c8c:	cb1ff0ef          	jal	ra,8000093c <vListInitialise>
80000c90:	01c12783          	lw	a5,28(sp)
80000c94:	02478793          	addi	a5,a5,36
80000c98:	00078513          	mv	a0,a5
80000c9c:	ca1ff0ef          	jal	ra,8000093c <vListInitialise>
80000ca0:	184040ef          	jal	ra,80004e24 <vTaskExitCritical>
80000ca4:	00100793          	li	a5,1
80000ca8:	00078513          	mv	a0,a5
80000cac:	02c12083          	lw	ra,44(sp)
80000cb0:	02812403          	lw	s0,40(sp)
80000cb4:	03010113          	addi	sp,sp,48
80000cb8:	00008067          	ret

80000cbc <xQueueGenericCreate>:
80000cbc:	fd010113          	addi	sp,sp,-48
80000cc0:	02112623          	sw	ra,44(sp)
80000cc4:	00a12623          	sw	a0,12(sp)
80000cc8:	00b12423          	sw	a1,8(sp)
80000ccc:	00060793          	mv	a5,a2
80000cd0:	00f103a3          	sb	a5,7(sp)
80000cd4:	00c12783          	lw	a5,12(sp)
80000cd8:	00079663          	bnez	a5,80000ce4 <xQueueGenericCreate+0x28>
80000cdc:	30047073          	csrci	mstatus,8
80000ce0:	0000006f          	j	80000ce0 <xQueueGenericCreate+0x24>
80000ce4:	00812783          	lw	a5,8(sp)
80000ce8:	00079663          	bnez	a5,80000cf4 <xQueueGenericCreate+0x38>
80000cec:	00012e23          	sw	zero,28(sp)
80000cf0:	0180006f          	j	80000d08 <xQueueGenericCreate+0x4c>
80000cf4:	00812583          	lw	a1,8(sp)
80000cf8:	00c12503          	lw	a0,12(sp)
80000cfc:	3c4090ef          	jal	ra,8000a0c0 <__mulsi3>
80000d00:	00050793          	mv	a5,a0
80000d04:	00f12e23          	sw	a5,28(sp)
80000d08:	01c12783          	lw	a5,28(sp)
80000d0c:	05078793          	addi	a5,a5,80
80000d10:	00078513          	mv	a0,a5
80000d14:	6e5050ef          	jal	ra,80006bf8 <pvPortMalloc>
80000d18:	00a12c23          	sw	a0,24(sp)
80000d1c:	01812783          	lw	a5,24(sp)
80000d20:	02078663          	beqz	a5,80000d4c <xQueueGenericCreate+0x90>
80000d24:	01812783          	lw	a5,24(sp)
80000d28:	05078793          	addi	a5,a5,80
80000d2c:	00f12a23          	sw	a5,20(sp)
80000d30:	00714783          	lbu	a5,7(sp)
80000d34:	01812703          	lw	a4,24(sp)
80000d38:	00078693          	mv	a3,a5
80000d3c:	01412603          	lw	a2,20(sp)
80000d40:	00812583          	lw	a1,8(sp)
80000d44:	00c12503          	lw	a0,12(sp)
80000d48:	018000ef          	jal	ra,80000d60 <prvInitialiseNewQueue>
80000d4c:	01812783          	lw	a5,24(sp)
80000d50:	00078513          	mv	a0,a5
80000d54:	02c12083          	lw	ra,44(sp)
80000d58:	03010113          	addi	sp,sp,48
80000d5c:	00008067          	ret

80000d60 <prvInitialiseNewQueue>:
80000d60:	fd010113          	addi	sp,sp,-48
80000d64:	02112623          	sw	ra,44(sp)
80000d68:	00a12e23          	sw	a0,28(sp)
80000d6c:	00b12c23          	sw	a1,24(sp)
80000d70:	00c12a23          	sw	a2,20(sp)
80000d74:	00068793          	mv	a5,a3
80000d78:	00e12623          	sw	a4,12(sp)
80000d7c:	00f109a3          	sb	a5,19(sp)
80000d80:	01812783          	lw	a5,24(sp)
80000d84:	00079a63          	bnez	a5,80000d98 <prvInitialiseNewQueue+0x38>
80000d88:	00c12783          	lw	a5,12(sp)
80000d8c:	00c12703          	lw	a4,12(sp)
80000d90:	00e7a023          	sw	a4,0(a5)
80000d94:	0100006f          	j	80000da4 <prvInitialiseNewQueue+0x44>
80000d98:	00c12783          	lw	a5,12(sp)
80000d9c:	01412703          	lw	a4,20(sp)
80000da0:	00e7a023          	sw	a4,0(a5)
80000da4:	00c12783          	lw	a5,12(sp)
80000da8:	01c12703          	lw	a4,28(sp)
80000dac:	02e7ae23          	sw	a4,60(a5)
80000db0:	00c12783          	lw	a5,12(sp)
80000db4:	01812703          	lw	a4,24(sp)
80000db8:	04e7a023          	sw	a4,64(a5)
80000dbc:	00100593          	li	a1,1
80000dc0:	00c12503          	lw	a0,12(sp)
80000dc4:	dbdff0ef          	jal	ra,80000b80 <xQueueGenericReset>
80000dc8:	00c12783          	lw	a5,12(sp)
80000dcc:	01314703          	lbu	a4,19(sp)
80000dd0:	04e78623          	sb	a4,76(a5)
80000dd4:	00000013          	nop
80000dd8:	02c12083          	lw	ra,44(sp)
80000ddc:	03010113          	addi	sp,sp,48
80000de0:	00008067          	ret

80000de4 <prvInitialiseMutex>:
80000de4:	fe010113          	addi	sp,sp,-32
80000de8:	00112e23          	sw	ra,28(sp)
80000dec:	00a12623          	sw	a0,12(sp)
80000df0:	00c12783          	lw	a5,12(sp)
80000df4:	02078863          	beqz	a5,80000e24 <prvInitialiseMutex+0x40>
80000df8:	00c12783          	lw	a5,12(sp)
80000dfc:	0007a223          	sw	zero,4(a5)
80000e00:	00c12783          	lw	a5,12(sp)
80000e04:	0007a023          	sw	zero,0(a5)
80000e08:	00c12783          	lw	a5,12(sp)
80000e0c:	0007a623          	sw	zero,12(a5)
80000e10:	00000693          	li	a3,0
80000e14:	00000613          	li	a2,0
80000e18:	00000593          	li	a1,0
80000e1c:	00c12503          	lw	a0,12(sp)
80000e20:	210000ef          	jal	ra,80001030 <xQueueGenericSend>
80000e24:	00000013          	nop
80000e28:	01c12083          	lw	ra,28(sp)
80000e2c:	02010113          	addi	sp,sp,32
80000e30:	00008067          	ret

80000e34 <xQueueCreateMutex>:
80000e34:	fd010113          	addi	sp,sp,-48
80000e38:	02112623          	sw	ra,44(sp)
80000e3c:	00050793          	mv	a5,a0
80000e40:	00f107a3          	sb	a5,15(sp)
80000e44:	00100793          	li	a5,1
80000e48:	00f12e23          	sw	a5,28(sp)
80000e4c:	00012c23          	sw	zero,24(sp)
80000e50:	00f14783          	lbu	a5,15(sp)
80000e54:	00078613          	mv	a2,a5
80000e58:	01812583          	lw	a1,24(sp)
80000e5c:	01c12503          	lw	a0,28(sp)
80000e60:	e5dff0ef          	jal	ra,80000cbc <xQueueGenericCreate>
80000e64:	00a12a23          	sw	a0,20(sp)
80000e68:	01412503          	lw	a0,20(sp)
80000e6c:	f79ff0ef          	jal	ra,80000de4 <prvInitialiseMutex>
80000e70:	01412783          	lw	a5,20(sp)
80000e74:	00078513          	mv	a0,a5
80000e78:	02c12083          	lw	ra,44(sp)
80000e7c:	03010113          	addi	sp,sp,48
80000e80:	00008067          	ret

80000e84 <xQueueGiveMutexRecursive>:
80000e84:	fd010113          	addi	sp,sp,-48
80000e88:	02112623          	sw	ra,44(sp)
80000e8c:	02812423          	sw	s0,40(sp)
80000e90:	00a12623          	sw	a0,12(sp)
80000e94:	00c12783          	lw	a5,12(sp)
80000e98:	00f12c23          	sw	a5,24(sp)
80000e9c:	01812783          	lw	a5,24(sp)
80000ea0:	00079663          	bnez	a5,80000eac <xQueueGiveMutexRecursive+0x28>
80000ea4:	30047073          	csrci	mstatus,8
80000ea8:	0000006f          	j	80000ea8 <xQueueGiveMutexRecursive+0x24>
80000eac:	01812783          	lw	a5,24(sp)
80000eb0:	0047a403          	lw	s0,4(a5)
80000eb4:	255030ef          	jal	ra,80004908 <xTaskGetCurrentTaskHandle>
80000eb8:	00050793          	mv	a5,a0
80000ebc:	04f41263          	bne	s0,a5,80000f00 <xQueueGiveMutexRecursive+0x7c>
80000ec0:	01812783          	lw	a5,24(sp)
80000ec4:	00c7a783          	lw	a5,12(a5)
80000ec8:	fff78713          	addi	a4,a5,-1
80000ecc:	01812783          	lw	a5,24(sp)
80000ed0:	00e7a623          	sw	a4,12(a5)
80000ed4:	01812783          	lw	a5,24(sp)
80000ed8:	00c7a783          	lw	a5,12(a5)
80000edc:	00079c63          	bnez	a5,80000ef4 <xQueueGiveMutexRecursive+0x70>
80000ee0:	00000693          	li	a3,0
80000ee4:	00000613          	li	a2,0
80000ee8:	00000593          	li	a1,0
80000eec:	01812503          	lw	a0,24(sp)
80000ef0:	140000ef          	jal	ra,80001030 <xQueueGenericSend>
80000ef4:	00100793          	li	a5,1
80000ef8:	00f12e23          	sw	a5,28(sp)
80000efc:	0080006f          	j	80000f04 <xQueueGiveMutexRecursive+0x80>
80000f00:	00012e23          	sw	zero,28(sp)
80000f04:	01c12783          	lw	a5,28(sp)
80000f08:	00078513          	mv	a0,a5
80000f0c:	02c12083          	lw	ra,44(sp)
80000f10:	02812403          	lw	s0,40(sp)
80000f14:	03010113          	addi	sp,sp,48
80000f18:	00008067          	ret

80000f1c <xQueueTakeMutexRecursive>:
80000f1c:	fd010113          	addi	sp,sp,-48
80000f20:	02112623          	sw	ra,44(sp)
80000f24:	02812423          	sw	s0,40(sp)
80000f28:	00a12623          	sw	a0,12(sp)
80000f2c:	00b12423          	sw	a1,8(sp)
80000f30:	00c12783          	lw	a5,12(sp)
80000f34:	00f12c23          	sw	a5,24(sp)
80000f38:	01812783          	lw	a5,24(sp)
80000f3c:	00079663          	bnez	a5,80000f48 <xQueueTakeMutexRecursive+0x2c>
80000f40:	30047073          	csrci	mstatus,8
80000f44:	0000006f          	j	80000f44 <xQueueTakeMutexRecursive+0x28>
80000f48:	01812783          	lw	a5,24(sp)
80000f4c:	0047a403          	lw	s0,4(a5)
80000f50:	1b9030ef          	jal	ra,80004908 <xTaskGetCurrentTaskHandle>
80000f54:	00050793          	mv	a5,a0
80000f58:	02f41263          	bne	s0,a5,80000f7c <xQueueTakeMutexRecursive+0x60>
80000f5c:	01812783          	lw	a5,24(sp)
80000f60:	00c7a783          	lw	a5,12(a5)
80000f64:	00178713          	addi	a4,a5,1
80000f68:	01812783          	lw	a5,24(sp)
80000f6c:	00e7a623          	sw	a4,12(a5)
80000f70:	00100793          	li	a5,1
80000f74:	00f12e23          	sw	a5,28(sp)
80000f78:	0300006f          	j	80000fa8 <xQueueTakeMutexRecursive+0x8c>
80000f7c:	00812583          	lw	a1,8(sp)
80000f80:	01812503          	lw	a0,24(sp)
80000f84:	7b8000ef          	jal	ra,8000173c <xQueueSemaphoreTake>
80000f88:	00a12e23          	sw	a0,28(sp)
80000f8c:	01c12783          	lw	a5,28(sp)
80000f90:	00078c63          	beqz	a5,80000fa8 <xQueueTakeMutexRecursive+0x8c>
80000f94:	01812783          	lw	a5,24(sp)
80000f98:	00c7a783          	lw	a5,12(a5)
80000f9c:	00178713          	addi	a4,a5,1
80000fa0:	01812783          	lw	a5,24(sp)
80000fa4:	00e7a623          	sw	a4,12(a5)
80000fa8:	01c12783          	lw	a5,28(sp)
80000fac:	00078513          	mv	a0,a5
80000fb0:	02c12083          	lw	ra,44(sp)
80000fb4:	02812403          	lw	s0,40(sp)
80000fb8:	03010113          	addi	sp,sp,48
80000fbc:	00008067          	ret

80000fc0 <xQueueCreateCountingSemaphore>:
80000fc0:	fd010113          	addi	sp,sp,-48
80000fc4:	02112623          	sw	ra,44(sp)
80000fc8:	00a12623          	sw	a0,12(sp)
80000fcc:	00b12423          	sw	a1,8(sp)
80000fd0:	00c12783          	lw	a5,12(sp)
80000fd4:	00079663          	bnez	a5,80000fe0 <xQueueCreateCountingSemaphore+0x20>
80000fd8:	30047073          	csrci	mstatus,8
80000fdc:	0000006f          	j	80000fdc <xQueueCreateCountingSemaphore+0x1c>
80000fe0:	00812703          	lw	a4,8(sp)
80000fe4:	00c12783          	lw	a5,12(sp)
80000fe8:	00e7f663          	bgeu	a5,a4,80000ff4 <xQueueCreateCountingSemaphore+0x34>
80000fec:	30047073          	csrci	mstatus,8
80000ff0:	0000006f          	j	80000ff0 <xQueueCreateCountingSemaphore+0x30>
80000ff4:	00200613          	li	a2,2
80000ff8:	00000593          	li	a1,0
80000ffc:	00c12503          	lw	a0,12(sp)
80001000:	cbdff0ef          	jal	ra,80000cbc <xQueueGenericCreate>
80001004:	00a12e23          	sw	a0,28(sp)
80001008:	01c12783          	lw	a5,28(sp)
8000100c:	00078863          	beqz	a5,8000101c <xQueueCreateCountingSemaphore+0x5c>
80001010:	01c12783          	lw	a5,28(sp)
80001014:	00812703          	lw	a4,8(sp)
80001018:	02e7ac23          	sw	a4,56(a5)
8000101c:	01c12783          	lw	a5,28(sp)
80001020:	00078513          	mv	a0,a5
80001024:	02c12083          	lw	ra,44(sp)
80001028:	03010113          	addi	sp,sp,48
8000102c:	00008067          	ret

80001030 <xQueueGenericSend>:
80001030:	fc010113          	addi	sp,sp,-64
80001034:	02112e23          	sw	ra,60(sp)
80001038:	00a12623          	sw	a0,12(sp)
8000103c:	00b12423          	sw	a1,8(sp)
80001040:	00c12223          	sw	a2,4(sp)
80001044:	00d12023          	sw	a3,0(sp)
80001048:	02012623          	sw	zero,44(sp)
8000104c:	00c12783          	lw	a5,12(sp)
80001050:	02f12423          	sw	a5,40(sp)
80001054:	02812783          	lw	a5,40(sp)
80001058:	00079663          	bnez	a5,80001064 <xQueueGenericSend+0x34>
8000105c:	30047073          	csrci	mstatus,8
80001060:	0000006f          	j	80001060 <xQueueGenericSend+0x30>
80001064:	00812783          	lw	a5,8(sp)
80001068:	00079863          	bnez	a5,80001078 <xQueueGenericSend+0x48>
8000106c:	02812783          	lw	a5,40(sp)
80001070:	0407a783          	lw	a5,64(a5)
80001074:	00079663          	bnez	a5,80001080 <xQueueGenericSend+0x50>
80001078:	00100793          	li	a5,1
8000107c:	0080006f          	j	80001084 <xQueueGenericSend+0x54>
80001080:	00000793          	li	a5,0
80001084:	00079663          	bnez	a5,80001090 <xQueueGenericSend+0x60>
80001088:	30047073          	csrci	mstatus,8
8000108c:	0000006f          	j	8000108c <xQueueGenericSend+0x5c>
80001090:	00012703          	lw	a4,0(sp)
80001094:	00200793          	li	a5,2
80001098:	00f71a63          	bne	a4,a5,800010ac <xQueueGenericSend+0x7c>
8000109c:	02812783          	lw	a5,40(sp)
800010a0:	03c7a703          	lw	a4,60(a5)
800010a4:	00100793          	li	a5,1
800010a8:	00f71663          	bne	a4,a5,800010b4 <xQueueGenericSend+0x84>
800010ac:	00100793          	li	a5,1
800010b0:	0080006f          	j	800010b8 <xQueueGenericSend+0x88>
800010b4:	00000793          	li	a5,0
800010b8:	00079663          	bnez	a5,800010c4 <xQueueGenericSend+0x94>
800010bc:	30047073          	csrci	mstatus,8
800010c0:	0000006f          	j	800010c0 <xQueueGenericSend+0x90>
800010c4:	069030ef          	jal	ra,8000492c <xTaskGetSchedulerState>
800010c8:	00050793          	mv	a5,a0
800010cc:	00079663          	bnez	a5,800010d8 <xQueueGenericSend+0xa8>
800010d0:	00412783          	lw	a5,4(sp)
800010d4:	00079663          	bnez	a5,800010e0 <xQueueGenericSend+0xb0>
800010d8:	00100793          	li	a5,1
800010dc:	0080006f          	j	800010e4 <xQueueGenericSend+0xb4>
800010e0:	00000793          	li	a5,0
800010e4:	00079663          	bnez	a5,800010f0 <xQueueGenericSend+0xc0>
800010e8:	30047073          	csrci	mstatus,8
800010ec:	0000006f          	j	800010ec <xQueueGenericSend+0xbc>
800010f0:	4f5030ef          	jal	ra,80004de4 <vTaskEnterCritical>
800010f4:	02812783          	lw	a5,40(sp)
800010f8:	0387a703          	lw	a4,56(a5)
800010fc:	02812783          	lw	a5,40(sp)
80001100:	03c7a783          	lw	a5,60(a5)
80001104:	00f76863          	bltu	a4,a5,80001114 <xQueueGenericSend+0xe4>
80001108:	00012703          	lw	a4,0(sp)
8000110c:	00200793          	li	a5,2
80001110:	04f71e63          	bne	a4,a5,8000116c <xQueueGenericSend+0x13c>
80001114:	00012603          	lw	a2,0(sp)
80001118:	00812583          	lw	a1,8(sp)
8000111c:	02812503          	lw	a0,40(sp)
80001120:	661000ef          	jal	ra,80001f80 <prvCopyDataToQueue>
80001124:	02a12223          	sw	a0,36(sp)
80001128:	02812783          	lw	a5,40(sp)
8000112c:	0247a783          	lw	a5,36(a5)
80001130:	02078263          	beqz	a5,80001154 <xQueueGenericSend+0x124>
80001134:	02812783          	lw	a5,40(sp)
80001138:	02478793          	addi	a5,a5,36
8000113c:	00078513          	mv	a0,a5
80001140:	651020ef          	jal	ra,80003f90 <xTaskRemoveFromEventList>
80001144:	00050793          	mv	a5,a0
80001148:	00078c63          	beqz	a5,80001160 <xQueueGenericSend+0x130>
8000114c:	d08ff0ef          	jal	ra,80000654 <vPortYield>
80001150:	0100006f          	j	80001160 <xQueueGenericSend+0x130>
80001154:	02412783          	lw	a5,36(sp)
80001158:	00078463          	beqz	a5,80001160 <xQueueGenericSend+0x130>
8000115c:	cf8ff0ef          	jal	ra,80000654 <vPortYield>
80001160:	4c5030ef          	jal	ra,80004e24 <vTaskExitCritical>
80001164:	00100793          	li	a5,1
80001168:	1040006f          	j	8000126c <xQueueGenericSend+0x23c>
8000116c:	00412783          	lw	a5,4(sp)
80001170:	00079863          	bnez	a5,80001180 <xQueueGenericSend+0x150>
80001174:	4b1030ef          	jal	ra,80004e24 <vTaskExitCritical>
80001178:	00000793          	li	a5,0
8000117c:	0f00006f          	j	8000126c <xQueueGenericSend+0x23c>
80001180:	02c12783          	lw	a5,44(sp)
80001184:	00079c63          	bnez	a5,8000119c <xQueueGenericSend+0x16c>
80001188:	01c10793          	addi	a5,sp,28
8000118c:	00078513          	mv	a0,a5
80001190:	098030ef          	jal	ra,80004228 <vTaskInternalSetTimeOutState>
80001194:	00100793          	li	a5,1
80001198:	02f12623          	sw	a5,44(sp)
8000119c:	489030ef          	jal	ra,80004e24 <vTaskExitCritical>
800011a0:	38c020ef          	jal	ra,8000352c <vTaskSuspendAll>
800011a4:	441030ef          	jal	ra,80004de4 <vTaskEnterCritical>
800011a8:	02812783          	lw	a5,40(sp)
800011ac:	0447c783          	lbu	a5,68(a5)
800011b0:	01879713          	slli	a4,a5,0x18
800011b4:	41875713          	srai	a4,a4,0x18
800011b8:	fff00793          	li	a5,-1
800011bc:	00f71663          	bne	a4,a5,800011c8 <xQueueGenericSend+0x198>
800011c0:	02812783          	lw	a5,40(sp)
800011c4:	04078223          	sb	zero,68(a5)
800011c8:	02812783          	lw	a5,40(sp)
800011cc:	0457c783          	lbu	a5,69(a5)
800011d0:	01879713          	slli	a4,a5,0x18
800011d4:	41875713          	srai	a4,a4,0x18
800011d8:	fff00793          	li	a5,-1
800011dc:	00f71663          	bne	a4,a5,800011e8 <xQueueGenericSend+0x1b8>
800011e0:	02812783          	lw	a5,40(sp)
800011e4:	040782a3          	sb	zero,69(a5)
800011e8:	43d030ef          	jal	ra,80004e24 <vTaskExitCritical>
800011ec:	00410713          	addi	a4,sp,4
800011f0:	01c10793          	addi	a5,sp,28
800011f4:	00070593          	mv	a1,a4
800011f8:	00078513          	mv	a0,a5
800011fc:	068030ef          	jal	ra,80004264 <xTaskCheckForTimeOut>
80001200:	00050793          	mv	a5,a0
80001204:	04079c63          	bnez	a5,8000125c <xQueueGenericSend+0x22c>
80001208:	02812503          	lw	a0,40(sp)
8000120c:	0fc010ef          	jal	ra,80002308 <prvIsQueueFull>
80001210:	00050793          	mv	a5,a0
80001214:	02078c63          	beqz	a5,8000124c <xQueueGenericSend+0x21c>
80001218:	02812783          	lw	a5,40(sp)
8000121c:	01078793          	addi	a5,a5,16
80001220:	00412703          	lw	a4,4(sp)
80001224:	00070593          	mv	a1,a4
80001228:	00078513          	mv	a0,a5
8000122c:	411020ef          	jal	ra,80003e3c <vTaskPlaceOnEventList>
80001230:	02812503          	lw	a0,40(sp)
80001234:	759000ef          	jal	ra,8000218c <prvUnlockQueue>
80001238:	318020ef          	jal	ra,80003550 <xTaskResumeAll>
8000123c:	00050793          	mv	a5,a0
80001240:	ea0798e3          	bnez	a5,800010f0 <xQueueGenericSend+0xc0>
80001244:	c10ff0ef          	jal	ra,80000654 <vPortYield>
80001248:	ea9ff06f          	j	800010f0 <xQueueGenericSend+0xc0>
8000124c:	02812503          	lw	a0,40(sp)
80001250:	73d000ef          	jal	ra,8000218c <prvUnlockQueue>
80001254:	2fc020ef          	jal	ra,80003550 <xTaskResumeAll>
80001258:	e99ff06f          	j	800010f0 <xQueueGenericSend+0xc0>
8000125c:	02812503          	lw	a0,40(sp)
80001260:	72d000ef          	jal	ra,8000218c <prvUnlockQueue>
80001264:	2ec020ef          	jal	ra,80003550 <xTaskResumeAll>
80001268:	00000793          	li	a5,0
8000126c:	00078513          	mv	a0,a5
80001270:	03c12083          	lw	ra,60(sp)
80001274:	04010113          	addi	sp,sp,64
80001278:	00008067          	ret

8000127c <xQueueGenericSendFromISR>:
8000127c:	fd010113          	addi	sp,sp,-48
80001280:	02112623          	sw	ra,44(sp)
80001284:	00a12623          	sw	a0,12(sp)
80001288:	00b12423          	sw	a1,8(sp)
8000128c:	00c12223          	sw	a2,4(sp)
80001290:	00d12023          	sw	a3,0(sp)
80001294:	00c12783          	lw	a5,12(sp)
80001298:	00f12c23          	sw	a5,24(sp)
8000129c:	01812783          	lw	a5,24(sp)
800012a0:	00079663          	bnez	a5,800012ac <xQueueGenericSendFromISR+0x30>
800012a4:	30047073          	csrci	mstatus,8
800012a8:	0000006f          	j	800012a8 <xQueueGenericSendFromISR+0x2c>
800012ac:	00812783          	lw	a5,8(sp)
800012b0:	00079863          	bnez	a5,800012c0 <xQueueGenericSendFromISR+0x44>
800012b4:	01812783          	lw	a5,24(sp)
800012b8:	0407a783          	lw	a5,64(a5)
800012bc:	00079663          	bnez	a5,800012c8 <xQueueGenericSendFromISR+0x4c>
800012c0:	00100793          	li	a5,1
800012c4:	0080006f          	j	800012cc <xQueueGenericSendFromISR+0x50>
800012c8:	00000793          	li	a5,0
800012cc:	00079663          	bnez	a5,800012d8 <xQueueGenericSendFromISR+0x5c>
800012d0:	30047073          	csrci	mstatus,8
800012d4:	0000006f          	j	800012d4 <xQueueGenericSendFromISR+0x58>
800012d8:	00012703          	lw	a4,0(sp)
800012dc:	00200793          	li	a5,2
800012e0:	00f71a63          	bne	a4,a5,800012f4 <xQueueGenericSendFromISR+0x78>
800012e4:	01812783          	lw	a5,24(sp)
800012e8:	03c7a703          	lw	a4,60(a5)
800012ec:	00100793          	li	a5,1
800012f0:	00f71663          	bne	a4,a5,800012fc <xQueueGenericSendFromISR+0x80>
800012f4:	00100793          	li	a5,1
800012f8:	0080006f          	j	80001300 <xQueueGenericSendFromISR+0x84>
800012fc:	00000793          	li	a5,0
80001300:	00079663          	bnez	a5,8000130c <xQueueGenericSendFromISR+0x90>
80001304:	30047073          	csrci	mstatus,8
80001308:	0000006f          	j	80001308 <xQueueGenericSendFromISR+0x8c>
8000130c:	d5cff0ef          	jal	ra,80000868 <vPortSetInterruptMask>
80001310:	00050793          	mv	a5,a0
80001314:	00f12a23          	sw	a5,20(sp)
80001318:	01812783          	lw	a5,24(sp)
8000131c:	0387a703          	lw	a4,56(a5)
80001320:	01812783          	lw	a5,24(sp)
80001324:	03c7a783          	lw	a5,60(a5)
80001328:	00f76863          	bltu	a4,a5,80001338 <xQueueGenericSendFromISR+0xbc>
8000132c:	00012703          	lw	a4,0(sp)
80001330:	00200793          	li	a5,2
80001334:	08f71863          	bne	a4,a5,800013c4 <xQueueGenericSendFromISR+0x148>
80001338:	01812783          	lw	a5,24(sp)
8000133c:	0457c783          	lbu	a5,69(a5)
80001340:	00f109a3          	sb	a5,19(sp)
80001344:	00012603          	lw	a2,0(sp)
80001348:	00812583          	lw	a1,8(sp)
8000134c:	01812503          	lw	a0,24(sp)
80001350:	431000ef          	jal	ra,80001f80 <prvCopyDataToQueue>
80001354:	01310703          	lb	a4,19(sp)
80001358:	fff00793          	li	a5,-1
8000135c:	04f71063          	bne	a4,a5,8000139c <xQueueGenericSendFromISR+0x120>
80001360:	01812783          	lw	a5,24(sp)
80001364:	0247a783          	lw	a5,36(a5)
80001368:	04078863          	beqz	a5,800013b8 <xQueueGenericSendFromISR+0x13c>
8000136c:	01812783          	lw	a5,24(sp)
80001370:	02478793          	addi	a5,a5,36
80001374:	00078513          	mv	a0,a5
80001378:	419020ef          	jal	ra,80003f90 <xTaskRemoveFromEventList>
8000137c:	00050793          	mv	a5,a0
80001380:	02078c63          	beqz	a5,800013b8 <xQueueGenericSendFromISR+0x13c>
80001384:	00412783          	lw	a5,4(sp)
80001388:	02078863          	beqz	a5,800013b8 <xQueueGenericSendFromISR+0x13c>
8000138c:	00412783          	lw	a5,4(sp)
80001390:	00100713          	li	a4,1
80001394:	00e7a023          	sw	a4,0(a5)
80001398:	0200006f          	j	800013b8 <xQueueGenericSendFromISR+0x13c>
8000139c:	01314783          	lbu	a5,19(sp)
800013a0:	00178793          	addi	a5,a5,1
800013a4:	0ff7f793          	andi	a5,a5,255
800013a8:	01879713          	slli	a4,a5,0x18
800013ac:	41875713          	srai	a4,a4,0x18
800013b0:	01812783          	lw	a5,24(sp)
800013b4:	04e782a3          	sb	a4,69(a5)
800013b8:	00100793          	li	a5,1
800013bc:	00f12e23          	sw	a5,28(sp)
800013c0:	0080006f          	j	800013c8 <xQueueGenericSendFromISR+0x14c>
800013c4:	00012e23          	sw	zero,28(sp)
800013c8:	01412783          	lw	a5,20(sp)
800013cc:	00078513          	mv	a0,a5
800013d0:	c7cff0ef          	jal	ra,8000084c <vPortClearInterruptMask>
800013d4:	01c12783          	lw	a5,28(sp)
800013d8:	00078513          	mv	a0,a5
800013dc:	02c12083          	lw	ra,44(sp)
800013e0:	03010113          	addi	sp,sp,48
800013e4:	00008067          	ret

800013e8 <xQueueGiveFromISR>:
800013e8:	fc010113          	addi	sp,sp,-64
800013ec:	02112e23          	sw	ra,60(sp)
800013f0:	00a12623          	sw	a0,12(sp)
800013f4:	00b12423          	sw	a1,8(sp)
800013f8:	00c12783          	lw	a5,12(sp)
800013fc:	02f12423          	sw	a5,40(sp)
80001400:	02812783          	lw	a5,40(sp)
80001404:	00079663          	bnez	a5,80001410 <xQueueGiveFromISR+0x28>
80001408:	30047073          	csrci	mstatus,8
8000140c:	0000006f          	j	8000140c <xQueueGiveFromISR+0x24>
80001410:	02812783          	lw	a5,40(sp)
80001414:	0407a783          	lw	a5,64(a5)
80001418:	00078663          	beqz	a5,80001424 <xQueueGiveFromISR+0x3c>
8000141c:	30047073          	csrci	mstatus,8
80001420:	0000006f          	j	80001420 <xQueueGiveFromISR+0x38>
80001424:	02812783          	lw	a5,40(sp)
80001428:	0007a783          	lw	a5,0(a5)
8000142c:	00079863          	bnez	a5,8000143c <xQueueGiveFromISR+0x54>
80001430:	02812783          	lw	a5,40(sp)
80001434:	0047a783          	lw	a5,4(a5)
80001438:	00079663          	bnez	a5,80001444 <xQueueGiveFromISR+0x5c>
8000143c:	00100793          	li	a5,1
80001440:	0080006f          	j	80001448 <xQueueGiveFromISR+0x60>
80001444:	00000793          	li	a5,0
80001448:	00079663          	bnez	a5,80001454 <xQueueGiveFromISR+0x6c>
8000144c:	30047073          	csrci	mstatus,8
80001450:	0000006f          	j	80001450 <xQueueGiveFromISR+0x68>
80001454:	c14ff0ef          	jal	ra,80000868 <vPortSetInterruptMask>
80001458:	00050793          	mv	a5,a0
8000145c:	02f12223          	sw	a5,36(sp)
80001460:	02812783          	lw	a5,40(sp)
80001464:	0387a783          	lw	a5,56(a5)
80001468:	02f12023          	sw	a5,32(sp)
8000146c:	02812783          	lw	a5,40(sp)
80001470:	03c7a783          	lw	a5,60(a5)
80001474:	02012703          	lw	a4,32(sp)
80001478:	08f77863          	bgeu	a4,a5,80001508 <xQueueGiveFromISR+0x120>
8000147c:	02812783          	lw	a5,40(sp)
80001480:	0457c783          	lbu	a5,69(a5)
80001484:	00f10fa3          	sb	a5,31(sp)
80001488:	02012783          	lw	a5,32(sp)
8000148c:	00178713          	addi	a4,a5,1
80001490:	02812783          	lw	a5,40(sp)
80001494:	02e7ac23          	sw	a4,56(a5)
80001498:	01f10703          	lb	a4,31(sp)
8000149c:	fff00793          	li	a5,-1
800014a0:	04f71063          	bne	a4,a5,800014e0 <xQueueGiveFromISR+0xf8>
800014a4:	02812783          	lw	a5,40(sp)
800014a8:	0247a783          	lw	a5,36(a5)
800014ac:	04078863          	beqz	a5,800014fc <xQueueGiveFromISR+0x114>
800014b0:	02812783          	lw	a5,40(sp)
800014b4:	02478793          	addi	a5,a5,36
800014b8:	00078513          	mv	a0,a5
800014bc:	2d5020ef          	jal	ra,80003f90 <xTaskRemoveFromEventList>
800014c0:	00050793          	mv	a5,a0
800014c4:	02078c63          	beqz	a5,800014fc <xQueueGiveFromISR+0x114>
800014c8:	00812783          	lw	a5,8(sp)
800014cc:	02078863          	beqz	a5,800014fc <xQueueGiveFromISR+0x114>
800014d0:	00812783          	lw	a5,8(sp)
800014d4:	00100713          	li	a4,1
800014d8:	00e7a023          	sw	a4,0(a5)
800014dc:	0200006f          	j	800014fc <xQueueGiveFromISR+0x114>
800014e0:	01f14783          	lbu	a5,31(sp)
800014e4:	00178793          	addi	a5,a5,1
800014e8:	0ff7f793          	andi	a5,a5,255
800014ec:	01879713          	slli	a4,a5,0x18
800014f0:	41875713          	srai	a4,a4,0x18
800014f4:	02812783          	lw	a5,40(sp)
800014f8:	04e782a3          	sb	a4,69(a5)
800014fc:	00100793          	li	a5,1
80001500:	02f12623          	sw	a5,44(sp)
80001504:	0080006f          	j	8000150c <xQueueGiveFromISR+0x124>
80001508:	02012623          	sw	zero,44(sp)
8000150c:	02412783          	lw	a5,36(sp)
80001510:	00078513          	mv	a0,a5
80001514:	b38ff0ef          	jal	ra,8000084c <vPortClearInterruptMask>
80001518:	02c12783          	lw	a5,44(sp)
8000151c:	00078513          	mv	a0,a5
80001520:	03c12083          	lw	ra,60(sp)
80001524:	04010113          	addi	sp,sp,64
80001528:	00008067          	ret

8000152c <xQueueReceive>:
8000152c:	fc010113          	addi	sp,sp,-64
80001530:	02112e23          	sw	ra,60(sp)
80001534:	00a12623          	sw	a0,12(sp)
80001538:	00b12423          	sw	a1,8(sp)
8000153c:	00c12223          	sw	a2,4(sp)
80001540:	02012623          	sw	zero,44(sp)
80001544:	00c12783          	lw	a5,12(sp)
80001548:	02f12423          	sw	a5,40(sp)
8000154c:	02812783          	lw	a5,40(sp)
80001550:	00079663          	bnez	a5,8000155c <xQueueReceive+0x30>
80001554:	30047073          	csrci	mstatus,8
80001558:	0000006f          	j	80001558 <xQueueReceive+0x2c>
8000155c:	00812783          	lw	a5,8(sp)
80001560:	00079863          	bnez	a5,80001570 <xQueueReceive+0x44>
80001564:	02812783          	lw	a5,40(sp)
80001568:	0407a783          	lw	a5,64(a5)
8000156c:	00079663          	bnez	a5,80001578 <xQueueReceive+0x4c>
80001570:	00100793          	li	a5,1
80001574:	0080006f          	j	8000157c <xQueueReceive+0x50>
80001578:	00000793          	li	a5,0
8000157c:	00079663          	bnez	a5,80001588 <xQueueReceive+0x5c>
80001580:	30047073          	csrci	mstatus,8
80001584:	0000006f          	j	80001584 <xQueueReceive+0x58>
80001588:	3a4030ef          	jal	ra,8000492c <xTaskGetSchedulerState>
8000158c:	00050793          	mv	a5,a0
80001590:	00079663          	bnez	a5,8000159c <xQueueReceive+0x70>
80001594:	00412783          	lw	a5,4(sp)
80001598:	00079663          	bnez	a5,800015a4 <xQueueReceive+0x78>
8000159c:	00100793          	li	a5,1
800015a0:	0080006f          	j	800015a8 <xQueueReceive+0x7c>
800015a4:	00000793          	li	a5,0
800015a8:	00079663          	bnez	a5,800015b4 <xQueueReceive+0x88>
800015ac:	30047073          	csrci	mstatus,8
800015b0:	0000006f          	j	800015b0 <xQueueReceive+0x84>
800015b4:	031030ef          	jal	ra,80004de4 <vTaskEnterCritical>
800015b8:	02812783          	lw	a5,40(sp)
800015bc:	0387a783          	lw	a5,56(a5)
800015c0:	02f12223          	sw	a5,36(sp)
800015c4:	02412783          	lw	a5,36(sp)
800015c8:	04078a63          	beqz	a5,8000161c <xQueueReceive+0xf0>
800015cc:	00812583          	lw	a1,8(sp)
800015d0:	02812503          	lw	a0,40(sp)
800015d4:	32d000ef          	jal	ra,80002100 <prvCopyDataFromQueue>
800015d8:	02412783          	lw	a5,36(sp)
800015dc:	fff78713          	addi	a4,a5,-1
800015e0:	02812783          	lw	a5,40(sp)
800015e4:	02e7ac23          	sw	a4,56(a5)
800015e8:	02812783          	lw	a5,40(sp)
800015ec:	0107a783          	lw	a5,16(a5)
800015f0:	02078063          	beqz	a5,80001610 <xQueueReceive+0xe4>
800015f4:	02812783          	lw	a5,40(sp)
800015f8:	01078793          	addi	a5,a5,16
800015fc:	00078513          	mv	a0,a5
80001600:	191020ef          	jal	ra,80003f90 <xTaskRemoveFromEventList>
80001604:	00050793          	mv	a5,a0
80001608:	00078463          	beqz	a5,80001610 <xQueueReceive+0xe4>
8000160c:	848ff0ef          	jal	ra,80000654 <vPortYield>
80001610:	015030ef          	jal	ra,80004e24 <vTaskExitCritical>
80001614:	00100793          	li	a5,1
80001618:	1140006f          	j	8000172c <xQueueReceive+0x200>
8000161c:	00412783          	lw	a5,4(sp)
80001620:	00079863          	bnez	a5,80001630 <xQueueReceive+0x104>
80001624:	001030ef          	jal	ra,80004e24 <vTaskExitCritical>
80001628:	00000793          	li	a5,0
8000162c:	1000006f          	j	8000172c <xQueueReceive+0x200>
80001630:	02c12783          	lw	a5,44(sp)
80001634:	00079c63          	bnez	a5,8000164c <xQueueReceive+0x120>
80001638:	01c10793          	addi	a5,sp,28
8000163c:	00078513          	mv	a0,a5
80001640:	3e9020ef          	jal	ra,80004228 <vTaskInternalSetTimeOutState>
80001644:	00100793          	li	a5,1
80001648:	02f12623          	sw	a5,44(sp)
8000164c:	7d8030ef          	jal	ra,80004e24 <vTaskExitCritical>
80001650:	6dd010ef          	jal	ra,8000352c <vTaskSuspendAll>
80001654:	790030ef          	jal	ra,80004de4 <vTaskEnterCritical>
80001658:	02812783          	lw	a5,40(sp)
8000165c:	0447c783          	lbu	a5,68(a5)
80001660:	01879713          	slli	a4,a5,0x18
80001664:	41875713          	srai	a4,a4,0x18
80001668:	fff00793          	li	a5,-1
8000166c:	00f71663          	bne	a4,a5,80001678 <xQueueReceive+0x14c>
80001670:	02812783          	lw	a5,40(sp)
80001674:	04078223          	sb	zero,68(a5)
80001678:	02812783          	lw	a5,40(sp)
8000167c:	0457c783          	lbu	a5,69(a5)
80001680:	01879713          	slli	a4,a5,0x18
80001684:	41875713          	srai	a4,a4,0x18
80001688:	fff00793          	li	a5,-1
8000168c:	00f71663          	bne	a4,a5,80001698 <xQueueReceive+0x16c>
80001690:	02812783          	lw	a5,40(sp)
80001694:	040782a3          	sb	zero,69(a5)
80001698:	78c030ef          	jal	ra,80004e24 <vTaskExitCritical>
8000169c:	00410713          	addi	a4,sp,4
800016a0:	01c10793          	addi	a5,sp,28
800016a4:	00070593          	mv	a1,a4
800016a8:	00078513          	mv	a0,a5
800016ac:	3b9020ef          	jal	ra,80004264 <xTaskCheckForTimeOut>
800016b0:	00050793          	mv	a5,a0
800016b4:	04079c63          	bnez	a5,8000170c <xQueueReceive+0x1e0>
800016b8:	02812503          	lw	a0,40(sp)
800016bc:	3c5000ef          	jal	ra,80002280 <prvIsQueueEmpty>
800016c0:	00050793          	mv	a5,a0
800016c4:	02078c63          	beqz	a5,800016fc <xQueueReceive+0x1d0>
800016c8:	02812783          	lw	a5,40(sp)
800016cc:	02478793          	addi	a5,a5,36
800016d0:	00412703          	lw	a4,4(sp)
800016d4:	00070593          	mv	a1,a4
800016d8:	00078513          	mv	a0,a5
800016dc:	760020ef          	jal	ra,80003e3c <vTaskPlaceOnEventList>
800016e0:	02812503          	lw	a0,40(sp)
800016e4:	2a9000ef          	jal	ra,8000218c <prvUnlockQueue>
800016e8:	669010ef          	jal	ra,80003550 <xTaskResumeAll>
800016ec:	00050793          	mv	a5,a0
800016f0:	ec0792e3          	bnez	a5,800015b4 <xQueueReceive+0x88>
800016f4:	f61fe0ef          	jal	ra,80000654 <vPortYield>
800016f8:	ebdff06f          	j	800015b4 <xQueueReceive+0x88>
800016fc:	02812503          	lw	a0,40(sp)
80001700:	28d000ef          	jal	ra,8000218c <prvUnlockQueue>
80001704:	64d010ef          	jal	ra,80003550 <xTaskResumeAll>
80001708:	eadff06f          	j	800015b4 <xQueueReceive+0x88>
8000170c:	02812503          	lw	a0,40(sp)
80001710:	27d000ef          	jal	ra,8000218c <prvUnlockQueue>
80001714:	63d010ef          	jal	ra,80003550 <xTaskResumeAll>
80001718:	02812503          	lw	a0,40(sp)
8000171c:	365000ef          	jal	ra,80002280 <prvIsQueueEmpty>
80001720:	00050793          	mv	a5,a0
80001724:	e80788e3          	beqz	a5,800015b4 <xQueueReceive+0x88>
80001728:	00000793          	li	a5,0
8000172c:	00078513          	mv	a0,a5
80001730:	03c12083          	lw	ra,60(sp)
80001734:	04010113          	addi	sp,sp,64
80001738:	00008067          	ret

8000173c <xQueueSemaphoreTake>:
8000173c:	fc010113          	addi	sp,sp,-64
80001740:	02112e23          	sw	ra,60(sp)
80001744:	00a12623          	sw	a0,12(sp)
80001748:	00b12423          	sw	a1,8(sp)
8000174c:	02012623          	sw	zero,44(sp)
80001750:	00c12783          	lw	a5,12(sp)
80001754:	02f12223          	sw	a5,36(sp)
80001758:	02012423          	sw	zero,40(sp)
8000175c:	02412783          	lw	a5,36(sp)
80001760:	00079663          	bnez	a5,8000176c <xQueueSemaphoreTake+0x30>
80001764:	30047073          	csrci	mstatus,8
80001768:	0000006f          	j	80001768 <xQueueSemaphoreTake+0x2c>
8000176c:	02412783          	lw	a5,36(sp)
80001770:	0407a783          	lw	a5,64(a5)
80001774:	00078663          	beqz	a5,80001780 <xQueueSemaphoreTake+0x44>
80001778:	30047073          	csrci	mstatus,8
8000177c:	0000006f          	j	8000177c <xQueueSemaphoreTake+0x40>
80001780:	1ac030ef          	jal	ra,8000492c <xTaskGetSchedulerState>
80001784:	00050793          	mv	a5,a0
80001788:	00079663          	bnez	a5,80001794 <xQueueSemaphoreTake+0x58>
8000178c:	00812783          	lw	a5,8(sp)
80001790:	00079663          	bnez	a5,8000179c <xQueueSemaphoreTake+0x60>
80001794:	00100793          	li	a5,1
80001798:	0080006f          	j	800017a0 <xQueueSemaphoreTake+0x64>
8000179c:	00000793          	li	a5,0
800017a0:	00079663          	bnez	a5,800017ac <xQueueSemaphoreTake+0x70>
800017a4:	30047073          	csrci	mstatus,8
800017a8:	0000006f          	j	800017a8 <xQueueSemaphoreTake+0x6c>
800017ac:	638030ef          	jal	ra,80004de4 <vTaskEnterCritical>
800017b0:	02412783          	lw	a5,36(sp)
800017b4:	0387a783          	lw	a5,56(a5)
800017b8:	02f12023          	sw	a5,32(sp)
800017bc:	02012783          	lw	a5,32(sp)
800017c0:	06078263          	beqz	a5,80001824 <xQueueSemaphoreTake+0xe8>
800017c4:	02012783          	lw	a5,32(sp)
800017c8:	fff78713          	addi	a4,a5,-1
800017cc:	02412783          	lw	a5,36(sp)
800017d0:	02e7ac23          	sw	a4,56(a5)
800017d4:	02412783          	lw	a5,36(sp)
800017d8:	0007a783          	lw	a5,0(a5)
800017dc:	00079a63          	bnez	a5,800017f0 <xQueueSemaphoreTake+0xb4>
800017e0:	6f0030ef          	jal	ra,80004ed0 <pvTaskIncrementMutexHeldCount>
800017e4:	00050713          	mv	a4,a0
800017e8:	02412783          	lw	a5,36(sp)
800017ec:	00e7a223          	sw	a4,4(a5)
800017f0:	02412783          	lw	a5,36(sp)
800017f4:	0107a783          	lw	a5,16(a5)
800017f8:	02078063          	beqz	a5,80001818 <xQueueSemaphoreTake+0xdc>
800017fc:	02412783          	lw	a5,36(sp)
80001800:	01078793          	addi	a5,a5,16
80001804:	00078513          	mv	a0,a5
80001808:	788020ef          	jal	ra,80003f90 <xTaskRemoveFromEventList>
8000180c:	00050793          	mv	a5,a0
80001810:	00078463          	beqz	a5,80001818 <xQueueSemaphoreTake+0xdc>
80001814:	e41fe0ef          	jal	ra,80000654 <vPortYield>
80001818:	60c030ef          	jal	ra,80004e24 <vTaskExitCritical>
8000181c:	00100793          	li	a5,1
80001820:	17c0006f          	j	8000199c <xQueueSemaphoreTake+0x260>
80001824:	00812783          	lw	a5,8(sp)
80001828:	02079063          	bnez	a5,80001848 <xQueueSemaphoreTake+0x10c>
8000182c:	02812783          	lw	a5,40(sp)
80001830:	00078663          	beqz	a5,8000183c <xQueueSemaphoreTake+0x100>
80001834:	30047073          	csrci	mstatus,8
80001838:	0000006f          	j	80001838 <xQueueSemaphoreTake+0xfc>
8000183c:	5e8030ef          	jal	ra,80004e24 <vTaskExitCritical>
80001840:	00000793          	li	a5,0
80001844:	1580006f          	j	8000199c <xQueueSemaphoreTake+0x260>
80001848:	02c12783          	lw	a5,44(sp)
8000184c:	00079c63          	bnez	a5,80001864 <xQueueSemaphoreTake+0x128>
80001850:	01410793          	addi	a5,sp,20
80001854:	00078513          	mv	a0,a5
80001858:	1d1020ef          	jal	ra,80004228 <vTaskInternalSetTimeOutState>
8000185c:	00100793          	li	a5,1
80001860:	02f12623          	sw	a5,44(sp)
80001864:	5c0030ef          	jal	ra,80004e24 <vTaskExitCritical>
80001868:	4c5010ef          	jal	ra,8000352c <vTaskSuspendAll>
8000186c:	578030ef          	jal	ra,80004de4 <vTaskEnterCritical>
80001870:	02412783          	lw	a5,36(sp)
80001874:	0447c783          	lbu	a5,68(a5)
80001878:	01879713          	slli	a4,a5,0x18
8000187c:	41875713          	srai	a4,a4,0x18
80001880:	fff00793          	li	a5,-1
80001884:	00f71663          	bne	a4,a5,80001890 <xQueueSemaphoreTake+0x154>
80001888:	02412783          	lw	a5,36(sp)
8000188c:	04078223          	sb	zero,68(a5)
80001890:	02412783          	lw	a5,36(sp)
80001894:	0457c783          	lbu	a5,69(a5)
80001898:	01879713          	slli	a4,a5,0x18
8000189c:	41875713          	srai	a4,a4,0x18
800018a0:	fff00793          	li	a5,-1
800018a4:	00f71663          	bne	a4,a5,800018b0 <xQueueSemaphoreTake+0x174>
800018a8:	02412783          	lw	a5,36(sp)
800018ac:	040782a3          	sb	zero,69(a5)
800018b0:	574030ef          	jal	ra,80004e24 <vTaskExitCritical>
800018b4:	00810713          	addi	a4,sp,8
800018b8:	01410793          	addi	a5,sp,20
800018bc:	00070593          	mv	a1,a4
800018c0:	00078513          	mv	a0,a5
800018c4:	1a1020ef          	jal	ra,80004264 <xTaskCheckForTimeOut>
800018c8:	00050793          	mv	a5,a0
800018cc:	08079063          	bnez	a5,8000194c <xQueueSemaphoreTake+0x210>
800018d0:	02412503          	lw	a0,36(sp)
800018d4:	1ad000ef          	jal	ra,80002280 <prvIsQueueEmpty>
800018d8:	00050793          	mv	a5,a0
800018dc:	06078063          	beqz	a5,8000193c <xQueueSemaphoreTake+0x200>
800018e0:	02412783          	lw	a5,36(sp)
800018e4:	0007a783          	lw	a5,0(a5)
800018e8:	02079063          	bnez	a5,80001908 <xQueueSemaphoreTake+0x1cc>
800018ec:	4f8030ef          	jal	ra,80004de4 <vTaskEnterCritical>
800018f0:	02412783          	lw	a5,36(sp)
800018f4:	0047a783          	lw	a5,4(a5)
800018f8:	00078513          	mv	a0,a5
800018fc:	080030ef          	jal	ra,8000497c <xTaskPriorityInherit>
80001900:	02a12423          	sw	a0,40(sp)
80001904:	520030ef          	jal	ra,80004e24 <vTaskExitCritical>
80001908:	02412783          	lw	a5,36(sp)
8000190c:	02478793          	addi	a5,a5,36
80001910:	00812703          	lw	a4,8(sp)
80001914:	00070593          	mv	a1,a4
80001918:	00078513          	mv	a0,a5
8000191c:	520020ef          	jal	ra,80003e3c <vTaskPlaceOnEventList>
80001920:	02412503          	lw	a0,36(sp)
80001924:	069000ef          	jal	ra,8000218c <prvUnlockQueue>
80001928:	429010ef          	jal	ra,80003550 <xTaskResumeAll>
8000192c:	00050793          	mv	a5,a0
80001930:	e6079ee3          	bnez	a5,800017ac <xQueueSemaphoreTake+0x70>
80001934:	d21fe0ef          	jal	ra,80000654 <vPortYield>
80001938:	e75ff06f          	j	800017ac <xQueueSemaphoreTake+0x70>
8000193c:	02412503          	lw	a0,36(sp)
80001940:	04d000ef          	jal	ra,8000218c <prvUnlockQueue>
80001944:	40d010ef          	jal	ra,80003550 <xTaskResumeAll>
80001948:	e65ff06f          	j	800017ac <xQueueSemaphoreTake+0x70>
8000194c:	02412503          	lw	a0,36(sp)
80001950:	03d000ef          	jal	ra,8000218c <prvUnlockQueue>
80001954:	3fd010ef          	jal	ra,80003550 <xTaskResumeAll>
80001958:	02412503          	lw	a0,36(sp)
8000195c:	125000ef          	jal	ra,80002280 <prvIsQueueEmpty>
80001960:	00050793          	mv	a5,a0
80001964:	e40784e3          	beqz	a5,800017ac <xQueueSemaphoreTake+0x70>
80001968:	02812783          	lw	a5,40(sp)
8000196c:	02078663          	beqz	a5,80001998 <xQueueSemaphoreTake+0x25c>
80001970:	474030ef          	jal	ra,80004de4 <vTaskEnterCritical>
80001974:	02412503          	lw	a0,36(sp)
80001978:	5c4000ef          	jal	ra,80001f3c <prvGetDisinheritPriorityAfterTimeout>
8000197c:	00a12e23          	sw	a0,28(sp)
80001980:	02412783          	lw	a5,36(sp)
80001984:	0047a783          	lw	a5,4(a5)
80001988:	01c12583          	lw	a1,28(sp)
8000198c:	00078513          	mv	a0,a5
80001990:	2bc030ef          	jal	ra,80004c4c <vTaskPriorityDisinheritAfterTimeout>
80001994:	490030ef          	jal	ra,80004e24 <vTaskExitCritical>
80001998:	00000793          	li	a5,0
8000199c:	00078513          	mv	a0,a5
800019a0:	03c12083          	lw	ra,60(sp)
800019a4:	04010113          	addi	sp,sp,64
800019a8:	00008067          	ret

800019ac <xQueuePeek>:
800019ac:	fc010113          	addi	sp,sp,-64
800019b0:	02112e23          	sw	ra,60(sp)
800019b4:	00a12623          	sw	a0,12(sp)
800019b8:	00b12423          	sw	a1,8(sp)
800019bc:	00c12223          	sw	a2,4(sp)
800019c0:	02012623          	sw	zero,44(sp)
800019c4:	00c12783          	lw	a5,12(sp)
800019c8:	02f12423          	sw	a5,40(sp)
800019cc:	02812783          	lw	a5,40(sp)
800019d0:	00079663          	bnez	a5,800019dc <xQueuePeek+0x30>
800019d4:	30047073          	csrci	mstatus,8
800019d8:	0000006f          	j	800019d8 <xQueuePeek+0x2c>
800019dc:	00812783          	lw	a5,8(sp)
800019e0:	00079863          	bnez	a5,800019f0 <xQueuePeek+0x44>
800019e4:	02812783          	lw	a5,40(sp)
800019e8:	0407a783          	lw	a5,64(a5)
800019ec:	00079663          	bnez	a5,800019f8 <xQueuePeek+0x4c>
800019f0:	00100793          	li	a5,1
800019f4:	0080006f          	j	800019fc <xQueuePeek+0x50>
800019f8:	00000793          	li	a5,0
800019fc:	00079663          	bnez	a5,80001a08 <xQueuePeek+0x5c>
80001a00:	30047073          	csrci	mstatus,8
80001a04:	0000006f          	j	80001a04 <xQueuePeek+0x58>
80001a08:	725020ef          	jal	ra,8000492c <xTaskGetSchedulerState>
80001a0c:	00050793          	mv	a5,a0
80001a10:	00079663          	bnez	a5,80001a1c <xQueuePeek+0x70>
80001a14:	00412783          	lw	a5,4(sp)
80001a18:	00079663          	bnez	a5,80001a24 <xQueuePeek+0x78>
80001a1c:	00100793          	li	a5,1
80001a20:	0080006f          	j	80001a28 <xQueuePeek+0x7c>
80001a24:	00000793          	li	a5,0
80001a28:	00079663          	bnez	a5,80001a34 <xQueuePeek+0x88>
80001a2c:	30047073          	csrci	mstatus,8
80001a30:	0000006f          	j	80001a30 <xQueuePeek+0x84>
80001a34:	3b0030ef          	jal	ra,80004de4 <vTaskEnterCritical>
80001a38:	02812783          	lw	a5,40(sp)
80001a3c:	0387a783          	lw	a5,56(a5)
80001a40:	02f12223          	sw	a5,36(sp)
80001a44:	02412783          	lw	a5,36(sp)
80001a48:	04078e63          	beqz	a5,80001aa4 <xQueuePeek+0xf8>
80001a4c:	02812783          	lw	a5,40(sp)
80001a50:	00c7a783          	lw	a5,12(a5)
80001a54:	02f12023          	sw	a5,32(sp)
80001a58:	00812583          	lw	a1,8(sp)
80001a5c:	02812503          	lw	a0,40(sp)
80001a60:	6a0000ef          	jal	ra,80002100 <prvCopyDataFromQueue>
80001a64:	02812783          	lw	a5,40(sp)
80001a68:	02012703          	lw	a4,32(sp)
80001a6c:	00e7a623          	sw	a4,12(a5)
80001a70:	02812783          	lw	a5,40(sp)
80001a74:	0247a783          	lw	a5,36(a5)
80001a78:	02078063          	beqz	a5,80001a98 <xQueuePeek+0xec>
80001a7c:	02812783          	lw	a5,40(sp)
80001a80:	02478793          	addi	a5,a5,36
80001a84:	00078513          	mv	a0,a5
80001a88:	508020ef          	jal	ra,80003f90 <xTaskRemoveFromEventList>
80001a8c:	00050793          	mv	a5,a0
80001a90:	00078463          	beqz	a5,80001a98 <xQueuePeek+0xec>
80001a94:	bc1fe0ef          	jal	ra,80000654 <vPortYield>
80001a98:	38c030ef          	jal	ra,80004e24 <vTaskExitCritical>
80001a9c:	00100793          	li	a5,1
80001aa0:	1140006f          	j	80001bb4 <xQueuePeek+0x208>
80001aa4:	00412783          	lw	a5,4(sp)
80001aa8:	00079863          	bnez	a5,80001ab8 <xQueuePeek+0x10c>
80001aac:	378030ef          	jal	ra,80004e24 <vTaskExitCritical>
80001ab0:	00000793          	li	a5,0
80001ab4:	1000006f          	j	80001bb4 <xQueuePeek+0x208>
80001ab8:	02c12783          	lw	a5,44(sp)
80001abc:	00079c63          	bnez	a5,80001ad4 <xQueuePeek+0x128>
80001ac0:	01810793          	addi	a5,sp,24
80001ac4:	00078513          	mv	a0,a5
80001ac8:	760020ef          	jal	ra,80004228 <vTaskInternalSetTimeOutState>
80001acc:	00100793          	li	a5,1
80001ad0:	02f12623          	sw	a5,44(sp)
80001ad4:	350030ef          	jal	ra,80004e24 <vTaskExitCritical>
80001ad8:	255010ef          	jal	ra,8000352c <vTaskSuspendAll>
80001adc:	308030ef          	jal	ra,80004de4 <vTaskEnterCritical>
80001ae0:	02812783          	lw	a5,40(sp)
80001ae4:	0447c783          	lbu	a5,68(a5)
80001ae8:	01879713          	slli	a4,a5,0x18
80001aec:	41875713          	srai	a4,a4,0x18
80001af0:	fff00793          	li	a5,-1
80001af4:	00f71663          	bne	a4,a5,80001b00 <xQueuePeek+0x154>
80001af8:	02812783          	lw	a5,40(sp)
80001afc:	04078223          	sb	zero,68(a5)
80001b00:	02812783          	lw	a5,40(sp)
80001b04:	0457c783          	lbu	a5,69(a5)
80001b08:	01879713          	slli	a4,a5,0x18
80001b0c:	41875713          	srai	a4,a4,0x18
80001b10:	fff00793          	li	a5,-1
80001b14:	00f71663          	bne	a4,a5,80001b20 <xQueuePeek+0x174>
80001b18:	02812783          	lw	a5,40(sp)
80001b1c:	040782a3          	sb	zero,69(a5)
80001b20:	304030ef          	jal	ra,80004e24 <vTaskExitCritical>
80001b24:	00410713          	addi	a4,sp,4
80001b28:	01810793          	addi	a5,sp,24
80001b2c:	00070593          	mv	a1,a4
80001b30:	00078513          	mv	a0,a5
80001b34:	730020ef          	jal	ra,80004264 <xTaskCheckForTimeOut>
80001b38:	00050793          	mv	a5,a0
80001b3c:	04079c63          	bnez	a5,80001b94 <xQueuePeek+0x1e8>
80001b40:	02812503          	lw	a0,40(sp)
80001b44:	73c000ef          	jal	ra,80002280 <prvIsQueueEmpty>
80001b48:	00050793          	mv	a5,a0
80001b4c:	02078c63          	beqz	a5,80001b84 <xQueuePeek+0x1d8>
80001b50:	02812783          	lw	a5,40(sp)
80001b54:	02478793          	addi	a5,a5,36
80001b58:	00412703          	lw	a4,4(sp)
80001b5c:	00070593          	mv	a1,a4
80001b60:	00078513          	mv	a0,a5
80001b64:	2d8020ef          	jal	ra,80003e3c <vTaskPlaceOnEventList>
80001b68:	02812503          	lw	a0,40(sp)
80001b6c:	620000ef          	jal	ra,8000218c <prvUnlockQueue>
80001b70:	1e1010ef          	jal	ra,80003550 <xTaskResumeAll>
80001b74:	00050793          	mv	a5,a0
80001b78:	ea079ee3          	bnez	a5,80001a34 <xQueuePeek+0x88>
80001b7c:	ad9fe0ef          	jal	ra,80000654 <vPortYield>
80001b80:	eb5ff06f          	j	80001a34 <xQueuePeek+0x88>
80001b84:	02812503          	lw	a0,40(sp)
80001b88:	604000ef          	jal	ra,8000218c <prvUnlockQueue>
80001b8c:	1c5010ef          	jal	ra,80003550 <xTaskResumeAll>
80001b90:	ea5ff06f          	j	80001a34 <xQueuePeek+0x88>
80001b94:	02812503          	lw	a0,40(sp)
80001b98:	5f4000ef          	jal	ra,8000218c <prvUnlockQueue>
80001b9c:	1b5010ef          	jal	ra,80003550 <xTaskResumeAll>
80001ba0:	02812503          	lw	a0,40(sp)
80001ba4:	6dc000ef          	jal	ra,80002280 <prvIsQueueEmpty>
80001ba8:	00050793          	mv	a5,a0
80001bac:	e80784e3          	beqz	a5,80001a34 <xQueuePeek+0x88>
80001bb0:	00000793          	li	a5,0
80001bb4:	00078513          	mv	a0,a5
80001bb8:	03c12083          	lw	ra,60(sp)
80001bbc:	04010113          	addi	sp,sp,64
80001bc0:	00008067          	ret

80001bc4 <xQueueReceiveFromISR>:
80001bc4:	fc010113          	addi	sp,sp,-64
80001bc8:	02112e23          	sw	ra,60(sp)
80001bcc:	00a12623          	sw	a0,12(sp)
80001bd0:	00b12423          	sw	a1,8(sp)
80001bd4:	00c12223          	sw	a2,4(sp)
80001bd8:	00c12783          	lw	a5,12(sp)
80001bdc:	02f12423          	sw	a5,40(sp)
80001be0:	02812783          	lw	a5,40(sp)
80001be4:	00079663          	bnez	a5,80001bf0 <xQueueReceiveFromISR+0x2c>
80001be8:	30047073          	csrci	mstatus,8
80001bec:	0000006f          	j	80001bec <xQueueReceiveFromISR+0x28>
80001bf0:	00812783          	lw	a5,8(sp)
80001bf4:	00079863          	bnez	a5,80001c04 <xQueueReceiveFromISR+0x40>
80001bf8:	02812783          	lw	a5,40(sp)
80001bfc:	0407a783          	lw	a5,64(a5)
80001c00:	00079663          	bnez	a5,80001c0c <xQueueReceiveFromISR+0x48>
80001c04:	00100793          	li	a5,1
80001c08:	0080006f          	j	80001c10 <xQueueReceiveFromISR+0x4c>
80001c0c:	00000793          	li	a5,0
80001c10:	00079663          	bnez	a5,80001c1c <xQueueReceiveFromISR+0x58>
80001c14:	30047073          	csrci	mstatus,8
80001c18:	0000006f          	j	80001c18 <xQueueReceiveFromISR+0x54>
80001c1c:	c4dfe0ef          	jal	ra,80000868 <vPortSetInterruptMask>
80001c20:	00050793          	mv	a5,a0
80001c24:	02f12223          	sw	a5,36(sp)
80001c28:	02812783          	lw	a5,40(sp)
80001c2c:	0387a783          	lw	a5,56(a5)
80001c30:	02f12023          	sw	a5,32(sp)
80001c34:	02012783          	lw	a5,32(sp)
80001c38:	08078e63          	beqz	a5,80001cd4 <xQueueReceiveFromISR+0x110>
80001c3c:	02812783          	lw	a5,40(sp)
80001c40:	0447c783          	lbu	a5,68(a5)
80001c44:	00f10fa3          	sb	a5,31(sp)
80001c48:	00812583          	lw	a1,8(sp)
80001c4c:	02812503          	lw	a0,40(sp)
80001c50:	4b0000ef          	jal	ra,80002100 <prvCopyDataFromQueue>
80001c54:	02012783          	lw	a5,32(sp)
80001c58:	fff78713          	addi	a4,a5,-1
80001c5c:	02812783          	lw	a5,40(sp)
80001c60:	02e7ac23          	sw	a4,56(a5)
80001c64:	01f10703          	lb	a4,31(sp)
80001c68:	fff00793          	li	a5,-1
80001c6c:	04f71063          	bne	a4,a5,80001cac <xQueueReceiveFromISR+0xe8>
80001c70:	02812783          	lw	a5,40(sp)
80001c74:	0107a783          	lw	a5,16(a5)
80001c78:	04078863          	beqz	a5,80001cc8 <xQueueReceiveFromISR+0x104>
80001c7c:	02812783          	lw	a5,40(sp)
80001c80:	01078793          	addi	a5,a5,16
80001c84:	00078513          	mv	a0,a5
80001c88:	308020ef          	jal	ra,80003f90 <xTaskRemoveFromEventList>
80001c8c:	00050793          	mv	a5,a0
80001c90:	02078c63          	beqz	a5,80001cc8 <xQueueReceiveFromISR+0x104>
80001c94:	00412783          	lw	a5,4(sp)
80001c98:	02078863          	beqz	a5,80001cc8 <xQueueReceiveFromISR+0x104>
80001c9c:	00412783          	lw	a5,4(sp)
80001ca0:	00100713          	li	a4,1
80001ca4:	00e7a023          	sw	a4,0(a5)
80001ca8:	0200006f          	j	80001cc8 <xQueueReceiveFromISR+0x104>
80001cac:	01f14783          	lbu	a5,31(sp)
80001cb0:	00178793          	addi	a5,a5,1
80001cb4:	0ff7f793          	andi	a5,a5,255
80001cb8:	01879713          	slli	a4,a5,0x18
80001cbc:	41875713          	srai	a4,a4,0x18
80001cc0:	02812783          	lw	a5,40(sp)
80001cc4:	04e78223          	sb	a4,68(a5)
80001cc8:	00100793          	li	a5,1
80001ccc:	02f12623          	sw	a5,44(sp)
80001cd0:	0080006f          	j	80001cd8 <xQueueReceiveFromISR+0x114>
80001cd4:	02012623          	sw	zero,44(sp)
80001cd8:	02412783          	lw	a5,36(sp)
80001cdc:	00078513          	mv	a0,a5
80001ce0:	b6dfe0ef          	jal	ra,8000084c <vPortClearInterruptMask>
80001ce4:	02c12783          	lw	a5,44(sp)
80001ce8:	00078513          	mv	a0,a5
80001cec:	03c12083          	lw	ra,60(sp)
80001cf0:	04010113          	addi	sp,sp,64
80001cf4:	00008067          	ret

80001cf8 <xQueuePeekFromISR>:
80001cf8:	fd010113          	addi	sp,sp,-48
80001cfc:	02112623          	sw	ra,44(sp)
80001d00:	00a12623          	sw	a0,12(sp)
80001d04:	00b12423          	sw	a1,8(sp)
80001d08:	00c12783          	lw	a5,12(sp)
80001d0c:	00f12c23          	sw	a5,24(sp)
80001d10:	01812783          	lw	a5,24(sp)
80001d14:	00079663          	bnez	a5,80001d20 <xQueuePeekFromISR+0x28>
80001d18:	30047073          	csrci	mstatus,8
80001d1c:	0000006f          	j	80001d1c <xQueuePeekFromISR+0x24>
80001d20:	00812783          	lw	a5,8(sp)
80001d24:	00079863          	bnez	a5,80001d34 <xQueuePeekFromISR+0x3c>
80001d28:	01812783          	lw	a5,24(sp)
80001d2c:	0407a783          	lw	a5,64(a5)
80001d30:	00079663          	bnez	a5,80001d3c <xQueuePeekFromISR+0x44>
80001d34:	00100793          	li	a5,1
80001d38:	0080006f          	j	80001d40 <xQueuePeekFromISR+0x48>
80001d3c:	00000793          	li	a5,0
80001d40:	00079663          	bnez	a5,80001d4c <xQueuePeekFromISR+0x54>
80001d44:	30047073          	csrci	mstatus,8
80001d48:	0000006f          	j	80001d48 <xQueuePeekFromISR+0x50>
80001d4c:	01812783          	lw	a5,24(sp)
80001d50:	0407a783          	lw	a5,64(a5)
80001d54:	00079663          	bnez	a5,80001d60 <xQueuePeekFromISR+0x68>
80001d58:	30047073          	csrci	mstatus,8
80001d5c:	0000006f          	j	80001d5c <xQueuePeekFromISR+0x64>
80001d60:	b09fe0ef          	jal	ra,80000868 <vPortSetInterruptMask>
80001d64:	00050793          	mv	a5,a0
80001d68:	00f12a23          	sw	a5,20(sp)
80001d6c:	01812783          	lw	a5,24(sp)
80001d70:	0387a783          	lw	a5,56(a5)
80001d74:	02078a63          	beqz	a5,80001da8 <xQueuePeekFromISR+0xb0>
80001d78:	01812783          	lw	a5,24(sp)
80001d7c:	00c7a783          	lw	a5,12(a5)
80001d80:	00f12823          	sw	a5,16(sp)
80001d84:	00812583          	lw	a1,8(sp)
80001d88:	01812503          	lw	a0,24(sp)
80001d8c:	374000ef          	jal	ra,80002100 <prvCopyDataFromQueue>
80001d90:	01812783          	lw	a5,24(sp)
80001d94:	01012703          	lw	a4,16(sp)
80001d98:	00e7a623          	sw	a4,12(a5)
80001d9c:	00100793          	li	a5,1
80001da0:	00f12e23          	sw	a5,28(sp)
80001da4:	0080006f          	j	80001dac <xQueuePeekFromISR+0xb4>
80001da8:	00012e23          	sw	zero,28(sp)
80001dac:	01412783          	lw	a5,20(sp)
80001db0:	00078513          	mv	a0,a5
80001db4:	a99fe0ef          	jal	ra,8000084c <vPortClearInterruptMask>
80001db8:	01c12783          	lw	a5,28(sp)
80001dbc:	00078513          	mv	a0,a5
80001dc0:	02c12083          	lw	ra,44(sp)
80001dc4:	03010113          	addi	sp,sp,48
80001dc8:	00008067          	ret

80001dcc <uxQueueMessagesWaiting>:
80001dcc:	fd010113          	addi	sp,sp,-48
80001dd0:	02112623          	sw	ra,44(sp)
80001dd4:	00a12623          	sw	a0,12(sp)
80001dd8:	00c12783          	lw	a5,12(sp)
80001ddc:	00079663          	bnez	a5,80001de8 <uxQueueMessagesWaiting+0x1c>
80001de0:	30047073          	csrci	mstatus,8
80001de4:	0000006f          	j	80001de4 <uxQueueMessagesWaiting+0x18>
80001de8:	7fd020ef          	jal	ra,80004de4 <vTaskEnterCritical>
80001dec:	00c12783          	lw	a5,12(sp)
80001df0:	0387a783          	lw	a5,56(a5)
80001df4:	00f12e23          	sw	a5,28(sp)
80001df8:	02c030ef          	jal	ra,80004e24 <vTaskExitCritical>
80001dfc:	01c12783          	lw	a5,28(sp)
80001e00:	00078513          	mv	a0,a5
80001e04:	02c12083          	lw	ra,44(sp)
80001e08:	03010113          	addi	sp,sp,48
80001e0c:	00008067          	ret

80001e10 <uxQueueSpacesAvailable>:
80001e10:	fd010113          	addi	sp,sp,-48
80001e14:	02112623          	sw	ra,44(sp)
80001e18:	00a12623          	sw	a0,12(sp)
80001e1c:	00c12783          	lw	a5,12(sp)
80001e20:	00f12e23          	sw	a5,28(sp)
80001e24:	01c12783          	lw	a5,28(sp)
80001e28:	00079663          	bnez	a5,80001e34 <uxQueueSpacesAvailable+0x24>
80001e2c:	30047073          	csrci	mstatus,8
80001e30:	0000006f          	j	80001e30 <uxQueueSpacesAvailable+0x20>
80001e34:	7b1020ef          	jal	ra,80004de4 <vTaskEnterCritical>
80001e38:	01c12783          	lw	a5,28(sp)
80001e3c:	03c7a703          	lw	a4,60(a5)
80001e40:	01c12783          	lw	a5,28(sp)
80001e44:	0387a783          	lw	a5,56(a5)
80001e48:	40f707b3          	sub	a5,a4,a5
80001e4c:	00f12c23          	sw	a5,24(sp)
80001e50:	7d5020ef          	jal	ra,80004e24 <vTaskExitCritical>
80001e54:	01812783          	lw	a5,24(sp)
80001e58:	00078513          	mv	a0,a5
80001e5c:	02c12083          	lw	ra,44(sp)
80001e60:	03010113          	addi	sp,sp,48
80001e64:	00008067          	ret

80001e68 <uxQueueMessagesWaitingFromISR>:
80001e68:	fe010113          	addi	sp,sp,-32
80001e6c:	00a12623          	sw	a0,12(sp)
80001e70:	00c12783          	lw	a5,12(sp)
80001e74:	00079663          	bnez	a5,80001e80 <uxQueueMessagesWaitingFromISR+0x18>
80001e78:	30047073          	csrci	mstatus,8
80001e7c:	0000006f          	j	80001e7c <uxQueueMessagesWaitingFromISR+0x14>
80001e80:	00c12783          	lw	a5,12(sp)
80001e84:	0387a783          	lw	a5,56(a5)
80001e88:	00f12e23          	sw	a5,28(sp)
80001e8c:	01c12783          	lw	a5,28(sp)
80001e90:	00078513          	mv	a0,a5
80001e94:	02010113          	addi	sp,sp,32
80001e98:	00008067          	ret

80001e9c <vQueueDelete>:
80001e9c:	fd010113          	addi	sp,sp,-48
80001ea0:	02112623          	sw	ra,44(sp)
80001ea4:	00a12623          	sw	a0,12(sp)
80001ea8:	00c12783          	lw	a5,12(sp)
80001eac:	00f12e23          	sw	a5,28(sp)
80001eb0:	01c12783          	lw	a5,28(sp)
80001eb4:	00079663          	bnez	a5,80001ec0 <vQueueDelete+0x24>
80001eb8:	30047073          	csrci	mstatus,8
80001ebc:	0000006f          	j	80001ebc <vQueueDelete+0x20>
80001ec0:	01c12503          	lw	a0,28(sp)
80001ec4:	5ec000ef          	jal	ra,800024b0 <vQueueUnregisterQueue>
80001ec8:	01c12503          	lw	a0,28(sp)
80001ecc:	729040ef          	jal	ra,80006df4 <vPortFree>
80001ed0:	00000013          	nop
80001ed4:	02c12083          	lw	ra,44(sp)
80001ed8:	03010113          	addi	sp,sp,48
80001edc:	00008067          	ret

80001ee0 <uxQueueGetQueueNumber>:
80001ee0:	ff010113          	addi	sp,sp,-16
80001ee4:	00a12623          	sw	a0,12(sp)
80001ee8:	00c12783          	lw	a5,12(sp)
80001eec:	0487a783          	lw	a5,72(a5)
80001ef0:	00078513          	mv	a0,a5
80001ef4:	01010113          	addi	sp,sp,16
80001ef8:	00008067          	ret

80001efc <vQueueSetQueueNumber>:
80001efc:	ff010113          	addi	sp,sp,-16
80001f00:	00a12623          	sw	a0,12(sp)
80001f04:	00b12423          	sw	a1,8(sp)
80001f08:	00c12783          	lw	a5,12(sp)
80001f0c:	00812703          	lw	a4,8(sp)
80001f10:	04e7a423          	sw	a4,72(a5)
80001f14:	00000013          	nop
80001f18:	01010113          	addi	sp,sp,16
80001f1c:	00008067          	ret

80001f20 <ucQueueGetQueueType>:
80001f20:	ff010113          	addi	sp,sp,-16
80001f24:	00a12623          	sw	a0,12(sp)
80001f28:	00c12783          	lw	a5,12(sp)
80001f2c:	04c7c783          	lbu	a5,76(a5)
80001f30:	00078513          	mv	a0,a5
80001f34:	01010113          	addi	sp,sp,16
80001f38:	00008067          	ret

80001f3c <prvGetDisinheritPriorityAfterTimeout>:
80001f3c:	fe010113          	addi	sp,sp,-32
80001f40:	00a12623          	sw	a0,12(sp)
80001f44:	00c12783          	lw	a5,12(sp)
80001f48:	0247a783          	lw	a5,36(a5)
80001f4c:	02078063          	beqz	a5,80001f6c <prvGetDisinheritPriorityAfterTimeout+0x30>
80001f50:	00c12783          	lw	a5,12(sp)
80001f54:	0307a783          	lw	a5,48(a5)
80001f58:	0007a783          	lw	a5,0(a5)
80001f5c:	00500713          	li	a4,5
80001f60:	40f707b3          	sub	a5,a4,a5
80001f64:	00f12e23          	sw	a5,28(sp)
80001f68:	0080006f          	j	80001f70 <prvGetDisinheritPriorityAfterTimeout+0x34>
80001f6c:	00012e23          	sw	zero,28(sp)
80001f70:	01c12783          	lw	a5,28(sp)
80001f74:	00078513          	mv	a0,a5
80001f78:	02010113          	addi	sp,sp,32
80001f7c:	00008067          	ret

80001f80 <prvCopyDataToQueue>:
80001f80:	fd010113          	addi	sp,sp,-48
80001f84:	02112623          	sw	ra,44(sp)
80001f88:	00a12623          	sw	a0,12(sp)
80001f8c:	00b12423          	sw	a1,8(sp)
80001f90:	00c12223          	sw	a2,4(sp)
80001f94:	00012e23          	sw	zero,28(sp)
80001f98:	00c12783          	lw	a5,12(sp)
80001f9c:	0387a783          	lw	a5,56(a5)
80001fa0:	00f12c23          	sw	a5,24(sp)
80001fa4:	00c12783          	lw	a5,12(sp)
80001fa8:	0407a783          	lw	a5,64(a5)
80001fac:	02079863          	bnez	a5,80001fdc <prvCopyDataToQueue+0x5c>
80001fb0:	00c12783          	lw	a5,12(sp)
80001fb4:	0007a783          	lw	a5,0(a5)
80001fb8:	12079263          	bnez	a5,800020dc <prvCopyDataToQueue+0x15c>
80001fbc:	00c12783          	lw	a5,12(sp)
80001fc0:	0047a783          	lw	a5,4(a5)
80001fc4:	00078513          	mv	a0,a5
80001fc8:	349020ef          	jal	ra,80004b10 <xTaskPriorityDisinherit>
80001fcc:	00a12e23          	sw	a0,28(sp)
80001fd0:	00c12783          	lw	a5,12(sp)
80001fd4:	0007a223          	sw	zero,4(a5)
80001fd8:	1040006f          	j	800020dc <prvCopyDataToQueue+0x15c>
80001fdc:	00412783          	lw	a5,4(sp)
80001fe0:	06079463          	bnez	a5,80002048 <prvCopyDataToQueue+0xc8>
80001fe4:	00c12783          	lw	a5,12(sp)
80001fe8:	0087a703          	lw	a4,8(a5)
80001fec:	00c12783          	lw	a5,12(sp)
80001ff0:	0407a783          	lw	a5,64(a5)
80001ff4:	00078613          	mv	a2,a5
80001ff8:	00812583          	lw	a1,8(sp)
80001ffc:	00070513          	mv	a0,a4
80002000:	33c070ef          	jal	ra,8000933c <memcpy>
80002004:	00c12783          	lw	a5,12(sp)
80002008:	0087a703          	lw	a4,8(a5)
8000200c:	00c12783          	lw	a5,12(sp)
80002010:	0407a783          	lw	a5,64(a5)
80002014:	00f70733          	add	a4,a4,a5
80002018:	00c12783          	lw	a5,12(sp)
8000201c:	00e7a423          	sw	a4,8(a5)
80002020:	00c12783          	lw	a5,12(sp)
80002024:	0087a703          	lw	a4,8(a5)
80002028:	00c12783          	lw	a5,12(sp)
8000202c:	0047a783          	lw	a5,4(a5)
80002030:	0af76663          	bltu	a4,a5,800020dc <prvCopyDataToQueue+0x15c>
80002034:	00c12783          	lw	a5,12(sp)
80002038:	0007a703          	lw	a4,0(a5)
8000203c:	00c12783          	lw	a5,12(sp)
80002040:	00e7a423          	sw	a4,8(a5)
80002044:	0980006f          	j	800020dc <prvCopyDataToQueue+0x15c>
80002048:	00c12783          	lw	a5,12(sp)
8000204c:	00c7a703          	lw	a4,12(a5)
80002050:	00c12783          	lw	a5,12(sp)
80002054:	0407a783          	lw	a5,64(a5)
80002058:	00078613          	mv	a2,a5
8000205c:	00812583          	lw	a1,8(sp)
80002060:	00070513          	mv	a0,a4
80002064:	2d8070ef          	jal	ra,8000933c <memcpy>
80002068:	00c12783          	lw	a5,12(sp)
8000206c:	00c7a703          	lw	a4,12(a5)
80002070:	00c12783          	lw	a5,12(sp)
80002074:	0407a783          	lw	a5,64(a5)
80002078:	40f007b3          	neg	a5,a5
8000207c:	00f70733          	add	a4,a4,a5
80002080:	00c12783          	lw	a5,12(sp)
80002084:	00e7a623          	sw	a4,12(a5)
80002088:	00c12783          	lw	a5,12(sp)
8000208c:	00c7a703          	lw	a4,12(a5)
80002090:	00c12783          	lw	a5,12(sp)
80002094:	0007a783          	lw	a5,0(a5)
80002098:	02f77263          	bgeu	a4,a5,800020bc <prvCopyDataToQueue+0x13c>
8000209c:	00c12783          	lw	a5,12(sp)
800020a0:	0047a703          	lw	a4,4(a5)
800020a4:	00c12783          	lw	a5,12(sp)
800020a8:	0407a783          	lw	a5,64(a5)
800020ac:	40f007b3          	neg	a5,a5
800020b0:	00f70733          	add	a4,a4,a5
800020b4:	00c12783          	lw	a5,12(sp)
800020b8:	00e7a623          	sw	a4,12(a5)
800020bc:	00412703          	lw	a4,4(sp)
800020c0:	00200793          	li	a5,2
800020c4:	00f71c63          	bne	a4,a5,800020dc <prvCopyDataToQueue+0x15c>
800020c8:	01812783          	lw	a5,24(sp)
800020cc:	00078863          	beqz	a5,800020dc <prvCopyDataToQueue+0x15c>
800020d0:	01812783          	lw	a5,24(sp)
800020d4:	fff78793          	addi	a5,a5,-1
800020d8:	00f12c23          	sw	a5,24(sp)
800020dc:	01812783          	lw	a5,24(sp)
800020e0:	00178713          	addi	a4,a5,1
800020e4:	00c12783          	lw	a5,12(sp)
800020e8:	02e7ac23          	sw	a4,56(a5)
800020ec:	01c12783          	lw	a5,28(sp)
800020f0:	00078513          	mv	a0,a5
800020f4:	02c12083          	lw	ra,44(sp)
800020f8:	03010113          	addi	sp,sp,48
800020fc:	00008067          	ret

80002100 <prvCopyDataFromQueue>:
80002100:	fe010113          	addi	sp,sp,-32
80002104:	00112e23          	sw	ra,28(sp)
80002108:	00a12623          	sw	a0,12(sp)
8000210c:	00b12423          	sw	a1,8(sp)
80002110:	00c12783          	lw	a5,12(sp)
80002114:	0407a783          	lw	a5,64(a5)
80002118:	06078263          	beqz	a5,8000217c <prvCopyDataFromQueue+0x7c>
8000211c:	00c12783          	lw	a5,12(sp)
80002120:	00c7a703          	lw	a4,12(a5)
80002124:	00c12783          	lw	a5,12(sp)
80002128:	0407a783          	lw	a5,64(a5)
8000212c:	00f70733          	add	a4,a4,a5
80002130:	00c12783          	lw	a5,12(sp)
80002134:	00e7a623          	sw	a4,12(a5)
80002138:	00c12783          	lw	a5,12(sp)
8000213c:	00c7a703          	lw	a4,12(a5)
80002140:	00c12783          	lw	a5,12(sp)
80002144:	0047a783          	lw	a5,4(a5)
80002148:	00f76a63          	bltu	a4,a5,8000215c <prvCopyDataFromQueue+0x5c>
8000214c:	00c12783          	lw	a5,12(sp)
80002150:	0007a703          	lw	a4,0(a5)
80002154:	00c12783          	lw	a5,12(sp)
80002158:	00e7a623          	sw	a4,12(a5)
8000215c:	00c12783          	lw	a5,12(sp)
80002160:	00c7a703          	lw	a4,12(a5)
80002164:	00c12783          	lw	a5,12(sp)
80002168:	0407a783          	lw	a5,64(a5)
8000216c:	00078613          	mv	a2,a5
80002170:	00070593          	mv	a1,a4
80002174:	00812503          	lw	a0,8(sp)
80002178:	1c4070ef          	jal	ra,8000933c <memcpy>
8000217c:	00000013          	nop
80002180:	01c12083          	lw	ra,28(sp)
80002184:	02010113          	addi	sp,sp,32
80002188:	00008067          	ret

8000218c <prvUnlockQueue>:
8000218c:	fd010113          	addi	sp,sp,-48
80002190:	02112623          	sw	ra,44(sp)
80002194:	00a12623          	sw	a0,12(sp)
80002198:	44d020ef          	jal	ra,80004de4 <vTaskEnterCritical>
8000219c:	00c12783          	lw	a5,12(sp)
800021a0:	0457c783          	lbu	a5,69(a5)
800021a4:	00f10fa3          	sb	a5,31(sp)
800021a8:	03c0006f          	j	800021e4 <prvUnlockQueue+0x58>
800021ac:	00c12783          	lw	a5,12(sp)
800021b0:	0247a783          	lw	a5,36(a5)
800021b4:	02078e63          	beqz	a5,800021f0 <prvUnlockQueue+0x64>
800021b8:	00c12783          	lw	a5,12(sp)
800021bc:	02478793          	addi	a5,a5,36
800021c0:	00078513          	mv	a0,a5
800021c4:	5cd010ef          	jal	ra,80003f90 <xTaskRemoveFromEventList>
800021c8:	00050793          	mv	a5,a0
800021cc:	00078463          	beqz	a5,800021d4 <prvUnlockQueue+0x48>
800021d0:	198020ef          	jal	ra,80004368 <vTaskMissedYield>
800021d4:	01f14783          	lbu	a5,31(sp)
800021d8:	fff78793          	addi	a5,a5,-1
800021dc:	0ff7f793          	andi	a5,a5,255
800021e0:	00f10fa3          	sb	a5,31(sp)
800021e4:	01f10783          	lb	a5,31(sp)
800021e8:	fcf042e3          	bgtz	a5,800021ac <prvUnlockQueue+0x20>
800021ec:	0080006f          	j	800021f4 <prvUnlockQueue+0x68>
800021f0:	00000013          	nop
800021f4:	00c12783          	lw	a5,12(sp)
800021f8:	fff00713          	li	a4,-1
800021fc:	04e782a3          	sb	a4,69(a5)
80002200:	425020ef          	jal	ra,80004e24 <vTaskExitCritical>
80002204:	3e1020ef          	jal	ra,80004de4 <vTaskEnterCritical>
80002208:	00c12783          	lw	a5,12(sp)
8000220c:	0447c783          	lbu	a5,68(a5)
80002210:	00f10f23          	sb	a5,30(sp)
80002214:	03c0006f          	j	80002250 <prvUnlockQueue+0xc4>
80002218:	00c12783          	lw	a5,12(sp)
8000221c:	0107a783          	lw	a5,16(a5)
80002220:	02078e63          	beqz	a5,8000225c <prvUnlockQueue+0xd0>
80002224:	00c12783          	lw	a5,12(sp)
80002228:	01078793          	addi	a5,a5,16
8000222c:	00078513          	mv	a0,a5
80002230:	561010ef          	jal	ra,80003f90 <xTaskRemoveFromEventList>
80002234:	00050793          	mv	a5,a0
80002238:	00078463          	beqz	a5,80002240 <prvUnlockQueue+0xb4>
8000223c:	12c020ef          	jal	ra,80004368 <vTaskMissedYield>
80002240:	01e14783          	lbu	a5,30(sp)
80002244:	fff78793          	addi	a5,a5,-1
80002248:	0ff7f793          	andi	a5,a5,255
8000224c:	00f10f23          	sb	a5,30(sp)
80002250:	01e10783          	lb	a5,30(sp)
80002254:	fcf042e3          	bgtz	a5,80002218 <prvUnlockQueue+0x8c>
80002258:	0080006f          	j	80002260 <prvUnlockQueue+0xd4>
8000225c:	00000013          	nop
80002260:	00c12783          	lw	a5,12(sp)
80002264:	fff00713          	li	a4,-1
80002268:	04e78223          	sb	a4,68(a5)
8000226c:	3b9020ef          	jal	ra,80004e24 <vTaskExitCritical>
80002270:	00000013          	nop
80002274:	02c12083          	lw	ra,44(sp)
80002278:	03010113          	addi	sp,sp,48
8000227c:	00008067          	ret

80002280 <prvIsQueueEmpty>:
80002280:	fd010113          	addi	sp,sp,-48
80002284:	02112623          	sw	ra,44(sp)
80002288:	00a12623          	sw	a0,12(sp)
8000228c:	359020ef          	jal	ra,80004de4 <vTaskEnterCritical>
80002290:	00c12783          	lw	a5,12(sp)
80002294:	0387a783          	lw	a5,56(a5)
80002298:	00079863          	bnez	a5,800022a8 <prvIsQueueEmpty+0x28>
8000229c:	00100793          	li	a5,1
800022a0:	00f12e23          	sw	a5,28(sp)
800022a4:	0080006f          	j	800022ac <prvIsQueueEmpty+0x2c>
800022a8:	00012e23          	sw	zero,28(sp)
800022ac:	379020ef          	jal	ra,80004e24 <vTaskExitCritical>
800022b0:	01c12783          	lw	a5,28(sp)
800022b4:	00078513          	mv	a0,a5
800022b8:	02c12083          	lw	ra,44(sp)
800022bc:	03010113          	addi	sp,sp,48
800022c0:	00008067          	ret

800022c4 <xQueueIsQueueEmptyFromISR>:
800022c4:	fe010113          	addi	sp,sp,-32
800022c8:	00a12623          	sw	a0,12(sp)
800022cc:	00c12783          	lw	a5,12(sp)
800022d0:	00079663          	bnez	a5,800022dc <xQueueIsQueueEmptyFromISR+0x18>
800022d4:	30047073          	csrci	mstatus,8
800022d8:	0000006f          	j	800022d8 <xQueueIsQueueEmptyFromISR+0x14>
800022dc:	00c12783          	lw	a5,12(sp)
800022e0:	0387a783          	lw	a5,56(a5)
800022e4:	00079863          	bnez	a5,800022f4 <xQueueIsQueueEmptyFromISR+0x30>
800022e8:	00100793          	li	a5,1
800022ec:	00f12e23          	sw	a5,28(sp)
800022f0:	0080006f          	j	800022f8 <xQueueIsQueueEmptyFromISR+0x34>
800022f4:	00012e23          	sw	zero,28(sp)
800022f8:	01c12783          	lw	a5,28(sp)
800022fc:	00078513          	mv	a0,a5
80002300:	02010113          	addi	sp,sp,32
80002304:	00008067          	ret

80002308 <prvIsQueueFull>:
80002308:	fd010113          	addi	sp,sp,-48
8000230c:	02112623          	sw	ra,44(sp)
80002310:	00a12623          	sw	a0,12(sp)
80002314:	2d1020ef          	jal	ra,80004de4 <vTaskEnterCritical>
80002318:	00c12783          	lw	a5,12(sp)
8000231c:	0387a703          	lw	a4,56(a5)
80002320:	00c12783          	lw	a5,12(sp)
80002324:	03c7a783          	lw	a5,60(a5)
80002328:	00f71863          	bne	a4,a5,80002338 <prvIsQueueFull+0x30>
8000232c:	00100793          	li	a5,1
80002330:	00f12e23          	sw	a5,28(sp)
80002334:	0080006f          	j	8000233c <prvIsQueueFull+0x34>
80002338:	00012e23          	sw	zero,28(sp)
8000233c:	2e9020ef          	jal	ra,80004e24 <vTaskExitCritical>
80002340:	01c12783          	lw	a5,28(sp)
80002344:	00078513          	mv	a0,a5
80002348:	02c12083          	lw	ra,44(sp)
8000234c:	03010113          	addi	sp,sp,48
80002350:	00008067          	ret

80002354 <xQueueIsQueueFullFromISR>:
80002354:	fe010113          	addi	sp,sp,-32
80002358:	00a12623          	sw	a0,12(sp)
8000235c:	00c12783          	lw	a5,12(sp)
80002360:	00079663          	bnez	a5,8000236c <xQueueIsQueueFullFromISR+0x18>
80002364:	30047073          	csrci	mstatus,8
80002368:	0000006f          	j	80002368 <xQueueIsQueueFullFromISR+0x14>
8000236c:	00c12783          	lw	a5,12(sp)
80002370:	0387a703          	lw	a4,56(a5)
80002374:	00c12783          	lw	a5,12(sp)
80002378:	03c7a783          	lw	a5,60(a5)
8000237c:	00f71863          	bne	a4,a5,8000238c <xQueueIsQueueFullFromISR+0x38>
80002380:	00100793          	li	a5,1
80002384:	00f12e23          	sw	a5,28(sp)
80002388:	0080006f          	j	80002390 <xQueueIsQueueFullFromISR+0x3c>
8000238c:	00012e23          	sw	zero,28(sp)
80002390:	01c12783          	lw	a5,28(sp)
80002394:	00078513          	mv	a0,a5
80002398:	02010113          	addi	sp,sp,32
8000239c:	00008067          	ret

800023a0 <vQueueAddToRegistry>:
800023a0:	fe010113          	addi	sp,sp,-32
800023a4:	00a12623          	sw	a0,12(sp)
800023a8:	00b12423          	sw	a1,8(sp)
800023ac:	00012e23          	sw	zero,28(sp)
800023b0:	0680006f          	j	80002418 <vQueueAddToRegistry+0x78>
800023b4:	0004e717          	auipc	a4,0x4e
800023b8:	30870713          	addi	a4,a4,776 # 800506bc <xQueueRegistry>
800023bc:	01c12783          	lw	a5,28(sp)
800023c0:	00379793          	slli	a5,a5,0x3
800023c4:	00f707b3          	add	a5,a4,a5
800023c8:	0007a783          	lw	a5,0(a5)
800023cc:	04079063          	bnez	a5,8000240c <vQueueAddToRegistry+0x6c>
800023d0:	0004e717          	auipc	a4,0x4e
800023d4:	2ec70713          	addi	a4,a4,748 # 800506bc <xQueueRegistry>
800023d8:	01c12783          	lw	a5,28(sp)
800023dc:	00379793          	slli	a5,a5,0x3
800023e0:	00f707b3          	add	a5,a4,a5
800023e4:	00812703          	lw	a4,8(sp)
800023e8:	00e7a023          	sw	a4,0(a5)
800023ec:	0004e717          	auipc	a4,0x4e
800023f0:	2d070713          	addi	a4,a4,720 # 800506bc <xQueueRegistry>
800023f4:	01c12783          	lw	a5,28(sp)
800023f8:	00379793          	slli	a5,a5,0x3
800023fc:	00f707b3          	add	a5,a4,a5
80002400:	00c12703          	lw	a4,12(sp)
80002404:	00e7a223          	sw	a4,4(a5)
80002408:	0200006f          	j	80002428 <vQueueAddToRegistry+0x88>
8000240c:	01c12783          	lw	a5,28(sp)
80002410:	00178793          	addi	a5,a5,1
80002414:	00f12e23          	sw	a5,28(sp)
80002418:	01c12703          	lw	a4,28(sp)
8000241c:	00700793          	li	a5,7
80002420:	f8e7fae3          	bgeu	a5,a4,800023b4 <vQueueAddToRegistry+0x14>
80002424:	00000013          	nop
80002428:	00000013          	nop
8000242c:	02010113          	addi	sp,sp,32
80002430:	00008067          	ret

80002434 <pcQueueGetName>:
80002434:	fe010113          	addi	sp,sp,-32
80002438:	00a12623          	sw	a0,12(sp)
8000243c:	00012c23          	sw	zero,24(sp)
80002440:	00012e23          	sw	zero,28(sp)
80002444:	0500006f          	j	80002494 <pcQueueGetName+0x60>
80002448:	0004e717          	auipc	a4,0x4e
8000244c:	27470713          	addi	a4,a4,628 # 800506bc <xQueueRegistry>
80002450:	01c12783          	lw	a5,28(sp)
80002454:	00379793          	slli	a5,a5,0x3
80002458:	00f707b3          	add	a5,a4,a5
8000245c:	0047a783          	lw	a5,4(a5)
80002460:	00c12703          	lw	a4,12(sp)
80002464:	02f71263          	bne	a4,a5,80002488 <pcQueueGetName+0x54>
80002468:	0004e717          	auipc	a4,0x4e
8000246c:	25470713          	addi	a4,a4,596 # 800506bc <xQueueRegistry>
80002470:	01c12783          	lw	a5,28(sp)
80002474:	00379793          	slli	a5,a5,0x3
80002478:	00f707b3          	add	a5,a4,a5
8000247c:	0007a783          	lw	a5,0(a5)
80002480:	00f12c23          	sw	a5,24(sp)
80002484:	01c0006f          	j	800024a0 <pcQueueGetName+0x6c>
80002488:	01c12783          	lw	a5,28(sp)
8000248c:	00178793          	addi	a5,a5,1
80002490:	00f12e23          	sw	a5,28(sp)
80002494:	01c12703          	lw	a4,28(sp)
80002498:	00700793          	li	a5,7
8000249c:	fae7f6e3          	bgeu	a5,a4,80002448 <pcQueueGetName+0x14>
800024a0:	01812783          	lw	a5,24(sp)
800024a4:	00078513          	mv	a0,a5
800024a8:	02010113          	addi	sp,sp,32
800024ac:	00008067          	ret

800024b0 <vQueueUnregisterQueue>:
800024b0:	fe010113          	addi	sp,sp,-32
800024b4:	00a12623          	sw	a0,12(sp)
800024b8:	00012e23          	sw	zero,28(sp)
800024bc:	0640006f          	j	80002520 <vQueueUnregisterQueue+0x70>
800024c0:	0004e717          	auipc	a4,0x4e
800024c4:	1fc70713          	addi	a4,a4,508 # 800506bc <xQueueRegistry>
800024c8:	01c12783          	lw	a5,28(sp)
800024cc:	00379793          	slli	a5,a5,0x3
800024d0:	00f707b3          	add	a5,a4,a5
800024d4:	0047a783          	lw	a5,4(a5)
800024d8:	00c12703          	lw	a4,12(sp)
800024dc:	02f71c63          	bne	a4,a5,80002514 <vQueueUnregisterQueue+0x64>
800024e0:	0004e717          	auipc	a4,0x4e
800024e4:	1dc70713          	addi	a4,a4,476 # 800506bc <xQueueRegistry>
800024e8:	01c12783          	lw	a5,28(sp)
800024ec:	00379793          	slli	a5,a5,0x3
800024f0:	00f707b3          	add	a5,a4,a5
800024f4:	0007a023          	sw	zero,0(a5)
800024f8:	0004e717          	auipc	a4,0x4e
800024fc:	1c470713          	addi	a4,a4,452 # 800506bc <xQueueRegistry>
80002500:	01c12783          	lw	a5,28(sp)
80002504:	00379793          	slli	a5,a5,0x3
80002508:	00f707b3          	add	a5,a4,a5
8000250c:	0007a223          	sw	zero,4(a5)
80002510:	0200006f          	j	80002530 <vQueueUnregisterQueue+0x80>
80002514:	01c12783          	lw	a5,28(sp)
80002518:	00178793          	addi	a5,a5,1
8000251c:	00f12e23          	sw	a5,28(sp)
80002520:	01c12703          	lw	a4,28(sp)
80002524:	00700793          	li	a5,7
80002528:	f8e7fce3          	bgeu	a5,a4,800024c0 <vQueueUnregisterQueue+0x10>
8000252c:	00000013          	nop
80002530:	00000013          	nop
80002534:	02010113          	addi	sp,sp,32
80002538:	00008067          	ret

8000253c <vQueueWaitForMessageRestricted>:
8000253c:	fd010113          	addi	sp,sp,-48
80002540:	02112623          	sw	ra,44(sp)
80002544:	00a12623          	sw	a0,12(sp)
80002548:	00b12423          	sw	a1,8(sp)
8000254c:	00c12223          	sw	a2,4(sp)
80002550:	00c12783          	lw	a5,12(sp)
80002554:	00f12e23          	sw	a5,28(sp)
80002558:	08d020ef          	jal	ra,80004de4 <vTaskEnterCritical>
8000255c:	01c12783          	lw	a5,28(sp)
80002560:	0447c783          	lbu	a5,68(a5)
80002564:	01879713          	slli	a4,a5,0x18
80002568:	41875713          	srai	a4,a4,0x18
8000256c:	fff00793          	li	a5,-1
80002570:	00f71663          	bne	a4,a5,8000257c <vQueueWaitForMessageRestricted+0x40>
80002574:	01c12783          	lw	a5,28(sp)
80002578:	04078223          	sb	zero,68(a5)
8000257c:	01c12783          	lw	a5,28(sp)
80002580:	0457c783          	lbu	a5,69(a5)
80002584:	01879713          	slli	a4,a5,0x18
80002588:	41875713          	srai	a4,a4,0x18
8000258c:	fff00793          	li	a5,-1
80002590:	00f71663          	bne	a4,a5,8000259c <vQueueWaitForMessageRestricted+0x60>
80002594:	01c12783          	lw	a5,28(sp)
80002598:	040782a3          	sb	zero,69(a5)
8000259c:	089020ef          	jal	ra,80004e24 <vTaskExitCritical>
800025a0:	01c12783          	lw	a5,28(sp)
800025a4:	0387a783          	lw	a5,56(a5)
800025a8:	00079e63          	bnez	a5,800025c4 <vQueueWaitForMessageRestricted+0x88>
800025ac:	01c12783          	lw	a5,28(sp)
800025b0:	02478793          	addi	a5,a5,36
800025b4:	00412603          	lw	a2,4(sp)
800025b8:	00812583          	lw	a1,8(sp)
800025bc:	00078513          	mv	a0,a5
800025c0:	165010ef          	jal	ra,80003f24 <vTaskPlaceOnEventListRestricted>
800025c4:	01c12503          	lw	a0,28(sp)
800025c8:	bc5ff0ef          	jal	ra,8000218c <prvUnlockQueue>
800025cc:	00000013          	nop
800025d0:	02c12083          	lw	ra,44(sp)
800025d4:	03010113          	addi	sp,sp,48
800025d8:	00008067          	ret

800025dc <xTaskCreate>:
800025dc:	fc010113          	addi	sp,sp,-64
800025e0:	02112e23          	sw	ra,60(sp)
800025e4:	00a12e23          	sw	a0,28(sp)
800025e8:	00b12c23          	sw	a1,24(sp)
800025ec:	00d12823          	sw	a3,16(sp)
800025f0:	00e12623          	sw	a4,12(sp)
800025f4:	00f12423          	sw	a5,8(sp)
800025f8:	00060793          	mv	a5,a2
800025fc:	00f11b23          	sh	a5,22(sp)
80002600:	01615783          	lhu	a5,22(sp)
80002604:	00279793          	slli	a5,a5,0x2
80002608:	00078513          	mv	a0,a5
8000260c:	5ec040ef          	jal	ra,80006bf8 <pvPortMalloc>
80002610:	02a12223          	sw	a0,36(sp)
80002614:	02412783          	lw	a5,36(sp)
80002618:	02078a63          	beqz	a5,8000264c <xTaskCreate+0x70>
8000261c:	06000513          	li	a0,96
80002620:	5d8040ef          	jal	ra,80006bf8 <pvPortMalloc>
80002624:	02a12623          	sw	a0,44(sp)
80002628:	02c12783          	lw	a5,44(sp)
8000262c:	00078a63          	beqz	a5,80002640 <xTaskCreate+0x64>
80002630:	02c12783          	lw	a5,44(sp)
80002634:	02412703          	lw	a4,36(sp)
80002638:	02e7a823          	sw	a4,48(a5)
8000263c:	0140006f          	j	80002650 <xTaskCreate+0x74>
80002640:	02412503          	lw	a0,36(sp)
80002644:	7b0040ef          	jal	ra,80006df4 <vPortFree>
80002648:	0080006f          	j	80002650 <xTaskCreate+0x74>
8000264c:	02012623          	sw	zero,44(sp)
80002650:	02c12783          	lw	a5,44(sp)
80002654:	02078e63          	beqz	a5,80002690 <xTaskCreate+0xb4>
80002658:	01615603          	lhu	a2,22(sp)
8000265c:	00000893          	li	a7,0
80002660:	02c12803          	lw	a6,44(sp)
80002664:	00812783          	lw	a5,8(sp)
80002668:	00c12703          	lw	a4,12(sp)
8000266c:	01012683          	lw	a3,16(sp)
80002670:	01812583          	lw	a1,24(sp)
80002674:	01c12503          	lw	a0,28(sp)
80002678:	034000ef          	jal	ra,800026ac <prvInitialiseNewTask>
8000267c:	02c12503          	lw	a0,44(sp)
80002680:	1f4000ef          	jal	ra,80002874 <prvAddNewTaskToReadyList>
80002684:	00100793          	li	a5,1
80002688:	02f12423          	sw	a5,40(sp)
8000268c:	00c0006f          	j	80002698 <xTaskCreate+0xbc>
80002690:	fff00793          	li	a5,-1
80002694:	02f12423          	sw	a5,40(sp)
80002698:	02812783          	lw	a5,40(sp)
8000269c:	00078513          	mv	a0,a5
800026a0:	03c12083          	lw	ra,60(sp)
800026a4:	04010113          	addi	sp,sp,64
800026a8:	00008067          	ret

800026ac <prvInitialiseNewTask>:
800026ac:	fc010113          	addi	sp,sp,-64
800026b0:	02112e23          	sw	ra,60(sp)
800026b4:	00a12e23          	sw	a0,28(sp)
800026b8:	00b12c23          	sw	a1,24(sp)
800026bc:	00c12a23          	sw	a2,20(sp)
800026c0:	00d12823          	sw	a3,16(sp)
800026c4:	00e12623          	sw	a4,12(sp)
800026c8:	00f12423          	sw	a5,8(sp)
800026cc:	01012223          	sw	a6,4(sp)
800026d0:	01112023          	sw	a7,0(sp)
800026d4:	00412783          	lw	a5,4(sp)
800026d8:	0307a703          	lw	a4,48(a5)
800026dc:	01412783          	lw	a5,20(sp)
800026e0:	00279793          	slli	a5,a5,0x2
800026e4:	00078613          	mv	a2,a5
800026e8:	0a500593          	li	a1,165
800026ec:	00070513          	mv	a0,a4
800026f0:	569060ef          	jal	ra,80009458 <memset>
800026f4:	00412783          	lw	a5,4(sp)
800026f8:	0307a703          	lw	a4,48(a5)
800026fc:	01412683          	lw	a3,20(sp)
80002700:	400007b7          	lui	a5,0x40000
80002704:	fff78793          	addi	a5,a5,-1 # 3fffffff <SYSCALL_ADDR+0x3dfeffff>
80002708:	00f687b3          	add	a5,a3,a5
8000270c:	00279793          	slli	a5,a5,0x2
80002710:	00f707b3          	add	a5,a4,a5
80002714:	02f12423          	sw	a5,40(sp)
80002718:	02812783          	lw	a5,40(sp)
8000271c:	ffc7f793          	andi	a5,a5,-4
80002720:	02f12423          	sw	a5,40(sp)
80002724:	02812783          	lw	a5,40(sp)
80002728:	0037f793          	andi	a5,a5,3
8000272c:	00078663          	beqz	a5,80002738 <prvInitialiseNewTask+0x8c>
80002730:	30047073          	csrci	mstatus,8
80002734:	0000006f          	j	80002734 <prvInitialiseNewTask+0x88>
80002738:	02012623          	sw	zero,44(sp)
8000273c:	0440006f          	j	80002780 <prvInitialiseNewTask+0xd4>
80002740:	01812703          	lw	a4,24(sp)
80002744:	02c12783          	lw	a5,44(sp)
80002748:	00f707b3          	add	a5,a4,a5
8000274c:	0007c703          	lbu	a4,0(a5)
80002750:	00412683          	lw	a3,4(sp)
80002754:	02c12783          	lw	a5,44(sp)
80002758:	00f687b3          	add	a5,a3,a5
8000275c:	02e78a23          	sb	a4,52(a5)
80002760:	01812703          	lw	a4,24(sp)
80002764:	02c12783          	lw	a5,44(sp)
80002768:	00f707b3          	add	a5,a4,a5
8000276c:	0007c783          	lbu	a5,0(a5)
80002770:	02078063          	beqz	a5,80002790 <prvInitialiseNewTask+0xe4>
80002774:	02c12783          	lw	a5,44(sp)
80002778:	00178793          	addi	a5,a5,1
8000277c:	02f12623          	sw	a5,44(sp)
80002780:	02c12703          	lw	a4,44(sp)
80002784:	00f00793          	li	a5,15
80002788:	fae7fce3          	bgeu	a5,a4,80002740 <prvInitialiseNewTask+0x94>
8000278c:	0080006f          	j	80002794 <prvInitialiseNewTask+0xe8>
80002790:	00000013          	nop
80002794:	00412783          	lw	a5,4(sp)
80002798:	040781a3          	sb	zero,67(a5)
8000279c:	00c12703          	lw	a4,12(sp)
800027a0:	00400793          	li	a5,4
800027a4:	00e7f663          	bgeu	a5,a4,800027b0 <prvInitialiseNewTask+0x104>
800027a8:	00400793          	li	a5,4
800027ac:	00f12623          	sw	a5,12(sp)
800027b0:	00412783          	lw	a5,4(sp)
800027b4:	00c12703          	lw	a4,12(sp)
800027b8:	02e7a623          	sw	a4,44(a5)
800027bc:	00412783          	lw	a5,4(sp)
800027c0:	00c12703          	lw	a4,12(sp)
800027c4:	04e7a823          	sw	a4,80(a5)
800027c8:	00412783          	lw	a5,4(sp)
800027cc:	0407aa23          	sw	zero,84(a5)
800027d0:	00412783          	lw	a5,4(sp)
800027d4:	00478793          	addi	a5,a5,4
800027d8:	00078513          	mv	a0,a5
800027dc:	9b8fe0ef          	jal	ra,80000994 <vListInitialiseItem>
800027e0:	00412783          	lw	a5,4(sp)
800027e4:	01878793          	addi	a5,a5,24
800027e8:	00078513          	mv	a0,a5
800027ec:	9a8fe0ef          	jal	ra,80000994 <vListInitialiseItem>
800027f0:	00412783          	lw	a5,4(sp)
800027f4:	00412703          	lw	a4,4(sp)
800027f8:	00e7a823          	sw	a4,16(a5)
800027fc:	00500713          	li	a4,5
80002800:	00c12783          	lw	a5,12(sp)
80002804:	40f70733          	sub	a4,a4,a5
80002808:	00412783          	lw	a5,4(sp)
8000280c:	00e7ac23          	sw	a4,24(a5)
80002810:	00412783          	lw	a5,4(sp)
80002814:	00412703          	lw	a4,4(sp)
80002818:	02e7a223          	sw	a4,36(a5)
8000281c:	00412783          	lw	a5,4(sp)
80002820:	0407a223          	sw	zero,68(a5)
80002824:	00412783          	lw	a5,4(sp)
80002828:	0407ac23          	sw	zero,88(a5)
8000282c:	00412783          	lw	a5,4(sp)
80002830:	04078e23          	sb	zero,92(a5)
80002834:	01012603          	lw	a2,16(sp)
80002838:	01c12583          	lw	a1,28(sp)
8000283c:	02812503          	lw	a0,40(sp)
80002840:	848fe0ef          	jal	ra,80000888 <pxPortInitialiseStack>
80002844:	00050713          	mv	a4,a0
80002848:	00412783          	lw	a5,4(sp)
8000284c:	00e7a023          	sw	a4,0(a5)
80002850:	00812783          	lw	a5,8(sp)
80002854:	00078863          	beqz	a5,80002864 <prvInitialiseNewTask+0x1b8>
80002858:	00812783          	lw	a5,8(sp)
8000285c:	00412703          	lw	a4,4(sp)
80002860:	00e7a023          	sw	a4,0(a5)
80002864:	00000013          	nop
80002868:	03c12083          	lw	ra,60(sp)
8000286c:	04010113          	addi	sp,sp,64
80002870:	00008067          	ret

80002874 <prvAddNewTaskToReadyList>:
80002874:	fe010113          	addi	sp,sp,-32
80002878:	00112e23          	sw	ra,28(sp)
8000287c:	00a12623          	sw	a0,12(sp)
80002880:	564020ef          	jal	ra,80004de4 <vTaskEnterCritical>
80002884:	0004e797          	auipc	a5,0x4e
80002888:	f4c78793          	addi	a5,a5,-180 # 800507d0 <uxCurrentNumberOfTasks>
8000288c:	0007a783          	lw	a5,0(a5)
80002890:	00178713          	addi	a4,a5,1
80002894:	0004e797          	auipc	a5,0x4e
80002898:	f3c78793          	addi	a5,a5,-196 # 800507d0 <uxCurrentNumberOfTasks>
8000289c:	00e7a023          	sw	a4,0(a5)
800028a0:	0004e797          	auipc	a5,0x4e
800028a4:	be078793          	addi	a5,a5,-1056 # 80050480 <pxCurrentTCB>
800028a8:	0007a783          	lw	a5,0(a5)
800028ac:	02079863          	bnez	a5,800028dc <prvAddNewTaskToReadyList+0x68>
800028b0:	0004e797          	auipc	a5,0x4e
800028b4:	bd078793          	addi	a5,a5,-1072 # 80050480 <pxCurrentTCB>
800028b8:	00c12703          	lw	a4,12(sp)
800028bc:	00e7a023          	sw	a4,0(a5)
800028c0:	0004e797          	auipc	a5,0x4e
800028c4:	f1078793          	addi	a5,a5,-240 # 800507d0 <uxCurrentNumberOfTasks>
800028c8:	0007a703          	lw	a4,0(a5)
800028cc:	00100793          	li	a5,1
800028d0:	04f71463          	bne	a4,a5,80002918 <prvAddNewTaskToReadyList+0xa4>
800028d4:	349010ef          	jal	ra,8000441c <prvInitialiseTaskLists>
800028d8:	0400006f          	j	80002918 <prvAddNewTaskToReadyList+0xa4>
800028dc:	0004e797          	auipc	a5,0x4e
800028e0:	f0078793          	addi	a5,a5,-256 # 800507dc <xSchedulerRunning>
800028e4:	0007a783          	lw	a5,0(a5)
800028e8:	02079863          	bnez	a5,80002918 <prvAddNewTaskToReadyList+0xa4>
800028ec:	0004e797          	auipc	a5,0x4e
800028f0:	b9478793          	addi	a5,a5,-1132 # 80050480 <pxCurrentTCB>
800028f4:	0007a783          	lw	a5,0(a5)
800028f8:	02c7a703          	lw	a4,44(a5)
800028fc:	00c12783          	lw	a5,12(sp)
80002900:	02c7a783          	lw	a5,44(a5)
80002904:	00e7ea63          	bltu	a5,a4,80002918 <prvAddNewTaskToReadyList+0xa4>
80002908:	0004e797          	auipc	a5,0x4e
8000290c:	b7878793          	addi	a5,a5,-1160 # 80050480 <pxCurrentTCB>
80002910:	00c12703          	lw	a4,12(sp)
80002914:	00e7a023          	sw	a4,0(a5)
80002918:	0004e797          	auipc	a5,0x4e
8000291c:	ed478793          	addi	a5,a5,-300 # 800507ec <uxTaskNumber>
80002920:	0007a783          	lw	a5,0(a5)
80002924:	00178713          	addi	a4,a5,1
80002928:	0004e797          	auipc	a5,0x4e
8000292c:	ec478793          	addi	a5,a5,-316 # 800507ec <uxTaskNumber>
80002930:	00e7a023          	sw	a4,0(a5)
80002934:	0004e797          	auipc	a5,0x4e
80002938:	eb878793          	addi	a5,a5,-328 # 800507ec <uxTaskNumber>
8000293c:	0007a703          	lw	a4,0(a5)
80002940:	00c12783          	lw	a5,12(sp)
80002944:	04e7a423          	sw	a4,72(a5)
80002948:	00c12783          	lw	a5,12(sp)
8000294c:	02c7a703          	lw	a4,44(a5)
80002950:	0004e797          	auipc	a5,0x4e
80002954:	e8878793          	addi	a5,a5,-376 # 800507d8 <uxTopReadyPriority>
80002958:	0007a783          	lw	a5,0(a5)
8000295c:	00e7fc63          	bgeu	a5,a4,80002974 <prvAddNewTaskToReadyList+0x100>
80002960:	00c12783          	lw	a5,12(sp)
80002964:	02c7a703          	lw	a4,44(a5)
80002968:	0004e797          	auipc	a5,0x4e
8000296c:	e7078793          	addi	a5,a5,-400 # 800507d8 <uxTopReadyPriority>
80002970:	00e7a023          	sw	a4,0(a5)
80002974:	00c12783          	lw	a5,12(sp)
80002978:	02c7a703          	lw	a4,44(a5)
8000297c:	00070793          	mv	a5,a4
80002980:	00279793          	slli	a5,a5,0x2
80002984:	00e787b3          	add	a5,a5,a4
80002988:	00279793          	slli	a5,a5,0x2
8000298c:	0004e717          	auipc	a4,0x4e
80002990:	d7070713          	addi	a4,a4,-656 # 800506fc <pxReadyTasksLists>
80002994:	00e78733          	add	a4,a5,a4
80002998:	00c12783          	lw	a5,12(sp)
8000299c:	00478793          	addi	a5,a5,4
800029a0:	00078593          	mv	a1,a5
800029a4:	00070513          	mv	a0,a4
800029a8:	808fe0ef          	jal	ra,800009b0 <vListInsertEnd>
800029ac:	478020ef          	jal	ra,80004e24 <vTaskExitCritical>
800029b0:	0004e797          	auipc	a5,0x4e
800029b4:	e2c78793          	addi	a5,a5,-468 # 800507dc <xSchedulerRunning>
800029b8:	0007a783          	lw	a5,0(a5)
800029bc:	02078263          	beqz	a5,800029e0 <prvAddNewTaskToReadyList+0x16c>
800029c0:	0004e797          	auipc	a5,0x4e
800029c4:	ac078793          	addi	a5,a5,-1344 # 80050480 <pxCurrentTCB>
800029c8:	0007a783          	lw	a5,0(a5)
800029cc:	02c7a703          	lw	a4,44(a5)
800029d0:	00c12783          	lw	a5,12(sp)
800029d4:	02c7a783          	lw	a5,44(a5)
800029d8:	00f77463          	bgeu	a4,a5,800029e0 <prvAddNewTaskToReadyList+0x16c>
800029dc:	c79fd0ef          	jal	ra,80000654 <vPortYield>
800029e0:	00000013          	nop
800029e4:	01c12083          	lw	ra,28(sp)
800029e8:	02010113          	addi	sp,sp,32
800029ec:	00008067          	ret

800029f0 <vTaskDelete>:
800029f0:	fd010113          	addi	sp,sp,-48
800029f4:	02112623          	sw	ra,44(sp)
800029f8:	00a12623          	sw	a0,12(sp)
800029fc:	3e8020ef          	jal	ra,80004de4 <vTaskEnterCritical>
80002a00:	00c12783          	lw	a5,12(sp)
80002a04:	00079a63          	bnez	a5,80002a18 <vTaskDelete+0x28>
80002a08:	0004e797          	auipc	a5,0x4e
80002a0c:	a7878793          	addi	a5,a5,-1416 # 80050480 <pxCurrentTCB>
80002a10:	0007a783          	lw	a5,0(a5)
80002a14:	0080006f          	j	80002a1c <vTaskDelete+0x2c>
80002a18:	00c12783          	lw	a5,12(sp)
80002a1c:	00f12e23          	sw	a5,28(sp)
80002a20:	01c12783          	lw	a5,28(sp)
80002a24:	00478793          	addi	a5,a5,4
80002a28:	00078513          	mv	a0,a5
80002a2c:	8c8fe0ef          	jal	ra,80000af4 <uxListRemove>
80002a30:	01c12783          	lw	a5,28(sp)
80002a34:	0287a783          	lw	a5,40(a5)
80002a38:	00078a63          	beqz	a5,80002a4c <vTaskDelete+0x5c>
80002a3c:	01c12783          	lw	a5,28(sp)
80002a40:	01878793          	addi	a5,a5,24
80002a44:	00078513          	mv	a0,a5
80002a48:	8acfe0ef          	jal	ra,80000af4 <uxListRemove>
80002a4c:	0004e797          	auipc	a5,0x4e
80002a50:	da078793          	addi	a5,a5,-608 # 800507ec <uxTaskNumber>
80002a54:	0007a783          	lw	a5,0(a5)
80002a58:	00178713          	addi	a4,a5,1
80002a5c:	0004e797          	auipc	a5,0x4e
80002a60:	d9078793          	addi	a5,a5,-624 # 800507ec <uxTaskNumber>
80002a64:	00e7a023          	sw	a4,0(a5)
80002a68:	0004e797          	auipc	a5,0x4e
80002a6c:	a1878793          	addi	a5,a5,-1512 # 80050480 <pxCurrentTCB>
80002a70:	0007a783          	lw	a5,0(a5)
80002a74:	01c12703          	lw	a4,28(sp)
80002a78:	02f71e63          	bne	a4,a5,80002ab4 <vTaskDelete+0xc4>
80002a7c:	01c12783          	lw	a5,28(sp)
80002a80:	00478793          	addi	a5,a5,4
80002a84:	00078593          	mv	a1,a5
80002a88:	0004e517          	auipc	a0,0x4e
80002a8c:	d1c50513          	addi	a0,a0,-740 # 800507a4 <xTasksWaitingTermination>
80002a90:	f21fd0ef          	jal	ra,800009b0 <vListInsertEnd>
80002a94:	0004e797          	auipc	a5,0x4e
80002a98:	d2478793          	addi	a5,a5,-732 # 800507b8 <uxDeletedTasksWaitingCleanUp>
80002a9c:	0007a783          	lw	a5,0(a5)
80002aa0:	00178713          	addi	a4,a5,1
80002aa4:	0004e797          	auipc	a5,0x4e
80002aa8:	d1478793          	addi	a5,a5,-748 # 800507b8 <uxDeletedTasksWaitingCleanUp>
80002aac:	00e7a023          	sw	a4,0(a5)
80002ab0:	02c0006f          	j	80002adc <vTaskDelete+0xec>
80002ab4:	0004e797          	auipc	a5,0x4e
80002ab8:	d1c78793          	addi	a5,a5,-740 # 800507d0 <uxCurrentNumberOfTasks>
80002abc:	0007a783          	lw	a5,0(a5)
80002ac0:	fff78713          	addi	a4,a5,-1
80002ac4:	0004e797          	auipc	a5,0x4e
80002ac8:	d0c78793          	addi	a5,a5,-756 # 800507d0 <uxCurrentNumberOfTasks>
80002acc:	00e7a023          	sw	a4,0(a5)
80002ad0:	01c12503          	lw	a0,28(sp)
80002ad4:	58d010ef          	jal	ra,80004860 <prvDeleteTCB>
80002ad8:	5bd010ef          	jal	ra,80004894 <prvResetNextTaskUnblockTime>
80002adc:	348020ef          	jal	ra,80004e24 <vTaskExitCritical>
80002ae0:	0004e797          	auipc	a5,0x4e
80002ae4:	cfc78793          	addi	a5,a5,-772 # 800507dc <xSchedulerRunning>
80002ae8:	0007a783          	lw	a5,0(a5)
80002aec:	02078a63          	beqz	a5,80002b20 <vTaskDelete+0x130>
80002af0:	0004e797          	auipc	a5,0x4e
80002af4:	99078793          	addi	a5,a5,-1648 # 80050480 <pxCurrentTCB>
80002af8:	0007a783          	lw	a5,0(a5)
80002afc:	01c12703          	lw	a4,28(sp)
80002b00:	02f71063          	bne	a4,a5,80002b20 <vTaskDelete+0x130>
80002b04:	0004e797          	auipc	a5,0x4e
80002b08:	cf478793          	addi	a5,a5,-780 # 800507f8 <uxSchedulerSuspended>
80002b0c:	0007a783          	lw	a5,0(a5)
80002b10:	00078663          	beqz	a5,80002b1c <vTaskDelete+0x12c>
80002b14:	30047073          	csrci	mstatus,8
80002b18:	0000006f          	j	80002b18 <vTaskDelete+0x128>
80002b1c:	b39fd0ef          	jal	ra,80000654 <vPortYield>
80002b20:	00000013          	nop
80002b24:	02c12083          	lw	ra,44(sp)
80002b28:	03010113          	addi	sp,sp,48
80002b2c:	00008067          	ret

80002b30 <vTaskDelayUntil>:
80002b30:	fd010113          	addi	sp,sp,-48
80002b34:	02112623          	sw	ra,44(sp)
80002b38:	00a12623          	sw	a0,12(sp)
80002b3c:	00b12423          	sw	a1,8(sp)
80002b40:	00012e23          	sw	zero,28(sp)
80002b44:	00c12783          	lw	a5,12(sp)
80002b48:	00079663          	bnez	a5,80002b54 <vTaskDelayUntil+0x24>
80002b4c:	30047073          	csrci	mstatus,8
80002b50:	0000006f          	j	80002b50 <vTaskDelayUntil+0x20>
80002b54:	00812783          	lw	a5,8(sp)
80002b58:	00079663          	bnez	a5,80002b64 <vTaskDelayUntil+0x34>
80002b5c:	30047073          	csrci	mstatus,8
80002b60:	0000006f          	j	80002b60 <vTaskDelayUntil+0x30>
80002b64:	0004e797          	auipc	a5,0x4e
80002b68:	c9478793          	addi	a5,a5,-876 # 800507f8 <uxSchedulerSuspended>
80002b6c:	0007a783          	lw	a5,0(a5)
80002b70:	00078663          	beqz	a5,80002b7c <vTaskDelayUntil+0x4c>
80002b74:	30047073          	csrci	mstatus,8
80002b78:	0000006f          	j	80002b78 <vTaskDelayUntil+0x48>
80002b7c:	1b1000ef          	jal	ra,8000352c <vTaskSuspendAll>
80002b80:	0004e797          	auipc	a5,0x4e
80002b84:	c5478793          	addi	a5,a5,-940 # 800507d4 <xTickCount>
80002b88:	0007a783          	lw	a5,0(a5)
80002b8c:	00f12c23          	sw	a5,24(sp)
80002b90:	00c12783          	lw	a5,12(sp)
80002b94:	0007a783          	lw	a5,0(a5)
80002b98:	00812703          	lw	a4,8(sp)
80002b9c:	00f707b3          	add	a5,a4,a5
80002ba0:	00f12a23          	sw	a5,20(sp)
80002ba4:	00c12783          	lw	a5,12(sp)
80002ba8:	0007a783          	lw	a5,0(a5)
80002bac:	01812703          	lw	a4,24(sp)
80002bb0:	02f77663          	bgeu	a4,a5,80002bdc <vTaskDelayUntil+0xac>
80002bb4:	00c12783          	lw	a5,12(sp)
80002bb8:	0007a783          	lw	a5,0(a5)
80002bbc:	01412703          	lw	a4,20(sp)
80002bc0:	04f77063          	bgeu	a4,a5,80002c00 <vTaskDelayUntil+0xd0>
80002bc4:	01412703          	lw	a4,20(sp)
80002bc8:	01812783          	lw	a5,24(sp)
80002bcc:	02e7fa63          	bgeu	a5,a4,80002c00 <vTaskDelayUntil+0xd0>
80002bd0:	00100793          	li	a5,1
80002bd4:	00f12e23          	sw	a5,28(sp)
80002bd8:	0280006f          	j	80002c00 <vTaskDelayUntil+0xd0>
80002bdc:	00c12783          	lw	a5,12(sp)
80002be0:	0007a783          	lw	a5,0(a5)
80002be4:	01412703          	lw	a4,20(sp)
80002be8:	00f76863          	bltu	a4,a5,80002bf8 <vTaskDelayUntil+0xc8>
80002bec:	01412703          	lw	a4,20(sp)
80002bf0:	01812783          	lw	a5,24(sp)
80002bf4:	00e7f663          	bgeu	a5,a4,80002c00 <vTaskDelayUntil+0xd0>
80002bf8:	00100793          	li	a5,1
80002bfc:	00f12e23          	sw	a5,28(sp)
80002c00:	00c12783          	lw	a5,12(sp)
80002c04:	01412703          	lw	a4,20(sp)
80002c08:	00e7a023          	sw	a4,0(a5)
80002c0c:	01c12783          	lw	a5,28(sp)
80002c10:	00078e63          	beqz	a5,80002c2c <vTaskDelayUntil+0xfc>
80002c14:	01412703          	lw	a4,20(sp)
80002c18:	01812783          	lw	a5,24(sp)
80002c1c:	40f707b3          	sub	a5,a4,a5
80002c20:	00000593          	li	a1,0
80002c24:	00078513          	mv	a0,a5
80002c28:	2e1020ef          	jal	ra,80005708 <prvAddCurrentTaskToDelayedList>
80002c2c:	125000ef          	jal	ra,80003550 <xTaskResumeAll>
80002c30:	00a12823          	sw	a0,16(sp)
80002c34:	01012783          	lw	a5,16(sp)
80002c38:	00079463          	bnez	a5,80002c40 <vTaskDelayUntil+0x110>
80002c3c:	a19fd0ef          	jal	ra,80000654 <vPortYield>
80002c40:	00000013          	nop
80002c44:	02c12083          	lw	ra,44(sp)
80002c48:	03010113          	addi	sp,sp,48
80002c4c:	00008067          	ret

80002c50 <vTaskDelay>:
80002c50:	fd010113          	addi	sp,sp,-48
80002c54:	02112623          	sw	ra,44(sp)
80002c58:	00a12623          	sw	a0,12(sp)
80002c5c:	00012e23          	sw	zero,28(sp)
80002c60:	00c12783          	lw	a5,12(sp)
80002c64:	02078a63          	beqz	a5,80002c98 <vTaskDelay+0x48>
80002c68:	0004e797          	auipc	a5,0x4e
80002c6c:	b9078793          	addi	a5,a5,-1136 # 800507f8 <uxSchedulerSuspended>
80002c70:	0007a783          	lw	a5,0(a5)
80002c74:	00078663          	beqz	a5,80002c80 <vTaskDelay+0x30>
80002c78:	30047073          	csrci	mstatus,8
80002c7c:	0000006f          	j	80002c7c <vTaskDelay+0x2c>
80002c80:	0ad000ef          	jal	ra,8000352c <vTaskSuspendAll>
80002c84:	00000593          	li	a1,0
80002c88:	00c12503          	lw	a0,12(sp)
80002c8c:	27d020ef          	jal	ra,80005708 <prvAddCurrentTaskToDelayedList>
80002c90:	0c1000ef          	jal	ra,80003550 <xTaskResumeAll>
80002c94:	00a12e23          	sw	a0,28(sp)
80002c98:	01c12783          	lw	a5,28(sp)
80002c9c:	00079463          	bnez	a5,80002ca4 <vTaskDelay+0x54>
80002ca0:	9b5fd0ef          	jal	ra,80000654 <vPortYield>
80002ca4:	00000013          	nop
80002ca8:	02c12083          	lw	ra,44(sp)
80002cac:	03010113          	addi	sp,sp,48
80002cb0:	00008067          	ret

80002cb4 <eTaskGetState>:
80002cb4:	fd010113          	addi	sp,sp,-48
80002cb8:	02112623          	sw	ra,44(sp)
80002cbc:	00a12623          	sw	a0,12(sp)
80002cc0:	00c12783          	lw	a5,12(sp)
80002cc4:	00f12c23          	sw	a5,24(sp)
80002cc8:	01812783          	lw	a5,24(sp)
80002ccc:	00079663          	bnez	a5,80002cd8 <eTaskGetState+0x24>
80002cd0:	30047073          	csrci	mstatus,8
80002cd4:	0000006f          	j	80002cd4 <eTaskGetState+0x20>
80002cd8:	0004d797          	auipc	a5,0x4d
80002cdc:	7a878793          	addi	a5,a5,1960 # 80050480 <pxCurrentTCB>
80002ce0:	0007a783          	lw	a5,0(a5)
80002ce4:	01812703          	lw	a4,24(sp)
80002ce8:	00f71663          	bne	a4,a5,80002cf4 <eTaskGetState+0x40>
80002cec:	00012e23          	sw	zero,28(sp)
80002cf0:	0ac0006f          	j	80002d9c <eTaskGetState+0xe8>
80002cf4:	0f0020ef          	jal	ra,80004de4 <vTaskEnterCritical>
80002cf8:	01812783          	lw	a5,24(sp)
80002cfc:	0147a783          	lw	a5,20(a5)
80002d00:	00f12a23          	sw	a5,20(sp)
80002d04:	120020ef          	jal	ra,80004e24 <vTaskExitCritical>
80002d08:	0004e797          	auipc	a5,0x4e
80002d0c:	a8078793          	addi	a5,a5,-1408 # 80050788 <pxDelayedTaskList>
80002d10:	0007a783          	lw	a5,0(a5)
80002d14:	01412703          	lw	a4,20(sp)
80002d18:	00f70c63          	beq	a4,a5,80002d30 <eTaskGetState+0x7c>
80002d1c:	0004e797          	auipc	a5,0x4e
80002d20:	a7078793          	addi	a5,a5,-1424 # 8005078c <pxOverflowDelayedTaskList>
80002d24:	0007a783          	lw	a5,0(a5)
80002d28:	01412703          	lw	a4,20(sp)
80002d2c:	00f71863          	bne	a4,a5,80002d3c <eTaskGetState+0x88>
80002d30:	00200793          	li	a5,2
80002d34:	00f12e23          	sw	a5,28(sp)
80002d38:	0640006f          	j	80002d9c <eTaskGetState+0xe8>
80002d3c:	01412703          	lw	a4,20(sp)
80002d40:	0004e797          	auipc	a5,0x4e
80002d44:	a7c78793          	addi	a5,a5,-1412 # 800507bc <xSuspendedTaskList>
80002d48:	02f71463          	bne	a4,a5,80002d70 <eTaskGetState+0xbc>
80002d4c:	01812783          	lw	a5,24(sp)
80002d50:	0287a783          	lw	a5,40(a5)
80002d54:	00079863          	bnez	a5,80002d64 <eTaskGetState+0xb0>
80002d58:	00300793          	li	a5,3
80002d5c:	00f12e23          	sw	a5,28(sp)
80002d60:	03c0006f          	j	80002d9c <eTaskGetState+0xe8>
80002d64:	00200793          	li	a5,2
80002d68:	00f12e23          	sw	a5,28(sp)
80002d6c:	0300006f          	j	80002d9c <eTaskGetState+0xe8>
80002d70:	01412703          	lw	a4,20(sp)
80002d74:	0004e797          	auipc	a5,0x4e
80002d78:	a3078793          	addi	a5,a5,-1488 # 800507a4 <xTasksWaitingTermination>
80002d7c:	00f70663          	beq	a4,a5,80002d88 <eTaskGetState+0xd4>
80002d80:	01412783          	lw	a5,20(sp)
80002d84:	00079863          	bnez	a5,80002d94 <eTaskGetState+0xe0>
80002d88:	00400793          	li	a5,4
80002d8c:	00f12e23          	sw	a5,28(sp)
80002d90:	00c0006f          	j	80002d9c <eTaskGetState+0xe8>
80002d94:	00100793          	li	a5,1
80002d98:	00f12e23          	sw	a5,28(sp)
80002d9c:	01c12783          	lw	a5,28(sp)
80002da0:	00078513          	mv	a0,a5
80002da4:	02c12083          	lw	ra,44(sp)
80002da8:	03010113          	addi	sp,sp,48
80002dac:	00008067          	ret

80002db0 <uxTaskPriorityGet>:
80002db0:	fd010113          	addi	sp,sp,-48
80002db4:	02112623          	sw	ra,44(sp)
80002db8:	00a12623          	sw	a0,12(sp)
80002dbc:	028020ef          	jal	ra,80004de4 <vTaskEnterCritical>
80002dc0:	00c12783          	lw	a5,12(sp)
80002dc4:	00079a63          	bnez	a5,80002dd8 <uxTaskPriorityGet+0x28>
80002dc8:	0004d797          	auipc	a5,0x4d
80002dcc:	6b878793          	addi	a5,a5,1720 # 80050480 <pxCurrentTCB>
80002dd0:	0007a783          	lw	a5,0(a5)
80002dd4:	0080006f          	j	80002ddc <uxTaskPriorityGet+0x2c>
80002dd8:	00c12783          	lw	a5,12(sp)
80002ddc:	00f12e23          	sw	a5,28(sp)
80002de0:	01c12783          	lw	a5,28(sp)
80002de4:	02c7a783          	lw	a5,44(a5)
80002de8:	00f12c23          	sw	a5,24(sp)
80002dec:	038020ef          	jal	ra,80004e24 <vTaskExitCritical>
80002df0:	01812783          	lw	a5,24(sp)
80002df4:	00078513          	mv	a0,a5
80002df8:	02c12083          	lw	ra,44(sp)
80002dfc:	03010113          	addi	sp,sp,48
80002e00:	00008067          	ret

80002e04 <uxTaskPriorityGetFromISR>:
80002e04:	fd010113          	addi	sp,sp,-48
80002e08:	02112623          	sw	ra,44(sp)
80002e0c:	00a12623          	sw	a0,12(sp)
80002e10:	a59fd0ef          	jal	ra,80000868 <vPortSetInterruptMask>
80002e14:	00050793          	mv	a5,a0
80002e18:	00f12e23          	sw	a5,28(sp)
80002e1c:	00c12783          	lw	a5,12(sp)
80002e20:	00079a63          	bnez	a5,80002e34 <uxTaskPriorityGetFromISR+0x30>
80002e24:	0004d797          	auipc	a5,0x4d
80002e28:	65c78793          	addi	a5,a5,1628 # 80050480 <pxCurrentTCB>
80002e2c:	0007a783          	lw	a5,0(a5)
80002e30:	0080006f          	j	80002e38 <uxTaskPriorityGetFromISR+0x34>
80002e34:	00c12783          	lw	a5,12(sp)
80002e38:	00f12c23          	sw	a5,24(sp)
80002e3c:	01812783          	lw	a5,24(sp)
80002e40:	02c7a783          	lw	a5,44(a5)
80002e44:	00f12a23          	sw	a5,20(sp)
80002e48:	01c12783          	lw	a5,28(sp)
80002e4c:	00078513          	mv	a0,a5
80002e50:	9fdfd0ef          	jal	ra,8000084c <vPortClearInterruptMask>
80002e54:	01412783          	lw	a5,20(sp)
80002e58:	00078513          	mv	a0,a5
80002e5c:	02c12083          	lw	ra,44(sp)
80002e60:	03010113          	addi	sp,sp,48
80002e64:	00008067          	ret

80002e68 <vTaskPrioritySet>:
80002e68:	fd010113          	addi	sp,sp,-48
80002e6c:	02112623          	sw	ra,44(sp)
80002e70:	00a12623          	sw	a0,12(sp)
80002e74:	00b12423          	sw	a1,8(sp)
80002e78:	00012e23          	sw	zero,28(sp)
80002e7c:	00812703          	lw	a4,8(sp)
80002e80:	00400793          	li	a5,4
80002e84:	00e7f663          	bgeu	a5,a4,80002e90 <vTaskPrioritySet+0x28>
80002e88:	30047073          	csrci	mstatus,8
80002e8c:	0000006f          	j	80002e8c <vTaskPrioritySet+0x24>
80002e90:	00812703          	lw	a4,8(sp)
80002e94:	00400793          	li	a5,4
80002e98:	00e7f663          	bgeu	a5,a4,80002ea4 <vTaskPrioritySet+0x3c>
80002e9c:	00400793          	li	a5,4
80002ea0:	00f12423          	sw	a5,8(sp)
80002ea4:	741010ef          	jal	ra,80004de4 <vTaskEnterCritical>
80002ea8:	00c12783          	lw	a5,12(sp)
80002eac:	00079a63          	bnez	a5,80002ec0 <vTaskPrioritySet+0x58>
80002eb0:	0004d797          	auipc	a5,0x4d
80002eb4:	5d078793          	addi	a5,a5,1488 # 80050480 <pxCurrentTCB>
80002eb8:	0007a783          	lw	a5,0(a5)
80002ebc:	0080006f          	j	80002ec4 <vTaskPrioritySet+0x5c>
80002ec0:	00c12783          	lw	a5,12(sp)
80002ec4:	00f12c23          	sw	a5,24(sp)
80002ec8:	01812783          	lw	a5,24(sp)
80002ecc:	0507a783          	lw	a5,80(a5)
80002ed0:	00f12a23          	sw	a5,20(sp)
80002ed4:	01412703          	lw	a4,20(sp)
80002ed8:	00812783          	lw	a5,8(sp)
80002edc:	16f70c63          	beq	a4,a5,80003054 <vTaskPrioritySet+0x1ec>
80002ee0:	00812703          	lw	a4,8(sp)
80002ee4:	01412783          	lw	a5,20(sp)
80002ee8:	02e7fe63          	bgeu	a5,a4,80002f24 <vTaskPrioritySet+0xbc>
80002eec:	0004d797          	auipc	a5,0x4d
80002ef0:	59478793          	addi	a5,a5,1428 # 80050480 <pxCurrentTCB>
80002ef4:	0007a783          	lw	a5,0(a5)
80002ef8:	01812703          	lw	a4,24(sp)
80002efc:	04f70263          	beq	a4,a5,80002f40 <vTaskPrioritySet+0xd8>
80002f00:	0004d797          	auipc	a5,0x4d
80002f04:	58078793          	addi	a5,a5,1408 # 80050480 <pxCurrentTCB>
80002f08:	0007a783          	lw	a5,0(a5)
80002f0c:	02c7a783          	lw	a5,44(a5)
80002f10:	00812703          	lw	a4,8(sp)
80002f14:	02f76663          	bltu	a4,a5,80002f40 <vTaskPrioritySet+0xd8>
80002f18:	00100793          	li	a5,1
80002f1c:	00f12e23          	sw	a5,28(sp)
80002f20:	0200006f          	j	80002f40 <vTaskPrioritySet+0xd8>
80002f24:	0004d797          	auipc	a5,0x4d
80002f28:	55c78793          	addi	a5,a5,1372 # 80050480 <pxCurrentTCB>
80002f2c:	0007a783          	lw	a5,0(a5)
80002f30:	01812703          	lw	a4,24(sp)
80002f34:	00f71663          	bne	a4,a5,80002f40 <vTaskPrioritySet+0xd8>
80002f38:	00100793          	li	a5,1
80002f3c:	00f12e23          	sw	a5,28(sp)
80002f40:	01812783          	lw	a5,24(sp)
80002f44:	02c7a783          	lw	a5,44(a5)
80002f48:	00f12823          	sw	a5,16(sp)
80002f4c:	01812783          	lw	a5,24(sp)
80002f50:	0507a703          	lw	a4,80(a5)
80002f54:	01812783          	lw	a5,24(sp)
80002f58:	02c7a783          	lw	a5,44(a5)
80002f5c:	00f71863          	bne	a4,a5,80002f6c <vTaskPrioritySet+0x104>
80002f60:	01812783          	lw	a5,24(sp)
80002f64:	00812703          	lw	a4,8(sp)
80002f68:	02e7a623          	sw	a4,44(a5)
80002f6c:	01812783          	lw	a5,24(sp)
80002f70:	00812703          	lw	a4,8(sp)
80002f74:	04e7a823          	sw	a4,80(a5)
80002f78:	01812783          	lw	a5,24(sp)
80002f7c:	0187a783          	lw	a5,24(a5)
80002f80:	0007cc63          	bltz	a5,80002f98 <vTaskPrioritySet+0x130>
80002f84:	00500713          	li	a4,5
80002f88:	00812783          	lw	a5,8(sp)
80002f8c:	40f70733          	sub	a4,a4,a5
80002f90:	01812783          	lw	a5,24(sp)
80002f94:	00e7ac23          	sw	a4,24(a5)
80002f98:	01812783          	lw	a5,24(sp)
80002f9c:	0147a683          	lw	a3,20(a5)
80002fa0:	01012703          	lw	a4,16(sp)
80002fa4:	00070793          	mv	a5,a4
80002fa8:	00279793          	slli	a5,a5,0x2
80002fac:	00e787b3          	add	a5,a5,a4
80002fb0:	00279793          	slli	a5,a5,0x2
80002fb4:	0004d717          	auipc	a4,0x4d
80002fb8:	74870713          	addi	a4,a4,1864 # 800506fc <pxReadyTasksLists>
80002fbc:	00e787b3          	add	a5,a5,a4
80002fc0:	00f69663          	bne	a3,a5,80002fcc <vTaskPrioritySet+0x164>
80002fc4:	00100793          	li	a5,1
80002fc8:	0080006f          	j	80002fd0 <vTaskPrioritySet+0x168>
80002fcc:	00000793          	li	a5,0
80002fd0:	06078c63          	beqz	a5,80003048 <vTaskPrioritySet+0x1e0>
80002fd4:	01812783          	lw	a5,24(sp)
80002fd8:	00478793          	addi	a5,a5,4
80002fdc:	00078513          	mv	a0,a5
80002fe0:	b15fd0ef          	jal	ra,80000af4 <uxListRemove>
80002fe4:	01812783          	lw	a5,24(sp)
80002fe8:	02c7a703          	lw	a4,44(a5)
80002fec:	0004d797          	auipc	a5,0x4d
80002ff0:	7ec78793          	addi	a5,a5,2028 # 800507d8 <uxTopReadyPriority>
80002ff4:	0007a783          	lw	a5,0(a5)
80002ff8:	00e7fc63          	bgeu	a5,a4,80003010 <vTaskPrioritySet+0x1a8>
80002ffc:	01812783          	lw	a5,24(sp)
80003000:	02c7a703          	lw	a4,44(a5)
80003004:	0004d797          	auipc	a5,0x4d
80003008:	7d478793          	addi	a5,a5,2004 # 800507d8 <uxTopReadyPriority>
8000300c:	00e7a023          	sw	a4,0(a5)
80003010:	01812783          	lw	a5,24(sp)
80003014:	02c7a703          	lw	a4,44(a5)
80003018:	00070793          	mv	a5,a4
8000301c:	00279793          	slli	a5,a5,0x2
80003020:	00e787b3          	add	a5,a5,a4
80003024:	00279793          	slli	a5,a5,0x2
80003028:	0004d717          	auipc	a4,0x4d
8000302c:	6d470713          	addi	a4,a4,1748 # 800506fc <pxReadyTasksLists>
80003030:	00e78733          	add	a4,a5,a4
80003034:	01812783          	lw	a5,24(sp)
80003038:	00478793          	addi	a5,a5,4
8000303c:	00078593          	mv	a1,a5
80003040:	00070513          	mv	a0,a4
80003044:	96dfd0ef          	jal	ra,800009b0 <vListInsertEnd>
80003048:	01c12783          	lw	a5,28(sp)
8000304c:	00078463          	beqz	a5,80003054 <vTaskPrioritySet+0x1ec>
80003050:	e04fd0ef          	jal	ra,80000654 <vPortYield>
80003054:	5d1010ef          	jal	ra,80004e24 <vTaskExitCritical>
80003058:	00000013          	nop
8000305c:	02c12083          	lw	ra,44(sp)
80003060:	03010113          	addi	sp,sp,48
80003064:	00008067          	ret

80003068 <vTaskSuspend>:
80003068:	fd010113          	addi	sp,sp,-48
8000306c:	02112623          	sw	ra,44(sp)
80003070:	00a12623          	sw	a0,12(sp)
80003074:	571010ef          	jal	ra,80004de4 <vTaskEnterCritical>
80003078:	00c12783          	lw	a5,12(sp)
8000307c:	00079a63          	bnez	a5,80003090 <vTaskSuspend+0x28>
80003080:	0004d797          	auipc	a5,0x4d
80003084:	40078793          	addi	a5,a5,1024 # 80050480 <pxCurrentTCB>
80003088:	0007a783          	lw	a5,0(a5)
8000308c:	0080006f          	j	80003094 <vTaskSuspend+0x2c>
80003090:	00c12783          	lw	a5,12(sp)
80003094:	00f12e23          	sw	a5,28(sp)
80003098:	01c12783          	lw	a5,28(sp)
8000309c:	00478793          	addi	a5,a5,4
800030a0:	00078513          	mv	a0,a5
800030a4:	a51fd0ef          	jal	ra,80000af4 <uxListRemove>
800030a8:	01c12783          	lw	a5,28(sp)
800030ac:	0287a783          	lw	a5,40(a5)
800030b0:	00078a63          	beqz	a5,800030c4 <vTaskSuspend+0x5c>
800030b4:	01c12783          	lw	a5,28(sp)
800030b8:	01878793          	addi	a5,a5,24
800030bc:	00078513          	mv	a0,a5
800030c0:	a35fd0ef          	jal	ra,80000af4 <uxListRemove>
800030c4:	01c12783          	lw	a5,28(sp)
800030c8:	00478793          	addi	a5,a5,4
800030cc:	00078593          	mv	a1,a5
800030d0:	0004d517          	auipc	a0,0x4d
800030d4:	6ec50513          	addi	a0,a0,1772 # 800507bc <xSuspendedTaskList>
800030d8:	8d9fd0ef          	jal	ra,800009b0 <vListInsertEnd>
800030dc:	01c12783          	lw	a5,28(sp)
800030e0:	05c7c783          	lbu	a5,92(a5)
800030e4:	0ff7f713          	andi	a4,a5,255
800030e8:	00100793          	li	a5,1
800030ec:	00f71663          	bne	a4,a5,800030f8 <vTaskSuspend+0x90>
800030f0:	01c12783          	lw	a5,28(sp)
800030f4:	04078e23          	sb	zero,92(a5)
800030f8:	52d010ef          	jal	ra,80004e24 <vTaskExitCritical>
800030fc:	0004d797          	auipc	a5,0x4d
80003100:	6e078793          	addi	a5,a5,1760 # 800507dc <xSchedulerRunning>
80003104:	0007a783          	lw	a5,0(a5)
80003108:	00078863          	beqz	a5,80003118 <vTaskSuspend+0xb0>
8000310c:	4d9010ef          	jal	ra,80004de4 <vTaskEnterCritical>
80003110:	784010ef          	jal	ra,80004894 <prvResetNextTaskUnblockTime>
80003114:	511010ef          	jal	ra,80004e24 <vTaskExitCritical>
80003118:	0004d797          	auipc	a5,0x4d
8000311c:	36878793          	addi	a5,a5,872 # 80050480 <pxCurrentTCB>
80003120:	0007a783          	lw	a5,0(a5)
80003124:	01c12703          	lw	a4,28(sp)
80003128:	06f71263          	bne	a4,a5,8000318c <vTaskSuspend+0x124>
8000312c:	0004d797          	auipc	a5,0x4d
80003130:	6b078793          	addi	a5,a5,1712 # 800507dc <xSchedulerRunning>
80003134:	0007a783          	lw	a5,0(a5)
80003138:	02078263          	beqz	a5,8000315c <vTaskSuspend+0xf4>
8000313c:	0004d797          	auipc	a5,0x4d
80003140:	6bc78793          	addi	a5,a5,1724 # 800507f8 <uxSchedulerSuspended>
80003144:	0007a783          	lw	a5,0(a5)
80003148:	00078663          	beqz	a5,80003154 <vTaskSuspend+0xec>
8000314c:	30047073          	csrci	mstatus,8
80003150:	0000006f          	j	80003150 <vTaskSuspend+0xe8>
80003154:	d00fd0ef          	jal	ra,80000654 <vPortYield>
80003158:	0340006f          	j	8000318c <vTaskSuspend+0x124>
8000315c:	0004d797          	auipc	a5,0x4d
80003160:	66078793          	addi	a5,a5,1632 # 800507bc <xSuspendedTaskList>
80003164:	0007a703          	lw	a4,0(a5)
80003168:	0004d797          	auipc	a5,0x4d
8000316c:	66878793          	addi	a5,a5,1640 # 800507d0 <uxCurrentNumberOfTasks>
80003170:	0007a783          	lw	a5,0(a5)
80003174:	00f71a63          	bne	a4,a5,80003188 <vTaskSuspend+0x120>
80003178:	0004d797          	auipc	a5,0x4d
8000317c:	30878793          	addi	a5,a5,776 # 80050480 <pxCurrentTCB>
80003180:	0007a023          	sw	zero,0(a5)
80003184:	0080006f          	j	8000318c <vTaskSuspend+0x124>
80003188:	2f9000ef          	jal	ra,80003c80 <vTaskSwitchContext>
8000318c:	00000013          	nop
80003190:	02c12083          	lw	ra,44(sp)
80003194:	03010113          	addi	sp,sp,48
80003198:	00008067          	ret

8000319c <prvTaskIsTaskSuspended>:
8000319c:	fe010113          	addi	sp,sp,-32
800031a0:	00a12623          	sw	a0,12(sp)
800031a4:	00012e23          	sw	zero,28(sp)
800031a8:	00c12783          	lw	a5,12(sp)
800031ac:	00f12c23          	sw	a5,24(sp)
800031b0:	00c12783          	lw	a5,12(sp)
800031b4:	00079663          	bnez	a5,800031c0 <prvTaskIsTaskSuspended+0x24>
800031b8:	30047073          	csrci	mstatus,8
800031bc:	0000006f          	j	800031bc <prvTaskIsTaskSuspended+0x20>
800031c0:	01812783          	lw	a5,24(sp)
800031c4:	0147a703          	lw	a4,20(a5)
800031c8:	0004d797          	auipc	a5,0x4d
800031cc:	5f478793          	addi	a5,a5,1524 # 800507bc <xSuspendedTaskList>
800031d0:	00f71663          	bne	a4,a5,800031dc <prvTaskIsTaskSuspended+0x40>
800031d4:	00100793          	li	a5,1
800031d8:	0080006f          	j	800031e0 <prvTaskIsTaskSuspended+0x44>
800031dc:	00000793          	li	a5,0
800031e0:	02078e63          	beqz	a5,8000321c <prvTaskIsTaskSuspended+0x80>
800031e4:	01812783          	lw	a5,24(sp)
800031e8:	0287a703          	lw	a4,40(a5)
800031ec:	0004d797          	auipc	a5,0x4d
800031f0:	5a478793          	addi	a5,a5,1444 # 80050790 <xPendingReadyList>
800031f4:	02f70463          	beq	a4,a5,8000321c <prvTaskIsTaskSuspended+0x80>
800031f8:	01812783          	lw	a5,24(sp)
800031fc:	0287a783          	lw	a5,40(a5)
80003200:	00079663          	bnez	a5,8000320c <prvTaskIsTaskSuspended+0x70>
80003204:	00100793          	li	a5,1
80003208:	0080006f          	j	80003210 <prvTaskIsTaskSuspended+0x74>
8000320c:	00000793          	li	a5,0
80003210:	00078663          	beqz	a5,8000321c <prvTaskIsTaskSuspended+0x80>
80003214:	00100793          	li	a5,1
80003218:	00f12e23          	sw	a5,28(sp)
8000321c:	01c12783          	lw	a5,28(sp)
80003220:	00078513          	mv	a0,a5
80003224:	02010113          	addi	sp,sp,32
80003228:	00008067          	ret

8000322c <vTaskResume>:
8000322c:	fd010113          	addi	sp,sp,-48
80003230:	02112623          	sw	ra,44(sp)
80003234:	00a12623          	sw	a0,12(sp)
80003238:	00c12783          	lw	a5,12(sp)
8000323c:	00f12e23          	sw	a5,28(sp)
80003240:	00c12783          	lw	a5,12(sp)
80003244:	00079663          	bnez	a5,80003250 <vTaskResume+0x24>
80003248:	30047073          	csrci	mstatus,8
8000324c:	0000006f          	j	8000324c <vTaskResume+0x20>
80003250:	01c12783          	lw	a5,28(sp)
80003254:	0c078263          	beqz	a5,80003318 <vTaskResume+0xec>
80003258:	0004d797          	auipc	a5,0x4d
8000325c:	22878793          	addi	a5,a5,552 # 80050480 <pxCurrentTCB>
80003260:	0007a783          	lw	a5,0(a5)
80003264:	01c12703          	lw	a4,28(sp)
80003268:	0af70863          	beq	a4,a5,80003318 <vTaskResume+0xec>
8000326c:	379010ef          	jal	ra,80004de4 <vTaskEnterCritical>
80003270:	01c12503          	lw	a0,28(sp)
80003274:	f29ff0ef          	jal	ra,8000319c <prvTaskIsTaskSuspended>
80003278:	00050793          	mv	a5,a0
8000327c:	08078c63          	beqz	a5,80003314 <vTaskResume+0xe8>
80003280:	01c12783          	lw	a5,28(sp)
80003284:	00478793          	addi	a5,a5,4
80003288:	00078513          	mv	a0,a5
8000328c:	869fd0ef          	jal	ra,80000af4 <uxListRemove>
80003290:	01c12783          	lw	a5,28(sp)
80003294:	02c7a703          	lw	a4,44(a5)
80003298:	0004d797          	auipc	a5,0x4d
8000329c:	54078793          	addi	a5,a5,1344 # 800507d8 <uxTopReadyPriority>
800032a0:	0007a783          	lw	a5,0(a5)
800032a4:	00e7fc63          	bgeu	a5,a4,800032bc <vTaskResume+0x90>
800032a8:	01c12783          	lw	a5,28(sp)
800032ac:	02c7a703          	lw	a4,44(a5)
800032b0:	0004d797          	auipc	a5,0x4d
800032b4:	52878793          	addi	a5,a5,1320 # 800507d8 <uxTopReadyPriority>
800032b8:	00e7a023          	sw	a4,0(a5)
800032bc:	01c12783          	lw	a5,28(sp)
800032c0:	02c7a703          	lw	a4,44(a5)
800032c4:	00070793          	mv	a5,a4
800032c8:	00279793          	slli	a5,a5,0x2
800032cc:	00e787b3          	add	a5,a5,a4
800032d0:	00279793          	slli	a5,a5,0x2
800032d4:	0004d717          	auipc	a4,0x4d
800032d8:	42870713          	addi	a4,a4,1064 # 800506fc <pxReadyTasksLists>
800032dc:	00e78733          	add	a4,a5,a4
800032e0:	01c12783          	lw	a5,28(sp)
800032e4:	00478793          	addi	a5,a5,4
800032e8:	00078593          	mv	a1,a5
800032ec:	00070513          	mv	a0,a4
800032f0:	ec0fd0ef          	jal	ra,800009b0 <vListInsertEnd>
800032f4:	01c12783          	lw	a5,28(sp)
800032f8:	02c7a703          	lw	a4,44(a5)
800032fc:	0004d797          	auipc	a5,0x4d
80003300:	18478793          	addi	a5,a5,388 # 80050480 <pxCurrentTCB>
80003304:	0007a783          	lw	a5,0(a5)
80003308:	02c7a783          	lw	a5,44(a5)
8000330c:	00f76463          	bltu	a4,a5,80003314 <vTaskResume+0xe8>
80003310:	b44fd0ef          	jal	ra,80000654 <vPortYield>
80003314:	311010ef          	jal	ra,80004e24 <vTaskExitCritical>
80003318:	00000013          	nop
8000331c:	02c12083          	lw	ra,44(sp)
80003320:	03010113          	addi	sp,sp,48
80003324:	00008067          	ret

80003328 <xTaskResumeFromISR>:
80003328:	fd010113          	addi	sp,sp,-48
8000332c:	02112623          	sw	ra,44(sp)
80003330:	00a12623          	sw	a0,12(sp)
80003334:	00012e23          	sw	zero,28(sp)
80003338:	00c12783          	lw	a5,12(sp)
8000333c:	00f12c23          	sw	a5,24(sp)
80003340:	00c12783          	lw	a5,12(sp)
80003344:	00079663          	bnez	a5,80003350 <xTaskResumeFromISR+0x28>
80003348:	30047073          	csrci	mstatus,8
8000334c:	0000006f          	j	8000334c <xTaskResumeFromISR+0x24>
80003350:	d18fd0ef          	jal	ra,80000868 <vPortSetInterruptMask>
80003354:	00050793          	mv	a5,a0
80003358:	00f12a23          	sw	a5,20(sp)
8000335c:	01812503          	lw	a0,24(sp)
80003360:	e3dff0ef          	jal	ra,8000319c <prvTaskIsTaskSuspended>
80003364:	00050793          	mv	a5,a0
80003368:	0c078463          	beqz	a5,80003430 <xTaskResumeFromISR+0x108>
8000336c:	0004d797          	auipc	a5,0x4d
80003370:	48c78793          	addi	a5,a5,1164 # 800507f8 <uxSchedulerSuspended>
80003374:	0007a783          	lw	a5,0(a5)
80003378:	0a079063          	bnez	a5,80003418 <xTaskResumeFromISR+0xf0>
8000337c:	01812783          	lw	a5,24(sp)
80003380:	02c7a703          	lw	a4,44(a5)
80003384:	0004d797          	auipc	a5,0x4d
80003388:	0fc78793          	addi	a5,a5,252 # 80050480 <pxCurrentTCB>
8000338c:	0007a783          	lw	a5,0(a5)
80003390:	02c7a783          	lw	a5,44(a5)
80003394:	00f76663          	bltu	a4,a5,800033a0 <xTaskResumeFromISR+0x78>
80003398:	00100793          	li	a5,1
8000339c:	00f12e23          	sw	a5,28(sp)
800033a0:	01812783          	lw	a5,24(sp)
800033a4:	00478793          	addi	a5,a5,4
800033a8:	00078513          	mv	a0,a5
800033ac:	f48fd0ef          	jal	ra,80000af4 <uxListRemove>
800033b0:	01812783          	lw	a5,24(sp)
800033b4:	02c7a703          	lw	a4,44(a5)
800033b8:	0004d797          	auipc	a5,0x4d
800033bc:	42078793          	addi	a5,a5,1056 # 800507d8 <uxTopReadyPriority>
800033c0:	0007a783          	lw	a5,0(a5)
800033c4:	00e7fc63          	bgeu	a5,a4,800033dc <xTaskResumeFromISR+0xb4>
800033c8:	01812783          	lw	a5,24(sp)
800033cc:	02c7a703          	lw	a4,44(a5)
800033d0:	0004d797          	auipc	a5,0x4d
800033d4:	40878793          	addi	a5,a5,1032 # 800507d8 <uxTopReadyPriority>
800033d8:	00e7a023          	sw	a4,0(a5)
800033dc:	01812783          	lw	a5,24(sp)
800033e0:	02c7a703          	lw	a4,44(a5)
800033e4:	00070793          	mv	a5,a4
800033e8:	00279793          	slli	a5,a5,0x2
800033ec:	00e787b3          	add	a5,a5,a4
800033f0:	00279793          	slli	a5,a5,0x2
800033f4:	0004d717          	auipc	a4,0x4d
800033f8:	30870713          	addi	a4,a4,776 # 800506fc <pxReadyTasksLists>
800033fc:	00e78733          	add	a4,a5,a4
80003400:	01812783          	lw	a5,24(sp)
80003404:	00478793          	addi	a5,a5,4
80003408:	00078593          	mv	a1,a5
8000340c:	00070513          	mv	a0,a4
80003410:	da0fd0ef          	jal	ra,800009b0 <vListInsertEnd>
80003414:	01c0006f          	j	80003430 <xTaskResumeFromISR+0x108>
80003418:	01812783          	lw	a5,24(sp)
8000341c:	01878793          	addi	a5,a5,24
80003420:	00078593          	mv	a1,a5
80003424:	0004d517          	auipc	a0,0x4d
80003428:	36c50513          	addi	a0,a0,876 # 80050790 <xPendingReadyList>
8000342c:	d84fd0ef          	jal	ra,800009b0 <vListInsertEnd>
80003430:	01412783          	lw	a5,20(sp)
80003434:	00078513          	mv	a0,a5
80003438:	c14fd0ef          	jal	ra,8000084c <vPortClearInterruptMask>
8000343c:	01c12783          	lw	a5,28(sp)
80003440:	00078513          	mv	a0,a5
80003444:	02c12083          	lw	ra,44(sp)
80003448:	03010113          	addi	sp,sp,48
8000344c:	00008067          	ret

80003450 <vTaskStartScheduler>:
80003450:	fe010113          	addi	sp,sp,-32
80003454:	00112e23          	sw	ra,28(sp)
80003458:	0004d797          	auipc	a5,0x4d
8000345c:	39c78793          	addi	a5,a5,924 # 800507f4 <xIdleTaskHandle>
80003460:	00000713          	li	a4,0
80003464:	00000693          	li	a3,0
80003468:	40000613          	li	a2,1024
8000346c:	0004d597          	auipc	a1,0x4d
80003470:	b9458593          	addi	a1,a1,-1132 # 80050000 <__rodata_start>
80003474:	00001517          	auipc	a0,0x1
80003478:	f7c50513          	addi	a0,a0,-132 # 800043f0 <prvIdleTask>
8000347c:	960ff0ef          	jal	ra,800025dc <xTaskCreate>
80003480:	00a12623          	sw	a0,12(sp)
80003484:	00c12703          	lw	a4,12(sp)
80003488:	00100793          	li	a5,1
8000348c:	00f71663          	bne	a4,a5,80003498 <vTaskStartScheduler+0x48>
80003490:	3a0020ef          	jal	ra,80005830 <xTimerCreateTimerTask>
80003494:	00a12623          	sw	a0,12(sp)
80003498:	00c12703          	lw	a4,12(sp)
8000349c:	00100793          	li	a5,1
800034a0:	02f71e63          	bne	a4,a5,800034dc <vTaskStartScheduler+0x8c>
800034a4:	30047073          	csrci	mstatus,8
800034a8:	0004d797          	auipc	a5,0x4d
800034ac:	34878793          	addi	a5,a5,840 # 800507f0 <xNextTaskUnblockTime>
800034b0:	fff00713          	li	a4,-1
800034b4:	00e7a023          	sw	a4,0(a5)
800034b8:	0004d797          	auipc	a5,0x4d
800034bc:	32478793          	addi	a5,a5,804 # 800507dc <xSchedulerRunning>
800034c0:	00100713          	li	a4,1
800034c4:	00e7a023          	sw	a4,0(a5)
800034c8:	0004d797          	auipc	a5,0x4d
800034cc:	30c78793          	addi	a5,a5,780 # 800507d4 <xTickCount>
800034d0:	0007a023          	sw	zero,0(a5)
800034d4:	fd5fc0ef          	jal	ra,800004a8 <xPortStartScheduler>
800034d8:	0180006f          	j	800034f0 <vTaskStartScheduler+0xa0>
800034dc:	00c12703          	lw	a4,12(sp)
800034e0:	fff00793          	li	a5,-1
800034e4:	00f71663          	bne	a4,a5,800034f0 <vTaskStartScheduler+0xa0>
800034e8:	30047073          	csrci	mstatus,8
800034ec:	0000006f          	j	800034ec <vTaskStartScheduler+0x9c>
800034f0:	00000013          	nop
800034f4:	01c12083          	lw	ra,28(sp)
800034f8:	02010113          	addi	sp,sp,32
800034fc:	00008067          	ret

80003500 <vTaskEndScheduler>:
80003500:	ff010113          	addi	sp,sp,-16
80003504:	00112623          	sw	ra,12(sp)
80003508:	30047073          	csrci	mstatus,8
8000350c:	0004d797          	auipc	a5,0x4d
80003510:	2d078793          	addi	a5,a5,720 # 800507dc <xSchedulerRunning>
80003514:	0007a023          	sw	zero,0(a5)
80003518:	8b4fd0ef          	jal	ra,800005cc <vPortEndScheduler>
8000351c:	00000013          	nop
80003520:	00c12083          	lw	ra,12(sp)
80003524:	01010113          	addi	sp,sp,16
80003528:	00008067          	ret

8000352c <vTaskSuspendAll>:
8000352c:	0004d797          	auipc	a5,0x4d
80003530:	2cc78793          	addi	a5,a5,716 # 800507f8 <uxSchedulerSuspended>
80003534:	0007a783          	lw	a5,0(a5)
80003538:	00178713          	addi	a4,a5,1
8000353c:	0004d797          	auipc	a5,0x4d
80003540:	2bc78793          	addi	a5,a5,700 # 800507f8 <uxSchedulerSuspended>
80003544:	00e7a023          	sw	a4,0(a5)
80003548:	00000013          	nop
8000354c:	00008067          	ret

80003550 <xTaskResumeAll>:
80003550:	fe010113          	addi	sp,sp,-32
80003554:	00112e23          	sw	ra,28(sp)
80003558:	00012623          	sw	zero,12(sp)
8000355c:	00012423          	sw	zero,8(sp)
80003560:	0004d797          	auipc	a5,0x4d
80003564:	29878793          	addi	a5,a5,664 # 800507f8 <uxSchedulerSuspended>
80003568:	0007a783          	lw	a5,0(a5)
8000356c:	00079663          	bnez	a5,80003578 <xTaskResumeAll+0x28>
80003570:	30047073          	csrci	mstatus,8
80003574:	0000006f          	j	80003574 <xTaskResumeAll+0x24>
80003578:	06d010ef          	jal	ra,80004de4 <vTaskEnterCritical>
8000357c:	0004d797          	auipc	a5,0x4d
80003580:	27c78793          	addi	a5,a5,636 # 800507f8 <uxSchedulerSuspended>
80003584:	0007a783          	lw	a5,0(a5)
80003588:	fff78713          	addi	a4,a5,-1
8000358c:	0004d797          	auipc	a5,0x4d
80003590:	26c78793          	addi	a5,a5,620 # 800507f8 <uxSchedulerSuspended>
80003594:	00e7a023          	sw	a4,0(a5)
80003598:	0004d797          	auipc	a5,0x4d
8000359c:	26078793          	addi	a5,a5,608 # 800507f8 <uxSchedulerSuspended>
800035a0:	0007a783          	lw	a5,0(a5)
800035a4:	16079463          	bnez	a5,8000370c <xTaskResumeAll+0x1bc>
800035a8:	0004d797          	auipc	a5,0x4d
800035ac:	22878793          	addi	a5,a5,552 # 800507d0 <uxCurrentNumberOfTasks>
800035b0:	0007a783          	lw	a5,0(a5)
800035b4:	14078c63          	beqz	a5,8000370c <xTaskResumeAll+0x1bc>
800035b8:	0c80006f          	j	80003680 <xTaskResumeAll+0x130>
800035bc:	0004d797          	auipc	a5,0x4d
800035c0:	1d478793          	addi	a5,a5,468 # 80050790 <xPendingReadyList>
800035c4:	00c7a783          	lw	a5,12(a5)
800035c8:	00c7a783          	lw	a5,12(a5)
800035cc:	00f12623          	sw	a5,12(sp)
800035d0:	00c12783          	lw	a5,12(sp)
800035d4:	01878793          	addi	a5,a5,24
800035d8:	00078513          	mv	a0,a5
800035dc:	d18fd0ef          	jal	ra,80000af4 <uxListRemove>
800035e0:	00c12783          	lw	a5,12(sp)
800035e4:	00478793          	addi	a5,a5,4
800035e8:	00078513          	mv	a0,a5
800035ec:	d08fd0ef          	jal	ra,80000af4 <uxListRemove>
800035f0:	00c12783          	lw	a5,12(sp)
800035f4:	02c7a703          	lw	a4,44(a5)
800035f8:	0004d797          	auipc	a5,0x4d
800035fc:	1e078793          	addi	a5,a5,480 # 800507d8 <uxTopReadyPriority>
80003600:	0007a783          	lw	a5,0(a5)
80003604:	00e7fc63          	bgeu	a5,a4,8000361c <xTaskResumeAll+0xcc>
80003608:	00c12783          	lw	a5,12(sp)
8000360c:	02c7a703          	lw	a4,44(a5)
80003610:	0004d797          	auipc	a5,0x4d
80003614:	1c878793          	addi	a5,a5,456 # 800507d8 <uxTopReadyPriority>
80003618:	00e7a023          	sw	a4,0(a5)
8000361c:	00c12783          	lw	a5,12(sp)
80003620:	02c7a703          	lw	a4,44(a5)
80003624:	00070793          	mv	a5,a4
80003628:	00279793          	slli	a5,a5,0x2
8000362c:	00e787b3          	add	a5,a5,a4
80003630:	00279793          	slli	a5,a5,0x2
80003634:	0004d717          	auipc	a4,0x4d
80003638:	0c870713          	addi	a4,a4,200 # 800506fc <pxReadyTasksLists>
8000363c:	00e78733          	add	a4,a5,a4
80003640:	00c12783          	lw	a5,12(sp)
80003644:	00478793          	addi	a5,a5,4
80003648:	00078593          	mv	a1,a5
8000364c:	00070513          	mv	a0,a4
80003650:	b60fd0ef          	jal	ra,800009b0 <vListInsertEnd>
80003654:	00c12783          	lw	a5,12(sp)
80003658:	02c7a703          	lw	a4,44(a5)
8000365c:	0004d797          	auipc	a5,0x4d
80003660:	e2478793          	addi	a5,a5,-476 # 80050480 <pxCurrentTCB>
80003664:	0007a783          	lw	a5,0(a5)
80003668:	02c7a783          	lw	a5,44(a5)
8000366c:	00f76a63          	bltu	a4,a5,80003680 <xTaskResumeAll+0x130>
80003670:	0004d797          	auipc	a5,0x4d
80003674:	17478793          	addi	a5,a5,372 # 800507e4 <xYieldPending>
80003678:	00100713          	li	a4,1
8000367c:	00e7a023          	sw	a4,0(a5)
80003680:	0004d797          	auipc	a5,0x4d
80003684:	11078793          	addi	a5,a5,272 # 80050790 <xPendingReadyList>
80003688:	0007a783          	lw	a5,0(a5)
8000368c:	f20798e3          	bnez	a5,800035bc <xTaskResumeAll+0x6c>
80003690:	00c12783          	lw	a5,12(sp)
80003694:	00078463          	beqz	a5,8000369c <xTaskResumeAll+0x14c>
80003698:	1fc010ef          	jal	ra,80004894 <prvResetNextTaskUnblockTime>
8000369c:	0004d797          	auipc	a5,0x4d
800036a0:	14478793          	addi	a5,a5,324 # 800507e0 <uxPendedTicks>
800036a4:	0007a783          	lw	a5,0(a5)
800036a8:	00f12223          	sw	a5,4(sp)
800036ac:	00412783          	lw	a5,4(sp)
800036b0:	04078063          	beqz	a5,800036f0 <xTaskResumeAll+0x1a0>
800036b4:	33c000ef          	jal	ra,800039f0 <xTaskIncrementTick>
800036b8:	00050793          	mv	a5,a0
800036bc:	00078a63          	beqz	a5,800036d0 <xTaskResumeAll+0x180>
800036c0:	0004d797          	auipc	a5,0x4d
800036c4:	12478793          	addi	a5,a5,292 # 800507e4 <xYieldPending>
800036c8:	00100713          	li	a4,1
800036cc:	00e7a023          	sw	a4,0(a5)
800036d0:	00412783          	lw	a5,4(sp)
800036d4:	fff78793          	addi	a5,a5,-1
800036d8:	00f12223          	sw	a5,4(sp)
800036dc:	00412783          	lw	a5,4(sp)
800036e0:	fc079ae3          	bnez	a5,800036b4 <xTaskResumeAll+0x164>
800036e4:	0004d797          	auipc	a5,0x4d
800036e8:	0fc78793          	addi	a5,a5,252 # 800507e0 <uxPendedTicks>
800036ec:	0007a023          	sw	zero,0(a5)
800036f0:	0004d797          	auipc	a5,0x4d
800036f4:	0f478793          	addi	a5,a5,244 # 800507e4 <xYieldPending>
800036f8:	0007a783          	lw	a5,0(a5)
800036fc:	00078863          	beqz	a5,8000370c <xTaskResumeAll+0x1bc>
80003700:	00100793          	li	a5,1
80003704:	00f12423          	sw	a5,8(sp)
80003708:	f4dfc0ef          	jal	ra,80000654 <vPortYield>
8000370c:	718010ef          	jal	ra,80004e24 <vTaskExitCritical>
80003710:	00812783          	lw	a5,8(sp)
80003714:	00078513          	mv	a0,a5
80003718:	01c12083          	lw	ra,28(sp)
8000371c:	02010113          	addi	sp,sp,32
80003720:	00008067          	ret

80003724 <xTaskGetTickCount>:
80003724:	fe010113          	addi	sp,sp,-32
80003728:	00112e23          	sw	ra,28(sp)
8000372c:	6b8010ef          	jal	ra,80004de4 <vTaskEnterCritical>
80003730:	0004d797          	auipc	a5,0x4d
80003734:	0a478793          	addi	a5,a5,164 # 800507d4 <xTickCount>
80003738:	0007a783          	lw	a5,0(a5)
8000373c:	00f12623          	sw	a5,12(sp)
80003740:	6e4010ef          	jal	ra,80004e24 <vTaskExitCritical>
80003744:	00c12783          	lw	a5,12(sp)
80003748:	00078513          	mv	a0,a5
8000374c:	01c12083          	lw	ra,28(sp)
80003750:	02010113          	addi	sp,sp,32
80003754:	00008067          	ret

80003758 <xTaskGetTickCountFromISR>:
80003758:	fe010113          	addi	sp,sp,-32
8000375c:	00112e23          	sw	ra,28(sp)
80003760:	908fd0ef          	jal	ra,80000868 <vPortSetInterruptMask>
80003764:	00050793          	mv	a5,a0
80003768:	00f12623          	sw	a5,12(sp)
8000376c:	0004d797          	auipc	a5,0x4d
80003770:	06878793          	addi	a5,a5,104 # 800507d4 <xTickCount>
80003774:	0007a783          	lw	a5,0(a5)
80003778:	00f12423          	sw	a5,8(sp)
8000377c:	00c12783          	lw	a5,12(sp)
80003780:	00078513          	mv	a0,a5
80003784:	8c8fd0ef          	jal	ra,8000084c <vPortClearInterruptMask>
80003788:	00812783          	lw	a5,8(sp)
8000378c:	00078513          	mv	a0,a5
80003790:	01c12083          	lw	ra,28(sp)
80003794:	02010113          	addi	sp,sp,32
80003798:	00008067          	ret

8000379c <uxTaskGetNumberOfTasks>:
8000379c:	0004d797          	auipc	a5,0x4d
800037a0:	03478793          	addi	a5,a5,52 # 800507d0 <uxCurrentNumberOfTasks>
800037a4:	0007a783          	lw	a5,0(a5)
800037a8:	00078513          	mv	a0,a5
800037ac:	00008067          	ret

800037b0 <pcTaskGetName>:
800037b0:	fe010113          	addi	sp,sp,-32
800037b4:	00a12623          	sw	a0,12(sp)
800037b8:	00c12783          	lw	a5,12(sp)
800037bc:	00079a63          	bnez	a5,800037d0 <pcTaskGetName+0x20>
800037c0:	0004d797          	auipc	a5,0x4d
800037c4:	cc078793          	addi	a5,a5,-832 # 80050480 <pxCurrentTCB>
800037c8:	0007a783          	lw	a5,0(a5)
800037cc:	0080006f          	j	800037d4 <pcTaskGetName+0x24>
800037d0:	00c12783          	lw	a5,12(sp)
800037d4:	00f12e23          	sw	a5,28(sp)
800037d8:	01c12783          	lw	a5,28(sp)
800037dc:	00079663          	bnez	a5,800037e8 <pcTaskGetName+0x38>
800037e0:	30047073          	csrci	mstatus,8
800037e4:	0000006f          	j	800037e4 <pcTaskGetName+0x34>
800037e8:	01c12783          	lw	a5,28(sp)
800037ec:	03478793          	addi	a5,a5,52
800037f0:	00078513          	mv	a0,a5
800037f4:	02010113          	addi	sp,sp,32
800037f8:	00008067          	ret

800037fc <uxTaskGetSystemState>:
800037fc:	fd010113          	addi	sp,sp,-48
80003800:	02112623          	sw	ra,44(sp)
80003804:	00a12623          	sw	a0,12(sp)
80003808:	00b12423          	sw	a1,8(sp)
8000380c:	00c12223          	sw	a2,4(sp)
80003810:	00012e23          	sw	zero,28(sp)
80003814:	00500793          	li	a5,5
80003818:	00f12c23          	sw	a5,24(sp)
8000381c:	d11ff0ef          	jal	ra,8000352c <vTaskSuspendAll>
80003820:	0004d797          	auipc	a5,0x4d
80003824:	fb078793          	addi	a5,a5,-80 # 800507d0 <uxCurrentNumberOfTasks>
80003828:	0007a783          	lw	a5,0(a5)
8000382c:	00812703          	lw	a4,8(sp)
80003830:	1af76463          	bltu	a4,a5,800039d8 <uxTaskGetSystemState+0x1dc>
80003834:	01812783          	lw	a5,24(sp)
80003838:	fff78793          	addi	a5,a5,-1
8000383c:	00f12c23          	sw	a5,24(sp)
80003840:	01c12703          	lw	a4,28(sp)
80003844:	00070793          	mv	a5,a4
80003848:	00379793          	slli	a5,a5,0x3
8000384c:	00e787b3          	add	a5,a5,a4
80003850:	00279793          	slli	a5,a5,0x2
80003854:	00078713          	mv	a4,a5
80003858:	00c12783          	lw	a5,12(sp)
8000385c:	00e786b3          	add	a3,a5,a4
80003860:	01812703          	lw	a4,24(sp)
80003864:	00070793          	mv	a5,a4
80003868:	00279793          	slli	a5,a5,0x2
8000386c:	00e787b3          	add	a5,a5,a4
80003870:	00279793          	slli	a5,a5,0x2
80003874:	0004d717          	auipc	a4,0x4d
80003878:	e8870713          	addi	a4,a4,-376 # 800506fc <pxReadyTasksLists>
8000387c:	00e787b3          	add	a5,a5,a4
80003880:	00100613          	li	a2,1
80003884:	00078593          	mv	a1,a5
80003888:	00068513          	mv	a0,a3
8000388c:	64d000ef          	jal	ra,800046d8 <prvListTasksWithinSingleList>
80003890:	00050713          	mv	a4,a0
80003894:	01c12783          	lw	a5,28(sp)
80003898:	00e787b3          	add	a5,a5,a4
8000389c:	00f12e23          	sw	a5,28(sp)
800038a0:	01812783          	lw	a5,24(sp)
800038a4:	f80798e3          	bnez	a5,80003834 <uxTaskGetSystemState+0x38>
800038a8:	01c12703          	lw	a4,28(sp)
800038ac:	00070793          	mv	a5,a4
800038b0:	00379793          	slli	a5,a5,0x3
800038b4:	00e787b3          	add	a5,a5,a4
800038b8:	00279793          	slli	a5,a5,0x2
800038bc:	00078713          	mv	a4,a5
800038c0:	00c12783          	lw	a5,12(sp)
800038c4:	00e78733          	add	a4,a5,a4
800038c8:	0004d797          	auipc	a5,0x4d
800038cc:	ec078793          	addi	a5,a5,-320 # 80050788 <pxDelayedTaskList>
800038d0:	0007a783          	lw	a5,0(a5)
800038d4:	00200613          	li	a2,2
800038d8:	00078593          	mv	a1,a5
800038dc:	00070513          	mv	a0,a4
800038e0:	5f9000ef          	jal	ra,800046d8 <prvListTasksWithinSingleList>
800038e4:	00050713          	mv	a4,a0
800038e8:	01c12783          	lw	a5,28(sp)
800038ec:	00e787b3          	add	a5,a5,a4
800038f0:	00f12e23          	sw	a5,28(sp)
800038f4:	01c12703          	lw	a4,28(sp)
800038f8:	00070793          	mv	a5,a4
800038fc:	00379793          	slli	a5,a5,0x3
80003900:	00e787b3          	add	a5,a5,a4
80003904:	00279793          	slli	a5,a5,0x2
80003908:	00078713          	mv	a4,a5
8000390c:	00c12783          	lw	a5,12(sp)
80003910:	00e78733          	add	a4,a5,a4
80003914:	0004d797          	auipc	a5,0x4d
80003918:	e7878793          	addi	a5,a5,-392 # 8005078c <pxOverflowDelayedTaskList>
8000391c:	0007a783          	lw	a5,0(a5)
80003920:	00200613          	li	a2,2
80003924:	00078593          	mv	a1,a5
80003928:	00070513          	mv	a0,a4
8000392c:	5ad000ef          	jal	ra,800046d8 <prvListTasksWithinSingleList>
80003930:	00050713          	mv	a4,a0
80003934:	01c12783          	lw	a5,28(sp)
80003938:	00e787b3          	add	a5,a5,a4
8000393c:	00f12e23          	sw	a5,28(sp)
80003940:	01c12703          	lw	a4,28(sp)
80003944:	00070793          	mv	a5,a4
80003948:	00379793          	slli	a5,a5,0x3
8000394c:	00e787b3          	add	a5,a5,a4
80003950:	00279793          	slli	a5,a5,0x2
80003954:	00078713          	mv	a4,a5
80003958:	00c12783          	lw	a5,12(sp)
8000395c:	00e787b3          	add	a5,a5,a4
80003960:	00400613          	li	a2,4
80003964:	0004d597          	auipc	a1,0x4d
80003968:	e4058593          	addi	a1,a1,-448 # 800507a4 <xTasksWaitingTermination>
8000396c:	00078513          	mv	a0,a5
80003970:	569000ef          	jal	ra,800046d8 <prvListTasksWithinSingleList>
80003974:	00050713          	mv	a4,a0
80003978:	01c12783          	lw	a5,28(sp)
8000397c:	00e787b3          	add	a5,a5,a4
80003980:	00f12e23          	sw	a5,28(sp)
80003984:	01c12703          	lw	a4,28(sp)
80003988:	00070793          	mv	a5,a4
8000398c:	00379793          	slli	a5,a5,0x3
80003990:	00e787b3          	add	a5,a5,a4
80003994:	00279793          	slli	a5,a5,0x2
80003998:	00078713          	mv	a4,a5
8000399c:	00c12783          	lw	a5,12(sp)
800039a0:	00e787b3          	add	a5,a5,a4
800039a4:	00300613          	li	a2,3
800039a8:	0004d597          	auipc	a1,0x4d
800039ac:	e1458593          	addi	a1,a1,-492 # 800507bc <xSuspendedTaskList>
800039b0:	00078513          	mv	a0,a5
800039b4:	525000ef          	jal	ra,800046d8 <prvListTasksWithinSingleList>
800039b8:	00050713          	mv	a4,a0
800039bc:	01c12783          	lw	a5,28(sp)
800039c0:	00e787b3          	add	a5,a5,a4
800039c4:	00f12e23          	sw	a5,28(sp)
800039c8:	00412783          	lw	a5,4(sp)
800039cc:	00078663          	beqz	a5,800039d8 <uxTaskGetSystemState+0x1dc>
800039d0:	00412783          	lw	a5,4(sp)
800039d4:	0007a023          	sw	zero,0(a5)
800039d8:	b79ff0ef          	jal	ra,80003550 <xTaskResumeAll>
800039dc:	01c12783          	lw	a5,28(sp)
800039e0:	00078513          	mv	a0,a5
800039e4:	02c12083          	lw	ra,44(sp)
800039e8:	03010113          	addi	sp,sp,48
800039ec:	00008067          	ret

800039f0 <xTaskIncrementTick>:
800039f0:	fd010113          	addi	sp,sp,-48
800039f4:	02112623          	sw	ra,44(sp)
800039f8:	00012e23          	sw	zero,28(sp)
800039fc:	0004d797          	auipc	a5,0x4d
80003a00:	dfc78793          	addi	a5,a5,-516 # 800507f8 <uxSchedulerSuspended>
80003a04:	0007a783          	lw	a5,0(a5)
80003a08:	22079863          	bnez	a5,80003c38 <xTaskIncrementTick+0x248>
80003a0c:	0004d797          	auipc	a5,0x4d
80003a10:	dc878793          	addi	a5,a5,-568 # 800507d4 <xTickCount>
80003a14:	0007a783          	lw	a5,0(a5)
80003a18:	00178793          	addi	a5,a5,1
80003a1c:	00f12c23          	sw	a5,24(sp)
80003a20:	0004d797          	auipc	a5,0x4d
80003a24:	db478793          	addi	a5,a5,-588 # 800507d4 <xTickCount>
80003a28:	01812703          	lw	a4,24(sp)
80003a2c:	00e7a023          	sw	a4,0(a5)
80003a30:	01812783          	lw	a5,24(sp)
80003a34:	06079c63          	bnez	a5,80003aac <xTaskIncrementTick+0xbc>
80003a38:	0004d797          	auipc	a5,0x4d
80003a3c:	d5078793          	addi	a5,a5,-688 # 80050788 <pxDelayedTaskList>
80003a40:	0007a783          	lw	a5,0(a5)
80003a44:	0007a783          	lw	a5,0(a5)
80003a48:	00078663          	beqz	a5,80003a54 <xTaskIncrementTick+0x64>
80003a4c:	30047073          	csrci	mstatus,8
80003a50:	0000006f          	j	80003a50 <xTaskIncrementTick+0x60>
80003a54:	0004d797          	auipc	a5,0x4d
80003a58:	d3478793          	addi	a5,a5,-716 # 80050788 <pxDelayedTaskList>
80003a5c:	0007a783          	lw	a5,0(a5)
80003a60:	00f12a23          	sw	a5,20(sp)
80003a64:	0004d797          	auipc	a5,0x4d
80003a68:	d2878793          	addi	a5,a5,-728 # 8005078c <pxOverflowDelayedTaskList>
80003a6c:	0007a703          	lw	a4,0(a5)
80003a70:	0004d797          	auipc	a5,0x4d
80003a74:	d1878793          	addi	a5,a5,-744 # 80050788 <pxDelayedTaskList>
80003a78:	00e7a023          	sw	a4,0(a5)
80003a7c:	0004d797          	auipc	a5,0x4d
80003a80:	d1078793          	addi	a5,a5,-752 # 8005078c <pxOverflowDelayedTaskList>
80003a84:	01412703          	lw	a4,20(sp)
80003a88:	00e7a023          	sw	a4,0(a5)
80003a8c:	0004d797          	auipc	a5,0x4d
80003a90:	d5c78793          	addi	a5,a5,-676 # 800507e8 <xNumOfOverflows>
80003a94:	0007a783          	lw	a5,0(a5)
80003a98:	00178713          	addi	a4,a5,1
80003a9c:	0004d797          	auipc	a5,0x4d
80003aa0:	d4c78793          	addi	a5,a5,-692 # 800507e8 <xNumOfOverflows>
80003aa4:	00e7a023          	sw	a4,0(a5)
80003aa8:	5ed000ef          	jal	ra,80004894 <prvResetNextTaskUnblockTime>
80003aac:	0004d797          	auipc	a5,0x4d
80003ab0:	d4478793          	addi	a5,a5,-700 # 800507f0 <xNextTaskUnblockTime>
80003ab4:	0007a783          	lw	a5,0(a5)
80003ab8:	01812703          	lw	a4,24(sp)
80003abc:	12f76c63          	bltu	a4,a5,80003bf4 <xTaskIncrementTick+0x204>
80003ac0:	0004d797          	auipc	a5,0x4d
80003ac4:	cc878793          	addi	a5,a5,-824 # 80050788 <pxDelayedTaskList>
80003ac8:	0007a783          	lw	a5,0(a5)
80003acc:	0007a783          	lw	a5,0(a5)
80003ad0:	00079663          	bnez	a5,80003adc <xTaskIncrementTick+0xec>
80003ad4:	00100793          	li	a5,1
80003ad8:	0080006f          	j	80003ae0 <xTaskIncrementTick+0xf0>
80003adc:	00000793          	li	a5,0
80003ae0:	00078c63          	beqz	a5,80003af8 <xTaskIncrementTick+0x108>
80003ae4:	0004d797          	auipc	a5,0x4d
80003ae8:	d0c78793          	addi	a5,a5,-756 # 800507f0 <xNextTaskUnblockTime>
80003aec:	fff00713          	li	a4,-1
80003af0:	00e7a023          	sw	a4,0(a5)
80003af4:	1000006f          	j	80003bf4 <xTaskIncrementTick+0x204>
80003af8:	0004d797          	auipc	a5,0x4d
80003afc:	c9078793          	addi	a5,a5,-880 # 80050788 <pxDelayedTaskList>
80003b00:	0007a783          	lw	a5,0(a5)
80003b04:	00c7a783          	lw	a5,12(a5)
80003b08:	00c7a783          	lw	a5,12(a5)
80003b0c:	00f12823          	sw	a5,16(sp)
80003b10:	01012783          	lw	a5,16(sp)
80003b14:	0047a783          	lw	a5,4(a5)
80003b18:	00f12623          	sw	a5,12(sp)
80003b1c:	01812703          	lw	a4,24(sp)
80003b20:	00c12783          	lw	a5,12(sp)
80003b24:	00f77c63          	bgeu	a4,a5,80003b3c <xTaskIncrementTick+0x14c>
80003b28:	0004d797          	auipc	a5,0x4d
80003b2c:	cc878793          	addi	a5,a5,-824 # 800507f0 <xNextTaskUnblockTime>
80003b30:	00c12703          	lw	a4,12(sp)
80003b34:	00e7a023          	sw	a4,0(a5)
80003b38:	0bc0006f          	j	80003bf4 <xTaskIncrementTick+0x204>
80003b3c:	01012783          	lw	a5,16(sp)
80003b40:	00478793          	addi	a5,a5,4
80003b44:	00078513          	mv	a0,a5
80003b48:	fadfc0ef          	jal	ra,80000af4 <uxListRemove>
80003b4c:	01012783          	lw	a5,16(sp)
80003b50:	0287a783          	lw	a5,40(a5)
80003b54:	00078a63          	beqz	a5,80003b68 <xTaskIncrementTick+0x178>
80003b58:	01012783          	lw	a5,16(sp)
80003b5c:	01878793          	addi	a5,a5,24
80003b60:	00078513          	mv	a0,a5
80003b64:	f91fc0ef          	jal	ra,80000af4 <uxListRemove>
80003b68:	01012783          	lw	a5,16(sp)
80003b6c:	02c7a703          	lw	a4,44(a5)
80003b70:	0004d797          	auipc	a5,0x4d
80003b74:	c6878793          	addi	a5,a5,-920 # 800507d8 <uxTopReadyPriority>
80003b78:	0007a783          	lw	a5,0(a5)
80003b7c:	00e7fc63          	bgeu	a5,a4,80003b94 <xTaskIncrementTick+0x1a4>
80003b80:	01012783          	lw	a5,16(sp)
80003b84:	02c7a703          	lw	a4,44(a5)
80003b88:	0004d797          	auipc	a5,0x4d
80003b8c:	c5078793          	addi	a5,a5,-944 # 800507d8 <uxTopReadyPriority>
80003b90:	00e7a023          	sw	a4,0(a5)
80003b94:	01012783          	lw	a5,16(sp)
80003b98:	02c7a703          	lw	a4,44(a5)
80003b9c:	00070793          	mv	a5,a4
80003ba0:	00279793          	slli	a5,a5,0x2
80003ba4:	00e787b3          	add	a5,a5,a4
80003ba8:	00279793          	slli	a5,a5,0x2
80003bac:	0004d717          	auipc	a4,0x4d
80003bb0:	b5070713          	addi	a4,a4,-1200 # 800506fc <pxReadyTasksLists>
80003bb4:	00e78733          	add	a4,a5,a4
80003bb8:	01012783          	lw	a5,16(sp)
80003bbc:	00478793          	addi	a5,a5,4
80003bc0:	00078593          	mv	a1,a5
80003bc4:	00070513          	mv	a0,a4
80003bc8:	de9fc0ef          	jal	ra,800009b0 <vListInsertEnd>
80003bcc:	01012783          	lw	a5,16(sp)
80003bd0:	02c7a703          	lw	a4,44(a5)
80003bd4:	0004d797          	auipc	a5,0x4d
80003bd8:	8ac78793          	addi	a5,a5,-1876 # 80050480 <pxCurrentTCB>
80003bdc:	0007a783          	lw	a5,0(a5)
80003be0:	02c7a783          	lw	a5,44(a5)
80003be4:	ecf76ee3          	bltu	a4,a5,80003ac0 <xTaskIncrementTick+0xd0>
80003be8:	00100793          	li	a5,1
80003bec:	00f12e23          	sw	a5,28(sp)
80003bf0:	ed1ff06f          	j	80003ac0 <xTaskIncrementTick+0xd0>
80003bf4:	0004d797          	auipc	a5,0x4d
80003bf8:	88c78793          	addi	a5,a5,-1908 # 80050480 <pxCurrentTCB>
80003bfc:	0007a783          	lw	a5,0(a5)
80003c00:	02c7a703          	lw	a4,44(a5)
80003c04:	0004d697          	auipc	a3,0x4d
80003c08:	af868693          	addi	a3,a3,-1288 # 800506fc <pxReadyTasksLists>
80003c0c:	00070793          	mv	a5,a4
80003c10:	00279793          	slli	a5,a5,0x2
80003c14:	00e787b3          	add	a5,a5,a4
80003c18:	00279793          	slli	a5,a5,0x2
80003c1c:	00f687b3          	add	a5,a3,a5
80003c20:	0007a703          	lw	a4,0(a5)
80003c24:	00100793          	li	a5,1
80003c28:	02e7f663          	bgeu	a5,a4,80003c54 <xTaskIncrementTick+0x264>
80003c2c:	00100793          	li	a5,1
80003c30:	00f12e23          	sw	a5,28(sp)
80003c34:	0200006f          	j	80003c54 <xTaskIncrementTick+0x264>
80003c38:	0004d797          	auipc	a5,0x4d
80003c3c:	ba878793          	addi	a5,a5,-1112 # 800507e0 <uxPendedTicks>
80003c40:	0007a783          	lw	a5,0(a5)
80003c44:	00178713          	addi	a4,a5,1
80003c48:	0004d797          	auipc	a5,0x4d
80003c4c:	b9878793          	addi	a5,a5,-1128 # 800507e0 <uxPendedTicks>
80003c50:	00e7a023          	sw	a4,0(a5)
80003c54:	0004d797          	auipc	a5,0x4d
80003c58:	b9078793          	addi	a5,a5,-1136 # 800507e4 <xYieldPending>
80003c5c:	0007a783          	lw	a5,0(a5)
80003c60:	00078663          	beqz	a5,80003c6c <xTaskIncrementTick+0x27c>
80003c64:	00100793          	li	a5,1
80003c68:	00f12e23          	sw	a5,28(sp)
80003c6c:	01c12783          	lw	a5,28(sp)
80003c70:	00078513          	mv	a0,a5
80003c74:	02c12083          	lw	ra,44(sp)
80003c78:	03010113          	addi	sp,sp,48
80003c7c:	00008067          	ret

80003c80 <vTaskSwitchContext>:
80003c80:	fe010113          	addi	sp,sp,-32
80003c84:	00112e23          	sw	ra,28(sp)
80003c88:	0004d797          	auipc	a5,0x4d
80003c8c:	b7078793          	addi	a5,a5,-1168 # 800507f8 <uxSchedulerSuspended>
80003c90:	0007a783          	lw	a5,0(a5)
80003c94:	00078c63          	beqz	a5,80003cac <vTaskSwitchContext+0x2c>
80003c98:	0004d797          	auipc	a5,0x4d
80003c9c:	b4c78793          	addi	a5,a5,-1204 # 800507e4 <xYieldPending>
80003ca0:	00100713          	li	a4,1
80003ca4:	00e7a023          	sw	a4,0(a5)
80003ca8:	1840006f          	j	80003e2c <vTaskSwitchContext+0x1ac>
80003cac:	0004d797          	auipc	a5,0x4d
80003cb0:	b3878793          	addi	a5,a5,-1224 # 800507e4 <xYieldPending>
80003cb4:	0007a023          	sw	zero,0(a5)
80003cb8:	0004c797          	auipc	a5,0x4c
80003cbc:	7c878793          	addi	a5,a5,1992 # 80050480 <pxCurrentTCB>
80003cc0:	0007a783          	lw	a5,0(a5)
80003cc4:	0307a783          	lw	a5,48(a5)
80003cc8:	00f12423          	sw	a5,8(sp)
80003ccc:	a5a5a7b7          	lui	a5,0xa5a5a
80003cd0:	5a578793          	addi	a5,a5,1445 # a5a5a5a5 <__stack+0x258e0c31>
80003cd4:	00f12223          	sw	a5,4(sp)
80003cd8:	00812783          	lw	a5,8(sp)
80003cdc:	0007a783          	lw	a5,0(a5)
80003ce0:	00412703          	lw	a4,4(sp)
80003ce4:	04f71063          	bne	a4,a5,80003d24 <vTaskSwitchContext+0xa4>
80003ce8:	00812783          	lw	a5,8(sp)
80003cec:	00478793          	addi	a5,a5,4
80003cf0:	0007a783          	lw	a5,0(a5)
80003cf4:	00412703          	lw	a4,4(sp)
80003cf8:	02f71663          	bne	a4,a5,80003d24 <vTaskSwitchContext+0xa4>
80003cfc:	00812783          	lw	a5,8(sp)
80003d00:	00878793          	addi	a5,a5,8
80003d04:	0007a783          	lw	a5,0(a5)
80003d08:	00412703          	lw	a4,4(sp)
80003d0c:	00f71c63          	bne	a4,a5,80003d24 <vTaskSwitchContext+0xa4>
80003d10:	00812783          	lw	a5,8(sp)
80003d14:	00c78793          	addi	a5,a5,12
80003d18:	0007a783          	lw	a5,0(a5)
80003d1c:	00412703          	lw	a4,4(sp)
80003d20:	02f70663          	beq	a4,a5,80003d4c <vTaskSwitchContext+0xcc>
80003d24:	0004c797          	auipc	a5,0x4c
80003d28:	75c78793          	addi	a5,a5,1884 # 80050480 <pxCurrentTCB>
80003d2c:	0007a703          	lw	a4,0(a5)
80003d30:	0004c797          	auipc	a5,0x4c
80003d34:	75078793          	addi	a5,a5,1872 # 80050480 <pxCurrentTCB>
80003d38:	0007a783          	lw	a5,0(a5)
80003d3c:	03478793          	addi	a5,a5,52
80003d40:	00078593          	mv	a1,a5
80003d44:	00070513          	mv	a0,a4
80003d48:	164040ef          	jal	ra,80007eac <vApplicationStackOverflowHook>
80003d4c:	0004d797          	auipc	a5,0x4d
80003d50:	a8c78793          	addi	a5,a5,-1396 # 800507d8 <uxTopReadyPriority>
80003d54:	0007a783          	lw	a5,0(a5)
80003d58:	00f12623          	sw	a5,12(sp)
80003d5c:	0200006f          	j	80003d7c <vTaskSwitchContext+0xfc>
80003d60:	00c12783          	lw	a5,12(sp)
80003d64:	00079663          	bnez	a5,80003d70 <vTaskSwitchContext+0xf0>
80003d68:	30047073          	csrci	mstatus,8
80003d6c:	0000006f          	j	80003d6c <vTaskSwitchContext+0xec>
80003d70:	00c12783          	lw	a5,12(sp)
80003d74:	fff78793          	addi	a5,a5,-1
80003d78:	00f12623          	sw	a5,12(sp)
80003d7c:	0004d697          	auipc	a3,0x4d
80003d80:	98068693          	addi	a3,a3,-1664 # 800506fc <pxReadyTasksLists>
80003d84:	00c12703          	lw	a4,12(sp)
80003d88:	00070793          	mv	a5,a4
80003d8c:	00279793          	slli	a5,a5,0x2
80003d90:	00e787b3          	add	a5,a5,a4
80003d94:	00279793          	slli	a5,a5,0x2
80003d98:	00f687b3          	add	a5,a3,a5
80003d9c:	0007a783          	lw	a5,0(a5)
80003da0:	fc0780e3          	beqz	a5,80003d60 <vTaskSwitchContext+0xe0>
80003da4:	00c12703          	lw	a4,12(sp)
80003da8:	00070793          	mv	a5,a4
80003dac:	00279793          	slli	a5,a5,0x2
80003db0:	00e787b3          	add	a5,a5,a4
80003db4:	00279793          	slli	a5,a5,0x2
80003db8:	0004d717          	auipc	a4,0x4d
80003dbc:	94470713          	addi	a4,a4,-1724 # 800506fc <pxReadyTasksLists>
80003dc0:	00e787b3          	add	a5,a5,a4
80003dc4:	00f12023          	sw	a5,0(sp)
80003dc8:	00012783          	lw	a5,0(sp)
80003dcc:	0047a783          	lw	a5,4(a5)
80003dd0:	0047a703          	lw	a4,4(a5)
80003dd4:	00012783          	lw	a5,0(sp)
80003dd8:	00e7a223          	sw	a4,4(a5)
80003ddc:	00012783          	lw	a5,0(sp)
80003de0:	0047a703          	lw	a4,4(a5)
80003de4:	00012783          	lw	a5,0(sp)
80003de8:	00878793          	addi	a5,a5,8
80003dec:	00f71c63          	bne	a4,a5,80003e04 <vTaskSwitchContext+0x184>
80003df0:	00012783          	lw	a5,0(sp)
80003df4:	0047a783          	lw	a5,4(a5)
80003df8:	0047a703          	lw	a4,4(a5)
80003dfc:	00012783          	lw	a5,0(sp)
80003e00:	00e7a223          	sw	a4,4(a5)
80003e04:	00012783          	lw	a5,0(sp)
80003e08:	0047a783          	lw	a5,4(a5)
80003e0c:	00c7a703          	lw	a4,12(a5)
80003e10:	0004c797          	auipc	a5,0x4c
80003e14:	67078793          	addi	a5,a5,1648 # 80050480 <pxCurrentTCB>
80003e18:	00e7a023          	sw	a4,0(a5)
80003e1c:	0004d797          	auipc	a5,0x4d
80003e20:	9bc78793          	addi	a5,a5,-1604 # 800507d8 <uxTopReadyPriority>
80003e24:	00c12703          	lw	a4,12(sp)
80003e28:	00e7a023          	sw	a4,0(a5)
80003e2c:	00000013          	nop
80003e30:	01c12083          	lw	ra,28(sp)
80003e34:	02010113          	addi	sp,sp,32
80003e38:	00008067          	ret

80003e3c <vTaskPlaceOnEventList>:
80003e3c:	fe010113          	addi	sp,sp,-32
80003e40:	00112e23          	sw	ra,28(sp)
80003e44:	00a12623          	sw	a0,12(sp)
80003e48:	00b12423          	sw	a1,8(sp)
80003e4c:	00c12783          	lw	a5,12(sp)
80003e50:	00079663          	bnez	a5,80003e5c <vTaskPlaceOnEventList+0x20>
80003e54:	30047073          	csrci	mstatus,8
80003e58:	0000006f          	j	80003e58 <vTaskPlaceOnEventList+0x1c>
80003e5c:	0004c797          	auipc	a5,0x4c
80003e60:	62478793          	addi	a5,a5,1572 # 80050480 <pxCurrentTCB>
80003e64:	0007a783          	lw	a5,0(a5)
80003e68:	01878793          	addi	a5,a5,24
80003e6c:	00078593          	mv	a1,a5
80003e70:	00c12503          	lw	a0,12(sp)
80003e74:	bb9fc0ef          	jal	ra,80000a2c <vListInsert>
80003e78:	00100593          	li	a1,1
80003e7c:	00812503          	lw	a0,8(sp)
80003e80:	089010ef          	jal	ra,80005708 <prvAddCurrentTaskToDelayedList>
80003e84:	00000013          	nop
80003e88:	01c12083          	lw	ra,28(sp)
80003e8c:	02010113          	addi	sp,sp,32
80003e90:	00008067          	ret

80003e94 <vTaskPlaceOnUnorderedEventList>:
80003e94:	fe010113          	addi	sp,sp,-32
80003e98:	00112e23          	sw	ra,28(sp)
80003e9c:	00a12623          	sw	a0,12(sp)
80003ea0:	00b12423          	sw	a1,8(sp)
80003ea4:	00c12223          	sw	a2,4(sp)
80003ea8:	00c12783          	lw	a5,12(sp)
80003eac:	00079663          	bnez	a5,80003eb8 <vTaskPlaceOnUnorderedEventList+0x24>
80003eb0:	30047073          	csrci	mstatus,8
80003eb4:	0000006f          	j	80003eb4 <vTaskPlaceOnUnorderedEventList+0x20>
80003eb8:	0004d797          	auipc	a5,0x4d
80003ebc:	94078793          	addi	a5,a5,-1728 # 800507f8 <uxSchedulerSuspended>
80003ec0:	0007a783          	lw	a5,0(a5)
80003ec4:	00079663          	bnez	a5,80003ed0 <vTaskPlaceOnUnorderedEventList+0x3c>
80003ec8:	30047073          	csrci	mstatus,8
80003ecc:	0000006f          	j	80003ecc <vTaskPlaceOnUnorderedEventList+0x38>
80003ed0:	0004c797          	auipc	a5,0x4c
80003ed4:	5b078793          	addi	a5,a5,1456 # 80050480 <pxCurrentTCB>
80003ed8:	0007a783          	lw	a5,0(a5)
80003edc:	00812683          	lw	a3,8(sp)
80003ee0:	80000737          	lui	a4,0x80000
80003ee4:	00e6e733          	or	a4,a3,a4
80003ee8:	00e7ac23          	sw	a4,24(a5)
80003eec:	0004c797          	auipc	a5,0x4c
80003ef0:	59478793          	addi	a5,a5,1428 # 80050480 <pxCurrentTCB>
80003ef4:	0007a783          	lw	a5,0(a5)
80003ef8:	01878793          	addi	a5,a5,24
80003efc:	00078593          	mv	a1,a5
80003f00:	00c12503          	lw	a0,12(sp)
80003f04:	aadfc0ef          	jal	ra,800009b0 <vListInsertEnd>
80003f08:	00100593          	li	a1,1
80003f0c:	00412503          	lw	a0,4(sp)
80003f10:	7f8010ef          	jal	ra,80005708 <prvAddCurrentTaskToDelayedList>
80003f14:	00000013          	nop
80003f18:	01c12083          	lw	ra,28(sp)
80003f1c:	02010113          	addi	sp,sp,32
80003f20:	00008067          	ret

80003f24 <vTaskPlaceOnEventListRestricted>:
80003f24:	fe010113          	addi	sp,sp,-32
80003f28:	00112e23          	sw	ra,28(sp)
80003f2c:	00a12623          	sw	a0,12(sp)
80003f30:	00b12423          	sw	a1,8(sp)
80003f34:	00c12223          	sw	a2,4(sp)
80003f38:	00c12783          	lw	a5,12(sp)
80003f3c:	00079663          	bnez	a5,80003f48 <vTaskPlaceOnEventListRestricted+0x24>
80003f40:	30047073          	csrci	mstatus,8
80003f44:	0000006f          	j	80003f44 <vTaskPlaceOnEventListRestricted+0x20>
80003f48:	0004c797          	auipc	a5,0x4c
80003f4c:	53878793          	addi	a5,a5,1336 # 80050480 <pxCurrentTCB>
80003f50:	0007a783          	lw	a5,0(a5)
80003f54:	01878793          	addi	a5,a5,24
80003f58:	00078593          	mv	a1,a5
80003f5c:	00c12503          	lw	a0,12(sp)
80003f60:	a51fc0ef          	jal	ra,800009b0 <vListInsertEnd>
80003f64:	00412783          	lw	a5,4(sp)
80003f68:	00078663          	beqz	a5,80003f74 <vTaskPlaceOnEventListRestricted+0x50>
80003f6c:	fff00793          	li	a5,-1
80003f70:	00f12423          	sw	a5,8(sp)
80003f74:	00412583          	lw	a1,4(sp)
80003f78:	00812503          	lw	a0,8(sp)
80003f7c:	78c010ef          	jal	ra,80005708 <prvAddCurrentTaskToDelayedList>
80003f80:	00000013          	nop
80003f84:	01c12083          	lw	ra,28(sp)
80003f88:	02010113          	addi	sp,sp,32
80003f8c:	00008067          	ret

80003f90 <xTaskRemoveFromEventList>:
80003f90:	fd010113          	addi	sp,sp,-48
80003f94:	02112623          	sw	ra,44(sp)
80003f98:	00a12623          	sw	a0,12(sp)
80003f9c:	00c12783          	lw	a5,12(sp)
80003fa0:	00c7a783          	lw	a5,12(a5)
80003fa4:	00c7a783          	lw	a5,12(a5)
80003fa8:	00f12c23          	sw	a5,24(sp)
80003fac:	01812783          	lw	a5,24(sp)
80003fb0:	00079663          	bnez	a5,80003fbc <xTaskRemoveFromEventList+0x2c>
80003fb4:	30047073          	csrci	mstatus,8
80003fb8:	0000006f          	j	80003fb8 <xTaskRemoveFromEventList+0x28>
80003fbc:	01812783          	lw	a5,24(sp)
80003fc0:	01878793          	addi	a5,a5,24
80003fc4:	00078513          	mv	a0,a5
80003fc8:	b2dfc0ef          	jal	ra,80000af4 <uxListRemove>
80003fcc:	0004d797          	auipc	a5,0x4d
80003fd0:	82c78793          	addi	a5,a5,-2004 # 800507f8 <uxSchedulerSuspended>
80003fd4:	0007a783          	lw	a5,0(a5)
80003fd8:	06079e63          	bnez	a5,80004054 <xTaskRemoveFromEventList+0xc4>
80003fdc:	01812783          	lw	a5,24(sp)
80003fe0:	00478793          	addi	a5,a5,4
80003fe4:	00078513          	mv	a0,a5
80003fe8:	b0dfc0ef          	jal	ra,80000af4 <uxListRemove>
80003fec:	01812783          	lw	a5,24(sp)
80003ff0:	02c7a703          	lw	a4,44(a5)
80003ff4:	0004c797          	auipc	a5,0x4c
80003ff8:	7e478793          	addi	a5,a5,2020 # 800507d8 <uxTopReadyPriority>
80003ffc:	0007a783          	lw	a5,0(a5)
80004000:	00e7fc63          	bgeu	a5,a4,80004018 <xTaskRemoveFromEventList+0x88>
80004004:	01812783          	lw	a5,24(sp)
80004008:	02c7a703          	lw	a4,44(a5)
8000400c:	0004c797          	auipc	a5,0x4c
80004010:	7cc78793          	addi	a5,a5,1996 # 800507d8 <uxTopReadyPriority>
80004014:	00e7a023          	sw	a4,0(a5)
80004018:	01812783          	lw	a5,24(sp)
8000401c:	02c7a703          	lw	a4,44(a5)
80004020:	00070793          	mv	a5,a4
80004024:	00279793          	slli	a5,a5,0x2
80004028:	00e787b3          	add	a5,a5,a4
8000402c:	00279793          	slli	a5,a5,0x2
80004030:	0004c717          	auipc	a4,0x4c
80004034:	6cc70713          	addi	a4,a4,1740 # 800506fc <pxReadyTasksLists>
80004038:	00e78733          	add	a4,a5,a4
8000403c:	01812783          	lw	a5,24(sp)
80004040:	00478793          	addi	a5,a5,4
80004044:	00078593          	mv	a1,a5
80004048:	00070513          	mv	a0,a4
8000404c:	965fc0ef          	jal	ra,800009b0 <vListInsertEnd>
80004050:	01c0006f          	j	8000406c <xTaskRemoveFromEventList+0xdc>
80004054:	01812783          	lw	a5,24(sp)
80004058:	01878793          	addi	a5,a5,24
8000405c:	00078593          	mv	a1,a5
80004060:	0004c517          	auipc	a0,0x4c
80004064:	73050513          	addi	a0,a0,1840 # 80050790 <xPendingReadyList>
80004068:	949fc0ef          	jal	ra,800009b0 <vListInsertEnd>
8000406c:	01812783          	lw	a5,24(sp)
80004070:	02c7a703          	lw	a4,44(a5)
80004074:	0004c797          	auipc	a5,0x4c
80004078:	40c78793          	addi	a5,a5,1036 # 80050480 <pxCurrentTCB>
8000407c:	0007a783          	lw	a5,0(a5)
80004080:	02c7a783          	lw	a5,44(a5)
80004084:	02e7f063          	bgeu	a5,a4,800040a4 <xTaskRemoveFromEventList+0x114>
80004088:	00100793          	li	a5,1
8000408c:	00f12e23          	sw	a5,28(sp)
80004090:	0004c797          	auipc	a5,0x4c
80004094:	75478793          	addi	a5,a5,1876 # 800507e4 <xYieldPending>
80004098:	00100713          	li	a4,1
8000409c:	00e7a023          	sw	a4,0(a5)
800040a0:	0080006f          	j	800040a8 <xTaskRemoveFromEventList+0x118>
800040a4:	00012e23          	sw	zero,28(sp)
800040a8:	01c12783          	lw	a5,28(sp)
800040ac:	00078513          	mv	a0,a5
800040b0:	02c12083          	lw	ra,44(sp)
800040b4:	03010113          	addi	sp,sp,48
800040b8:	00008067          	ret

800040bc <vTaskRemoveFromUnorderedEventList>:
800040bc:	fd010113          	addi	sp,sp,-48
800040c0:	02112623          	sw	ra,44(sp)
800040c4:	00a12623          	sw	a0,12(sp)
800040c8:	00b12423          	sw	a1,8(sp)
800040cc:	0004c797          	auipc	a5,0x4c
800040d0:	72c78793          	addi	a5,a5,1836 # 800507f8 <uxSchedulerSuspended>
800040d4:	0007a783          	lw	a5,0(a5)
800040d8:	00079663          	bnez	a5,800040e4 <vTaskRemoveFromUnorderedEventList+0x28>
800040dc:	30047073          	csrci	mstatus,8
800040e0:	0000006f          	j	800040e0 <vTaskRemoveFromUnorderedEventList+0x24>
800040e4:	00812703          	lw	a4,8(sp)
800040e8:	800007b7          	lui	a5,0x80000
800040ec:	00f76733          	or	a4,a4,a5
800040f0:	00c12783          	lw	a5,12(sp)
800040f4:	00e7a023          	sw	a4,0(a5) # 80000000 <__stack+0xffe8668c>
800040f8:	00c12783          	lw	a5,12(sp)
800040fc:	00c7a783          	lw	a5,12(a5)
80004100:	00f12e23          	sw	a5,28(sp)
80004104:	01c12783          	lw	a5,28(sp)
80004108:	00079663          	bnez	a5,80004114 <vTaskRemoveFromUnorderedEventList+0x58>
8000410c:	30047073          	csrci	mstatus,8
80004110:	0000006f          	j	80004110 <vTaskRemoveFromUnorderedEventList+0x54>
80004114:	00c12503          	lw	a0,12(sp)
80004118:	9ddfc0ef          	jal	ra,80000af4 <uxListRemove>
8000411c:	01c12783          	lw	a5,28(sp)
80004120:	00478793          	addi	a5,a5,4
80004124:	00078513          	mv	a0,a5
80004128:	9cdfc0ef          	jal	ra,80000af4 <uxListRemove>
8000412c:	01c12783          	lw	a5,28(sp)
80004130:	02c7a703          	lw	a4,44(a5)
80004134:	0004c797          	auipc	a5,0x4c
80004138:	6a478793          	addi	a5,a5,1700 # 800507d8 <uxTopReadyPriority>
8000413c:	0007a783          	lw	a5,0(a5)
80004140:	00e7fc63          	bgeu	a5,a4,80004158 <vTaskRemoveFromUnorderedEventList+0x9c>
80004144:	01c12783          	lw	a5,28(sp)
80004148:	02c7a703          	lw	a4,44(a5)
8000414c:	0004c797          	auipc	a5,0x4c
80004150:	68c78793          	addi	a5,a5,1676 # 800507d8 <uxTopReadyPriority>
80004154:	00e7a023          	sw	a4,0(a5)
80004158:	01c12783          	lw	a5,28(sp)
8000415c:	02c7a703          	lw	a4,44(a5)
80004160:	00070793          	mv	a5,a4
80004164:	00279793          	slli	a5,a5,0x2
80004168:	00e787b3          	add	a5,a5,a4
8000416c:	00279793          	slli	a5,a5,0x2
80004170:	0004c717          	auipc	a4,0x4c
80004174:	58c70713          	addi	a4,a4,1420 # 800506fc <pxReadyTasksLists>
80004178:	00e78733          	add	a4,a5,a4
8000417c:	01c12783          	lw	a5,28(sp)
80004180:	00478793          	addi	a5,a5,4
80004184:	00078593          	mv	a1,a5
80004188:	00070513          	mv	a0,a4
8000418c:	825fc0ef          	jal	ra,800009b0 <vListInsertEnd>
80004190:	01c12783          	lw	a5,28(sp)
80004194:	02c7a703          	lw	a4,44(a5)
80004198:	0004c797          	auipc	a5,0x4c
8000419c:	2e878793          	addi	a5,a5,744 # 80050480 <pxCurrentTCB>
800041a0:	0007a783          	lw	a5,0(a5)
800041a4:	02c7a783          	lw	a5,44(a5)
800041a8:	00e7fa63          	bgeu	a5,a4,800041bc <vTaskRemoveFromUnorderedEventList+0x100>
800041ac:	0004c797          	auipc	a5,0x4c
800041b0:	63878793          	addi	a5,a5,1592 # 800507e4 <xYieldPending>
800041b4:	00100713          	li	a4,1
800041b8:	00e7a023          	sw	a4,0(a5)
800041bc:	00000013          	nop
800041c0:	02c12083          	lw	ra,44(sp)
800041c4:	03010113          	addi	sp,sp,48
800041c8:	00008067          	ret

800041cc <vTaskSetTimeOutState>:
800041cc:	fe010113          	addi	sp,sp,-32
800041d0:	00112e23          	sw	ra,28(sp)
800041d4:	00a12623          	sw	a0,12(sp)
800041d8:	00c12783          	lw	a5,12(sp)
800041dc:	00079663          	bnez	a5,800041e8 <vTaskSetTimeOutState+0x1c>
800041e0:	30047073          	csrci	mstatus,8
800041e4:	0000006f          	j	800041e4 <vTaskSetTimeOutState+0x18>
800041e8:	3fd000ef          	jal	ra,80004de4 <vTaskEnterCritical>
800041ec:	0004c797          	auipc	a5,0x4c
800041f0:	5fc78793          	addi	a5,a5,1532 # 800507e8 <xNumOfOverflows>
800041f4:	0007a703          	lw	a4,0(a5)
800041f8:	00c12783          	lw	a5,12(sp)
800041fc:	00e7a023          	sw	a4,0(a5)
80004200:	0004c797          	auipc	a5,0x4c
80004204:	5d478793          	addi	a5,a5,1492 # 800507d4 <xTickCount>
80004208:	0007a703          	lw	a4,0(a5)
8000420c:	00c12783          	lw	a5,12(sp)
80004210:	00e7a223          	sw	a4,4(a5)
80004214:	411000ef          	jal	ra,80004e24 <vTaskExitCritical>
80004218:	00000013          	nop
8000421c:	01c12083          	lw	ra,28(sp)
80004220:	02010113          	addi	sp,sp,32
80004224:	00008067          	ret

80004228 <vTaskInternalSetTimeOutState>:
80004228:	ff010113          	addi	sp,sp,-16
8000422c:	00a12623          	sw	a0,12(sp)
80004230:	0004c797          	auipc	a5,0x4c
80004234:	5b878793          	addi	a5,a5,1464 # 800507e8 <xNumOfOverflows>
80004238:	0007a703          	lw	a4,0(a5)
8000423c:	00c12783          	lw	a5,12(sp)
80004240:	00e7a023          	sw	a4,0(a5)
80004244:	0004c797          	auipc	a5,0x4c
80004248:	59078793          	addi	a5,a5,1424 # 800507d4 <xTickCount>
8000424c:	0007a703          	lw	a4,0(a5)
80004250:	00c12783          	lw	a5,12(sp)
80004254:	00e7a223          	sw	a4,4(a5)
80004258:	00000013          	nop
8000425c:	01010113          	addi	sp,sp,16
80004260:	00008067          	ret

80004264 <xTaskCheckForTimeOut>:
80004264:	fd010113          	addi	sp,sp,-48
80004268:	02112623          	sw	ra,44(sp)
8000426c:	00a12623          	sw	a0,12(sp)
80004270:	00b12423          	sw	a1,8(sp)
80004274:	00c12783          	lw	a5,12(sp)
80004278:	00079663          	bnez	a5,80004284 <xTaskCheckForTimeOut+0x20>
8000427c:	30047073          	csrci	mstatus,8
80004280:	0000006f          	j	80004280 <xTaskCheckForTimeOut+0x1c>
80004284:	00812783          	lw	a5,8(sp)
80004288:	00079663          	bnez	a5,80004294 <xTaskCheckForTimeOut+0x30>
8000428c:	30047073          	csrci	mstatus,8
80004290:	0000006f          	j	80004290 <xTaskCheckForTimeOut+0x2c>
80004294:	351000ef          	jal	ra,80004de4 <vTaskEnterCritical>
80004298:	0004c797          	auipc	a5,0x4c
8000429c:	53c78793          	addi	a5,a5,1340 # 800507d4 <xTickCount>
800042a0:	0007a783          	lw	a5,0(a5)
800042a4:	00f12c23          	sw	a5,24(sp)
800042a8:	00c12783          	lw	a5,12(sp)
800042ac:	0047a783          	lw	a5,4(a5)
800042b0:	01812703          	lw	a4,24(sp)
800042b4:	40f707b3          	sub	a5,a4,a5
800042b8:	00f12a23          	sw	a5,20(sp)
800042bc:	00812783          	lw	a5,8(sp)
800042c0:	0007a703          	lw	a4,0(a5)
800042c4:	fff00793          	li	a5,-1
800042c8:	00f71663          	bne	a4,a5,800042d4 <xTaskCheckForTimeOut+0x70>
800042cc:	00012e23          	sw	zero,28(sp)
800042d0:	0800006f          	j	80004350 <xTaskCheckForTimeOut+0xec>
800042d4:	00c12783          	lw	a5,12(sp)
800042d8:	0007a703          	lw	a4,0(a5)
800042dc:	0004c797          	auipc	a5,0x4c
800042e0:	50c78793          	addi	a5,a5,1292 # 800507e8 <xNumOfOverflows>
800042e4:	0007a783          	lw	a5,0(a5)
800042e8:	02f70063          	beq	a4,a5,80004308 <xTaskCheckForTimeOut+0xa4>
800042ec:	00c12783          	lw	a5,12(sp)
800042f0:	0047a783          	lw	a5,4(a5)
800042f4:	01812703          	lw	a4,24(sp)
800042f8:	00f76863          	bltu	a4,a5,80004308 <xTaskCheckForTimeOut+0xa4>
800042fc:	00100793          	li	a5,1
80004300:	00f12e23          	sw	a5,28(sp)
80004304:	04c0006f          	j	80004350 <xTaskCheckForTimeOut+0xec>
80004308:	00812783          	lw	a5,8(sp)
8000430c:	0007a783          	lw	a5,0(a5)
80004310:	01412703          	lw	a4,20(sp)
80004314:	02f77663          	bgeu	a4,a5,80004340 <xTaskCheckForTimeOut+0xdc>
80004318:	00812783          	lw	a5,8(sp)
8000431c:	0007a703          	lw	a4,0(a5)
80004320:	01412783          	lw	a5,20(sp)
80004324:	40f70733          	sub	a4,a4,a5
80004328:	00812783          	lw	a5,8(sp)
8000432c:	00e7a023          	sw	a4,0(a5)
80004330:	00c12503          	lw	a0,12(sp)
80004334:	ef5ff0ef          	jal	ra,80004228 <vTaskInternalSetTimeOutState>
80004338:	00012e23          	sw	zero,28(sp)
8000433c:	0140006f          	j	80004350 <xTaskCheckForTimeOut+0xec>
80004340:	00812783          	lw	a5,8(sp)
80004344:	0007a023          	sw	zero,0(a5)
80004348:	00100793          	li	a5,1
8000434c:	00f12e23          	sw	a5,28(sp)
80004350:	2d5000ef          	jal	ra,80004e24 <vTaskExitCritical>
80004354:	01c12783          	lw	a5,28(sp)
80004358:	00078513          	mv	a0,a5
8000435c:	02c12083          	lw	ra,44(sp)
80004360:	03010113          	addi	sp,sp,48
80004364:	00008067          	ret

80004368 <vTaskMissedYield>:
80004368:	0004c797          	auipc	a5,0x4c
8000436c:	47c78793          	addi	a5,a5,1148 # 800507e4 <xYieldPending>
80004370:	00100713          	li	a4,1
80004374:	00e7a023          	sw	a4,0(a5)
80004378:	00000013          	nop
8000437c:	00008067          	ret

80004380 <uxTaskGetTaskNumber>:
80004380:	fe010113          	addi	sp,sp,-32
80004384:	00a12623          	sw	a0,12(sp)
80004388:	00c12783          	lw	a5,12(sp)
8000438c:	00078e63          	beqz	a5,800043a8 <uxTaskGetTaskNumber+0x28>
80004390:	00c12783          	lw	a5,12(sp)
80004394:	00f12c23          	sw	a5,24(sp)
80004398:	01812783          	lw	a5,24(sp)
8000439c:	04c7a783          	lw	a5,76(a5)
800043a0:	00f12e23          	sw	a5,28(sp)
800043a4:	0080006f          	j	800043ac <uxTaskGetTaskNumber+0x2c>
800043a8:	00012e23          	sw	zero,28(sp)
800043ac:	01c12783          	lw	a5,28(sp)
800043b0:	00078513          	mv	a0,a5
800043b4:	02010113          	addi	sp,sp,32
800043b8:	00008067          	ret

800043bc <vTaskSetTaskNumber>:
800043bc:	fe010113          	addi	sp,sp,-32
800043c0:	00a12623          	sw	a0,12(sp)
800043c4:	00b12423          	sw	a1,8(sp)
800043c8:	00c12783          	lw	a5,12(sp)
800043cc:	00078c63          	beqz	a5,800043e4 <vTaskSetTaskNumber+0x28>
800043d0:	00c12783          	lw	a5,12(sp)
800043d4:	00f12e23          	sw	a5,28(sp)
800043d8:	01c12783          	lw	a5,28(sp)
800043dc:	00812703          	lw	a4,8(sp)
800043e0:	04e7a623          	sw	a4,76(a5)
800043e4:	00000013          	nop
800043e8:	02010113          	addi	sp,sp,32
800043ec:	00008067          	ret

800043f0 <prvIdleTask>:
800043f0:	fe010113          	addi	sp,sp,-32
800043f4:	00112e23          	sw	ra,28(sp)
800043f8:	00a12623          	sw	a0,12(sp)
800043fc:	0e4000ef          	jal	ra,800044e0 <prvCheckTasksWaitingTermination>
80004400:	0004c797          	auipc	a5,0x4c
80004404:	2fc78793          	addi	a5,a5,764 # 800506fc <pxReadyTasksLists>
80004408:	0007a703          	lw	a4,0(a5)
8000440c:	00100793          	li	a5,1
80004410:	fee7f6e3          	bgeu	a5,a4,800043fc <prvIdleTask+0xc>
80004414:	a40fc0ef          	jal	ra,80000654 <vPortYield>
80004418:	fe5ff06f          	j	800043fc <prvIdleTask+0xc>

8000441c <prvInitialiseTaskLists>:
8000441c:	fe010113          	addi	sp,sp,-32
80004420:	00112e23          	sw	ra,28(sp)
80004424:	00012623          	sw	zero,12(sp)
80004428:	0380006f          	j	80004460 <prvInitialiseTaskLists+0x44>
8000442c:	00c12703          	lw	a4,12(sp)
80004430:	00070793          	mv	a5,a4
80004434:	00279793          	slli	a5,a5,0x2
80004438:	00e787b3          	add	a5,a5,a4
8000443c:	00279793          	slli	a5,a5,0x2
80004440:	0004c717          	auipc	a4,0x4c
80004444:	2bc70713          	addi	a4,a4,700 # 800506fc <pxReadyTasksLists>
80004448:	00e787b3          	add	a5,a5,a4
8000444c:	00078513          	mv	a0,a5
80004450:	cecfc0ef          	jal	ra,8000093c <vListInitialise>
80004454:	00c12783          	lw	a5,12(sp)
80004458:	00178793          	addi	a5,a5,1
8000445c:	00f12623          	sw	a5,12(sp)
80004460:	00c12703          	lw	a4,12(sp)
80004464:	00400793          	li	a5,4
80004468:	fce7f2e3          	bgeu	a5,a4,8000442c <prvInitialiseTaskLists+0x10>
8000446c:	0004c517          	auipc	a0,0x4c
80004470:	2f450513          	addi	a0,a0,756 # 80050760 <xDelayedTaskList1>
80004474:	cc8fc0ef          	jal	ra,8000093c <vListInitialise>
80004478:	0004c517          	auipc	a0,0x4c
8000447c:	2fc50513          	addi	a0,a0,764 # 80050774 <xDelayedTaskList2>
80004480:	cbcfc0ef          	jal	ra,8000093c <vListInitialise>
80004484:	0004c517          	auipc	a0,0x4c
80004488:	30c50513          	addi	a0,a0,780 # 80050790 <xPendingReadyList>
8000448c:	cb0fc0ef          	jal	ra,8000093c <vListInitialise>
80004490:	0004c517          	auipc	a0,0x4c
80004494:	31450513          	addi	a0,a0,788 # 800507a4 <xTasksWaitingTermination>
80004498:	ca4fc0ef          	jal	ra,8000093c <vListInitialise>
8000449c:	0004c517          	auipc	a0,0x4c
800044a0:	32050513          	addi	a0,a0,800 # 800507bc <xSuspendedTaskList>
800044a4:	c98fc0ef          	jal	ra,8000093c <vListInitialise>
800044a8:	0004c797          	auipc	a5,0x4c
800044ac:	2e078793          	addi	a5,a5,736 # 80050788 <pxDelayedTaskList>
800044b0:	0004c717          	auipc	a4,0x4c
800044b4:	2b070713          	addi	a4,a4,688 # 80050760 <xDelayedTaskList1>
800044b8:	00e7a023          	sw	a4,0(a5)
800044bc:	0004c797          	auipc	a5,0x4c
800044c0:	2d078793          	addi	a5,a5,720 # 8005078c <pxOverflowDelayedTaskList>
800044c4:	0004c717          	auipc	a4,0x4c
800044c8:	2b070713          	addi	a4,a4,688 # 80050774 <xDelayedTaskList2>
800044cc:	00e7a023          	sw	a4,0(a5)
800044d0:	00000013          	nop
800044d4:	01c12083          	lw	ra,28(sp)
800044d8:	02010113          	addi	sp,sp,32
800044dc:	00008067          	ret

800044e0 <prvCheckTasksWaitingTermination>:
800044e0:	fe010113          	addi	sp,sp,-32
800044e4:	00112e23          	sw	ra,28(sp)
800044e8:	0700006f          	j	80004558 <prvCheckTasksWaitingTermination+0x78>
800044ec:	0f9000ef          	jal	ra,80004de4 <vTaskEnterCritical>
800044f0:	0004c797          	auipc	a5,0x4c
800044f4:	2b478793          	addi	a5,a5,692 # 800507a4 <xTasksWaitingTermination>
800044f8:	00c7a783          	lw	a5,12(a5)
800044fc:	00c7a783          	lw	a5,12(a5)
80004500:	00f12623          	sw	a5,12(sp)
80004504:	00c12783          	lw	a5,12(sp)
80004508:	00478793          	addi	a5,a5,4
8000450c:	00078513          	mv	a0,a5
80004510:	de4fc0ef          	jal	ra,80000af4 <uxListRemove>
80004514:	0004c797          	auipc	a5,0x4c
80004518:	2bc78793          	addi	a5,a5,700 # 800507d0 <uxCurrentNumberOfTasks>
8000451c:	0007a783          	lw	a5,0(a5)
80004520:	fff78713          	addi	a4,a5,-1
80004524:	0004c797          	auipc	a5,0x4c
80004528:	2ac78793          	addi	a5,a5,684 # 800507d0 <uxCurrentNumberOfTasks>
8000452c:	00e7a023          	sw	a4,0(a5)
80004530:	0004c797          	auipc	a5,0x4c
80004534:	28878793          	addi	a5,a5,648 # 800507b8 <uxDeletedTasksWaitingCleanUp>
80004538:	0007a783          	lw	a5,0(a5)
8000453c:	fff78713          	addi	a4,a5,-1
80004540:	0004c797          	auipc	a5,0x4c
80004544:	27878793          	addi	a5,a5,632 # 800507b8 <uxDeletedTasksWaitingCleanUp>
80004548:	00e7a023          	sw	a4,0(a5)
8000454c:	0d9000ef          	jal	ra,80004e24 <vTaskExitCritical>
80004550:	00c12503          	lw	a0,12(sp)
80004554:	30c000ef          	jal	ra,80004860 <prvDeleteTCB>
80004558:	0004c797          	auipc	a5,0x4c
8000455c:	26078793          	addi	a5,a5,608 # 800507b8 <uxDeletedTasksWaitingCleanUp>
80004560:	0007a783          	lw	a5,0(a5)
80004564:	f80794e3          	bnez	a5,800044ec <prvCheckTasksWaitingTermination+0xc>
80004568:	00000013          	nop
8000456c:	00000013          	nop
80004570:	01c12083          	lw	ra,28(sp)
80004574:	02010113          	addi	sp,sp,32
80004578:	00008067          	ret

8000457c <vTaskGetInfo>:
8000457c:	fd010113          	addi	sp,sp,-48
80004580:	02112623          	sw	ra,44(sp)
80004584:	00a12623          	sw	a0,12(sp)
80004588:	00b12423          	sw	a1,8(sp)
8000458c:	00c12223          	sw	a2,4(sp)
80004590:	00d12023          	sw	a3,0(sp)
80004594:	00c12783          	lw	a5,12(sp)
80004598:	00079a63          	bnez	a5,800045ac <vTaskGetInfo+0x30>
8000459c:	0004c797          	auipc	a5,0x4c
800045a0:	ee478793          	addi	a5,a5,-284 # 80050480 <pxCurrentTCB>
800045a4:	0007a783          	lw	a5,0(a5)
800045a8:	0080006f          	j	800045b0 <vTaskGetInfo+0x34>
800045ac:	00c12783          	lw	a5,12(sp)
800045b0:	00f12e23          	sw	a5,28(sp)
800045b4:	00812783          	lw	a5,8(sp)
800045b8:	01c12703          	lw	a4,28(sp)
800045bc:	00e7a023          	sw	a4,0(a5)
800045c0:	01c12783          	lw	a5,28(sp)
800045c4:	03478713          	addi	a4,a5,52
800045c8:	00812783          	lw	a5,8(sp)
800045cc:	00e7a223          	sw	a4,4(a5)
800045d0:	01c12783          	lw	a5,28(sp)
800045d4:	02c7a703          	lw	a4,44(a5)
800045d8:	00812783          	lw	a5,8(sp)
800045dc:	00e7a823          	sw	a4,16(a5)
800045e0:	01c12783          	lw	a5,28(sp)
800045e4:	0307a703          	lw	a4,48(a5)
800045e8:	00812783          	lw	a5,8(sp)
800045ec:	00e7ae23          	sw	a4,28(a5)
800045f0:	01c12783          	lw	a5,28(sp)
800045f4:	0487a703          	lw	a4,72(a5)
800045f8:	00812783          	lw	a5,8(sp)
800045fc:	00e7a423          	sw	a4,8(a5)
80004600:	01c12783          	lw	a5,28(sp)
80004604:	0507a703          	lw	a4,80(a5)
80004608:	00812783          	lw	a5,8(sp)
8000460c:	00e7aa23          	sw	a4,20(a5)
80004610:	00812783          	lw	a5,8(sp)
80004614:	0007ac23          	sw	zero,24(a5)
80004618:	00012703          	lw	a4,0(sp)
8000461c:	00500793          	li	a5,5
80004620:	06f70063          	beq	a4,a5,80004680 <vTaskGetInfo+0x104>
80004624:	0004c797          	auipc	a5,0x4c
80004628:	e5c78793          	addi	a5,a5,-420 # 80050480 <pxCurrentTCB>
8000462c:	0007a783          	lw	a5,0(a5)
80004630:	01c12703          	lw	a4,28(sp)
80004634:	00f71863          	bne	a4,a5,80004644 <vTaskGetInfo+0xc8>
80004638:	00812783          	lw	a5,8(sp)
8000463c:	0007a623          	sw	zero,12(a5)
80004640:	0540006f          	j	80004694 <vTaskGetInfo+0x118>
80004644:	00812783          	lw	a5,8(sp)
80004648:	00012703          	lw	a4,0(sp)
8000464c:	00e7a623          	sw	a4,12(a5)
80004650:	00012703          	lw	a4,0(sp)
80004654:	00300793          	li	a5,3
80004658:	02f71e63          	bne	a4,a5,80004694 <vTaskGetInfo+0x118>
8000465c:	ed1fe0ef          	jal	ra,8000352c <vTaskSuspendAll>
80004660:	01c12783          	lw	a5,28(sp)
80004664:	0287a783          	lw	a5,40(a5)
80004668:	00078863          	beqz	a5,80004678 <vTaskGetInfo+0xfc>
8000466c:	00812783          	lw	a5,8(sp)
80004670:	00200713          	li	a4,2
80004674:	00e7a623          	sw	a4,12(a5)
80004678:	ed9fe0ef          	jal	ra,80003550 <xTaskResumeAll>
8000467c:	0180006f          	j	80004694 <vTaskGetInfo+0x118>
80004680:	01c12503          	lw	a0,28(sp)
80004684:	e30fe0ef          	jal	ra,80002cb4 <eTaskGetState>
80004688:	00050713          	mv	a4,a0
8000468c:	00812783          	lw	a5,8(sp)
80004690:	00e7a623          	sw	a4,12(a5)
80004694:	00412783          	lw	a5,4(sp)
80004698:	02078463          	beqz	a5,800046c0 <vTaskGetInfo+0x144>
8000469c:	01c12783          	lw	a5,28(sp)
800046a0:	0307a783          	lw	a5,48(a5)
800046a4:	00078513          	mv	a0,a5
800046a8:	15c000ef          	jal	ra,80004804 <prvTaskCheckFreeStackSpace>
800046ac:	00050793          	mv	a5,a0
800046b0:	00078713          	mv	a4,a5
800046b4:	00812783          	lw	a5,8(sp)
800046b8:	02e79023          	sh	a4,32(a5)
800046bc:	00c0006f          	j	800046c8 <vTaskGetInfo+0x14c>
800046c0:	00812783          	lw	a5,8(sp)
800046c4:	02079023          	sh	zero,32(a5)
800046c8:	00000013          	nop
800046cc:	02c12083          	lw	ra,44(sp)
800046d0:	03010113          	addi	sp,sp,48
800046d4:	00008067          	ret

800046d8 <prvListTasksWithinSingleList>:
800046d8:	fc010113          	addi	sp,sp,-64
800046dc:	02112e23          	sw	ra,60(sp)
800046e0:	00a12623          	sw	a0,12(sp)
800046e4:	00b12423          	sw	a1,8(sp)
800046e8:	00c12223          	sw	a2,4(sp)
800046ec:	02012623          	sw	zero,44(sp)
800046f0:	00812783          	lw	a5,8(sp)
800046f4:	0007a783          	lw	a5,0(a5)
800046f8:	0e078c63          	beqz	a5,800047f0 <prvListTasksWithinSingleList+0x118>
800046fc:	00812783          	lw	a5,8(sp)
80004700:	02f12423          	sw	a5,40(sp)
80004704:	02812783          	lw	a5,40(sp)
80004708:	0047a783          	lw	a5,4(a5)
8000470c:	0047a703          	lw	a4,4(a5)
80004710:	02812783          	lw	a5,40(sp)
80004714:	00e7a223          	sw	a4,4(a5)
80004718:	02812783          	lw	a5,40(sp)
8000471c:	0047a703          	lw	a4,4(a5)
80004720:	02812783          	lw	a5,40(sp)
80004724:	00878793          	addi	a5,a5,8
80004728:	00f71c63          	bne	a4,a5,80004740 <prvListTasksWithinSingleList+0x68>
8000472c:	02812783          	lw	a5,40(sp)
80004730:	0047a783          	lw	a5,4(a5)
80004734:	0047a703          	lw	a4,4(a5)
80004738:	02812783          	lw	a5,40(sp)
8000473c:	00e7a223          	sw	a4,4(a5)
80004740:	02812783          	lw	a5,40(sp)
80004744:	0047a783          	lw	a5,4(a5)
80004748:	00c7a783          	lw	a5,12(a5)
8000474c:	02f12223          	sw	a5,36(sp)
80004750:	00812783          	lw	a5,8(sp)
80004754:	02f12023          	sw	a5,32(sp)
80004758:	02012783          	lw	a5,32(sp)
8000475c:	0047a783          	lw	a5,4(a5)
80004760:	0047a703          	lw	a4,4(a5)
80004764:	02012783          	lw	a5,32(sp)
80004768:	00e7a223          	sw	a4,4(a5)
8000476c:	02012783          	lw	a5,32(sp)
80004770:	0047a703          	lw	a4,4(a5)
80004774:	02012783          	lw	a5,32(sp)
80004778:	00878793          	addi	a5,a5,8
8000477c:	00f71c63          	bne	a4,a5,80004794 <prvListTasksWithinSingleList+0xbc>
80004780:	02012783          	lw	a5,32(sp)
80004784:	0047a783          	lw	a5,4(a5)
80004788:	0047a703          	lw	a4,4(a5)
8000478c:	02012783          	lw	a5,32(sp)
80004790:	00e7a223          	sw	a4,4(a5)
80004794:	02012783          	lw	a5,32(sp)
80004798:	0047a783          	lw	a5,4(a5)
8000479c:	00c7a783          	lw	a5,12(a5)
800047a0:	00f12e23          	sw	a5,28(sp)
800047a4:	02c12703          	lw	a4,44(sp)
800047a8:	00070793          	mv	a5,a4
800047ac:	00379793          	slli	a5,a5,0x3
800047b0:	00e787b3          	add	a5,a5,a4
800047b4:	00279793          	slli	a5,a5,0x2
800047b8:	00078713          	mv	a4,a5
800047bc:	00c12783          	lw	a5,12(sp)
800047c0:	00e787b3          	add	a5,a5,a4
800047c4:	00412683          	lw	a3,4(sp)
800047c8:	00100613          	li	a2,1
800047cc:	00078593          	mv	a1,a5
800047d0:	01c12503          	lw	a0,28(sp)
800047d4:	da9ff0ef          	jal	ra,8000457c <vTaskGetInfo>
800047d8:	02c12783          	lw	a5,44(sp)
800047dc:	00178793          	addi	a5,a5,1
800047e0:	02f12623          	sw	a5,44(sp)
800047e4:	01c12703          	lw	a4,28(sp)
800047e8:	02412783          	lw	a5,36(sp)
800047ec:	f6f712e3          	bne	a4,a5,80004750 <prvListTasksWithinSingleList+0x78>
800047f0:	02c12783          	lw	a5,44(sp)
800047f4:	00078513          	mv	a0,a5
800047f8:	03c12083          	lw	ra,60(sp)
800047fc:	04010113          	addi	sp,sp,64
80004800:	00008067          	ret

80004804 <prvTaskCheckFreeStackSpace>:
80004804:	fe010113          	addi	sp,sp,-32
80004808:	00a12623          	sw	a0,12(sp)
8000480c:	00012e23          	sw	zero,28(sp)
80004810:	01c0006f          	j	8000482c <prvTaskCheckFreeStackSpace+0x28>
80004814:	00c12783          	lw	a5,12(sp)
80004818:	00178793          	addi	a5,a5,1
8000481c:	00f12623          	sw	a5,12(sp)
80004820:	01c12783          	lw	a5,28(sp)
80004824:	00178793          	addi	a5,a5,1
80004828:	00f12e23          	sw	a5,28(sp)
8000482c:	00c12783          	lw	a5,12(sp)
80004830:	0007c703          	lbu	a4,0(a5)
80004834:	0a500793          	li	a5,165
80004838:	fcf70ee3          	beq	a4,a5,80004814 <prvTaskCheckFreeStackSpace+0x10>
8000483c:	01c12783          	lw	a5,28(sp)
80004840:	0027d793          	srli	a5,a5,0x2
80004844:	00f12e23          	sw	a5,28(sp)
80004848:	01c12783          	lw	a5,28(sp)
8000484c:	01079793          	slli	a5,a5,0x10
80004850:	0107d793          	srli	a5,a5,0x10
80004854:	00078513          	mv	a0,a5
80004858:	02010113          	addi	sp,sp,32
8000485c:	00008067          	ret

80004860 <prvDeleteTCB>:
80004860:	fe010113          	addi	sp,sp,-32
80004864:	00112e23          	sw	ra,28(sp)
80004868:	00a12623          	sw	a0,12(sp)
8000486c:	00c12783          	lw	a5,12(sp)
80004870:	0307a783          	lw	a5,48(a5)
80004874:	00078513          	mv	a0,a5
80004878:	57c020ef          	jal	ra,80006df4 <vPortFree>
8000487c:	00c12503          	lw	a0,12(sp)
80004880:	574020ef          	jal	ra,80006df4 <vPortFree>
80004884:	00000013          	nop
80004888:	01c12083          	lw	ra,28(sp)
8000488c:	02010113          	addi	sp,sp,32
80004890:	00008067          	ret

80004894 <prvResetNextTaskUnblockTime>:
80004894:	ff010113          	addi	sp,sp,-16
80004898:	0004c797          	auipc	a5,0x4c
8000489c:	ef078793          	addi	a5,a5,-272 # 80050788 <pxDelayedTaskList>
800048a0:	0007a783          	lw	a5,0(a5)
800048a4:	0007a783          	lw	a5,0(a5)
800048a8:	00079663          	bnez	a5,800048b4 <prvResetNextTaskUnblockTime+0x20>
800048ac:	00100793          	li	a5,1
800048b0:	0080006f          	j	800048b8 <prvResetNextTaskUnblockTime+0x24>
800048b4:	00000793          	li	a5,0
800048b8:	00078c63          	beqz	a5,800048d0 <prvResetNextTaskUnblockTime+0x3c>
800048bc:	0004c797          	auipc	a5,0x4c
800048c0:	f3478793          	addi	a5,a5,-204 # 800507f0 <xNextTaskUnblockTime>
800048c4:	fff00713          	li	a4,-1
800048c8:	00e7a023          	sw	a4,0(a5)
800048cc:	0300006f          	j	800048fc <prvResetNextTaskUnblockTime+0x68>
800048d0:	0004c797          	auipc	a5,0x4c
800048d4:	eb878793          	addi	a5,a5,-328 # 80050788 <pxDelayedTaskList>
800048d8:	0007a783          	lw	a5,0(a5)
800048dc:	00c7a783          	lw	a5,12(a5)
800048e0:	00c7a783          	lw	a5,12(a5)
800048e4:	00f12623          	sw	a5,12(sp)
800048e8:	00c12783          	lw	a5,12(sp)
800048ec:	0047a703          	lw	a4,4(a5)
800048f0:	0004c797          	auipc	a5,0x4c
800048f4:	f0078793          	addi	a5,a5,-256 # 800507f0 <xNextTaskUnblockTime>
800048f8:	00e7a023          	sw	a4,0(a5)
800048fc:	00000013          	nop
80004900:	01010113          	addi	sp,sp,16
80004904:	00008067          	ret

80004908 <xTaskGetCurrentTaskHandle>:
80004908:	ff010113          	addi	sp,sp,-16
8000490c:	0004c797          	auipc	a5,0x4c
80004910:	b7478793          	addi	a5,a5,-1164 # 80050480 <pxCurrentTCB>
80004914:	0007a783          	lw	a5,0(a5)
80004918:	00f12623          	sw	a5,12(sp)
8000491c:	00c12783          	lw	a5,12(sp)
80004920:	00078513          	mv	a0,a5
80004924:	01010113          	addi	sp,sp,16
80004928:	00008067          	ret

8000492c <xTaskGetSchedulerState>:
8000492c:	ff010113          	addi	sp,sp,-16
80004930:	0004c797          	auipc	a5,0x4c
80004934:	eac78793          	addi	a5,a5,-340 # 800507dc <xSchedulerRunning>
80004938:	0007a783          	lw	a5,0(a5)
8000493c:	00079863          	bnez	a5,8000494c <xTaskGetSchedulerState+0x20>
80004940:	00100793          	li	a5,1
80004944:	00f12623          	sw	a5,12(sp)
80004948:	0240006f          	j	8000496c <xTaskGetSchedulerState+0x40>
8000494c:	0004c797          	auipc	a5,0x4c
80004950:	eac78793          	addi	a5,a5,-340 # 800507f8 <uxSchedulerSuspended>
80004954:	0007a783          	lw	a5,0(a5)
80004958:	00079863          	bnez	a5,80004968 <xTaskGetSchedulerState+0x3c>
8000495c:	00200793          	li	a5,2
80004960:	00f12623          	sw	a5,12(sp)
80004964:	0080006f          	j	8000496c <xTaskGetSchedulerState+0x40>
80004968:	00012623          	sw	zero,12(sp)
8000496c:	00c12783          	lw	a5,12(sp)
80004970:	00078513          	mv	a0,a5
80004974:	01010113          	addi	sp,sp,16
80004978:	00008067          	ret

8000497c <xTaskPriorityInherit>:
8000497c:	fd010113          	addi	sp,sp,-48
80004980:	02112623          	sw	ra,44(sp)
80004984:	00a12623          	sw	a0,12(sp)
80004988:	00c12783          	lw	a5,12(sp)
8000498c:	00f12c23          	sw	a5,24(sp)
80004990:	00012e23          	sw	zero,28(sp)
80004994:	00c12783          	lw	a5,12(sp)
80004998:	16078263          	beqz	a5,80004afc <xTaskPriorityInherit+0x180>
8000499c:	01812783          	lw	a5,24(sp)
800049a0:	02c7a703          	lw	a4,44(a5)
800049a4:	0004c797          	auipc	a5,0x4c
800049a8:	adc78793          	addi	a5,a5,-1316 # 80050480 <pxCurrentTCB>
800049ac:	0007a783          	lw	a5,0(a5)
800049b0:	02c7a783          	lw	a5,44(a5)
800049b4:	12f77263          	bgeu	a4,a5,80004ad8 <xTaskPriorityInherit+0x15c>
800049b8:	01812783          	lw	a5,24(sp)
800049bc:	0187a783          	lw	a5,24(a5)
800049c0:	0207c263          	bltz	a5,800049e4 <xTaskPriorityInherit+0x68>
800049c4:	0004c797          	auipc	a5,0x4c
800049c8:	abc78793          	addi	a5,a5,-1348 # 80050480 <pxCurrentTCB>
800049cc:	0007a783          	lw	a5,0(a5)
800049d0:	02c7a783          	lw	a5,44(a5)
800049d4:	00500713          	li	a4,5
800049d8:	40f70733          	sub	a4,a4,a5
800049dc:	01812783          	lw	a5,24(sp)
800049e0:	00e7ac23          	sw	a4,24(a5)
800049e4:	01812783          	lw	a5,24(sp)
800049e8:	0147a683          	lw	a3,20(a5)
800049ec:	01812783          	lw	a5,24(sp)
800049f0:	02c7a703          	lw	a4,44(a5)
800049f4:	00070793          	mv	a5,a4
800049f8:	00279793          	slli	a5,a5,0x2
800049fc:	00e787b3          	add	a5,a5,a4
80004a00:	00279793          	slli	a5,a5,0x2
80004a04:	0004c717          	auipc	a4,0x4c
80004a08:	cf870713          	addi	a4,a4,-776 # 800506fc <pxReadyTasksLists>
80004a0c:	00e787b3          	add	a5,a5,a4
80004a10:	00f69663          	bne	a3,a5,80004a1c <xTaskPriorityInherit+0xa0>
80004a14:	00100793          	li	a5,1
80004a18:	0080006f          	j	80004a20 <xTaskPriorityInherit+0xa4>
80004a1c:	00000793          	li	a5,0
80004a20:	08078a63          	beqz	a5,80004ab4 <xTaskPriorityInherit+0x138>
80004a24:	01812783          	lw	a5,24(sp)
80004a28:	00478793          	addi	a5,a5,4
80004a2c:	00078513          	mv	a0,a5
80004a30:	8c4fc0ef          	jal	ra,80000af4 <uxListRemove>
80004a34:	0004c797          	auipc	a5,0x4c
80004a38:	a4c78793          	addi	a5,a5,-1460 # 80050480 <pxCurrentTCB>
80004a3c:	0007a783          	lw	a5,0(a5)
80004a40:	02c7a703          	lw	a4,44(a5)
80004a44:	01812783          	lw	a5,24(sp)
80004a48:	02e7a623          	sw	a4,44(a5)
80004a4c:	01812783          	lw	a5,24(sp)
80004a50:	02c7a703          	lw	a4,44(a5)
80004a54:	0004c797          	auipc	a5,0x4c
80004a58:	d8478793          	addi	a5,a5,-636 # 800507d8 <uxTopReadyPriority>
80004a5c:	0007a783          	lw	a5,0(a5)
80004a60:	00e7fc63          	bgeu	a5,a4,80004a78 <xTaskPriorityInherit+0xfc>
80004a64:	01812783          	lw	a5,24(sp)
80004a68:	02c7a703          	lw	a4,44(a5)
80004a6c:	0004c797          	auipc	a5,0x4c
80004a70:	d6c78793          	addi	a5,a5,-660 # 800507d8 <uxTopReadyPriority>
80004a74:	00e7a023          	sw	a4,0(a5)
80004a78:	01812783          	lw	a5,24(sp)
80004a7c:	02c7a703          	lw	a4,44(a5)
80004a80:	00070793          	mv	a5,a4
80004a84:	00279793          	slli	a5,a5,0x2
80004a88:	00e787b3          	add	a5,a5,a4
80004a8c:	00279793          	slli	a5,a5,0x2
80004a90:	0004c717          	auipc	a4,0x4c
80004a94:	c6c70713          	addi	a4,a4,-916 # 800506fc <pxReadyTasksLists>
80004a98:	00e78733          	add	a4,a5,a4
80004a9c:	01812783          	lw	a5,24(sp)
80004aa0:	00478793          	addi	a5,a5,4
80004aa4:	00078593          	mv	a1,a5
80004aa8:	00070513          	mv	a0,a4
80004aac:	f05fb0ef          	jal	ra,800009b0 <vListInsertEnd>
80004ab0:	01c0006f          	j	80004acc <xTaskPriorityInherit+0x150>
80004ab4:	0004c797          	auipc	a5,0x4c
80004ab8:	9cc78793          	addi	a5,a5,-1588 # 80050480 <pxCurrentTCB>
80004abc:	0007a783          	lw	a5,0(a5)
80004ac0:	02c7a703          	lw	a4,44(a5)
80004ac4:	01812783          	lw	a5,24(sp)
80004ac8:	02e7a623          	sw	a4,44(a5)
80004acc:	00100793          	li	a5,1
80004ad0:	00f12e23          	sw	a5,28(sp)
80004ad4:	0280006f          	j	80004afc <xTaskPriorityInherit+0x180>
80004ad8:	01812783          	lw	a5,24(sp)
80004adc:	0507a703          	lw	a4,80(a5)
80004ae0:	0004c797          	auipc	a5,0x4c
80004ae4:	9a078793          	addi	a5,a5,-1632 # 80050480 <pxCurrentTCB>
80004ae8:	0007a783          	lw	a5,0(a5)
80004aec:	02c7a783          	lw	a5,44(a5)
80004af0:	00f77663          	bgeu	a4,a5,80004afc <xTaskPriorityInherit+0x180>
80004af4:	00100793          	li	a5,1
80004af8:	00f12e23          	sw	a5,28(sp)
80004afc:	01c12783          	lw	a5,28(sp)
80004b00:	00078513          	mv	a0,a5
80004b04:	02c12083          	lw	ra,44(sp)
80004b08:	03010113          	addi	sp,sp,48
80004b0c:	00008067          	ret

80004b10 <xTaskPriorityDisinherit>:
80004b10:	fd010113          	addi	sp,sp,-48
80004b14:	02112623          	sw	ra,44(sp)
80004b18:	00a12623          	sw	a0,12(sp)
80004b1c:	00c12783          	lw	a5,12(sp)
80004b20:	00f12c23          	sw	a5,24(sp)
80004b24:	00012e23          	sw	zero,28(sp)
80004b28:	00c12783          	lw	a5,12(sp)
80004b2c:	10078663          	beqz	a5,80004c38 <xTaskPriorityDisinherit+0x128>
80004b30:	0004c797          	auipc	a5,0x4c
80004b34:	95078793          	addi	a5,a5,-1712 # 80050480 <pxCurrentTCB>
80004b38:	0007a783          	lw	a5,0(a5)
80004b3c:	01812703          	lw	a4,24(sp)
80004b40:	00f70663          	beq	a4,a5,80004b4c <xTaskPriorityDisinherit+0x3c>
80004b44:	30047073          	csrci	mstatus,8
80004b48:	0000006f          	j	80004b48 <xTaskPriorityDisinherit+0x38>
80004b4c:	01812783          	lw	a5,24(sp)
80004b50:	0547a783          	lw	a5,84(a5)
80004b54:	00079663          	bnez	a5,80004b60 <xTaskPriorityDisinherit+0x50>
80004b58:	30047073          	csrci	mstatus,8
80004b5c:	0000006f          	j	80004b5c <xTaskPriorityDisinherit+0x4c>
80004b60:	01812783          	lw	a5,24(sp)
80004b64:	0547a783          	lw	a5,84(a5)
80004b68:	fff78713          	addi	a4,a5,-1
80004b6c:	01812783          	lw	a5,24(sp)
80004b70:	04e7aa23          	sw	a4,84(a5)
80004b74:	01812783          	lw	a5,24(sp)
80004b78:	02c7a703          	lw	a4,44(a5)
80004b7c:	01812783          	lw	a5,24(sp)
80004b80:	0507a783          	lw	a5,80(a5)
80004b84:	0af70a63          	beq	a4,a5,80004c38 <xTaskPriorityDisinherit+0x128>
80004b88:	01812783          	lw	a5,24(sp)
80004b8c:	0547a783          	lw	a5,84(a5)
80004b90:	0a079463          	bnez	a5,80004c38 <xTaskPriorityDisinherit+0x128>
80004b94:	01812783          	lw	a5,24(sp)
80004b98:	00478793          	addi	a5,a5,4
80004b9c:	00078513          	mv	a0,a5
80004ba0:	f55fb0ef          	jal	ra,80000af4 <uxListRemove>
80004ba4:	01812783          	lw	a5,24(sp)
80004ba8:	0507a703          	lw	a4,80(a5)
80004bac:	01812783          	lw	a5,24(sp)
80004bb0:	02e7a623          	sw	a4,44(a5)
80004bb4:	01812783          	lw	a5,24(sp)
80004bb8:	02c7a783          	lw	a5,44(a5)
80004bbc:	00500713          	li	a4,5
80004bc0:	40f70733          	sub	a4,a4,a5
80004bc4:	01812783          	lw	a5,24(sp)
80004bc8:	00e7ac23          	sw	a4,24(a5)
80004bcc:	01812783          	lw	a5,24(sp)
80004bd0:	02c7a703          	lw	a4,44(a5)
80004bd4:	0004c797          	auipc	a5,0x4c
80004bd8:	c0478793          	addi	a5,a5,-1020 # 800507d8 <uxTopReadyPriority>
80004bdc:	0007a783          	lw	a5,0(a5)
80004be0:	00e7fc63          	bgeu	a5,a4,80004bf8 <xTaskPriorityDisinherit+0xe8>
80004be4:	01812783          	lw	a5,24(sp)
80004be8:	02c7a703          	lw	a4,44(a5)
80004bec:	0004c797          	auipc	a5,0x4c
80004bf0:	bec78793          	addi	a5,a5,-1044 # 800507d8 <uxTopReadyPriority>
80004bf4:	00e7a023          	sw	a4,0(a5)
80004bf8:	01812783          	lw	a5,24(sp)
80004bfc:	02c7a703          	lw	a4,44(a5)
80004c00:	00070793          	mv	a5,a4
80004c04:	00279793          	slli	a5,a5,0x2
80004c08:	00e787b3          	add	a5,a5,a4
80004c0c:	00279793          	slli	a5,a5,0x2
80004c10:	0004c717          	auipc	a4,0x4c
80004c14:	aec70713          	addi	a4,a4,-1300 # 800506fc <pxReadyTasksLists>
80004c18:	00e78733          	add	a4,a5,a4
80004c1c:	01812783          	lw	a5,24(sp)
80004c20:	00478793          	addi	a5,a5,4
80004c24:	00078593          	mv	a1,a5
80004c28:	00070513          	mv	a0,a4
80004c2c:	d85fb0ef          	jal	ra,800009b0 <vListInsertEnd>
80004c30:	00100793          	li	a5,1
80004c34:	00f12e23          	sw	a5,28(sp)
80004c38:	01c12783          	lw	a5,28(sp)
80004c3c:	00078513          	mv	a0,a5
80004c40:	02c12083          	lw	ra,44(sp)
80004c44:	03010113          	addi	sp,sp,48
80004c48:	00008067          	ret

80004c4c <vTaskPriorityDisinheritAfterTimeout>:
80004c4c:	fd010113          	addi	sp,sp,-48
80004c50:	02112623          	sw	ra,44(sp)
80004c54:	00a12623          	sw	a0,12(sp)
80004c58:	00b12423          	sw	a1,8(sp)
80004c5c:	00c12783          	lw	a5,12(sp)
80004c60:	00f12c23          	sw	a5,24(sp)
80004c64:	00100793          	li	a5,1
80004c68:	00f12a23          	sw	a5,20(sp)
80004c6c:	00c12783          	lw	a5,12(sp)
80004c70:	16078263          	beqz	a5,80004dd4 <vTaskPriorityDisinheritAfterTimeout+0x188>
80004c74:	01812783          	lw	a5,24(sp)
80004c78:	0547a783          	lw	a5,84(a5)
80004c7c:	00079663          	bnez	a5,80004c88 <vTaskPriorityDisinheritAfterTimeout+0x3c>
80004c80:	30047073          	csrci	mstatus,8
80004c84:	0000006f          	j	80004c84 <vTaskPriorityDisinheritAfterTimeout+0x38>
80004c88:	01812783          	lw	a5,24(sp)
80004c8c:	0507a783          	lw	a5,80(a5)
80004c90:	00812703          	lw	a4,8(sp)
80004c94:	00e7f863          	bgeu	a5,a4,80004ca4 <vTaskPriorityDisinheritAfterTimeout+0x58>
80004c98:	00812783          	lw	a5,8(sp)
80004c9c:	00f12e23          	sw	a5,28(sp)
80004ca0:	0100006f          	j	80004cb0 <vTaskPriorityDisinheritAfterTimeout+0x64>
80004ca4:	01812783          	lw	a5,24(sp)
80004ca8:	0507a783          	lw	a5,80(a5)
80004cac:	00f12e23          	sw	a5,28(sp)
80004cb0:	01812783          	lw	a5,24(sp)
80004cb4:	02c7a783          	lw	a5,44(a5)
80004cb8:	01c12703          	lw	a4,28(sp)
80004cbc:	10f70c63          	beq	a4,a5,80004dd4 <vTaskPriorityDisinheritAfterTimeout+0x188>
80004cc0:	01812783          	lw	a5,24(sp)
80004cc4:	0547a783          	lw	a5,84(a5)
80004cc8:	01412703          	lw	a4,20(sp)
80004ccc:	10f71463          	bne	a4,a5,80004dd4 <vTaskPriorityDisinheritAfterTimeout+0x188>
80004cd0:	0004b797          	auipc	a5,0x4b
80004cd4:	7b078793          	addi	a5,a5,1968 # 80050480 <pxCurrentTCB>
80004cd8:	0007a783          	lw	a5,0(a5)
80004cdc:	01812703          	lw	a4,24(sp)
80004ce0:	00f71663          	bne	a4,a5,80004cec <vTaskPriorityDisinheritAfterTimeout+0xa0>
80004ce4:	30047073          	csrci	mstatus,8
80004ce8:	0000006f          	j	80004ce8 <vTaskPriorityDisinheritAfterTimeout+0x9c>
80004cec:	01812783          	lw	a5,24(sp)
80004cf0:	02c7a783          	lw	a5,44(a5)
80004cf4:	00f12823          	sw	a5,16(sp)
80004cf8:	01812783          	lw	a5,24(sp)
80004cfc:	01c12703          	lw	a4,28(sp)
80004d00:	02e7a623          	sw	a4,44(a5)
80004d04:	01812783          	lw	a5,24(sp)
80004d08:	0187a783          	lw	a5,24(a5)
80004d0c:	0007cc63          	bltz	a5,80004d24 <vTaskPriorityDisinheritAfterTimeout+0xd8>
80004d10:	00500713          	li	a4,5
80004d14:	01c12783          	lw	a5,28(sp)
80004d18:	40f70733          	sub	a4,a4,a5
80004d1c:	01812783          	lw	a5,24(sp)
80004d20:	00e7ac23          	sw	a4,24(a5)
80004d24:	01812783          	lw	a5,24(sp)
80004d28:	0147a683          	lw	a3,20(a5)
80004d2c:	01012703          	lw	a4,16(sp)
80004d30:	00070793          	mv	a5,a4
80004d34:	00279793          	slli	a5,a5,0x2
80004d38:	00e787b3          	add	a5,a5,a4
80004d3c:	00279793          	slli	a5,a5,0x2
80004d40:	0004c717          	auipc	a4,0x4c
80004d44:	9bc70713          	addi	a4,a4,-1604 # 800506fc <pxReadyTasksLists>
80004d48:	00e787b3          	add	a5,a5,a4
80004d4c:	00f69663          	bne	a3,a5,80004d58 <vTaskPriorityDisinheritAfterTimeout+0x10c>
80004d50:	00100793          	li	a5,1
80004d54:	0080006f          	j	80004d5c <vTaskPriorityDisinheritAfterTimeout+0x110>
80004d58:	00000793          	li	a5,0
80004d5c:	06078c63          	beqz	a5,80004dd4 <vTaskPriorityDisinheritAfterTimeout+0x188>
80004d60:	01812783          	lw	a5,24(sp)
80004d64:	00478793          	addi	a5,a5,4
80004d68:	00078513          	mv	a0,a5
80004d6c:	d89fb0ef          	jal	ra,80000af4 <uxListRemove>
80004d70:	01812783          	lw	a5,24(sp)
80004d74:	02c7a703          	lw	a4,44(a5)
80004d78:	0004c797          	auipc	a5,0x4c
80004d7c:	a6078793          	addi	a5,a5,-1440 # 800507d8 <uxTopReadyPriority>
80004d80:	0007a783          	lw	a5,0(a5)
80004d84:	00e7fc63          	bgeu	a5,a4,80004d9c <vTaskPriorityDisinheritAfterTimeout+0x150>
80004d88:	01812783          	lw	a5,24(sp)
80004d8c:	02c7a703          	lw	a4,44(a5)
80004d90:	0004c797          	auipc	a5,0x4c
80004d94:	a4878793          	addi	a5,a5,-1464 # 800507d8 <uxTopReadyPriority>
80004d98:	00e7a023          	sw	a4,0(a5)
80004d9c:	01812783          	lw	a5,24(sp)
80004da0:	02c7a703          	lw	a4,44(a5)
80004da4:	00070793          	mv	a5,a4
80004da8:	00279793          	slli	a5,a5,0x2
80004dac:	00e787b3          	add	a5,a5,a4
80004db0:	00279793          	slli	a5,a5,0x2
80004db4:	0004c717          	auipc	a4,0x4c
80004db8:	94870713          	addi	a4,a4,-1720 # 800506fc <pxReadyTasksLists>
80004dbc:	00e78733          	add	a4,a5,a4
80004dc0:	01812783          	lw	a5,24(sp)
80004dc4:	00478793          	addi	a5,a5,4
80004dc8:	00078593          	mv	a1,a5
80004dcc:	00070513          	mv	a0,a4
80004dd0:	be1fb0ef          	jal	ra,800009b0 <vListInsertEnd>
80004dd4:	00000013          	nop
80004dd8:	02c12083          	lw	ra,44(sp)
80004ddc:	03010113          	addi	sp,sp,48
80004de0:	00008067          	ret

80004de4 <vTaskEnterCritical>:
80004de4:	30047073          	csrci	mstatus,8
80004de8:	0004c797          	auipc	a5,0x4c
80004dec:	9f478793          	addi	a5,a5,-1548 # 800507dc <xSchedulerRunning>
80004df0:	0007a783          	lw	a5,0(a5)
80004df4:	02078463          	beqz	a5,80004e1c <vTaskEnterCritical+0x38>
80004df8:	0004b797          	auipc	a5,0x4b
80004dfc:	68878793          	addi	a5,a5,1672 # 80050480 <pxCurrentTCB>
80004e00:	0007a783          	lw	a5,0(a5)
80004e04:	0447a703          	lw	a4,68(a5)
80004e08:	00170713          	addi	a4,a4,1
80004e0c:	04e7a223          	sw	a4,68(a5)
80004e10:	0004b797          	auipc	a5,0x4b
80004e14:	67078793          	addi	a5,a5,1648 # 80050480 <pxCurrentTCB>
80004e18:	0007a783          	lw	a5,0(a5)
80004e1c:	00000013          	nop
80004e20:	00008067          	ret

80004e24 <vTaskExitCritical>:
80004e24:	0004c797          	auipc	a5,0x4c
80004e28:	9b878793          	addi	a5,a5,-1608 # 800507dc <xSchedulerRunning>
80004e2c:	0007a783          	lw	a5,0(a5)
80004e30:	04078463          	beqz	a5,80004e78 <vTaskExitCritical+0x54>
80004e34:	0004b797          	auipc	a5,0x4b
80004e38:	64c78793          	addi	a5,a5,1612 # 80050480 <pxCurrentTCB>
80004e3c:	0007a783          	lw	a5,0(a5)
80004e40:	0447a783          	lw	a5,68(a5)
80004e44:	02078a63          	beqz	a5,80004e78 <vTaskExitCritical+0x54>
80004e48:	0004b797          	auipc	a5,0x4b
80004e4c:	63878793          	addi	a5,a5,1592 # 80050480 <pxCurrentTCB>
80004e50:	0007a783          	lw	a5,0(a5)
80004e54:	0447a703          	lw	a4,68(a5)
80004e58:	fff70713          	addi	a4,a4,-1
80004e5c:	04e7a223          	sw	a4,68(a5)
80004e60:	0004b797          	auipc	a5,0x4b
80004e64:	62078793          	addi	a5,a5,1568 # 80050480 <pxCurrentTCB>
80004e68:	0007a783          	lw	a5,0(a5)
80004e6c:	0447a783          	lw	a5,68(a5)
80004e70:	00079463          	bnez	a5,80004e78 <vTaskExitCritical+0x54>
80004e74:	30046073          	csrsi	mstatus,8
80004e78:	00000013          	nop
80004e7c:	00008067          	ret

80004e80 <uxTaskResetEventItemValue>:
80004e80:	ff010113          	addi	sp,sp,-16
80004e84:	0004b797          	auipc	a5,0x4b
80004e88:	5fc78793          	addi	a5,a5,1532 # 80050480 <pxCurrentTCB>
80004e8c:	0007a783          	lw	a5,0(a5)
80004e90:	0187a783          	lw	a5,24(a5)
80004e94:	00f12623          	sw	a5,12(sp)
80004e98:	0004b797          	auipc	a5,0x4b
80004e9c:	5e878793          	addi	a5,a5,1512 # 80050480 <pxCurrentTCB>
80004ea0:	0007a783          	lw	a5,0(a5)
80004ea4:	02c7a703          	lw	a4,44(a5)
80004ea8:	0004b797          	auipc	a5,0x4b
80004eac:	5d878793          	addi	a5,a5,1496 # 80050480 <pxCurrentTCB>
80004eb0:	0007a783          	lw	a5,0(a5)
80004eb4:	00500693          	li	a3,5
80004eb8:	40e68733          	sub	a4,a3,a4
80004ebc:	00e7ac23          	sw	a4,24(a5)
80004ec0:	00c12783          	lw	a5,12(sp)
80004ec4:	00078513          	mv	a0,a5
80004ec8:	01010113          	addi	sp,sp,16
80004ecc:	00008067          	ret

80004ed0 <pvTaskIncrementMutexHeldCount>:
80004ed0:	0004b797          	auipc	a5,0x4b
80004ed4:	5b078793          	addi	a5,a5,1456 # 80050480 <pxCurrentTCB>
80004ed8:	0007a783          	lw	a5,0(a5)
80004edc:	00078e63          	beqz	a5,80004ef8 <pvTaskIncrementMutexHeldCount+0x28>
80004ee0:	0004b797          	auipc	a5,0x4b
80004ee4:	5a078793          	addi	a5,a5,1440 # 80050480 <pxCurrentTCB>
80004ee8:	0007a783          	lw	a5,0(a5)
80004eec:	0547a703          	lw	a4,84(a5)
80004ef0:	00170713          	addi	a4,a4,1
80004ef4:	04e7aa23          	sw	a4,84(a5)
80004ef8:	0004b797          	auipc	a5,0x4b
80004efc:	58878793          	addi	a5,a5,1416 # 80050480 <pxCurrentTCB>
80004f00:	0007a783          	lw	a5,0(a5)
80004f04:	00078513          	mv	a0,a5
80004f08:	00008067          	ret

80004f0c <ulTaskNotifyTake>:
80004f0c:	fd010113          	addi	sp,sp,-48
80004f10:	02112623          	sw	ra,44(sp)
80004f14:	00a12623          	sw	a0,12(sp)
80004f18:	00b12423          	sw	a1,8(sp)
80004f1c:	ec9ff0ef          	jal	ra,80004de4 <vTaskEnterCritical>
80004f20:	0004b797          	auipc	a5,0x4b
80004f24:	56078793          	addi	a5,a5,1376 # 80050480 <pxCurrentTCB>
80004f28:	0007a783          	lw	a5,0(a5)
80004f2c:	0587a783          	lw	a5,88(a5)
80004f30:	02079863          	bnez	a5,80004f60 <ulTaskNotifyTake+0x54>
80004f34:	0004b797          	auipc	a5,0x4b
80004f38:	54c78793          	addi	a5,a5,1356 # 80050480 <pxCurrentTCB>
80004f3c:	0007a783          	lw	a5,0(a5)
80004f40:	00100713          	li	a4,1
80004f44:	04e78e23          	sb	a4,92(a5)
80004f48:	00812783          	lw	a5,8(sp)
80004f4c:	00078a63          	beqz	a5,80004f60 <ulTaskNotifyTake+0x54>
80004f50:	00100593          	li	a1,1
80004f54:	00812503          	lw	a0,8(sp)
80004f58:	7b0000ef          	jal	ra,80005708 <prvAddCurrentTaskToDelayedList>
80004f5c:	ef8fb0ef          	jal	ra,80000654 <vPortYield>
80004f60:	ec5ff0ef          	jal	ra,80004e24 <vTaskExitCritical>
80004f64:	e81ff0ef          	jal	ra,80004de4 <vTaskEnterCritical>
80004f68:	0004b797          	auipc	a5,0x4b
80004f6c:	51878793          	addi	a5,a5,1304 # 80050480 <pxCurrentTCB>
80004f70:	0007a783          	lw	a5,0(a5)
80004f74:	0587a783          	lw	a5,88(a5)
80004f78:	00f12e23          	sw	a5,28(sp)
80004f7c:	01c12783          	lw	a5,28(sp)
80004f80:	02078c63          	beqz	a5,80004fb8 <ulTaskNotifyTake+0xac>
80004f84:	00c12783          	lw	a5,12(sp)
80004f88:	00078c63          	beqz	a5,80004fa0 <ulTaskNotifyTake+0x94>
80004f8c:	0004b797          	auipc	a5,0x4b
80004f90:	4f478793          	addi	a5,a5,1268 # 80050480 <pxCurrentTCB>
80004f94:	0007a783          	lw	a5,0(a5)
80004f98:	0407ac23          	sw	zero,88(a5)
80004f9c:	01c0006f          	j	80004fb8 <ulTaskNotifyTake+0xac>
80004fa0:	0004b797          	auipc	a5,0x4b
80004fa4:	4e078793          	addi	a5,a5,1248 # 80050480 <pxCurrentTCB>
80004fa8:	0007a783          	lw	a5,0(a5)
80004fac:	01c12703          	lw	a4,28(sp)
80004fb0:	fff70713          	addi	a4,a4,-1
80004fb4:	04e7ac23          	sw	a4,88(a5)
80004fb8:	0004b797          	auipc	a5,0x4b
80004fbc:	4c878793          	addi	a5,a5,1224 # 80050480 <pxCurrentTCB>
80004fc0:	0007a783          	lw	a5,0(a5)
80004fc4:	04078e23          	sb	zero,92(a5)
80004fc8:	e5dff0ef          	jal	ra,80004e24 <vTaskExitCritical>
80004fcc:	01c12783          	lw	a5,28(sp)
80004fd0:	00078513          	mv	a0,a5
80004fd4:	02c12083          	lw	ra,44(sp)
80004fd8:	03010113          	addi	sp,sp,48
80004fdc:	00008067          	ret

80004fe0 <xTaskNotifyWait>:
80004fe0:	fd010113          	addi	sp,sp,-48
80004fe4:	02112623          	sw	ra,44(sp)
80004fe8:	00a12623          	sw	a0,12(sp)
80004fec:	00b12423          	sw	a1,8(sp)
80004ff0:	00c12223          	sw	a2,4(sp)
80004ff4:	00d12023          	sw	a3,0(sp)
80004ff8:	dedff0ef          	jal	ra,80004de4 <vTaskEnterCritical>
80004ffc:	0004b797          	auipc	a5,0x4b
80005000:	48478793          	addi	a5,a5,1156 # 80050480 <pxCurrentTCB>
80005004:	0007a783          	lw	a5,0(a5)
80005008:	05c7c783          	lbu	a5,92(a5)
8000500c:	0ff7f713          	andi	a4,a5,255
80005010:	00200793          	li	a5,2
80005014:	04f70863          	beq	a4,a5,80005064 <xTaskNotifyWait+0x84>
80005018:	0004b797          	auipc	a5,0x4b
8000501c:	46878793          	addi	a5,a5,1128 # 80050480 <pxCurrentTCB>
80005020:	0007a783          	lw	a5,0(a5)
80005024:	0587a683          	lw	a3,88(a5)
80005028:	00c12703          	lw	a4,12(sp)
8000502c:	fff74713          	not	a4,a4
80005030:	00e6f733          	and	a4,a3,a4
80005034:	04e7ac23          	sw	a4,88(a5)
80005038:	0004b797          	auipc	a5,0x4b
8000503c:	44878793          	addi	a5,a5,1096 # 80050480 <pxCurrentTCB>
80005040:	0007a783          	lw	a5,0(a5)
80005044:	00100713          	li	a4,1
80005048:	04e78e23          	sb	a4,92(a5)
8000504c:	00012783          	lw	a5,0(sp)
80005050:	00078a63          	beqz	a5,80005064 <xTaskNotifyWait+0x84>
80005054:	00100593          	li	a1,1
80005058:	00012503          	lw	a0,0(sp)
8000505c:	6ac000ef          	jal	ra,80005708 <prvAddCurrentTaskToDelayedList>
80005060:	df4fb0ef          	jal	ra,80000654 <vPortYield>
80005064:	dc1ff0ef          	jal	ra,80004e24 <vTaskExitCritical>
80005068:	d7dff0ef          	jal	ra,80004de4 <vTaskEnterCritical>
8000506c:	00412783          	lw	a5,4(sp)
80005070:	00078e63          	beqz	a5,8000508c <xTaskNotifyWait+0xac>
80005074:	0004b797          	auipc	a5,0x4b
80005078:	40c78793          	addi	a5,a5,1036 # 80050480 <pxCurrentTCB>
8000507c:	0007a783          	lw	a5,0(a5)
80005080:	0587a703          	lw	a4,88(a5)
80005084:	00412783          	lw	a5,4(sp)
80005088:	00e7a023          	sw	a4,0(a5)
8000508c:	0004b797          	auipc	a5,0x4b
80005090:	3f478793          	addi	a5,a5,1012 # 80050480 <pxCurrentTCB>
80005094:	0007a783          	lw	a5,0(a5)
80005098:	05c7c783          	lbu	a5,92(a5)
8000509c:	0ff7f713          	andi	a4,a5,255
800050a0:	00200793          	li	a5,2
800050a4:	00f70663          	beq	a4,a5,800050b0 <xTaskNotifyWait+0xd0>
800050a8:	00012e23          	sw	zero,28(sp)
800050ac:	02c0006f          	j	800050d8 <xTaskNotifyWait+0xf8>
800050b0:	0004b797          	auipc	a5,0x4b
800050b4:	3d078793          	addi	a5,a5,976 # 80050480 <pxCurrentTCB>
800050b8:	0007a783          	lw	a5,0(a5)
800050bc:	0587a683          	lw	a3,88(a5)
800050c0:	00812703          	lw	a4,8(sp)
800050c4:	fff74713          	not	a4,a4
800050c8:	00e6f733          	and	a4,a3,a4
800050cc:	04e7ac23          	sw	a4,88(a5)
800050d0:	00100793          	li	a5,1
800050d4:	00f12e23          	sw	a5,28(sp)
800050d8:	0004b797          	auipc	a5,0x4b
800050dc:	3a878793          	addi	a5,a5,936 # 80050480 <pxCurrentTCB>
800050e0:	0007a783          	lw	a5,0(a5)
800050e4:	04078e23          	sb	zero,92(a5)
800050e8:	d3dff0ef          	jal	ra,80004e24 <vTaskExitCritical>
800050ec:	01c12783          	lw	a5,28(sp)
800050f0:	00078513          	mv	a0,a5
800050f4:	02c12083          	lw	ra,44(sp)
800050f8:	03010113          	addi	sp,sp,48
800050fc:	00008067          	ret

80005100 <xTaskGenericNotify>:
80005100:	fd010113          	addi	sp,sp,-48
80005104:	02112623          	sw	ra,44(sp)
80005108:	00a12623          	sw	a0,12(sp)
8000510c:	00b12423          	sw	a1,8(sp)
80005110:	00c12223          	sw	a2,4(sp)
80005114:	00d12023          	sw	a3,0(sp)
80005118:	00100793          	li	a5,1
8000511c:	00f12e23          	sw	a5,28(sp)
80005120:	00c12783          	lw	a5,12(sp)
80005124:	00079663          	bnez	a5,80005130 <xTaskGenericNotify+0x30>
80005128:	30047073          	csrci	mstatus,8
8000512c:	0000006f          	j	8000512c <xTaskGenericNotify+0x2c>
80005130:	00c12783          	lw	a5,12(sp)
80005134:	00f12c23          	sw	a5,24(sp)
80005138:	cadff0ef          	jal	ra,80004de4 <vTaskEnterCritical>
8000513c:	00012783          	lw	a5,0(sp)
80005140:	00078a63          	beqz	a5,80005154 <xTaskGenericNotify+0x54>
80005144:	01812783          	lw	a5,24(sp)
80005148:	0587a703          	lw	a4,88(a5)
8000514c:	00012783          	lw	a5,0(sp)
80005150:	00e7a023          	sw	a4,0(a5)
80005154:	01812783          	lw	a5,24(sp)
80005158:	05c7c783          	lbu	a5,92(a5)
8000515c:	00f10ba3          	sb	a5,23(sp)
80005160:	01812783          	lw	a5,24(sp)
80005164:	00200713          	li	a4,2
80005168:	04e78e23          	sb	a4,92(a5)
8000516c:	00412703          	lw	a4,4(sp)
80005170:	00400793          	li	a5,4
80005174:	08e7ec63          	bltu	a5,a4,8000520c <xTaskGenericNotify+0x10c>
80005178:	00412783          	lw	a5,4(sp)
8000517c:	00279713          	slli	a4,a5,0x2
80005180:	0004b797          	auipc	a5,0x4b
80005184:	e8878793          	addi	a5,a5,-376 # 80050008 <__rodata_start+0x8>
80005188:	00f707b3          	add	a5,a4,a5
8000518c:	0007a703          	lw	a4,0(a5)
80005190:	0004b797          	auipc	a5,0x4b
80005194:	e7878793          	addi	a5,a5,-392 # 80050008 <__rodata_start+0x8>
80005198:	00f707b3          	add	a5,a4,a5
8000519c:	00078067          	jr	a5
800051a0:	01812783          	lw	a5,24(sp)
800051a4:	0587a703          	lw	a4,88(a5)
800051a8:	00812783          	lw	a5,8(sp)
800051ac:	00f76733          	or	a4,a4,a5
800051b0:	01812783          	lw	a5,24(sp)
800051b4:	04e7ac23          	sw	a4,88(a5)
800051b8:	0540006f          	j	8000520c <xTaskGenericNotify+0x10c>
800051bc:	01812783          	lw	a5,24(sp)
800051c0:	0587a783          	lw	a5,88(a5)
800051c4:	00178713          	addi	a4,a5,1
800051c8:	01812783          	lw	a5,24(sp)
800051cc:	04e7ac23          	sw	a4,88(a5)
800051d0:	03c0006f          	j	8000520c <xTaskGenericNotify+0x10c>
800051d4:	01812783          	lw	a5,24(sp)
800051d8:	00812703          	lw	a4,8(sp)
800051dc:	04e7ac23          	sw	a4,88(a5)
800051e0:	02c0006f          	j	8000520c <xTaskGenericNotify+0x10c>
800051e4:	01714703          	lbu	a4,23(sp)
800051e8:	00200793          	li	a5,2
800051ec:	00f70a63          	beq	a4,a5,80005200 <xTaskGenericNotify+0x100>
800051f0:	01812783          	lw	a5,24(sp)
800051f4:	00812703          	lw	a4,8(sp)
800051f8:	04e7ac23          	sw	a4,88(a5)
800051fc:	0100006f          	j	8000520c <xTaskGenericNotify+0x10c>
80005200:	00012e23          	sw	zero,28(sp)
80005204:	0080006f          	j	8000520c <xTaskGenericNotify+0x10c>
80005208:	00000013          	nop
8000520c:	01714703          	lbu	a4,23(sp)
80005210:	00100793          	li	a5,1
80005214:	0af71663          	bne	a4,a5,800052c0 <xTaskGenericNotify+0x1c0>
80005218:	01812783          	lw	a5,24(sp)
8000521c:	00478793          	addi	a5,a5,4
80005220:	00078513          	mv	a0,a5
80005224:	8d1fb0ef          	jal	ra,80000af4 <uxListRemove>
80005228:	01812783          	lw	a5,24(sp)
8000522c:	02c7a703          	lw	a4,44(a5)
80005230:	0004b797          	auipc	a5,0x4b
80005234:	5a878793          	addi	a5,a5,1448 # 800507d8 <uxTopReadyPriority>
80005238:	0007a783          	lw	a5,0(a5)
8000523c:	00e7fc63          	bgeu	a5,a4,80005254 <xTaskGenericNotify+0x154>
80005240:	01812783          	lw	a5,24(sp)
80005244:	02c7a703          	lw	a4,44(a5)
80005248:	0004b797          	auipc	a5,0x4b
8000524c:	59078793          	addi	a5,a5,1424 # 800507d8 <uxTopReadyPriority>
80005250:	00e7a023          	sw	a4,0(a5)
80005254:	01812783          	lw	a5,24(sp)
80005258:	02c7a703          	lw	a4,44(a5)
8000525c:	00070793          	mv	a5,a4
80005260:	00279793          	slli	a5,a5,0x2
80005264:	00e787b3          	add	a5,a5,a4
80005268:	00279793          	slli	a5,a5,0x2
8000526c:	0004b717          	auipc	a4,0x4b
80005270:	49070713          	addi	a4,a4,1168 # 800506fc <pxReadyTasksLists>
80005274:	00e78733          	add	a4,a5,a4
80005278:	01812783          	lw	a5,24(sp)
8000527c:	00478793          	addi	a5,a5,4
80005280:	00078593          	mv	a1,a5
80005284:	00070513          	mv	a0,a4
80005288:	f28fb0ef          	jal	ra,800009b0 <vListInsertEnd>
8000528c:	01812783          	lw	a5,24(sp)
80005290:	0287a783          	lw	a5,40(a5)
80005294:	00078663          	beqz	a5,800052a0 <xTaskGenericNotify+0x1a0>
80005298:	30047073          	csrci	mstatus,8
8000529c:	0000006f          	j	8000529c <xTaskGenericNotify+0x19c>
800052a0:	01812783          	lw	a5,24(sp)
800052a4:	02c7a703          	lw	a4,44(a5)
800052a8:	0004b797          	auipc	a5,0x4b
800052ac:	1d878793          	addi	a5,a5,472 # 80050480 <pxCurrentTCB>
800052b0:	0007a783          	lw	a5,0(a5)
800052b4:	02c7a783          	lw	a5,44(a5)
800052b8:	00e7f463          	bgeu	a5,a4,800052c0 <xTaskGenericNotify+0x1c0>
800052bc:	b98fb0ef          	jal	ra,80000654 <vPortYield>
800052c0:	b65ff0ef          	jal	ra,80004e24 <vTaskExitCritical>
800052c4:	01c12783          	lw	a5,28(sp)
800052c8:	00078513          	mv	a0,a5
800052cc:	02c12083          	lw	ra,44(sp)
800052d0:	03010113          	addi	sp,sp,48
800052d4:	00008067          	ret

800052d8 <xTaskGenericNotifyFromISR>:
800052d8:	fc010113          	addi	sp,sp,-64
800052dc:	02112e23          	sw	ra,60(sp)
800052e0:	00a12e23          	sw	a0,28(sp)
800052e4:	00b12c23          	sw	a1,24(sp)
800052e8:	00c12a23          	sw	a2,20(sp)
800052ec:	00d12823          	sw	a3,16(sp)
800052f0:	00e12623          	sw	a4,12(sp)
800052f4:	00100793          	li	a5,1
800052f8:	02f12623          	sw	a5,44(sp)
800052fc:	01c12783          	lw	a5,28(sp)
80005300:	00079663          	bnez	a5,8000530c <xTaskGenericNotifyFromISR+0x34>
80005304:	30047073          	csrci	mstatus,8
80005308:	0000006f          	j	80005308 <xTaskGenericNotifyFromISR+0x30>
8000530c:	01c12783          	lw	a5,28(sp)
80005310:	02f12423          	sw	a5,40(sp)
80005314:	d54fb0ef          	jal	ra,80000868 <vPortSetInterruptMask>
80005318:	00050793          	mv	a5,a0
8000531c:	02f12223          	sw	a5,36(sp)
80005320:	01012783          	lw	a5,16(sp)
80005324:	00078a63          	beqz	a5,80005338 <xTaskGenericNotifyFromISR+0x60>
80005328:	02812783          	lw	a5,40(sp)
8000532c:	0587a703          	lw	a4,88(a5)
80005330:	01012783          	lw	a5,16(sp)
80005334:	00e7a023          	sw	a4,0(a5)
80005338:	02812783          	lw	a5,40(sp)
8000533c:	05c7c783          	lbu	a5,92(a5)
80005340:	02f101a3          	sb	a5,35(sp)
80005344:	02812783          	lw	a5,40(sp)
80005348:	00200713          	li	a4,2
8000534c:	04e78e23          	sb	a4,92(a5)
80005350:	01412703          	lw	a4,20(sp)
80005354:	00400793          	li	a5,4
80005358:	08e7ec63          	bltu	a5,a4,800053f0 <xTaskGenericNotifyFromISR+0x118>
8000535c:	01412783          	lw	a5,20(sp)
80005360:	00279713          	slli	a4,a5,0x2
80005364:	0004b797          	auipc	a5,0x4b
80005368:	cb878793          	addi	a5,a5,-840 # 8005001c <__rodata_start+0x1c>
8000536c:	00f707b3          	add	a5,a4,a5
80005370:	0007a703          	lw	a4,0(a5)
80005374:	0004b797          	auipc	a5,0x4b
80005378:	ca878793          	addi	a5,a5,-856 # 8005001c <__rodata_start+0x1c>
8000537c:	00f707b3          	add	a5,a4,a5
80005380:	00078067          	jr	a5
80005384:	02812783          	lw	a5,40(sp)
80005388:	0587a703          	lw	a4,88(a5)
8000538c:	01812783          	lw	a5,24(sp)
80005390:	00f76733          	or	a4,a4,a5
80005394:	02812783          	lw	a5,40(sp)
80005398:	04e7ac23          	sw	a4,88(a5)
8000539c:	0540006f          	j	800053f0 <xTaskGenericNotifyFromISR+0x118>
800053a0:	02812783          	lw	a5,40(sp)
800053a4:	0587a783          	lw	a5,88(a5)
800053a8:	00178713          	addi	a4,a5,1
800053ac:	02812783          	lw	a5,40(sp)
800053b0:	04e7ac23          	sw	a4,88(a5)
800053b4:	03c0006f          	j	800053f0 <xTaskGenericNotifyFromISR+0x118>
800053b8:	02812783          	lw	a5,40(sp)
800053bc:	01812703          	lw	a4,24(sp)
800053c0:	04e7ac23          	sw	a4,88(a5)
800053c4:	02c0006f          	j	800053f0 <xTaskGenericNotifyFromISR+0x118>
800053c8:	02314703          	lbu	a4,35(sp)
800053cc:	00200793          	li	a5,2
800053d0:	00f70a63          	beq	a4,a5,800053e4 <xTaskGenericNotifyFromISR+0x10c>
800053d4:	02812783          	lw	a5,40(sp)
800053d8:	01812703          	lw	a4,24(sp)
800053dc:	04e7ac23          	sw	a4,88(a5)
800053e0:	0100006f          	j	800053f0 <xTaskGenericNotifyFromISR+0x118>
800053e4:	02012623          	sw	zero,44(sp)
800053e8:	0080006f          	j	800053f0 <xTaskGenericNotifyFromISR+0x118>
800053ec:	00000013          	nop
800053f0:	02314703          	lbu	a4,35(sp)
800053f4:	00100793          	li	a5,1
800053f8:	0ef71e63          	bne	a4,a5,800054f4 <xTaskGenericNotifyFromISR+0x21c>
800053fc:	02812783          	lw	a5,40(sp)
80005400:	0287a783          	lw	a5,40(a5)
80005404:	00078663          	beqz	a5,80005410 <xTaskGenericNotifyFromISR+0x138>
80005408:	30047073          	csrci	mstatus,8
8000540c:	0000006f          	j	8000540c <xTaskGenericNotifyFromISR+0x134>
80005410:	0004b797          	auipc	a5,0x4b
80005414:	3e878793          	addi	a5,a5,1000 # 800507f8 <uxSchedulerSuspended>
80005418:	0007a783          	lw	a5,0(a5)
8000541c:	06079e63          	bnez	a5,80005498 <xTaskGenericNotifyFromISR+0x1c0>
80005420:	02812783          	lw	a5,40(sp)
80005424:	00478793          	addi	a5,a5,4
80005428:	00078513          	mv	a0,a5
8000542c:	ec8fb0ef          	jal	ra,80000af4 <uxListRemove>
80005430:	02812783          	lw	a5,40(sp)
80005434:	02c7a703          	lw	a4,44(a5)
80005438:	0004b797          	auipc	a5,0x4b
8000543c:	3a078793          	addi	a5,a5,928 # 800507d8 <uxTopReadyPriority>
80005440:	0007a783          	lw	a5,0(a5)
80005444:	00e7fc63          	bgeu	a5,a4,8000545c <xTaskGenericNotifyFromISR+0x184>
80005448:	02812783          	lw	a5,40(sp)
8000544c:	02c7a703          	lw	a4,44(a5)
80005450:	0004b797          	auipc	a5,0x4b
80005454:	38878793          	addi	a5,a5,904 # 800507d8 <uxTopReadyPriority>
80005458:	00e7a023          	sw	a4,0(a5)
8000545c:	02812783          	lw	a5,40(sp)
80005460:	02c7a703          	lw	a4,44(a5)
80005464:	00070793          	mv	a5,a4
80005468:	00279793          	slli	a5,a5,0x2
8000546c:	00e787b3          	add	a5,a5,a4
80005470:	00279793          	slli	a5,a5,0x2
80005474:	0004b717          	auipc	a4,0x4b
80005478:	28870713          	addi	a4,a4,648 # 800506fc <pxReadyTasksLists>
8000547c:	00e78733          	add	a4,a5,a4
80005480:	02812783          	lw	a5,40(sp)
80005484:	00478793          	addi	a5,a5,4
80005488:	00078593          	mv	a1,a5
8000548c:	00070513          	mv	a0,a4
80005490:	d20fb0ef          	jal	ra,800009b0 <vListInsertEnd>
80005494:	01c0006f          	j	800054b0 <xTaskGenericNotifyFromISR+0x1d8>
80005498:	02812783          	lw	a5,40(sp)
8000549c:	01878793          	addi	a5,a5,24
800054a0:	00078593          	mv	a1,a5
800054a4:	0004b517          	auipc	a0,0x4b
800054a8:	2ec50513          	addi	a0,a0,748 # 80050790 <xPendingReadyList>
800054ac:	d04fb0ef          	jal	ra,800009b0 <vListInsertEnd>
800054b0:	02812783          	lw	a5,40(sp)
800054b4:	02c7a703          	lw	a4,44(a5)
800054b8:	0004b797          	auipc	a5,0x4b
800054bc:	fc878793          	addi	a5,a5,-56 # 80050480 <pxCurrentTCB>
800054c0:	0007a783          	lw	a5,0(a5)
800054c4:	02c7a783          	lw	a5,44(a5)
800054c8:	02e7f663          	bgeu	a5,a4,800054f4 <xTaskGenericNotifyFromISR+0x21c>
800054cc:	00c12783          	lw	a5,12(sp)
800054d0:	00078a63          	beqz	a5,800054e4 <xTaskGenericNotifyFromISR+0x20c>
800054d4:	00c12783          	lw	a5,12(sp)
800054d8:	00100713          	li	a4,1
800054dc:	00e7a023          	sw	a4,0(a5)
800054e0:	0140006f          	j	800054f4 <xTaskGenericNotifyFromISR+0x21c>
800054e4:	0004b797          	auipc	a5,0x4b
800054e8:	30078793          	addi	a5,a5,768 # 800507e4 <xYieldPending>
800054ec:	00100713          	li	a4,1
800054f0:	00e7a023          	sw	a4,0(a5)
800054f4:	02412783          	lw	a5,36(sp)
800054f8:	00078513          	mv	a0,a5
800054fc:	b50fb0ef          	jal	ra,8000084c <vPortClearInterruptMask>
80005500:	02c12783          	lw	a5,44(sp)
80005504:	00078513          	mv	a0,a5
80005508:	03c12083          	lw	ra,60(sp)
8000550c:	04010113          	addi	sp,sp,64
80005510:	00008067          	ret

80005514 <vTaskNotifyGiveFromISR>:
80005514:	fd010113          	addi	sp,sp,-48
80005518:	02112623          	sw	ra,44(sp)
8000551c:	00a12623          	sw	a0,12(sp)
80005520:	00b12423          	sw	a1,8(sp)
80005524:	00c12783          	lw	a5,12(sp)
80005528:	00079663          	bnez	a5,80005534 <vTaskNotifyGiveFromISR+0x20>
8000552c:	30047073          	csrci	mstatus,8
80005530:	0000006f          	j	80005530 <vTaskNotifyGiveFromISR+0x1c>
80005534:	00c12783          	lw	a5,12(sp)
80005538:	00f12e23          	sw	a5,28(sp)
8000553c:	b2cfb0ef          	jal	ra,80000868 <vPortSetInterruptMask>
80005540:	00050793          	mv	a5,a0
80005544:	00f12c23          	sw	a5,24(sp)
80005548:	01c12783          	lw	a5,28(sp)
8000554c:	05c7c783          	lbu	a5,92(a5)
80005550:	00f10ba3          	sb	a5,23(sp)
80005554:	01c12783          	lw	a5,28(sp)
80005558:	00200713          	li	a4,2
8000555c:	04e78e23          	sb	a4,92(a5)
80005560:	01c12783          	lw	a5,28(sp)
80005564:	0587a783          	lw	a5,88(a5)
80005568:	00178713          	addi	a4,a5,1
8000556c:	01c12783          	lw	a5,28(sp)
80005570:	04e7ac23          	sw	a4,88(a5)
80005574:	01714703          	lbu	a4,23(sp)
80005578:	00100793          	li	a5,1
8000557c:	0ef71e63          	bne	a4,a5,80005678 <vTaskNotifyGiveFromISR+0x164>
80005580:	01c12783          	lw	a5,28(sp)
80005584:	0287a783          	lw	a5,40(a5)
80005588:	00078663          	beqz	a5,80005594 <vTaskNotifyGiveFromISR+0x80>
8000558c:	30047073          	csrci	mstatus,8
80005590:	0000006f          	j	80005590 <vTaskNotifyGiveFromISR+0x7c>
80005594:	0004b797          	auipc	a5,0x4b
80005598:	26478793          	addi	a5,a5,612 # 800507f8 <uxSchedulerSuspended>
8000559c:	0007a783          	lw	a5,0(a5)
800055a0:	06079e63          	bnez	a5,8000561c <vTaskNotifyGiveFromISR+0x108>
800055a4:	01c12783          	lw	a5,28(sp)
800055a8:	00478793          	addi	a5,a5,4
800055ac:	00078513          	mv	a0,a5
800055b0:	d44fb0ef          	jal	ra,80000af4 <uxListRemove>
800055b4:	01c12783          	lw	a5,28(sp)
800055b8:	02c7a703          	lw	a4,44(a5)
800055bc:	0004b797          	auipc	a5,0x4b
800055c0:	21c78793          	addi	a5,a5,540 # 800507d8 <uxTopReadyPriority>
800055c4:	0007a783          	lw	a5,0(a5)
800055c8:	00e7fc63          	bgeu	a5,a4,800055e0 <vTaskNotifyGiveFromISR+0xcc>
800055cc:	01c12783          	lw	a5,28(sp)
800055d0:	02c7a703          	lw	a4,44(a5)
800055d4:	0004b797          	auipc	a5,0x4b
800055d8:	20478793          	addi	a5,a5,516 # 800507d8 <uxTopReadyPriority>
800055dc:	00e7a023          	sw	a4,0(a5)
800055e0:	01c12783          	lw	a5,28(sp)
800055e4:	02c7a703          	lw	a4,44(a5)
800055e8:	00070793          	mv	a5,a4
800055ec:	00279793          	slli	a5,a5,0x2
800055f0:	00e787b3          	add	a5,a5,a4
800055f4:	00279793          	slli	a5,a5,0x2
800055f8:	0004b717          	auipc	a4,0x4b
800055fc:	10470713          	addi	a4,a4,260 # 800506fc <pxReadyTasksLists>
80005600:	00e78733          	add	a4,a5,a4
80005604:	01c12783          	lw	a5,28(sp)
80005608:	00478793          	addi	a5,a5,4
8000560c:	00078593          	mv	a1,a5
80005610:	00070513          	mv	a0,a4
80005614:	b9cfb0ef          	jal	ra,800009b0 <vListInsertEnd>
80005618:	01c0006f          	j	80005634 <vTaskNotifyGiveFromISR+0x120>
8000561c:	01c12783          	lw	a5,28(sp)
80005620:	01878793          	addi	a5,a5,24
80005624:	00078593          	mv	a1,a5
80005628:	0004b517          	auipc	a0,0x4b
8000562c:	16850513          	addi	a0,a0,360 # 80050790 <xPendingReadyList>
80005630:	b80fb0ef          	jal	ra,800009b0 <vListInsertEnd>
80005634:	01c12783          	lw	a5,28(sp)
80005638:	02c7a703          	lw	a4,44(a5)
8000563c:	0004b797          	auipc	a5,0x4b
80005640:	e4478793          	addi	a5,a5,-444 # 80050480 <pxCurrentTCB>
80005644:	0007a783          	lw	a5,0(a5)
80005648:	02c7a783          	lw	a5,44(a5)
8000564c:	02e7f663          	bgeu	a5,a4,80005678 <vTaskNotifyGiveFromISR+0x164>
80005650:	00812783          	lw	a5,8(sp)
80005654:	00078a63          	beqz	a5,80005668 <vTaskNotifyGiveFromISR+0x154>
80005658:	00812783          	lw	a5,8(sp)
8000565c:	00100713          	li	a4,1
80005660:	00e7a023          	sw	a4,0(a5)
80005664:	0140006f          	j	80005678 <vTaskNotifyGiveFromISR+0x164>
80005668:	0004b797          	auipc	a5,0x4b
8000566c:	17c78793          	addi	a5,a5,380 # 800507e4 <xYieldPending>
80005670:	00100713          	li	a4,1
80005674:	00e7a023          	sw	a4,0(a5)
80005678:	01812783          	lw	a5,24(sp)
8000567c:	00078513          	mv	a0,a5
80005680:	9ccfb0ef          	jal	ra,8000084c <vPortClearInterruptMask>
80005684:	00000013          	nop
80005688:	02c12083          	lw	ra,44(sp)
8000568c:	03010113          	addi	sp,sp,48
80005690:	00008067          	ret

80005694 <xTaskNotifyStateClear>:
80005694:	fd010113          	addi	sp,sp,-48
80005698:	02112623          	sw	ra,44(sp)
8000569c:	00a12623          	sw	a0,12(sp)
800056a0:	00c12783          	lw	a5,12(sp)
800056a4:	00079a63          	bnez	a5,800056b8 <xTaskNotifyStateClear+0x24>
800056a8:	0004b797          	auipc	a5,0x4b
800056ac:	dd878793          	addi	a5,a5,-552 # 80050480 <pxCurrentTCB>
800056b0:	0007a783          	lw	a5,0(a5)
800056b4:	0080006f          	j	800056bc <xTaskNotifyStateClear+0x28>
800056b8:	00c12783          	lw	a5,12(sp)
800056bc:	00f12c23          	sw	a5,24(sp)
800056c0:	f24ff0ef          	jal	ra,80004de4 <vTaskEnterCritical>
800056c4:	01812783          	lw	a5,24(sp)
800056c8:	05c7c783          	lbu	a5,92(a5)
800056cc:	0ff7f713          	andi	a4,a5,255
800056d0:	00200793          	li	a5,2
800056d4:	00f71c63          	bne	a4,a5,800056ec <xTaskNotifyStateClear+0x58>
800056d8:	01812783          	lw	a5,24(sp)
800056dc:	04078e23          	sb	zero,92(a5)
800056e0:	00100793          	li	a5,1
800056e4:	00f12e23          	sw	a5,28(sp)
800056e8:	0080006f          	j	800056f0 <xTaskNotifyStateClear+0x5c>
800056ec:	00012e23          	sw	zero,28(sp)
800056f0:	f34ff0ef          	jal	ra,80004e24 <vTaskExitCritical>
800056f4:	01c12783          	lw	a5,28(sp)
800056f8:	00078513          	mv	a0,a5
800056fc:	02c12083          	lw	ra,44(sp)
80005700:	03010113          	addi	sp,sp,48
80005704:	00008067          	ret

80005708 <prvAddCurrentTaskToDelayedList>:
80005708:	fd010113          	addi	sp,sp,-48
8000570c:	02112623          	sw	ra,44(sp)
80005710:	00a12623          	sw	a0,12(sp)
80005714:	00b12423          	sw	a1,8(sp)
80005718:	0004b797          	auipc	a5,0x4b
8000571c:	0bc78793          	addi	a5,a5,188 # 800507d4 <xTickCount>
80005720:	0007a783          	lw	a5,0(a5)
80005724:	00f12e23          	sw	a5,28(sp)
80005728:	0004b797          	auipc	a5,0x4b
8000572c:	d5878793          	addi	a5,a5,-680 # 80050480 <pxCurrentTCB>
80005730:	0007a783          	lw	a5,0(a5)
80005734:	00478793          	addi	a5,a5,4
80005738:	00078513          	mv	a0,a5
8000573c:	bb8fb0ef          	jal	ra,80000af4 <uxListRemove>
80005740:	00c12703          	lw	a4,12(sp)
80005744:	fff00793          	li	a5,-1
80005748:	02f71863          	bne	a4,a5,80005778 <prvAddCurrentTaskToDelayedList+0x70>
8000574c:	00812783          	lw	a5,8(sp)
80005750:	02078463          	beqz	a5,80005778 <prvAddCurrentTaskToDelayedList+0x70>
80005754:	0004b797          	auipc	a5,0x4b
80005758:	d2c78793          	addi	a5,a5,-724 # 80050480 <pxCurrentTCB>
8000575c:	0007a783          	lw	a5,0(a5)
80005760:	00478793          	addi	a5,a5,4
80005764:	00078593          	mv	a1,a5
80005768:	0004b517          	auipc	a0,0x4b
8000576c:	05450513          	addi	a0,a0,84 # 800507bc <xSuspendedTaskList>
80005770:	a40fb0ef          	jal	ra,800009b0 <vListInsertEnd>
80005774:	0ac0006f          	j	80005820 <prvAddCurrentTaskToDelayedList+0x118>
80005778:	01c12703          	lw	a4,28(sp)
8000577c:	00c12783          	lw	a5,12(sp)
80005780:	00f707b3          	add	a5,a4,a5
80005784:	00f12c23          	sw	a5,24(sp)
80005788:	0004b797          	auipc	a5,0x4b
8000578c:	cf878793          	addi	a5,a5,-776 # 80050480 <pxCurrentTCB>
80005790:	0007a783          	lw	a5,0(a5)
80005794:	01812703          	lw	a4,24(sp)
80005798:	00e7a223          	sw	a4,4(a5)
8000579c:	01812703          	lw	a4,24(sp)
800057a0:	01c12783          	lw	a5,28(sp)
800057a4:	02f77863          	bgeu	a4,a5,800057d4 <prvAddCurrentTaskToDelayedList+0xcc>
800057a8:	0004b797          	auipc	a5,0x4b
800057ac:	fe478793          	addi	a5,a5,-28 # 8005078c <pxOverflowDelayedTaskList>
800057b0:	0007a703          	lw	a4,0(a5)
800057b4:	0004b797          	auipc	a5,0x4b
800057b8:	ccc78793          	addi	a5,a5,-820 # 80050480 <pxCurrentTCB>
800057bc:	0007a783          	lw	a5,0(a5)
800057c0:	00478793          	addi	a5,a5,4
800057c4:	00078593          	mv	a1,a5
800057c8:	00070513          	mv	a0,a4
800057cc:	a60fb0ef          	jal	ra,80000a2c <vListInsert>
800057d0:	0500006f          	j	80005820 <prvAddCurrentTaskToDelayedList+0x118>
800057d4:	0004b797          	auipc	a5,0x4b
800057d8:	fb478793          	addi	a5,a5,-76 # 80050788 <pxDelayedTaskList>
800057dc:	0007a703          	lw	a4,0(a5)
800057e0:	0004b797          	auipc	a5,0x4b
800057e4:	ca078793          	addi	a5,a5,-864 # 80050480 <pxCurrentTCB>
800057e8:	0007a783          	lw	a5,0(a5)
800057ec:	00478793          	addi	a5,a5,4
800057f0:	00078593          	mv	a1,a5
800057f4:	00070513          	mv	a0,a4
800057f8:	a34fb0ef          	jal	ra,80000a2c <vListInsert>
800057fc:	0004b797          	auipc	a5,0x4b
80005800:	ff478793          	addi	a5,a5,-12 # 800507f0 <xNextTaskUnblockTime>
80005804:	0007a783          	lw	a5,0(a5)
80005808:	01812703          	lw	a4,24(sp)
8000580c:	00f77a63          	bgeu	a4,a5,80005820 <prvAddCurrentTaskToDelayedList+0x118>
80005810:	0004b797          	auipc	a5,0x4b
80005814:	fe078793          	addi	a5,a5,-32 # 800507f0 <xNextTaskUnblockTime>
80005818:	01812703          	lw	a4,24(sp)
8000581c:	00e7a023          	sw	a4,0(a5)
80005820:	00000013          	nop
80005824:	02c12083          	lw	ra,44(sp)
80005828:	03010113          	addi	sp,sp,48
8000582c:	00008067          	ret

80005830 <xTimerCreateTimerTask>:
80005830:	fe010113          	addi	sp,sp,-32
80005834:	00112e23          	sw	ra,28(sp)
80005838:	00012623          	sw	zero,12(sp)
8000583c:	189000ef          	jal	ra,800061c4 <prvCheckForValidListAndQueue>
80005840:	0004b797          	auipc	a5,0x4b
80005844:	fec78793          	addi	a5,a5,-20 # 8005082c <xTimerQueue>
80005848:	0007a783          	lw	a5,0(a5)
8000584c:	02078863          	beqz	a5,8000587c <xTimerCreateTimerTask+0x4c>
80005850:	0004b797          	auipc	a5,0x4b
80005854:	fe078793          	addi	a5,a5,-32 # 80050830 <xTimerTaskHandle>
80005858:	00200713          	li	a4,2
8000585c:	00000693          	li	a3,0
80005860:	40000613          	li	a2,1024
80005864:	0004a597          	auipc	a1,0x4a
80005868:	7cc58593          	addi	a1,a1,1996 # 80050030 <__rodata_start+0x30>
8000586c:	00000517          	auipc	a0,0x0
80005870:	3c450513          	addi	a0,a0,964 # 80005c30 <prvTimerTask>
80005874:	d69fc0ef          	jal	ra,800025dc <xTaskCreate>
80005878:	00a12623          	sw	a0,12(sp)
8000587c:	00c12783          	lw	a5,12(sp)
80005880:	00079663          	bnez	a5,8000588c <xTimerCreateTimerTask+0x5c>
80005884:	30047073          	csrci	mstatus,8
80005888:	0000006f          	j	80005888 <xTimerCreateTimerTask+0x58>
8000588c:	00c12783          	lw	a5,12(sp)
80005890:	00078513          	mv	a0,a5
80005894:	01c12083          	lw	ra,28(sp)
80005898:	02010113          	addi	sp,sp,32
8000589c:	00008067          	ret

800058a0 <xTimerCreate>:
800058a0:	fc010113          	addi	sp,sp,-64
800058a4:	02112e23          	sw	ra,60(sp)
800058a8:	00a12e23          	sw	a0,28(sp)
800058ac:	00b12c23          	sw	a1,24(sp)
800058b0:	00c12a23          	sw	a2,20(sp)
800058b4:	00d12823          	sw	a3,16(sp)
800058b8:	00e12623          	sw	a4,12(sp)
800058bc:	02c00513          	li	a0,44
800058c0:	338010ef          	jal	ra,80006bf8 <pvPortMalloc>
800058c4:	02a12623          	sw	a0,44(sp)
800058c8:	02c12783          	lw	a5,44(sp)
800058cc:	02078063          	beqz	a5,800058ec <xTimerCreate+0x4c>
800058d0:	02c12783          	lw	a5,44(sp)
800058d4:	00c12703          	lw	a4,12(sp)
800058d8:	01012683          	lw	a3,16(sp)
800058dc:	01412603          	lw	a2,20(sp)
800058e0:	01812583          	lw	a1,24(sp)
800058e4:	01c12503          	lw	a0,28(sp)
800058e8:	018000ef          	jal	ra,80005900 <prvInitialiseNewTimer>
800058ec:	02c12783          	lw	a5,44(sp)
800058f0:	00078513          	mv	a0,a5
800058f4:	03c12083          	lw	ra,60(sp)
800058f8:	04010113          	addi	sp,sp,64
800058fc:	00008067          	ret

80005900 <prvInitialiseNewTimer>:
80005900:	fd010113          	addi	sp,sp,-48
80005904:	02112623          	sw	ra,44(sp)
80005908:	00a12e23          	sw	a0,28(sp)
8000590c:	00b12c23          	sw	a1,24(sp)
80005910:	00c12a23          	sw	a2,20(sp)
80005914:	00d12823          	sw	a3,16(sp)
80005918:	00e12623          	sw	a4,12(sp)
8000591c:	00f12423          	sw	a5,8(sp)
80005920:	01812783          	lw	a5,24(sp)
80005924:	00079663          	bnez	a5,80005930 <prvInitialiseNewTimer+0x30>
80005928:	30047073          	csrci	mstatus,8
8000592c:	0000006f          	j	8000592c <prvInitialiseNewTimer+0x2c>
80005930:	00812783          	lw	a5,8(sp)
80005934:	04078a63          	beqz	a5,80005988 <prvInitialiseNewTimer+0x88>
80005938:	08d000ef          	jal	ra,800061c4 <prvCheckForValidListAndQueue>
8000593c:	00812783          	lw	a5,8(sp)
80005940:	01c12703          	lw	a4,28(sp)
80005944:	00e7a023          	sw	a4,0(a5)
80005948:	00812783          	lw	a5,8(sp)
8000594c:	01812703          	lw	a4,24(sp)
80005950:	00e7ac23          	sw	a4,24(a5)
80005954:	00812783          	lw	a5,8(sp)
80005958:	01412703          	lw	a4,20(sp)
8000595c:	00e7ae23          	sw	a4,28(a5)
80005960:	00812783          	lw	a5,8(sp)
80005964:	01012703          	lw	a4,16(sp)
80005968:	02e7a023          	sw	a4,32(a5)
8000596c:	00812783          	lw	a5,8(sp)
80005970:	00c12703          	lw	a4,12(sp)
80005974:	02e7a223          	sw	a4,36(a5)
80005978:	00812783          	lw	a5,8(sp)
8000597c:	00478793          	addi	a5,a5,4
80005980:	00078513          	mv	a0,a5
80005984:	810fb0ef          	jal	ra,80000994 <vListInitialiseItem>
80005988:	00000013          	nop
8000598c:	02c12083          	lw	ra,44(sp)
80005990:	03010113          	addi	sp,sp,48
80005994:	00008067          	ret

80005998 <xTimerGenericCommand>:
80005998:	fc010113          	addi	sp,sp,-64
8000599c:	02112e23          	sw	ra,60(sp)
800059a0:	00a12e23          	sw	a0,28(sp)
800059a4:	00b12c23          	sw	a1,24(sp)
800059a8:	00c12a23          	sw	a2,20(sp)
800059ac:	00d12823          	sw	a3,16(sp)
800059b0:	00e12623          	sw	a4,12(sp)
800059b4:	02012623          	sw	zero,44(sp)
800059b8:	01c12783          	lw	a5,28(sp)
800059bc:	00079663          	bnez	a5,800059c8 <xTimerGenericCommand+0x30>
800059c0:	30047073          	csrci	mstatus,8
800059c4:	0000006f          	j	800059c4 <xTimerGenericCommand+0x2c>
800059c8:	0004b797          	auipc	a5,0x4b
800059cc:	e6478793          	addi	a5,a5,-412 # 8005082c <xTimerQueue>
800059d0:	0007a783          	lw	a5,0(a5)
800059d4:	0a078c63          	beqz	a5,80005a8c <xTimerGenericCommand+0xf4>
800059d8:	01812783          	lw	a5,24(sp)
800059dc:	02f12023          	sw	a5,32(sp)
800059e0:	01412783          	lw	a5,20(sp)
800059e4:	02f12223          	sw	a5,36(sp)
800059e8:	01c12783          	lw	a5,28(sp)
800059ec:	02f12423          	sw	a5,40(sp)
800059f0:	01812703          	lw	a4,24(sp)
800059f4:	00500793          	li	a5,5
800059f8:	06e7c663          	blt	a5,a4,80005a64 <xTimerGenericCommand+0xcc>
800059fc:	f31fe0ef          	jal	ra,8000492c <xTaskGetSchedulerState>
80005a00:	00050713          	mv	a4,a0
80005a04:	00200793          	li	a5,2
80005a08:	02f71863          	bne	a4,a5,80005a38 <xTimerGenericCommand+0xa0>
80005a0c:	0004b797          	auipc	a5,0x4b
80005a10:	e2078793          	addi	a5,a5,-480 # 8005082c <xTimerQueue>
80005a14:	0007a783          	lw	a5,0(a5)
80005a18:	02010713          	addi	a4,sp,32
80005a1c:	00000693          	li	a3,0
80005a20:	00c12603          	lw	a2,12(sp)
80005a24:	00070593          	mv	a1,a4
80005a28:	00078513          	mv	a0,a5
80005a2c:	e04fb0ef          	jal	ra,80001030 <xQueueGenericSend>
80005a30:	02a12623          	sw	a0,44(sp)
80005a34:	0580006f          	j	80005a8c <xTimerGenericCommand+0xf4>
80005a38:	0004b797          	auipc	a5,0x4b
80005a3c:	df478793          	addi	a5,a5,-524 # 8005082c <xTimerQueue>
80005a40:	0007a783          	lw	a5,0(a5)
80005a44:	02010713          	addi	a4,sp,32
80005a48:	00000693          	li	a3,0
80005a4c:	00000613          	li	a2,0
80005a50:	00070593          	mv	a1,a4
80005a54:	00078513          	mv	a0,a5
80005a58:	dd8fb0ef          	jal	ra,80001030 <xQueueGenericSend>
80005a5c:	02a12623          	sw	a0,44(sp)
80005a60:	02c0006f          	j	80005a8c <xTimerGenericCommand+0xf4>
80005a64:	0004b797          	auipc	a5,0x4b
80005a68:	dc878793          	addi	a5,a5,-568 # 8005082c <xTimerQueue>
80005a6c:	0007a783          	lw	a5,0(a5)
80005a70:	02010713          	addi	a4,sp,32
80005a74:	00000693          	li	a3,0
80005a78:	01012603          	lw	a2,16(sp)
80005a7c:	00070593          	mv	a1,a4
80005a80:	00078513          	mv	a0,a5
80005a84:	ff8fb0ef          	jal	ra,8000127c <xQueueGenericSendFromISR>
80005a88:	02a12623          	sw	a0,44(sp)
80005a8c:	02c12783          	lw	a5,44(sp)
80005a90:	00078513          	mv	a0,a5
80005a94:	03c12083          	lw	ra,60(sp)
80005a98:	04010113          	addi	sp,sp,64
80005a9c:	00008067          	ret

80005aa0 <xTimerGetTimerDaemonTaskHandle>:
80005aa0:	0004b797          	auipc	a5,0x4b
80005aa4:	d9078793          	addi	a5,a5,-624 # 80050830 <xTimerTaskHandle>
80005aa8:	0007a783          	lw	a5,0(a5)
80005aac:	00079663          	bnez	a5,80005ab8 <xTimerGetTimerDaemonTaskHandle+0x18>
80005ab0:	30047073          	csrci	mstatus,8
80005ab4:	0000006f          	j	80005ab4 <xTimerGetTimerDaemonTaskHandle+0x14>
80005ab8:	0004b797          	auipc	a5,0x4b
80005abc:	d7878793          	addi	a5,a5,-648 # 80050830 <xTimerTaskHandle>
80005ac0:	0007a783          	lw	a5,0(a5)
80005ac4:	00078513          	mv	a0,a5
80005ac8:	00008067          	ret

80005acc <xTimerGetPeriod>:
80005acc:	fe010113          	addi	sp,sp,-32
80005ad0:	00a12623          	sw	a0,12(sp)
80005ad4:	00c12783          	lw	a5,12(sp)
80005ad8:	00f12e23          	sw	a5,28(sp)
80005adc:	00c12783          	lw	a5,12(sp)
80005ae0:	00079663          	bnez	a5,80005aec <xTimerGetPeriod+0x20>
80005ae4:	30047073          	csrci	mstatus,8
80005ae8:	0000006f          	j	80005ae8 <xTimerGetPeriod+0x1c>
80005aec:	01c12783          	lw	a5,28(sp)
80005af0:	0187a783          	lw	a5,24(a5)
80005af4:	00078513          	mv	a0,a5
80005af8:	02010113          	addi	sp,sp,32
80005afc:	00008067          	ret

80005b00 <xTimerGetExpiryTime>:
80005b00:	fe010113          	addi	sp,sp,-32
80005b04:	00a12623          	sw	a0,12(sp)
80005b08:	00c12783          	lw	a5,12(sp)
80005b0c:	00f12e23          	sw	a5,28(sp)
80005b10:	00c12783          	lw	a5,12(sp)
80005b14:	00079663          	bnez	a5,80005b20 <xTimerGetExpiryTime+0x20>
80005b18:	30047073          	csrci	mstatus,8
80005b1c:	0000006f          	j	80005b1c <xTimerGetExpiryTime+0x1c>
80005b20:	01c12783          	lw	a5,28(sp)
80005b24:	0047a783          	lw	a5,4(a5)
80005b28:	00f12c23          	sw	a5,24(sp)
80005b2c:	01812783          	lw	a5,24(sp)
80005b30:	00078513          	mv	a0,a5
80005b34:	02010113          	addi	sp,sp,32
80005b38:	00008067          	ret

80005b3c <pcTimerGetName>:
80005b3c:	fe010113          	addi	sp,sp,-32
80005b40:	00a12623          	sw	a0,12(sp)
80005b44:	00c12783          	lw	a5,12(sp)
80005b48:	00f12e23          	sw	a5,28(sp)
80005b4c:	00c12783          	lw	a5,12(sp)
80005b50:	00079663          	bnez	a5,80005b5c <pcTimerGetName+0x20>
80005b54:	30047073          	csrci	mstatus,8
80005b58:	0000006f          	j	80005b58 <pcTimerGetName+0x1c>
80005b5c:	01c12783          	lw	a5,28(sp)
80005b60:	0007a783          	lw	a5,0(a5)
80005b64:	00078513          	mv	a0,a5
80005b68:	02010113          	addi	sp,sp,32
80005b6c:	00008067          	ret

80005b70 <prvProcessExpiredTimer>:
80005b70:	fd010113          	addi	sp,sp,-48
80005b74:	02112623          	sw	ra,44(sp)
80005b78:	00a12623          	sw	a0,12(sp)
80005b7c:	00b12423          	sw	a1,8(sp)
80005b80:	0004b797          	auipc	a5,0x4b
80005b84:	ca478793          	addi	a5,a5,-860 # 80050824 <pxCurrentTimerList>
80005b88:	0007a783          	lw	a5,0(a5)
80005b8c:	00c7a783          	lw	a5,12(a5)
80005b90:	00c7a783          	lw	a5,12(a5)
80005b94:	00f12e23          	sw	a5,28(sp)
80005b98:	01c12783          	lw	a5,28(sp)
80005b9c:	00478793          	addi	a5,a5,4
80005ba0:	00078513          	mv	a0,a5
80005ba4:	f51fa0ef          	jal	ra,80000af4 <uxListRemove>
80005ba8:	01c12783          	lw	a5,28(sp)
80005bac:	01c7a703          	lw	a4,28(a5)
80005bb0:	00100793          	li	a5,1
80005bb4:	04f71e63          	bne	a4,a5,80005c10 <prvProcessExpiredTimer+0xa0>
80005bb8:	01c12783          	lw	a5,28(sp)
80005bbc:	0187a703          	lw	a4,24(a5)
80005bc0:	00c12783          	lw	a5,12(sp)
80005bc4:	00f707b3          	add	a5,a4,a5
80005bc8:	00c12683          	lw	a3,12(sp)
80005bcc:	00812603          	lw	a2,8(sp)
80005bd0:	00078593          	mv	a1,a5
80005bd4:	01c12503          	lw	a0,28(sp)
80005bd8:	224000ef          	jal	ra,80005dfc <prvInsertTimerInActiveList>
80005bdc:	00050793          	mv	a5,a0
80005be0:	02078863          	beqz	a5,80005c10 <prvProcessExpiredTimer+0xa0>
80005be4:	00000713          	li	a4,0
80005be8:	00000693          	li	a3,0
80005bec:	00c12603          	lw	a2,12(sp)
80005bf0:	00000593          	li	a1,0
80005bf4:	01c12503          	lw	a0,28(sp)
80005bf8:	da1ff0ef          	jal	ra,80005998 <xTimerGenericCommand>
80005bfc:	00a12c23          	sw	a0,24(sp)
80005c00:	01812783          	lw	a5,24(sp)
80005c04:	00079663          	bnez	a5,80005c10 <prvProcessExpiredTimer+0xa0>
80005c08:	30047073          	csrci	mstatus,8
80005c0c:	0000006f          	j	80005c0c <prvProcessExpiredTimer+0x9c>
80005c10:	01c12783          	lw	a5,28(sp)
80005c14:	0247a783          	lw	a5,36(a5)
80005c18:	01c12503          	lw	a0,28(sp)
80005c1c:	000780e7          	jalr	a5
80005c20:	00000013          	nop
80005c24:	02c12083          	lw	ra,44(sp)
80005c28:	03010113          	addi	sp,sp,48
80005c2c:	00008067          	ret

80005c30 <prvTimerTask>:
80005c30:	fd010113          	addi	sp,sp,-48
80005c34:	02112623          	sw	ra,44(sp)
80005c38:	00a12623          	sw	a0,12(sp)
80005c3c:	01810793          	addi	a5,sp,24
80005c40:	00078513          	mv	a0,a5
80005c44:	0e8000ef          	jal	ra,80005d2c <prvGetNextExpireTime>
80005c48:	00a12e23          	sw	a0,28(sp)
80005c4c:	01812783          	lw	a5,24(sp)
80005c50:	00078593          	mv	a1,a5
80005c54:	01c12503          	lw	a0,28(sp)
80005c58:	00c000ef          	jal	ra,80005c64 <prvProcessTimerOrBlockTask>
80005c5c:	280000ef          	jal	ra,80005edc <prvProcessReceivedCommands>
80005c60:	fddff06f          	j	80005c3c <prvTimerTask+0xc>

80005c64 <prvProcessTimerOrBlockTask>:
80005c64:	fd010113          	addi	sp,sp,-48
80005c68:	02112623          	sw	ra,44(sp)
80005c6c:	00a12623          	sw	a0,12(sp)
80005c70:	00b12423          	sw	a1,8(sp)
80005c74:	8b9fd0ef          	jal	ra,8000352c <vTaskSuspendAll>
80005c78:	01810793          	addi	a5,sp,24
80005c7c:	00078513          	mv	a0,a5
80005c80:	114000ef          	jal	ra,80005d94 <prvSampleTimeNow>
80005c84:	00a12e23          	sw	a0,28(sp)
80005c88:	01812783          	lw	a5,24(sp)
80005c8c:	08079663          	bnez	a5,80005d18 <prvProcessTimerOrBlockTask+0xb4>
80005c90:	00812783          	lw	a5,8(sp)
80005c94:	02079263          	bnez	a5,80005cb8 <prvProcessTimerOrBlockTask+0x54>
80005c98:	00c12703          	lw	a4,12(sp)
80005c9c:	01c12783          	lw	a5,28(sp)
80005ca0:	00e7ec63          	bltu	a5,a4,80005cb8 <prvProcessTimerOrBlockTask+0x54>
80005ca4:	8adfd0ef          	jal	ra,80003550 <xTaskResumeAll>
80005ca8:	01c12583          	lw	a1,28(sp)
80005cac:	00c12503          	lw	a0,12(sp)
80005cb0:	ec1ff0ef          	jal	ra,80005b70 <prvProcessExpiredTimer>
80005cb4:	0680006f          	j	80005d1c <prvProcessTimerOrBlockTask+0xb8>
80005cb8:	00812783          	lw	a5,8(sp)
80005cbc:	02078063          	beqz	a5,80005cdc <prvProcessTimerOrBlockTask+0x78>
80005cc0:	0004b797          	auipc	a5,0x4b
80005cc4:	b6878793          	addi	a5,a5,-1176 # 80050828 <pxOverflowTimerList>
80005cc8:	0007a783          	lw	a5,0(a5)
80005ccc:	0007a783          	lw	a5,0(a5)
80005cd0:	0017b793          	seqz	a5,a5
80005cd4:	0ff7f793          	andi	a5,a5,255
80005cd8:	00f12423          	sw	a5,8(sp)
80005cdc:	0004b797          	auipc	a5,0x4b
80005ce0:	b5078793          	addi	a5,a5,-1200 # 8005082c <xTimerQueue>
80005ce4:	0007a683          	lw	a3,0(a5)
80005ce8:	00c12703          	lw	a4,12(sp)
80005cec:	01c12783          	lw	a5,28(sp)
80005cf0:	40f707b3          	sub	a5,a4,a5
80005cf4:	00812603          	lw	a2,8(sp)
80005cf8:	00078593          	mv	a1,a5
80005cfc:	00068513          	mv	a0,a3
80005d00:	83dfc0ef          	jal	ra,8000253c <vQueueWaitForMessageRestricted>
80005d04:	84dfd0ef          	jal	ra,80003550 <xTaskResumeAll>
80005d08:	00050793          	mv	a5,a0
80005d0c:	00079863          	bnez	a5,80005d1c <prvProcessTimerOrBlockTask+0xb8>
80005d10:	945fa0ef          	jal	ra,80000654 <vPortYield>
80005d14:	0080006f          	j	80005d1c <prvProcessTimerOrBlockTask+0xb8>
80005d18:	839fd0ef          	jal	ra,80003550 <xTaskResumeAll>
80005d1c:	00000013          	nop
80005d20:	02c12083          	lw	ra,44(sp)
80005d24:	03010113          	addi	sp,sp,48
80005d28:	00008067          	ret

80005d2c <prvGetNextExpireTime>:
80005d2c:	fe010113          	addi	sp,sp,-32
80005d30:	00a12623          	sw	a0,12(sp)
80005d34:	0004b797          	auipc	a5,0x4b
80005d38:	af078793          	addi	a5,a5,-1296 # 80050824 <pxCurrentTimerList>
80005d3c:	0007a783          	lw	a5,0(a5)
80005d40:	0007a783          	lw	a5,0(a5)
80005d44:	0017b793          	seqz	a5,a5
80005d48:	0ff7f793          	andi	a5,a5,255
80005d4c:	00078713          	mv	a4,a5
80005d50:	00c12783          	lw	a5,12(sp)
80005d54:	00e7a023          	sw	a4,0(a5)
80005d58:	00c12783          	lw	a5,12(sp)
80005d5c:	0007a783          	lw	a5,0(a5)
80005d60:	02079063          	bnez	a5,80005d80 <prvGetNextExpireTime+0x54>
80005d64:	0004b797          	auipc	a5,0x4b
80005d68:	ac078793          	addi	a5,a5,-1344 # 80050824 <pxCurrentTimerList>
80005d6c:	0007a783          	lw	a5,0(a5)
80005d70:	00c7a783          	lw	a5,12(a5)
80005d74:	0007a783          	lw	a5,0(a5)
80005d78:	00f12e23          	sw	a5,28(sp)
80005d7c:	0080006f          	j	80005d84 <prvGetNextExpireTime+0x58>
80005d80:	00012e23          	sw	zero,28(sp)
80005d84:	01c12783          	lw	a5,28(sp)
80005d88:	00078513          	mv	a0,a5
80005d8c:	02010113          	addi	sp,sp,32
80005d90:	00008067          	ret

80005d94 <prvSampleTimeNow>:
80005d94:	fd010113          	addi	sp,sp,-48
80005d98:	02112623          	sw	ra,44(sp)
80005d9c:	00a12623          	sw	a0,12(sp)
80005da0:	985fd0ef          	jal	ra,80003724 <xTaskGetTickCount>
80005da4:	00a12e23          	sw	a0,28(sp)
80005da8:	0004b797          	auipc	a5,0x4b
80005dac:	a8c78793          	addi	a5,a5,-1396 # 80050834 <xLastTime.0>
80005db0:	0007a783          	lw	a5,0(a5)
80005db4:	01c12703          	lw	a4,28(sp)
80005db8:	00f77c63          	bgeu	a4,a5,80005dd0 <prvSampleTimeNow+0x3c>
80005dbc:	2b8000ef          	jal	ra,80006074 <prvSwitchTimerLists>
80005dc0:	00c12783          	lw	a5,12(sp)
80005dc4:	00100713          	li	a4,1
80005dc8:	00e7a023          	sw	a4,0(a5)
80005dcc:	00c0006f          	j	80005dd8 <prvSampleTimeNow+0x44>
80005dd0:	00c12783          	lw	a5,12(sp)
80005dd4:	0007a023          	sw	zero,0(a5)
80005dd8:	0004b797          	auipc	a5,0x4b
80005ddc:	a5c78793          	addi	a5,a5,-1444 # 80050834 <xLastTime.0>
80005de0:	01c12703          	lw	a4,28(sp)
80005de4:	00e7a023          	sw	a4,0(a5)
80005de8:	01c12783          	lw	a5,28(sp)
80005dec:	00078513          	mv	a0,a5
80005df0:	02c12083          	lw	ra,44(sp)
80005df4:	03010113          	addi	sp,sp,48
80005df8:	00008067          	ret

80005dfc <prvInsertTimerInActiveList>:
80005dfc:	fd010113          	addi	sp,sp,-48
80005e00:	02112623          	sw	ra,44(sp)
80005e04:	00a12623          	sw	a0,12(sp)
80005e08:	00b12423          	sw	a1,8(sp)
80005e0c:	00c12223          	sw	a2,4(sp)
80005e10:	00d12023          	sw	a3,0(sp)
80005e14:	00012e23          	sw	zero,28(sp)
80005e18:	00c12783          	lw	a5,12(sp)
80005e1c:	00812703          	lw	a4,8(sp)
80005e20:	00e7a223          	sw	a4,4(a5)
80005e24:	00c12783          	lw	a5,12(sp)
80005e28:	00c12703          	lw	a4,12(sp)
80005e2c:	00e7a823          	sw	a4,16(a5)
80005e30:	00812703          	lw	a4,8(sp)
80005e34:	00412783          	lw	a5,4(sp)
80005e38:	04e7e663          	bltu	a5,a4,80005e84 <prvInsertTimerInActiveList+0x88>
80005e3c:	00412703          	lw	a4,4(sp)
80005e40:	00012783          	lw	a5,0(sp)
80005e44:	40f70733          	sub	a4,a4,a5
80005e48:	00c12783          	lw	a5,12(sp)
80005e4c:	0187a783          	lw	a5,24(a5)
80005e50:	00f76863          	bltu	a4,a5,80005e60 <prvInsertTimerInActiveList+0x64>
80005e54:	00100793          	li	a5,1
80005e58:	00f12e23          	sw	a5,28(sp)
80005e5c:	06c0006f          	j	80005ec8 <prvInsertTimerInActiveList+0xcc>
80005e60:	0004b797          	auipc	a5,0x4b
80005e64:	9c878793          	addi	a5,a5,-1592 # 80050828 <pxOverflowTimerList>
80005e68:	0007a703          	lw	a4,0(a5)
80005e6c:	00c12783          	lw	a5,12(sp)
80005e70:	00478793          	addi	a5,a5,4
80005e74:	00078593          	mv	a1,a5
80005e78:	00070513          	mv	a0,a4
80005e7c:	bb1fa0ef          	jal	ra,80000a2c <vListInsert>
80005e80:	0480006f          	j	80005ec8 <prvInsertTimerInActiveList+0xcc>
80005e84:	00412703          	lw	a4,4(sp)
80005e88:	00012783          	lw	a5,0(sp)
80005e8c:	00f77e63          	bgeu	a4,a5,80005ea8 <prvInsertTimerInActiveList+0xac>
80005e90:	00812703          	lw	a4,8(sp)
80005e94:	00012783          	lw	a5,0(sp)
80005e98:	00f76863          	bltu	a4,a5,80005ea8 <prvInsertTimerInActiveList+0xac>
80005e9c:	00100793          	li	a5,1
80005ea0:	00f12e23          	sw	a5,28(sp)
80005ea4:	0240006f          	j	80005ec8 <prvInsertTimerInActiveList+0xcc>
80005ea8:	0004b797          	auipc	a5,0x4b
80005eac:	97c78793          	addi	a5,a5,-1668 # 80050824 <pxCurrentTimerList>
80005eb0:	0007a703          	lw	a4,0(a5)
80005eb4:	00c12783          	lw	a5,12(sp)
80005eb8:	00478793          	addi	a5,a5,4
80005ebc:	00078593          	mv	a1,a5
80005ec0:	00070513          	mv	a0,a4
80005ec4:	b69fa0ef          	jal	ra,80000a2c <vListInsert>
80005ec8:	01c12783          	lw	a5,28(sp)
80005ecc:	00078513          	mv	a0,a5
80005ed0:	02c12083          	lw	ra,44(sp)
80005ed4:	03010113          	addi	sp,sp,48
80005ed8:	00008067          	ret

80005edc <prvProcessReceivedCommands>:
80005edc:	fd010113          	addi	sp,sp,-48
80005ee0:	02112623          	sw	ra,44(sp)
80005ee4:	1540006f          	j	80006038 <prvProcessReceivedCommands+0x15c>
80005ee8:	00812783          	lw	a5,8(sp)
80005eec:	1407c463          	bltz	a5,80006034 <prvProcessReceivedCommands+0x158>
80005ef0:	01012783          	lw	a5,16(sp)
80005ef4:	00f12e23          	sw	a5,28(sp)
80005ef8:	01c12783          	lw	a5,28(sp)
80005efc:	0147a783          	lw	a5,20(a5)
80005f00:	00078a63          	beqz	a5,80005f14 <prvProcessReceivedCommands+0x38>
80005f04:	01c12783          	lw	a5,28(sp)
80005f08:	00478793          	addi	a5,a5,4
80005f0c:	00078513          	mv	a0,a5
80005f10:	be5fa0ef          	jal	ra,80000af4 <uxListRemove>
80005f14:	00410793          	addi	a5,sp,4
80005f18:	00078513          	mv	a0,a5
80005f1c:	e79ff0ef          	jal	ra,80005d94 <prvSampleTimeNow>
80005f20:	00a12c23          	sw	a0,24(sp)
80005f24:	00812783          	lw	a5,8(sp)
80005f28:	00900713          	li	a4,9
80005f2c:	10f76663          	bltu	a4,a5,80006038 <prvProcessReceivedCommands+0x15c>
80005f30:	00279713          	slli	a4,a5,0x2
80005f34:	0004a797          	auipc	a5,0x4a
80005f38:	10478793          	addi	a5,a5,260 # 80050038 <__rodata_start+0x38>
80005f3c:	00f707b3          	add	a5,a4,a5
80005f40:	0007a703          	lw	a4,0(a5)
80005f44:	0004a797          	auipc	a5,0x4a
80005f48:	0f478793          	addi	a5,a5,244 # 80050038 <__rodata_start+0x38>
80005f4c:	00f707b3          	add	a5,a4,a5
80005f50:	00078067          	jr	a5
80005f54:	00c12703          	lw	a4,12(sp)
80005f58:	01c12783          	lw	a5,28(sp)
80005f5c:	0187a783          	lw	a5,24(a5)
80005f60:	00f707b3          	add	a5,a4,a5
80005f64:	00c12703          	lw	a4,12(sp)
80005f68:	00070693          	mv	a3,a4
80005f6c:	01812603          	lw	a2,24(sp)
80005f70:	00078593          	mv	a1,a5
80005f74:	01c12503          	lw	a0,28(sp)
80005f78:	e85ff0ef          	jal	ra,80005dfc <prvInsertTimerInActiveList>
80005f7c:	00050793          	mv	a5,a0
80005f80:	0a078c63          	beqz	a5,80006038 <prvProcessReceivedCommands+0x15c>
80005f84:	01c12783          	lw	a5,28(sp)
80005f88:	0247a783          	lw	a5,36(a5)
80005f8c:	01c12503          	lw	a0,28(sp)
80005f90:	000780e7          	jalr	a5
80005f94:	01c12783          	lw	a5,28(sp)
80005f98:	01c7a703          	lw	a4,28(a5)
80005f9c:	00100793          	li	a5,1
80005fa0:	08f71c63          	bne	a4,a5,80006038 <prvProcessReceivedCommands+0x15c>
80005fa4:	00c12703          	lw	a4,12(sp)
80005fa8:	01c12783          	lw	a5,28(sp)
80005fac:	0187a783          	lw	a5,24(a5)
80005fb0:	00f707b3          	add	a5,a4,a5
80005fb4:	00000713          	li	a4,0
80005fb8:	00000693          	li	a3,0
80005fbc:	00078613          	mv	a2,a5
80005fc0:	00000593          	li	a1,0
80005fc4:	01c12503          	lw	a0,28(sp)
80005fc8:	9d1ff0ef          	jal	ra,80005998 <xTimerGenericCommand>
80005fcc:	00a12a23          	sw	a0,20(sp)
80005fd0:	01412783          	lw	a5,20(sp)
80005fd4:	06079263          	bnez	a5,80006038 <prvProcessReceivedCommands+0x15c>
80005fd8:	30047073          	csrci	mstatus,8
80005fdc:	0000006f          	j	80005fdc <prvProcessReceivedCommands+0x100>
80005fe0:	00c12703          	lw	a4,12(sp)
80005fe4:	01c12783          	lw	a5,28(sp)
80005fe8:	00e7ac23          	sw	a4,24(a5)
80005fec:	01c12783          	lw	a5,28(sp)
80005ff0:	0187a783          	lw	a5,24(a5)
80005ff4:	00079663          	bnez	a5,80006000 <prvProcessReceivedCommands+0x124>
80005ff8:	30047073          	csrci	mstatus,8
80005ffc:	0000006f          	j	80005ffc <prvProcessReceivedCommands+0x120>
80006000:	01c12783          	lw	a5,28(sp)
80006004:	0187a703          	lw	a4,24(a5)
80006008:	01812783          	lw	a5,24(sp)
8000600c:	00f707b3          	add	a5,a4,a5
80006010:	01812683          	lw	a3,24(sp)
80006014:	01812603          	lw	a2,24(sp)
80006018:	00078593          	mv	a1,a5
8000601c:	01c12503          	lw	a0,28(sp)
80006020:	dddff0ef          	jal	ra,80005dfc <prvInsertTimerInActiveList>
80006024:	0140006f          	j	80006038 <prvProcessReceivedCommands+0x15c>
80006028:	01c12503          	lw	a0,28(sp)
8000602c:	5c9000ef          	jal	ra,80006df4 <vPortFree>
80006030:	0080006f          	j	80006038 <prvProcessReceivedCommands+0x15c>
80006034:	00000013          	nop
80006038:	0004a797          	auipc	a5,0x4a
8000603c:	7f478793          	addi	a5,a5,2036 # 8005082c <xTimerQueue>
80006040:	0007a783          	lw	a5,0(a5)
80006044:	00810713          	addi	a4,sp,8
80006048:	00000613          	li	a2,0
8000604c:	00070593          	mv	a1,a4
80006050:	00078513          	mv	a0,a5
80006054:	cd8fb0ef          	jal	ra,8000152c <xQueueReceive>
80006058:	00050793          	mv	a5,a0
8000605c:	e80796e3          	bnez	a5,80005ee8 <prvProcessReceivedCommands+0xc>
80006060:	00000013          	nop
80006064:	00000013          	nop
80006068:	02c12083          	lw	ra,44(sp)
8000606c:	03010113          	addi	sp,sp,48
80006070:	00008067          	ret

80006074 <prvSwitchTimerLists>:
80006074:	fd010113          	addi	sp,sp,-48
80006078:	02112623          	sw	ra,44(sp)
8000607c:	0ec0006f          	j	80006168 <prvSwitchTimerLists+0xf4>
80006080:	0004a797          	auipc	a5,0x4a
80006084:	7a478793          	addi	a5,a5,1956 # 80050824 <pxCurrentTimerList>
80006088:	0007a783          	lw	a5,0(a5)
8000608c:	00c7a783          	lw	a5,12(a5)
80006090:	0007a783          	lw	a5,0(a5)
80006094:	00f12c23          	sw	a5,24(sp)
80006098:	0004a797          	auipc	a5,0x4a
8000609c:	78c78793          	addi	a5,a5,1932 # 80050824 <pxCurrentTimerList>
800060a0:	0007a783          	lw	a5,0(a5)
800060a4:	00c7a783          	lw	a5,12(a5)
800060a8:	00c7a783          	lw	a5,12(a5)
800060ac:	00f12a23          	sw	a5,20(sp)
800060b0:	01412783          	lw	a5,20(sp)
800060b4:	00478793          	addi	a5,a5,4
800060b8:	00078513          	mv	a0,a5
800060bc:	a39fa0ef          	jal	ra,80000af4 <uxListRemove>
800060c0:	01412783          	lw	a5,20(sp)
800060c4:	0247a783          	lw	a5,36(a5)
800060c8:	01412503          	lw	a0,20(sp)
800060cc:	000780e7          	jalr	a5
800060d0:	01412783          	lw	a5,20(sp)
800060d4:	01c7a703          	lw	a4,28(a5)
800060d8:	00100793          	li	a5,1
800060dc:	08f71663          	bne	a4,a5,80006168 <prvSwitchTimerLists+0xf4>
800060e0:	01412783          	lw	a5,20(sp)
800060e4:	0187a783          	lw	a5,24(a5)
800060e8:	01812703          	lw	a4,24(sp)
800060ec:	00f707b3          	add	a5,a4,a5
800060f0:	00f12823          	sw	a5,16(sp)
800060f4:	01012703          	lw	a4,16(sp)
800060f8:	01812783          	lw	a5,24(sp)
800060fc:	04e7f063          	bgeu	a5,a4,8000613c <prvSwitchTimerLists+0xc8>
80006100:	01412783          	lw	a5,20(sp)
80006104:	01012703          	lw	a4,16(sp)
80006108:	00e7a223          	sw	a4,4(a5)
8000610c:	01412783          	lw	a5,20(sp)
80006110:	01412703          	lw	a4,20(sp)
80006114:	00e7a823          	sw	a4,16(a5)
80006118:	0004a797          	auipc	a5,0x4a
8000611c:	70c78793          	addi	a5,a5,1804 # 80050824 <pxCurrentTimerList>
80006120:	0007a703          	lw	a4,0(a5)
80006124:	01412783          	lw	a5,20(sp)
80006128:	00478793          	addi	a5,a5,4
8000612c:	00078593          	mv	a1,a5
80006130:	00070513          	mv	a0,a4
80006134:	8f9fa0ef          	jal	ra,80000a2c <vListInsert>
80006138:	0300006f          	j	80006168 <prvSwitchTimerLists+0xf4>
8000613c:	00000713          	li	a4,0
80006140:	00000693          	li	a3,0
80006144:	01812603          	lw	a2,24(sp)
80006148:	00000593          	li	a1,0
8000614c:	01412503          	lw	a0,20(sp)
80006150:	849ff0ef          	jal	ra,80005998 <xTimerGenericCommand>
80006154:	00a12623          	sw	a0,12(sp)
80006158:	00c12783          	lw	a5,12(sp)
8000615c:	00079663          	bnez	a5,80006168 <prvSwitchTimerLists+0xf4>
80006160:	30047073          	csrci	mstatus,8
80006164:	0000006f          	j	80006164 <prvSwitchTimerLists+0xf0>
80006168:	0004a797          	auipc	a5,0x4a
8000616c:	6bc78793          	addi	a5,a5,1724 # 80050824 <pxCurrentTimerList>
80006170:	0007a783          	lw	a5,0(a5)
80006174:	0007a783          	lw	a5,0(a5)
80006178:	f00794e3          	bnez	a5,80006080 <prvSwitchTimerLists+0xc>
8000617c:	0004a797          	auipc	a5,0x4a
80006180:	6a878793          	addi	a5,a5,1704 # 80050824 <pxCurrentTimerList>
80006184:	0007a783          	lw	a5,0(a5)
80006188:	00f12e23          	sw	a5,28(sp)
8000618c:	0004a797          	auipc	a5,0x4a
80006190:	69c78793          	addi	a5,a5,1692 # 80050828 <pxOverflowTimerList>
80006194:	0007a703          	lw	a4,0(a5)
80006198:	0004a797          	auipc	a5,0x4a
8000619c:	68c78793          	addi	a5,a5,1676 # 80050824 <pxCurrentTimerList>
800061a0:	00e7a023          	sw	a4,0(a5)
800061a4:	0004a797          	auipc	a5,0x4a
800061a8:	68478793          	addi	a5,a5,1668 # 80050828 <pxOverflowTimerList>
800061ac:	01c12703          	lw	a4,28(sp)
800061b0:	00e7a023          	sw	a4,0(a5)
800061b4:	00000013          	nop
800061b8:	02c12083          	lw	ra,44(sp)
800061bc:	03010113          	addi	sp,sp,48
800061c0:	00008067          	ret

800061c4 <prvCheckForValidListAndQueue>:
800061c4:	ff010113          	addi	sp,sp,-16
800061c8:	00112623          	sw	ra,12(sp)
800061cc:	c19fe0ef          	jal	ra,80004de4 <vTaskEnterCritical>
800061d0:	0004a797          	auipc	a5,0x4a
800061d4:	65c78793          	addi	a5,a5,1628 # 8005082c <xTimerQueue>
800061d8:	0007a783          	lw	a5,0(a5)
800061dc:	08079863          	bnez	a5,8000626c <prvCheckForValidListAndQueue+0xa8>
800061e0:	0004a517          	auipc	a0,0x4a
800061e4:	61c50513          	addi	a0,a0,1564 # 800507fc <xActiveTimerList1>
800061e8:	f54fa0ef          	jal	ra,8000093c <vListInitialise>
800061ec:	0004a517          	auipc	a0,0x4a
800061f0:	62450513          	addi	a0,a0,1572 # 80050810 <xActiveTimerList2>
800061f4:	f48fa0ef          	jal	ra,8000093c <vListInitialise>
800061f8:	0004a797          	auipc	a5,0x4a
800061fc:	62c78793          	addi	a5,a5,1580 # 80050824 <pxCurrentTimerList>
80006200:	0004a717          	auipc	a4,0x4a
80006204:	5fc70713          	addi	a4,a4,1532 # 800507fc <xActiveTimerList1>
80006208:	00e7a023          	sw	a4,0(a5)
8000620c:	0004a797          	auipc	a5,0x4a
80006210:	61c78793          	addi	a5,a5,1564 # 80050828 <pxOverflowTimerList>
80006214:	0004a717          	auipc	a4,0x4a
80006218:	5fc70713          	addi	a4,a4,1532 # 80050810 <xActiveTimerList2>
8000621c:	00e7a023          	sw	a4,0(a5)
80006220:	00000613          	li	a2,0
80006224:	00c00593          	li	a1,12
80006228:	00200513          	li	a0,2
8000622c:	a91fa0ef          	jal	ra,80000cbc <xQueueGenericCreate>
80006230:	00050713          	mv	a4,a0
80006234:	0004a797          	auipc	a5,0x4a
80006238:	5f878793          	addi	a5,a5,1528 # 8005082c <xTimerQueue>
8000623c:	00e7a023          	sw	a4,0(a5)
80006240:	0004a797          	auipc	a5,0x4a
80006244:	5ec78793          	addi	a5,a5,1516 # 8005082c <xTimerQueue>
80006248:	0007a783          	lw	a5,0(a5)
8000624c:	02078063          	beqz	a5,8000626c <prvCheckForValidListAndQueue+0xa8>
80006250:	0004a797          	auipc	a5,0x4a
80006254:	5dc78793          	addi	a5,a5,1500 # 8005082c <xTimerQueue>
80006258:	0007a783          	lw	a5,0(a5)
8000625c:	0004a597          	auipc	a1,0x4a
80006260:	e0458593          	addi	a1,a1,-508 # 80050060 <__rodata_start+0x60>
80006264:	00078513          	mv	a0,a5
80006268:	938fc0ef          	jal	ra,800023a0 <vQueueAddToRegistry>
8000626c:	bb9fe0ef          	jal	ra,80004e24 <vTaskExitCritical>
80006270:	00000013          	nop
80006274:	00c12083          	lw	ra,12(sp)
80006278:	01010113          	addi	sp,sp,16
8000627c:	00008067          	ret

80006280 <xTimerIsTimerActive>:
80006280:	fd010113          	addi	sp,sp,-48
80006284:	02112623          	sw	ra,44(sp)
80006288:	00a12623          	sw	a0,12(sp)
8000628c:	00c12783          	lw	a5,12(sp)
80006290:	00f12e23          	sw	a5,28(sp)
80006294:	00c12783          	lw	a5,12(sp)
80006298:	00079663          	bnez	a5,800062a4 <xTimerIsTimerActive+0x24>
8000629c:	30047073          	csrci	mstatus,8
800062a0:	0000006f          	j	800062a0 <xTimerIsTimerActive+0x20>
800062a4:	b41fe0ef          	jal	ra,80004de4 <vTaskEnterCritical>
800062a8:	01c12783          	lw	a5,28(sp)
800062ac:	0147a783          	lw	a5,20(a5)
800062b0:	00f037b3          	snez	a5,a5
800062b4:	0ff7f793          	andi	a5,a5,255
800062b8:	00f12c23          	sw	a5,24(sp)
800062bc:	b69fe0ef          	jal	ra,80004e24 <vTaskExitCritical>
800062c0:	01812783          	lw	a5,24(sp)
800062c4:	00078513          	mv	a0,a5
800062c8:	02c12083          	lw	ra,44(sp)
800062cc:	03010113          	addi	sp,sp,48
800062d0:	00008067          	ret

800062d4 <pvTimerGetTimerID>:
800062d4:	fd010113          	addi	sp,sp,-48
800062d8:	02112623          	sw	ra,44(sp)
800062dc:	00a12623          	sw	a0,12(sp)
800062e0:	00c12783          	lw	a5,12(sp)
800062e4:	00f12e23          	sw	a5,28(sp)
800062e8:	00c12783          	lw	a5,12(sp)
800062ec:	00079663          	bnez	a5,800062f8 <pvTimerGetTimerID+0x24>
800062f0:	30047073          	csrci	mstatus,8
800062f4:	0000006f          	j	800062f4 <pvTimerGetTimerID+0x20>
800062f8:	aedfe0ef          	jal	ra,80004de4 <vTaskEnterCritical>
800062fc:	01c12783          	lw	a5,28(sp)
80006300:	0207a783          	lw	a5,32(a5)
80006304:	00f12c23          	sw	a5,24(sp)
80006308:	b1dfe0ef          	jal	ra,80004e24 <vTaskExitCritical>
8000630c:	01812783          	lw	a5,24(sp)
80006310:	00078513          	mv	a0,a5
80006314:	02c12083          	lw	ra,44(sp)
80006318:	03010113          	addi	sp,sp,48
8000631c:	00008067          	ret

80006320 <vTimerSetTimerID>:
80006320:	fd010113          	addi	sp,sp,-48
80006324:	02112623          	sw	ra,44(sp)
80006328:	00a12623          	sw	a0,12(sp)
8000632c:	00b12423          	sw	a1,8(sp)
80006330:	00c12783          	lw	a5,12(sp)
80006334:	00f12e23          	sw	a5,28(sp)
80006338:	00c12783          	lw	a5,12(sp)
8000633c:	00079663          	bnez	a5,80006348 <vTimerSetTimerID+0x28>
80006340:	30047073          	csrci	mstatus,8
80006344:	0000006f          	j	80006344 <vTimerSetTimerID+0x24>
80006348:	a9dfe0ef          	jal	ra,80004de4 <vTaskEnterCritical>
8000634c:	01c12783          	lw	a5,28(sp)
80006350:	00812703          	lw	a4,8(sp)
80006354:	02e7a023          	sw	a4,32(a5)
80006358:	acdfe0ef          	jal	ra,80004e24 <vTaskExitCritical>
8000635c:	00000013          	nop
80006360:	02c12083          	lw	ra,44(sp)
80006364:	03010113          	addi	sp,sp,48
80006368:	00008067          	ret

8000636c <uxTimerGetTimerNumber>:
8000636c:	ff010113          	addi	sp,sp,-16
80006370:	00a12623          	sw	a0,12(sp)
80006374:	00c12783          	lw	a5,12(sp)
80006378:	0287a783          	lw	a5,40(a5)
8000637c:	00078513          	mv	a0,a5
80006380:	01010113          	addi	sp,sp,16
80006384:	00008067          	ret

80006388 <vTimerSetTimerNumber>:
80006388:	ff010113          	addi	sp,sp,-16
8000638c:	00a12623          	sw	a0,12(sp)
80006390:	00b12423          	sw	a1,8(sp)
80006394:	00c12783          	lw	a5,12(sp)
80006398:	00812703          	lw	a4,8(sp)
8000639c:	02e7a423          	sw	a4,40(a5)
800063a0:	00000013          	nop
800063a4:	01010113          	addi	sp,sp,16
800063a8:	00008067          	ret

800063ac <xEventGroupCreate>:
800063ac:	fe010113          	addi	sp,sp,-32
800063b0:	00112e23          	sw	ra,28(sp)
800063b4:	01c00513          	li	a0,28
800063b8:	041000ef          	jal	ra,80006bf8 <pvPortMalloc>
800063bc:	00a12623          	sw	a0,12(sp)
800063c0:	00c12783          	lw	a5,12(sp)
800063c4:	00078e63          	beqz	a5,800063e0 <xEventGroupCreate+0x34>
800063c8:	00c12783          	lw	a5,12(sp)
800063cc:	0007a023          	sw	zero,0(a5)
800063d0:	00c12783          	lw	a5,12(sp)
800063d4:	00478793          	addi	a5,a5,4
800063d8:	00078513          	mv	a0,a5
800063dc:	d60fa0ef          	jal	ra,8000093c <vListInitialise>
800063e0:	00c12783          	lw	a5,12(sp)
800063e4:	00078513          	mv	a0,a5
800063e8:	01c12083          	lw	ra,28(sp)
800063ec:	02010113          	addi	sp,sp,32
800063f0:	00008067          	ret

800063f4 <xEventGroupSync>:
800063f4:	fc010113          	addi	sp,sp,-64
800063f8:	02112e23          	sw	ra,60(sp)
800063fc:	00a12623          	sw	a0,12(sp)
80006400:	00b12423          	sw	a1,8(sp)
80006404:	00c12223          	sw	a2,4(sp)
80006408:	00d12023          	sw	a3,0(sp)
8000640c:	00c12783          	lw	a5,12(sp)
80006410:	02f12423          	sw	a5,40(sp)
80006414:	02012223          	sw	zero,36(sp)
80006418:	00412703          	lw	a4,4(sp)
8000641c:	ff0007b7          	lui	a5,0xff000
80006420:	00f777b3          	and	a5,a4,a5
80006424:	00078663          	beqz	a5,80006430 <xEventGroupSync+0x3c>
80006428:	30047073          	csrci	mstatus,8
8000642c:	0000006f          	j	8000642c <xEventGroupSync+0x38>
80006430:	00412783          	lw	a5,4(sp)
80006434:	00079663          	bnez	a5,80006440 <xEventGroupSync+0x4c>
80006438:	30047073          	csrci	mstatus,8
8000643c:	0000006f          	j	8000643c <xEventGroupSync+0x48>
80006440:	cecfe0ef          	jal	ra,8000492c <xTaskGetSchedulerState>
80006444:	00050793          	mv	a5,a0
80006448:	00079663          	bnez	a5,80006454 <xEventGroupSync+0x60>
8000644c:	00012783          	lw	a5,0(sp)
80006450:	00079663          	bnez	a5,8000645c <xEventGroupSync+0x68>
80006454:	00100793          	li	a5,1
80006458:	0080006f          	j	80006460 <xEventGroupSync+0x6c>
8000645c:	00000793          	li	a5,0
80006460:	00079663          	bnez	a5,8000646c <xEventGroupSync+0x78>
80006464:	30047073          	csrci	mstatus,8
80006468:	0000006f          	j	80006468 <xEventGroupSync+0x74>
8000646c:	8c0fd0ef          	jal	ra,8000352c <vTaskSuspendAll>
80006470:	02812783          	lw	a5,40(sp)
80006474:	0007a783          	lw	a5,0(a5) # ff000000 <__stack+0x7ee8668c>
80006478:	02f12023          	sw	a5,32(sp)
8000647c:	00812583          	lw	a1,8(sp)
80006480:	00c12503          	lw	a0,12(sp)
80006484:	42c000ef          	jal	ra,800068b0 <xEventGroupSetBits>
80006488:	02012703          	lw	a4,32(sp)
8000648c:	00812783          	lw	a5,8(sp)
80006490:	00f76733          	or	a4,a4,a5
80006494:	00412783          	lw	a5,4(sp)
80006498:	00f777b3          	and	a5,a4,a5
8000649c:	00412703          	lw	a4,4(sp)
800064a0:	02f71c63          	bne	a4,a5,800064d8 <xEventGroupSync+0xe4>
800064a4:	02012703          	lw	a4,32(sp)
800064a8:	00812783          	lw	a5,8(sp)
800064ac:	00f767b3          	or	a5,a4,a5
800064b0:	02f12623          	sw	a5,44(sp)
800064b4:	02812783          	lw	a5,40(sp)
800064b8:	0007a703          	lw	a4,0(a5)
800064bc:	00412783          	lw	a5,4(sp)
800064c0:	fff7c793          	not	a5,a5
800064c4:	00f77733          	and	a4,a4,a5
800064c8:	02812783          	lw	a5,40(sp)
800064cc:	00e7a023          	sw	a4,0(a5)
800064d0:	00012023          	sw	zero,0(sp)
800064d4:	04c0006f          	j	80006520 <xEventGroupSync+0x12c>
800064d8:	00012783          	lw	a5,0(sp)
800064dc:	02078863          	beqz	a5,8000650c <xEventGroupSync+0x118>
800064e0:	02812783          	lw	a5,40(sp)
800064e4:	00478693          	addi	a3,a5,4
800064e8:	00412703          	lw	a4,4(sp)
800064ec:	050007b7          	lui	a5,0x5000
800064f0:	00f767b3          	or	a5,a4,a5
800064f4:	00012603          	lw	a2,0(sp)
800064f8:	00078593          	mv	a1,a5
800064fc:	00068513          	mv	a0,a3
80006500:	995fd0ef          	jal	ra,80003e94 <vTaskPlaceOnUnorderedEventList>
80006504:	02012623          	sw	zero,44(sp)
80006508:	0180006f          	j	80006520 <xEventGroupSync+0x12c>
8000650c:	02812783          	lw	a5,40(sp)
80006510:	0007a783          	lw	a5,0(a5) # 5000000 <SYSCALL_ADDR+0x2ff0000>
80006514:	02f12623          	sw	a5,44(sp)
80006518:	00100793          	li	a5,1
8000651c:	02f12223          	sw	a5,36(sp)
80006520:	830fd0ef          	jal	ra,80003550 <xTaskResumeAll>
80006524:	00a12e23          	sw	a0,28(sp)
80006528:	00012783          	lw	a5,0(sp)
8000652c:	08078463          	beqz	a5,800065b4 <xEventGroupSync+0x1c0>
80006530:	01c12783          	lw	a5,28(sp)
80006534:	00079463          	bnez	a5,8000653c <xEventGroupSync+0x148>
80006538:	91cfa0ef          	jal	ra,80000654 <vPortYield>
8000653c:	945fe0ef          	jal	ra,80004e80 <uxTaskResetEventItemValue>
80006540:	02a12623          	sw	a0,44(sp)
80006544:	02c12703          	lw	a4,44(sp)
80006548:	020007b7          	lui	a5,0x2000
8000654c:	00f777b3          	and	a5,a4,a5
80006550:	04079863          	bnez	a5,800065a0 <xEventGroupSync+0x1ac>
80006554:	891fe0ef          	jal	ra,80004de4 <vTaskEnterCritical>
80006558:	02812783          	lw	a5,40(sp)
8000655c:	0007a783          	lw	a5,0(a5) # 2000000 <_HEAP_SIZE+0x1f00000>
80006560:	02f12623          	sw	a5,44(sp)
80006564:	02c12703          	lw	a4,44(sp)
80006568:	00412783          	lw	a5,4(sp)
8000656c:	00f777b3          	and	a5,a4,a5
80006570:	00412703          	lw	a4,4(sp)
80006574:	02f71063          	bne	a4,a5,80006594 <xEventGroupSync+0x1a0>
80006578:	02812783          	lw	a5,40(sp)
8000657c:	0007a703          	lw	a4,0(a5)
80006580:	00412783          	lw	a5,4(sp)
80006584:	fff7c793          	not	a5,a5
80006588:	00f77733          	and	a4,a4,a5
8000658c:	02812783          	lw	a5,40(sp)
80006590:	00e7a023          	sw	a4,0(a5)
80006594:	891fe0ef          	jal	ra,80004e24 <vTaskExitCritical>
80006598:	00100793          	li	a5,1
8000659c:	02f12223          	sw	a5,36(sp)
800065a0:	02c12703          	lw	a4,44(sp)
800065a4:	010007b7          	lui	a5,0x1000
800065a8:	fff78793          	addi	a5,a5,-1 # ffffff <_HEAP_SIZE+0xefffff>
800065ac:	00f777b3          	and	a5,a4,a5
800065b0:	02f12623          	sw	a5,44(sp)
800065b4:	02c12783          	lw	a5,44(sp)
800065b8:	00078513          	mv	a0,a5
800065bc:	03c12083          	lw	ra,60(sp)
800065c0:	04010113          	addi	sp,sp,64
800065c4:	00008067          	ret

800065c8 <xEventGroupWaitBits>:
800065c8:	fb010113          	addi	sp,sp,-80
800065cc:	04112623          	sw	ra,76(sp)
800065d0:	00a12e23          	sw	a0,28(sp)
800065d4:	00b12c23          	sw	a1,24(sp)
800065d8:	00c12a23          	sw	a2,20(sp)
800065dc:	00d12823          	sw	a3,16(sp)
800065e0:	00e12623          	sw	a4,12(sp)
800065e4:	01c12783          	lw	a5,28(sp)
800065e8:	02f12a23          	sw	a5,52(sp)
800065ec:	02012c23          	sw	zero,56(sp)
800065f0:	02012823          	sw	zero,48(sp)
800065f4:	01c12783          	lw	a5,28(sp)
800065f8:	00079663          	bnez	a5,80006604 <xEventGroupWaitBits+0x3c>
800065fc:	30047073          	csrci	mstatus,8
80006600:	0000006f          	j	80006600 <xEventGroupWaitBits+0x38>
80006604:	01812703          	lw	a4,24(sp)
80006608:	ff0007b7          	lui	a5,0xff000
8000660c:	00f777b3          	and	a5,a4,a5
80006610:	00078663          	beqz	a5,8000661c <xEventGroupWaitBits+0x54>
80006614:	30047073          	csrci	mstatus,8
80006618:	0000006f          	j	80006618 <xEventGroupWaitBits+0x50>
8000661c:	01812783          	lw	a5,24(sp)
80006620:	00079663          	bnez	a5,8000662c <xEventGroupWaitBits+0x64>
80006624:	30047073          	csrci	mstatus,8
80006628:	0000006f          	j	80006628 <xEventGroupWaitBits+0x60>
8000662c:	b00fe0ef          	jal	ra,8000492c <xTaskGetSchedulerState>
80006630:	00050793          	mv	a5,a0
80006634:	00079663          	bnez	a5,80006640 <xEventGroupWaitBits+0x78>
80006638:	00c12783          	lw	a5,12(sp)
8000663c:	00079663          	bnez	a5,80006648 <xEventGroupWaitBits+0x80>
80006640:	00100793          	li	a5,1
80006644:	0080006f          	j	8000664c <xEventGroupWaitBits+0x84>
80006648:	00000793          	li	a5,0
8000664c:	00079663          	bnez	a5,80006658 <xEventGroupWaitBits+0x90>
80006650:	30047073          	csrci	mstatus,8
80006654:	0000006f          	j	80006654 <xEventGroupWaitBits+0x8c>
80006658:	ed5fc0ef          	jal	ra,8000352c <vTaskSuspendAll>
8000665c:	03412783          	lw	a5,52(sp)
80006660:	0007a783          	lw	a5,0(a5) # ff000000 <__stack+0x7ee8668c>
80006664:	02f12623          	sw	a5,44(sp)
80006668:	01012603          	lw	a2,16(sp)
8000666c:	01812583          	lw	a1,24(sp)
80006670:	02c12503          	lw	a0,44(sp)
80006674:	4c0000ef          	jal	ra,80006b34 <prvTestWaitCondition>
80006678:	02a12423          	sw	a0,40(sp)
8000667c:	02812783          	lw	a5,40(sp)
80006680:	02078c63          	beqz	a5,800066b8 <xEventGroupWaitBits+0xf0>
80006684:	02c12783          	lw	a5,44(sp)
80006688:	02f12e23          	sw	a5,60(sp)
8000668c:	00012623          	sw	zero,12(sp)
80006690:	01412783          	lw	a5,20(sp)
80006694:	08078c63          	beqz	a5,8000672c <xEventGroupWaitBits+0x164>
80006698:	03412783          	lw	a5,52(sp)
8000669c:	0007a703          	lw	a4,0(a5)
800066a0:	01812783          	lw	a5,24(sp)
800066a4:	fff7c793          	not	a5,a5
800066a8:	00f77733          	and	a4,a4,a5
800066ac:	03412783          	lw	a5,52(sp)
800066b0:	00e7a023          	sw	a4,0(a5)
800066b4:	0780006f          	j	8000672c <xEventGroupWaitBits+0x164>
800066b8:	00c12783          	lw	a5,12(sp)
800066bc:	00079c63          	bnez	a5,800066d4 <xEventGroupWaitBits+0x10c>
800066c0:	02c12783          	lw	a5,44(sp)
800066c4:	02f12e23          	sw	a5,60(sp)
800066c8:	00100793          	li	a5,1
800066cc:	02f12823          	sw	a5,48(sp)
800066d0:	05c0006f          	j	8000672c <xEventGroupWaitBits+0x164>
800066d4:	01412783          	lw	a5,20(sp)
800066d8:	00078a63          	beqz	a5,800066ec <xEventGroupWaitBits+0x124>
800066dc:	03812703          	lw	a4,56(sp)
800066e0:	010007b7          	lui	a5,0x1000
800066e4:	00f767b3          	or	a5,a4,a5
800066e8:	02f12c23          	sw	a5,56(sp)
800066ec:	01012783          	lw	a5,16(sp)
800066f0:	00078a63          	beqz	a5,80006704 <xEventGroupWaitBits+0x13c>
800066f4:	03812703          	lw	a4,56(sp)
800066f8:	040007b7          	lui	a5,0x4000
800066fc:	00f767b3          	or	a5,a4,a5
80006700:	02f12c23          	sw	a5,56(sp)
80006704:	03412783          	lw	a5,52(sp)
80006708:	00478693          	addi	a3,a5,4 # 4000004 <SYSCALL_ADDR+0x1ff0004>
8000670c:	01812703          	lw	a4,24(sp)
80006710:	03812783          	lw	a5,56(sp)
80006714:	00f767b3          	or	a5,a4,a5
80006718:	00c12603          	lw	a2,12(sp)
8000671c:	00078593          	mv	a1,a5
80006720:	00068513          	mv	a0,a3
80006724:	f70fd0ef          	jal	ra,80003e94 <vTaskPlaceOnUnorderedEventList>
80006728:	02012e23          	sw	zero,60(sp)
8000672c:	e25fc0ef          	jal	ra,80003550 <xTaskResumeAll>
80006730:	02a12223          	sw	a0,36(sp)
80006734:	00c12783          	lw	a5,12(sp)
80006738:	08078a63          	beqz	a5,800067cc <xEventGroupWaitBits+0x204>
8000673c:	02412783          	lw	a5,36(sp)
80006740:	00079463          	bnez	a5,80006748 <xEventGroupWaitBits+0x180>
80006744:	f11f90ef          	jal	ra,80000654 <vPortYield>
80006748:	f38fe0ef          	jal	ra,80004e80 <uxTaskResetEventItemValue>
8000674c:	02a12e23          	sw	a0,60(sp)
80006750:	03c12703          	lw	a4,60(sp)
80006754:	020007b7          	lui	a5,0x2000
80006758:	00f777b3          	and	a5,a4,a5
8000675c:	04079e63          	bnez	a5,800067b8 <xEventGroupWaitBits+0x1f0>
80006760:	e84fe0ef          	jal	ra,80004de4 <vTaskEnterCritical>
80006764:	03412783          	lw	a5,52(sp)
80006768:	0007a783          	lw	a5,0(a5) # 2000000 <_HEAP_SIZE+0x1f00000>
8000676c:	02f12e23          	sw	a5,60(sp)
80006770:	01012603          	lw	a2,16(sp)
80006774:	01812583          	lw	a1,24(sp)
80006778:	03c12503          	lw	a0,60(sp)
8000677c:	3b8000ef          	jal	ra,80006b34 <prvTestWaitCondition>
80006780:	00050793          	mv	a5,a0
80006784:	02078463          	beqz	a5,800067ac <xEventGroupWaitBits+0x1e4>
80006788:	01412783          	lw	a5,20(sp)
8000678c:	02078063          	beqz	a5,800067ac <xEventGroupWaitBits+0x1e4>
80006790:	03412783          	lw	a5,52(sp)
80006794:	0007a703          	lw	a4,0(a5)
80006798:	01812783          	lw	a5,24(sp)
8000679c:	fff7c793          	not	a5,a5
800067a0:	00f77733          	and	a4,a4,a5
800067a4:	03412783          	lw	a5,52(sp)
800067a8:	00e7a023          	sw	a4,0(a5)
800067ac:	00100793          	li	a5,1
800067b0:	02f12823          	sw	a5,48(sp)
800067b4:	e70fe0ef          	jal	ra,80004e24 <vTaskExitCritical>
800067b8:	03c12703          	lw	a4,60(sp)
800067bc:	010007b7          	lui	a5,0x1000
800067c0:	fff78793          	addi	a5,a5,-1 # ffffff <_HEAP_SIZE+0xefffff>
800067c4:	00f777b3          	and	a5,a4,a5
800067c8:	02f12e23          	sw	a5,60(sp)
800067cc:	03c12783          	lw	a5,60(sp)
800067d0:	00078513          	mv	a0,a5
800067d4:	04c12083          	lw	ra,76(sp)
800067d8:	05010113          	addi	sp,sp,80
800067dc:	00008067          	ret

800067e0 <xEventGroupClearBits>:
800067e0:	fd010113          	addi	sp,sp,-48
800067e4:	02112623          	sw	ra,44(sp)
800067e8:	00a12623          	sw	a0,12(sp)
800067ec:	00b12423          	sw	a1,8(sp)
800067f0:	00c12783          	lw	a5,12(sp)
800067f4:	00f12e23          	sw	a5,28(sp)
800067f8:	00c12783          	lw	a5,12(sp)
800067fc:	00079663          	bnez	a5,80006808 <xEventGroupClearBits+0x28>
80006800:	30047073          	csrci	mstatus,8
80006804:	0000006f          	j	80006804 <xEventGroupClearBits+0x24>
80006808:	00812703          	lw	a4,8(sp)
8000680c:	ff0007b7          	lui	a5,0xff000
80006810:	00f777b3          	and	a5,a4,a5
80006814:	00078663          	beqz	a5,80006820 <xEventGroupClearBits+0x40>
80006818:	30047073          	csrci	mstatus,8
8000681c:	0000006f          	j	8000681c <xEventGroupClearBits+0x3c>
80006820:	dc4fe0ef          	jal	ra,80004de4 <vTaskEnterCritical>
80006824:	01c12783          	lw	a5,28(sp)
80006828:	0007a783          	lw	a5,0(a5) # ff000000 <__stack+0x7ee8668c>
8000682c:	00f12c23          	sw	a5,24(sp)
80006830:	01c12783          	lw	a5,28(sp)
80006834:	0007a703          	lw	a4,0(a5)
80006838:	00812783          	lw	a5,8(sp)
8000683c:	fff7c793          	not	a5,a5
80006840:	00f77733          	and	a4,a4,a5
80006844:	01c12783          	lw	a5,28(sp)
80006848:	00e7a023          	sw	a4,0(a5)
8000684c:	dd8fe0ef          	jal	ra,80004e24 <vTaskExitCritical>
80006850:	01812783          	lw	a5,24(sp)
80006854:	00078513          	mv	a0,a5
80006858:	02c12083          	lw	ra,44(sp)
8000685c:	03010113          	addi	sp,sp,48
80006860:	00008067          	ret

80006864 <xEventGroupGetBitsFromISR>:
80006864:	fd010113          	addi	sp,sp,-48
80006868:	02112623          	sw	ra,44(sp)
8000686c:	00a12623          	sw	a0,12(sp)
80006870:	00c12783          	lw	a5,12(sp)
80006874:	00f12e23          	sw	a5,28(sp)
80006878:	ff1f90ef          	jal	ra,80000868 <vPortSetInterruptMask>
8000687c:	00050793          	mv	a5,a0
80006880:	00f12c23          	sw	a5,24(sp)
80006884:	01c12783          	lw	a5,28(sp)
80006888:	0007a783          	lw	a5,0(a5)
8000688c:	00f12a23          	sw	a5,20(sp)
80006890:	01812783          	lw	a5,24(sp)
80006894:	00078513          	mv	a0,a5
80006898:	fb5f90ef          	jal	ra,8000084c <vPortClearInterruptMask>
8000689c:	01412783          	lw	a5,20(sp)
800068a0:	00078513          	mv	a0,a5
800068a4:	02c12083          	lw	ra,44(sp)
800068a8:	03010113          	addi	sp,sp,48
800068ac:	00008067          	ret

800068b0 <xEventGroupSetBits>:
800068b0:	fb010113          	addi	sp,sp,-80
800068b4:	04112623          	sw	ra,76(sp)
800068b8:	00a12623          	sw	a0,12(sp)
800068bc:	00b12423          	sw	a1,8(sp)
800068c0:	02012c23          	sw	zero,56(sp)
800068c4:	00c12783          	lw	a5,12(sp)
800068c8:	02f12823          	sw	a5,48(sp)
800068cc:	02012a23          	sw	zero,52(sp)
800068d0:	00c12783          	lw	a5,12(sp)
800068d4:	00079663          	bnez	a5,800068e0 <xEventGroupSetBits+0x30>
800068d8:	30047073          	csrci	mstatus,8
800068dc:	0000006f          	j	800068dc <xEventGroupSetBits+0x2c>
800068e0:	00812703          	lw	a4,8(sp)
800068e4:	ff0007b7          	lui	a5,0xff000
800068e8:	00f777b3          	and	a5,a4,a5
800068ec:	00078663          	beqz	a5,800068f8 <xEventGroupSetBits+0x48>
800068f0:	30047073          	csrci	mstatus,8
800068f4:	0000006f          	j	800068f4 <xEventGroupSetBits+0x44>
800068f8:	03012783          	lw	a5,48(sp)
800068fc:	00478793          	addi	a5,a5,4 # ff000004 <__stack+0x7ee86690>
80006900:	02f12623          	sw	a5,44(sp)
80006904:	02c12783          	lw	a5,44(sp)
80006908:	00878793          	addi	a5,a5,8
8000690c:	02f12423          	sw	a5,40(sp)
80006910:	c1dfc0ef          	jal	ra,8000352c <vTaskSuspendAll>
80006914:	02c12783          	lw	a5,44(sp)
80006918:	00c7a783          	lw	a5,12(a5)
8000691c:	02f12e23          	sw	a5,60(sp)
80006920:	03012783          	lw	a5,48(sp)
80006924:	0007a703          	lw	a4,0(a5)
80006928:	00812783          	lw	a5,8(sp)
8000692c:	00f76733          	or	a4,a4,a5
80006930:	03012783          	lw	a5,48(sp)
80006934:	00e7a023          	sw	a4,0(a5)
80006938:	0e00006f          	j	80006a18 <xEventGroupSetBits+0x168>
8000693c:	03c12783          	lw	a5,60(sp)
80006940:	0047a783          	lw	a5,4(a5)
80006944:	02f12223          	sw	a5,36(sp)
80006948:	03c12783          	lw	a5,60(sp)
8000694c:	0007a783          	lw	a5,0(a5)
80006950:	02f12023          	sw	a5,32(sp)
80006954:	02012a23          	sw	zero,52(sp)
80006958:	02012703          	lw	a4,32(sp)
8000695c:	ff0007b7          	lui	a5,0xff000
80006960:	00f777b3          	and	a5,a4,a5
80006964:	00f12e23          	sw	a5,28(sp)
80006968:	02012703          	lw	a4,32(sp)
8000696c:	010007b7          	lui	a5,0x1000
80006970:	fff78793          	addi	a5,a5,-1 # ffffff <_HEAP_SIZE+0xefffff>
80006974:	00f777b3          	and	a5,a4,a5
80006978:	02f12023          	sw	a5,32(sp)
8000697c:	01c12703          	lw	a4,28(sp)
80006980:	040007b7          	lui	a5,0x4000
80006984:	00f777b3          	and	a5,a4,a5
80006988:	02079263          	bnez	a5,800069ac <xEventGroupSetBits+0xfc>
8000698c:	03012783          	lw	a5,48(sp)
80006990:	0007a703          	lw	a4,0(a5) # 4000000 <SYSCALL_ADDR+0x1ff0000>
80006994:	02012783          	lw	a5,32(sp)
80006998:	00f777b3          	and	a5,a4,a5
8000699c:	02078863          	beqz	a5,800069cc <xEventGroupSetBits+0x11c>
800069a0:	00100793          	li	a5,1
800069a4:	02f12a23          	sw	a5,52(sp)
800069a8:	0240006f          	j	800069cc <xEventGroupSetBits+0x11c>
800069ac:	03012783          	lw	a5,48(sp)
800069b0:	0007a703          	lw	a4,0(a5)
800069b4:	02012783          	lw	a5,32(sp)
800069b8:	00f777b3          	and	a5,a4,a5
800069bc:	02012703          	lw	a4,32(sp)
800069c0:	00f71663          	bne	a4,a5,800069cc <xEventGroupSetBits+0x11c>
800069c4:	00100793          	li	a5,1
800069c8:	02f12a23          	sw	a5,52(sp)
800069cc:	03412783          	lw	a5,52(sp)
800069d0:	04078063          	beqz	a5,80006a10 <xEventGroupSetBits+0x160>
800069d4:	01c12703          	lw	a4,28(sp)
800069d8:	010007b7          	lui	a5,0x1000
800069dc:	00f777b3          	and	a5,a4,a5
800069e0:	00078a63          	beqz	a5,800069f4 <xEventGroupSetBits+0x144>
800069e4:	03812703          	lw	a4,56(sp)
800069e8:	02012783          	lw	a5,32(sp)
800069ec:	00f767b3          	or	a5,a4,a5
800069f0:	02f12c23          	sw	a5,56(sp)
800069f4:	03012783          	lw	a5,48(sp)
800069f8:	0007a703          	lw	a4,0(a5) # 1000000 <_HEAP_SIZE+0xf00000>
800069fc:	020007b7          	lui	a5,0x2000
80006a00:	00f767b3          	or	a5,a4,a5
80006a04:	00078593          	mv	a1,a5
80006a08:	03c12503          	lw	a0,60(sp)
80006a0c:	eb0fd0ef          	jal	ra,800040bc <vTaskRemoveFromUnorderedEventList>
80006a10:	02412783          	lw	a5,36(sp)
80006a14:	02f12e23          	sw	a5,60(sp)
80006a18:	03c12703          	lw	a4,60(sp)
80006a1c:	02812783          	lw	a5,40(sp)
80006a20:	f0f71ee3          	bne	a4,a5,8000693c <xEventGroupSetBits+0x8c>
80006a24:	03012783          	lw	a5,48(sp)
80006a28:	0007a703          	lw	a4,0(a5) # 2000000 <_HEAP_SIZE+0x1f00000>
80006a2c:	03812783          	lw	a5,56(sp)
80006a30:	fff7c793          	not	a5,a5
80006a34:	00f77733          	and	a4,a4,a5
80006a38:	03012783          	lw	a5,48(sp)
80006a3c:	00e7a023          	sw	a4,0(a5)
80006a40:	b11fc0ef          	jal	ra,80003550 <xTaskResumeAll>
80006a44:	03012783          	lw	a5,48(sp)
80006a48:	0007a783          	lw	a5,0(a5)
80006a4c:	00078513          	mv	a0,a5
80006a50:	04c12083          	lw	ra,76(sp)
80006a54:	05010113          	addi	sp,sp,80
80006a58:	00008067          	ret

80006a5c <vEventGroupDelete>:
80006a5c:	fd010113          	addi	sp,sp,-48
80006a60:	02112623          	sw	ra,44(sp)
80006a64:	00a12623          	sw	a0,12(sp)
80006a68:	00c12783          	lw	a5,12(sp)
80006a6c:	00f12e23          	sw	a5,28(sp)
80006a70:	01c12783          	lw	a5,28(sp)
80006a74:	00478793          	addi	a5,a5,4
80006a78:	00f12c23          	sw	a5,24(sp)
80006a7c:	ab1fc0ef          	jal	ra,8000352c <vTaskSuspendAll>
80006a80:	0340006f          	j	80006ab4 <vEventGroupDelete+0x58>
80006a84:	01812783          	lw	a5,24(sp)
80006a88:	00c7a703          	lw	a4,12(a5)
80006a8c:	01812783          	lw	a5,24(sp)
80006a90:	00878793          	addi	a5,a5,8
80006a94:	00f71663          	bne	a4,a5,80006aa0 <vEventGroupDelete+0x44>
80006a98:	30047073          	csrci	mstatus,8
80006a9c:	0000006f          	j	80006a9c <vEventGroupDelete+0x40>
80006aa0:	01812783          	lw	a5,24(sp)
80006aa4:	00c7a783          	lw	a5,12(a5)
80006aa8:	020005b7          	lui	a1,0x2000
80006aac:	00078513          	mv	a0,a5
80006ab0:	e0cfd0ef          	jal	ra,800040bc <vTaskRemoveFromUnorderedEventList>
80006ab4:	01812783          	lw	a5,24(sp)
80006ab8:	0007a783          	lw	a5,0(a5)
80006abc:	fc0794e3          	bnez	a5,80006a84 <vEventGroupDelete+0x28>
80006ac0:	01c12503          	lw	a0,28(sp)
80006ac4:	330000ef          	jal	ra,80006df4 <vPortFree>
80006ac8:	a89fc0ef          	jal	ra,80003550 <xTaskResumeAll>
80006acc:	00000013          	nop
80006ad0:	02c12083          	lw	ra,44(sp)
80006ad4:	03010113          	addi	sp,sp,48
80006ad8:	00008067          	ret

80006adc <vEventGroupSetBitsCallback>:
80006adc:	fe010113          	addi	sp,sp,-32
80006ae0:	00112e23          	sw	ra,28(sp)
80006ae4:	00a12623          	sw	a0,12(sp)
80006ae8:	00b12423          	sw	a1,8(sp)
80006aec:	00812583          	lw	a1,8(sp)
80006af0:	00c12503          	lw	a0,12(sp)
80006af4:	dbdff0ef          	jal	ra,800068b0 <xEventGroupSetBits>
80006af8:	00000013          	nop
80006afc:	01c12083          	lw	ra,28(sp)
80006b00:	02010113          	addi	sp,sp,32
80006b04:	00008067          	ret

80006b08 <vEventGroupClearBitsCallback>:
80006b08:	fe010113          	addi	sp,sp,-32
80006b0c:	00112e23          	sw	ra,28(sp)
80006b10:	00a12623          	sw	a0,12(sp)
80006b14:	00b12423          	sw	a1,8(sp)
80006b18:	00812583          	lw	a1,8(sp)
80006b1c:	00c12503          	lw	a0,12(sp)
80006b20:	cc1ff0ef          	jal	ra,800067e0 <xEventGroupClearBits>
80006b24:	00000013          	nop
80006b28:	01c12083          	lw	ra,28(sp)
80006b2c:	02010113          	addi	sp,sp,32
80006b30:	00008067          	ret

80006b34 <prvTestWaitCondition>:
80006b34:	fe010113          	addi	sp,sp,-32
80006b38:	00a12623          	sw	a0,12(sp)
80006b3c:	00b12423          	sw	a1,8(sp)
80006b40:	00c12223          	sw	a2,4(sp)
80006b44:	00012e23          	sw	zero,28(sp)
80006b48:	00412783          	lw	a5,4(sp)
80006b4c:	02079063          	bnez	a5,80006b6c <prvTestWaitCondition+0x38>
80006b50:	00c12703          	lw	a4,12(sp)
80006b54:	00812783          	lw	a5,8(sp)
80006b58:	00f777b3          	and	a5,a4,a5
80006b5c:	02078663          	beqz	a5,80006b88 <prvTestWaitCondition+0x54>
80006b60:	00100793          	li	a5,1
80006b64:	00f12e23          	sw	a5,28(sp)
80006b68:	0200006f          	j	80006b88 <prvTestWaitCondition+0x54>
80006b6c:	00c12703          	lw	a4,12(sp)
80006b70:	00812783          	lw	a5,8(sp)
80006b74:	00f777b3          	and	a5,a4,a5
80006b78:	00812703          	lw	a4,8(sp)
80006b7c:	00f71663          	bne	a4,a5,80006b88 <prvTestWaitCondition+0x54>
80006b80:	00100793          	li	a5,1
80006b84:	00f12e23          	sw	a5,28(sp)
80006b88:	01c12783          	lw	a5,28(sp)
80006b8c:	00078513          	mv	a0,a5
80006b90:	02010113          	addi	sp,sp,32
80006b94:	00008067          	ret

80006b98 <uxEventGroupGetNumber>:
80006b98:	fe010113          	addi	sp,sp,-32
80006b9c:	00a12623          	sw	a0,12(sp)
80006ba0:	00c12783          	lw	a5,12(sp)
80006ba4:	00f12c23          	sw	a5,24(sp)
80006ba8:	00c12783          	lw	a5,12(sp)
80006bac:	00079663          	bnez	a5,80006bb8 <uxEventGroupGetNumber+0x20>
80006bb0:	00012e23          	sw	zero,28(sp)
80006bb4:	0100006f          	j	80006bc4 <uxEventGroupGetNumber+0x2c>
80006bb8:	01812783          	lw	a5,24(sp)
80006bbc:	0187a783          	lw	a5,24(a5)
80006bc0:	00f12e23          	sw	a5,28(sp)
80006bc4:	01c12783          	lw	a5,28(sp)
80006bc8:	00078513          	mv	a0,a5
80006bcc:	02010113          	addi	sp,sp,32
80006bd0:	00008067          	ret

80006bd4 <vEventGroupSetNumber>:
80006bd4:	ff010113          	addi	sp,sp,-16
80006bd8:	00a12623          	sw	a0,12(sp)
80006bdc:	00b12423          	sw	a1,8(sp)
80006be0:	00c12783          	lw	a5,12(sp)
80006be4:	00812703          	lw	a4,8(sp)
80006be8:	00e7ac23          	sw	a4,24(a5)
80006bec:	00000013          	nop
80006bf0:	01010113          	addi	sp,sp,16
80006bf4:	00008067          	ret

80006bf8 <pvPortMalloc>:
80006bf8:	fc010113          	addi	sp,sp,-64
80006bfc:	02112e23          	sw	ra,60(sp)
80006c00:	00a12623          	sw	a0,12(sp)
80006c04:	02012223          	sw	zero,36(sp)
80006c08:	925fc0ef          	jal	ra,8000352c <vTaskSuspendAll>
80006c0c:	00063797          	auipc	a5,0x63
80006c10:	c3c78793          	addi	a5,a5,-964 # 80069848 <xHeapHasBeenInitialised.0>
80006c14:	0007a783          	lw	a5,0(a5)
80006c18:	00079c63          	bnez	a5,80006c30 <pvPortMalloc+0x38>
80006c1c:	2c0000ef          	jal	ra,80006edc <prvHeapInit>
80006c20:	00063797          	auipc	a5,0x63
80006c24:	c2878793          	addi	a5,a5,-984 # 80069848 <xHeapHasBeenInitialised.0>
80006c28:	00100713          	li	a4,1
80006c2c:	00e7a023          	sw	a4,0(a5)
80006c30:	00c12783          	lw	a5,12(sp)
80006c34:	02078a63          	beqz	a5,80006c68 <pvPortMalloc+0x70>
80006c38:	00800793          	li	a5,8
80006c3c:	00078713          	mv	a4,a5
80006c40:	00c12783          	lw	a5,12(sp)
80006c44:	00e787b3          	add	a5,a5,a4
80006c48:	00f12623          	sw	a5,12(sp)
80006c4c:	00c12783          	lw	a5,12(sp)
80006c50:	0037f793          	andi	a5,a5,3
80006c54:	00078a63          	beqz	a5,80006c68 <pvPortMalloc+0x70>
80006c58:	00c12783          	lw	a5,12(sp)
80006c5c:	ffc7f793          	andi	a5,a5,-4
80006c60:	00478793          	addi	a5,a5,4
80006c64:	00f12623          	sw	a5,12(sp)
80006c68:	00c12783          	lw	a5,12(sp)
80006c6c:	16078263          	beqz	a5,80006dd0 <pvPortMalloc+0x1d8>
80006c70:	00c12703          	lw	a4,12(sp)
80006c74:	000197b7          	lui	a5,0x19
80006c78:	ffb78793          	addi	a5,a5,-5 # 18ffb <_STACK_SIZE+0x8ffb>
80006c7c:	14e7ea63          	bltu	a5,a4,80006dd0 <pvPortMalloc+0x1d8>
80006c80:	00063797          	auipc	a5,0x63
80006c84:	bb878793          	addi	a5,a5,-1096 # 80069838 <xStart>
80006c88:	02f12423          	sw	a5,40(sp)
80006c8c:	00063797          	auipc	a5,0x63
80006c90:	bac78793          	addi	a5,a5,-1108 # 80069838 <xStart>
80006c94:	0007a783          	lw	a5,0(a5)
80006c98:	02f12623          	sw	a5,44(sp)
80006c9c:	0180006f          	j	80006cb4 <pvPortMalloc+0xbc>
80006ca0:	02c12783          	lw	a5,44(sp)
80006ca4:	02f12423          	sw	a5,40(sp)
80006ca8:	02c12783          	lw	a5,44(sp)
80006cac:	0007a783          	lw	a5,0(a5)
80006cb0:	02f12623          	sw	a5,44(sp)
80006cb4:	02c12783          	lw	a5,44(sp)
80006cb8:	0047a783          	lw	a5,4(a5)
80006cbc:	00c12703          	lw	a4,12(sp)
80006cc0:	00e7f863          	bgeu	a5,a4,80006cd0 <pvPortMalloc+0xd8>
80006cc4:	02c12783          	lw	a5,44(sp)
80006cc8:	0007a783          	lw	a5,0(a5)
80006ccc:	fc079ae3          	bnez	a5,80006ca0 <pvPortMalloc+0xa8>
80006cd0:	02c12703          	lw	a4,44(sp)
80006cd4:	00063797          	auipc	a5,0x63
80006cd8:	b6c78793          	addi	a5,a5,-1172 # 80069840 <xEnd>
80006cdc:	0ef70a63          	beq	a4,a5,80006dd0 <pvPortMalloc+0x1d8>
80006ce0:	02812783          	lw	a5,40(sp)
80006ce4:	0007a783          	lw	a5,0(a5)
80006ce8:	00800713          	li	a4,8
80006cec:	00e787b3          	add	a5,a5,a4
80006cf0:	02f12223          	sw	a5,36(sp)
80006cf4:	02c12783          	lw	a5,44(sp)
80006cf8:	0007a703          	lw	a4,0(a5)
80006cfc:	02812783          	lw	a5,40(sp)
80006d00:	00e7a023          	sw	a4,0(a5)
80006d04:	02c12783          	lw	a5,44(sp)
80006d08:	0047a703          	lw	a4,4(a5)
80006d0c:	00c12783          	lw	a5,12(sp)
80006d10:	40f707b3          	sub	a5,a4,a5
80006d14:	00800713          	li	a4,8
80006d18:	00171713          	slli	a4,a4,0x1
80006d1c:	08f77863          	bgeu	a4,a5,80006dac <pvPortMalloc+0x1b4>
80006d20:	02c12703          	lw	a4,44(sp)
80006d24:	00c12783          	lw	a5,12(sp)
80006d28:	00f707b3          	add	a5,a4,a5
80006d2c:	00f12e23          	sw	a5,28(sp)
80006d30:	02c12783          	lw	a5,44(sp)
80006d34:	0047a703          	lw	a4,4(a5)
80006d38:	00c12783          	lw	a5,12(sp)
80006d3c:	40f70733          	sub	a4,a4,a5
80006d40:	01c12783          	lw	a5,28(sp)
80006d44:	00e7a223          	sw	a4,4(a5)
80006d48:	02c12783          	lw	a5,44(sp)
80006d4c:	00c12703          	lw	a4,12(sp)
80006d50:	00e7a223          	sw	a4,4(a5)
80006d54:	01c12783          	lw	a5,28(sp)
80006d58:	0047a783          	lw	a5,4(a5)
80006d5c:	00f12c23          	sw	a5,24(sp)
80006d60:	00063797          	auipc	a5,0x63
80006d64:	ad878793          	addi	a5,a5,-1320 # 80069838 <xStart>
80006d68:	02f12023          	sw	a5,32(sp)
80006d6c:	0100006f          	j	80006d7c <pvPortMalloc+0x184>
80006d70:	02012783          	lw	a5,32(sp)
80006d74:	0007a783          	lw	a5,0(a5)
80006d78:	02f12023          	sw	a5,32(sp)
80006d7c:	02012783          	lw	a5,32(sp)
80006d80:	0007a783          	lw	a5,0(a5)
80006d84:	0047a783          	lw	a5,4(a5)
80006d88:	01812703          	lw	a4,24(sp)
80006d8c:	fee7e2e3          	bltu	a5,a4,80006d70 <pvPortMalloc+0x178>
80006d90:	02012783          	lw	a5,32(sp)
80006d94:	0007a703          	lw	a4,0(a5)
80006d98:	01c12783          	lw	a5,28(sp)
80006d9c:	00e7a023          	sw	a4,0(a5)
80006da0:	02012783          	lw	a5,32(sp)
80006da4:	01c12703          	lw	a4,28(sp)
80006da8:	00e7a023          	sw	a4,0(a5)
80006dac:	00049797          	auipc	a5,0x49
80006db0:	77878793          	addi	a5,a5,1912 # 80050524 <xFreeBytesRemaining>
80006db4:	0007a703          	lw	a4,0(a5)
80006db8:	02c12783          	lw	a5,44(sp)
80006dbc:	0047a783          	lw	a5,4(a5)
80006dc0:	40f70733          	sub	a4,a4,a5
80006dc4:	00049797          	auipc	a5,0x49
80006dc8:	76078793          	addi	a5,a5,1888 # 80050524 <xFreeBytesRemaining>
80006dcc:	00e7a023          	sw	a4,0(a5)
80006dd0:	f80fc0ef          	jal	ra,80003550 <xTaskResumeAll>
80006dd4:	02412783          	lw	a5,36(sp)
80006dd8:	00079463          	bnez	a5,80006de0 <pvPortMalloc+0x1e8>
80006ddc:	0c0010ef          	jal	ra,80007e9c <vApplicationMallocFailedHook>
80006de0:	02412783          	lw	a5,36(sp)
80006de4:	00078513          	mv	a0,a5
80006de8:	03c12083          	lw	ra,60(sp)
80006dec:	04010113          	addi	sp,sp,64
80006df0:	00008067          	ret

80006df4 <vPortFree>:
80006df4:	fd010113          	addi	sp,sp,-48
80006df8:	02112623          	sw	ra,44(sp)
80006dfc:	00a12623          	sw	a0,12(sp)
80006e00:	00c12783          	lw	a5,12(sp)
80006e04:	00f12c23          	sw	a5,24(sp)
80006e08:	00c12783          	lw	a5,12(sp)
80006e0c:	0a078263          	beqz	a5,80006eb0 <vPortFree+0xbc>
80006e10:	00800793          	li	a5,8
80006e14:	40f007b3          	neg	a5,a5
80006e18:	01812703          	lw	a4,24(sp)
80006e1c:	00f707b3          	add	a5,a4,a5
80006e20:	00f12c23          	sw	a5,24(sp)
80006e24:	01812783          	lw	a5,24(sp)
80006e28:	00f12a23          	sw	a5,20(sp)
80006e2c:	f00fc0ef          	jal	ra,8000352c <vTaskSuspendAll>
80006e30:	01412783          	lw	a5,20(sp)
80006e34:	0047a783          	lw	a5,4(a5)
80006e38:	00f12823          	sw	a5,16(sp)
80006e3c:	00063797          	auipc	a5,0x63
80006e40:	9fc78793          	addi	a5,a5,-1540 # 80069838 <xStart>
80006e44:	00f12e23          	sw	a5,28(sp)
80006e48:	0100006f          	j	80006e58 <vPortFree+0x64>
80006e4c:	01c12783          	lw	a5,28(sp)
80006e50:	0007a783          	lw	a5,0(a5)
80006e54:	00f12e23          	sw	a5,28(sp)
80006e58:	01c12783          	lw	a5,28(sp)
80006e5c:	0007a783          	lw	a5,0(a5)
80006e60:	0047a783          	lw	a5,4(a5)
80006e64:	01012703          	lw	a4,16(sp)
80006e68:	fee7e2e3          	bltu	a5,a4,80006e4c <vPortFree+0x58>
80006e6c:	01c12783          	lw	a5,28(sp)
80006e70:	0007a703          	lw	a4,0(a5)
80006e74:	01412783          	lw	a5,20(sp)
80006e78:	00e7a023          	sw	a4,0(a5)
80006e7c:	01c12783          	lw	a5,28(sp)
80006e80:	01412703          	lw	a4,20(sp)
80006e84:	00e7a023          	sw	a4,0(a5)
80006e88:	01412783          	lw	a5,20(sp)
80006e8c:	0047a703          	lw	a4,4(a5)
80006e90:	00049797          	auipc	a5,0x49
80006e94:	69478793          	addi	a5,a5,1684 # 80050524 <xFreeBytesRemaining>
80006e98:	0007a783          	lw	a5,0(a5)
80006e9c:	00f70733          	add	a4,a4,a5
80006ea0:	00049797          	auipc	a5,0x49
80006ea4:	68478793          	addi	a5,a5,1668 # 80050524 <xFreeBytesRemaining>
80006ea8:	00e7a023          	sw	a4,0(a5)
80006eac:	ea4fc0ef          	jal	ra,80003550 <xTaskResumeAll>
80006eb0:	00000013          	nop
80006eb4:	02c12083          	lw	ra,44(sp)
80006eb8:	03010113          	addi	sp,sp,48
80006ebc:	00008067          	ret

80006ec0 <xPortGetFreeHeapSize>:
80006ec0:	00049797          	auipc	a5,0x49
80006ec4:	66478793          	addi	a5,a5,1636 # 80050524 <xFreeBytesRemaining>
80006ec8:	0007a783          	lw	a5,0(a5)
80006ecc:	00078513          	mv	a0,a5
80006ed0:	00008067          	ret

80006ed4 <vPortInitialiseBlocks>:
80006ed4:	00000013          	nop
80006ed8:	00008067          	ret

80006edc <prvHeapInit>:
80006edc:	ff010113          	addi	sp,sp,-16
80006ee0:	0004a797          	auipc	a5,0x4a
80006ee4:	95c78793          	addi	a5,a5,-1700 # 8005083c <ucHeap+0x4>
80006ee8:	ffc7f793          	andi	a5,a5,-4
80006eec:	00f12623          	sw	a5,12(sp)
80006ef0:	00063797          	auipc	a5,0x63
80006ef4:	94878793          	addi	a5,a5,-1720 # 80069838 <xStart>
80006ef8:	00c12703          	lw	a4,12(sp)
80006efc:	00e7a023          	sw	a4,0(a5)
80006f00:	00063797          	auipc	a5,0x63
80006f04:	93878793          	addi	a5,a5,-1736 # 80069838 <xStart>
80006f08:	0007a223          	sw	zero,4(a5)
80006f0c:	00063797          	auipc	a5,0x63
80006f10:	93478793          	addi	a5,a5,-1740 # 80069840 <xEnd>
80006f14:	00019737          	lui	a4,0x19
80006f18:	ffc70713          	addi	a4,a4,-4 # 18ffc <_STACK_SIZE+0x8ffc>
80006f1c:	00e7a223          	sw	a4,4(a5)
80006f20:	00063797          	auipc	a5,0x63
80006f24:	92078793          	addi	a5,a5,-1760 # 80069840 <xEnd>
80006f28:	0007a023          	sw	zero,0(a5)
80006f2c:	00c12783          	lw	a5,12(sp)
80006f30:	00f12423          	sw	a5,8(sp)
80006f34:	00812783          	lw	a5,8(sp)
80006f38:	00019737          	lui	a4,0x19
80006f3c:	ffc70713          	addi	a4,a4,-4 # 18ffc <_STACK_SIZE+0x8ffc>
80006f40:	00e7a223          	sw	a4,4(a5)
80006f44:	00812783          	lw	a5,8(sp)
80006f48:	00063717          	auipc	a4,0x63
80006f4c:	8f870713          	addi	a4,a4,-1800 # 80069840 <xEnd>
80006f50:	00e7a023          	sw	a4,0(a5)
80006f54:	00000013          	nop
80006f58:	01010113          	addi	sp,sp,16
80006f5c:	00008067          	ret

80006f60 <zeroExtend>:
80006f60:	fe010113          	addi	sp,sp,-32
80006f64:	00a12623          	sw	a0,12(sp)
80006f68:	00c12783          	lw	a5,12(sp)
80006f6c:	00f12c23          	sw	a5,24(sp)
80006f70:	41f7d793          	srai	a5,a5,0x1f
80006f74:	00f12e23          	sw	a5,28(sp)
80006f78:	00c12783          	lw	a5,12(sp)
80006f7c:	00f12c23          	sw	a5,24(sp)
80006f80:	00012e23          	sw	zero,28(sp)
80006f84:	01812703          	lw	a4,24(sp)
80006f88:	01c12783          	lw	a5,28(sp)
80006f8c:	00070513          	mv	a0,a4
80006f90:	00078593          	mv	a1,a5
80006f94:	02010113          	addi	sp,sp,32
80006f98:	00008067          	ret

80006f9c <prvSyscallToHost>:
80006f9c:	f5010113          	addi	sp,sp,-176
80006fa0:	0a112623          	sw	ra,172(sp)
80006fa4:	0a812423          	sw	s0,168(sp)
80006fa8:	00a12e23          	sw	a0,28(sp)
80006fac:	00b12c23          	sw	a1,24(sp)
80006fb0:	00c12a23          	sw	a2,20(sp)
80006fb4:	00d12823          	sw	a3,16(sp)
80006fb8:	0a010793          	addi	a5,sp,160
80006fbc:	00f12623          	sw	a5,12(sp)
80006fc0:	00c12783          	lw	a5,12(sp)
80006fc4:	f8078793          	addi	a5,a5,-128
80006fc8:	03f78793          	addi	a5,a5,63
80006fcc:	0067d793          	srli	a5,a5,0x6
80006fd0:	00679413          	slli	s0,a5,0x6
80006fd4:	01c12503          	lw	a0,28(sp)
80006fd8:	f89ff0ef          	jal	ra,80006f60 <zeroExtend>
80006fdc:	00050713          	mv	a4,a0
80006fe0:	00058793          	mv	a5,a1
80006fe4:	00e42023          	sw	a4,0(s0)
80006fe8:	00f42223          	sw	a5,4(s0)
80006fec:	01812503          	lw	a0,24(sp)
80006ff0:	f71ff0ef          	jal	ra,80006f60 <zeroExtend>
80006ff4:	00050713          	mv	a4,a0
80006ff8:	00058793          	mv	a5,a1
80006ffc:	00e42423          	sw	a4,8(s0)
80007000:	00f42623          	sw	a5,12(s0)
80007004:	01412503          	lw	a0,20(sp)
80007008:	f59ff0ef          	jal	ra,80006f60 <zeroExtend>
8000700c:	00050713          	mv	a4,a0
80007010:	00058793          	mv	a5,a1
80007014:	00e42823          	sw	a4,16(s0)
80007018:	00f42a23          	sw	a5,20(s0)
8000701c:	01012503          	lw	a0,16(sp)
80007020:	f41ff0ef          	jal	ra,80006f60 <zeroExtend>
80007024:	00050713          	mv	a4,a0
80007028:	00058793          	mv	a5,a1
8000702c:	00e42c23          	sw	a4,24(s0)
80007030:	00f42e23          	sw	a5,28(s0)
80007034:	0ff0000f          	fence
80007038:	00040793          	mv	a5,s0
8000703c:	00078513          	mv	a0,a5
80007040:	f21ff0ef          	jal	ra,80006f60 <zeroExtend>
80007044:	00050713          	mv	a4,a0
80007048:	00058793          	mv	a5,a1
8000704c:	00049697          	auipc	a3,0x49
80007050:	47468693          	addi	a3,a3,1140 # 800504c0 <tohost>
80007054:	00e6a023          	sw	a4,0(a3)
80007058:	00f6a223          	sw	a5,4(a3)
8000705c:	00042703          	lw	a4,0(s0)
80007060:	00442783          	lw	a5,4(s0)
80007064:	00070513          	mv	a0,a4
80007068:	00078593          	mv	a1,a5
8000706c:	0ac12083          	lw	ra,172(sp)
80007070:	0a812403          	lw	s0,168(sp)
80007074:	0b010113          	addi	sp,sp,176
80007078:	00008067          	ret

8000707c <prvSyscallExit>:
8000707c:	fc010113          	addi	sp,sp,-64
80007080:	02112e23          	sw	ra,60(sp)
80007084:	02812c23          	sw	s0,56(sp)
80007088:	02912a23          	sw	s1,52(sp)
8000708c:	03212823          	sw	s2,48(sp)
80007090:	03312623          	sw	s3,44(sp)
80007094:	00a12623          	sw	a0,12(sp)
80007098:	00c12503          	lw	a0,12(sp)
8000709c:	ec5ff0ef          	jal	ra,80006f60 <zeroExtend>
800070a0:	00a12c23          	sw	a0,24(sp)
800070a4:	00b12e23          	sw	a1,28(sp)
800070a8:	01812783          	lw	a5,24(sp)
800070ac:	01f7d793          	srli	a5,a5,0x1f
800070b0:	01c12703          	lw	a4,28(sp)
800070b4:	00171493          	slli	s1,a4,0x1
800070b8:	0097e4b3          	or	s1,a5,s1
800070bc:	01812783          	lw	a5,24(sp)
800070c0:	00179413          	slli	s0,a5,0x1
800070c4:	00146913          	ori	s2,s0,1
800070c8:	0004e993          	ori	s3,s1,0
800070cc:	00049797          	auipc	a5,0x49
800070d0:	3f478793          	addi	a5,a5,1012 # 800504c0 <tohost>
800070d4:	0127a023          	sw	s2,0(a5)
800070d8:	0137a223          	sw	s3,4(a5)
800070dc:	0000006f          	j	800070dc <prvSyscallExit+0x60>

800070e0 <printstr>:
800070e0:	fe010113          	addi	sp,sp,-32
800070e4:	00112e23          	sw	ra,28(sp)
800070e8:	00812c23          	sw	s0,24(sp)
800070ec:	00a12623          	sw	a0,12(sp)
800070f0:	00c12403          	lw	s0,12(sp)
800070f4:	00c12503          	lw	a0,12(sp)
800070f8:	43c020ef          	jal	ra,80009534 <strlen>
800070fc:	00050793          	mv	a5,a0
80007100:	00078693          	mv	a3,a5
80007104:	00040613          	mv	a2,s0
80007108:	00100593          	li	a1,1
8000710c:	04000513          	li	a0,64
80007110:	018000ef          	jal	ra,80007128 <syscall>
80007114:	00000013          	nop
80007118:	01c12083          	lw	ra,28(sp)
8000711c:	01812403          	lw	s0,24(sp)
80007120:	02010113          	addi	sp,sp,32
80007124:	00008067          	ret

80007128 <syscall>:
80007128:	fe010113          	addi	sp,sp,-32
8000712c:	00a12623          	sw	a0,12(sp)
80007130:	00b12423          	sw	a1,8(sp)
80007134:	00c12223          	sw	a2,4(sp)
80007138:	00d12023          	sw	a3,0(sp)
8000713c:	00c12703          	lw	a4,12(sp)
80007140:	04000793          	li	a5,64
80007144:	08f71863          	bne	a4,a5,800071d4 <syscall+0xac>
80007148:	00012a23          	sw	zero,20(sp)
8000714c:	00012783          	lw	a5,0(sp)
80007150:	00f12e23          	sw	a5,28(sp)
80007154:	00412783          	lw	a5,4(sp)
80007158:	00f12c23          	sw	a5,24(sp)
8000715c:	0680006f          	j	800071c4 <syscall+0x9c>
80007160:	01c12783          	lw	a5,28(sp)
80007164:	fff78793          	addi	a5,a5,-1
80007168:	00f12e23          	sw	a5,28(sp)
8000716c:	01812783          	lw	a5,24(sp)
80007170:	0007c703          	lbu	a4,0(a5)
80007174:	00049797          	auipc	a5,0x49
80007178:	3b478793          	addi	a5,a5,948 # 80050528 <UART_TX_ADDR>
8000717c:	0007a783          	lw	a5,0(a5)
80007180:	00e7a023          	sw	a4,0(a5)
80007184:	01812783          	lw	a5,24(sp)
80007188:	00178793          	addi	a5,a5,1
8000718c:	00f12c23          	sw	a5,24(sp)
80007190:	00049797          	auipc	a5,0x49
80007194:	39c78793          	addi	a5,a5,924 # 8005052c <UART_TX_CTRL>
80007198:	0007a783          	lw	a5,0(a5)
8000719c:	00100713          	li	a4,1
800071a0:	00e7a023          	sw	a4,0(a5)
800071a4:	00049797          	auipc	a5,0x49
800071a8:	38878793          	addi	a5,a5,904 # 8005052c <UART_TX_CTRL>
800071ac:	0007a783          	lw	a5,0(a5)
800071b0:	0007a783          	lw	a5,0(a5)
800071b4:	00f12a23          	sw	a5,20(sp)
800071b8:	00000013          	nop
800071bc:	01412783          	lw	a5,20(sp)
800071c0:	fe0782e3          	beqz	a5,800071a4 <syscall+0x7c>
800071c4:	01c12783          	lw	a5,28(sp)
800071c8:	f8f04ce3          	bgtz	a5,80007160 <syscall+0x38>
800071cc:	00012783          	lw	a5,0(sp)
800071d0:	01c0006f          	j	800071ec <syscall+0xc4>
800071d4:	00c12883          	lw	a7,12(sp)
800071d8:	00812503          	lw	a0,8(sp)
800071dc:	00412583          	lw	a1,4(sp)
800071e0:	00012603          	lw	a2,0(sp)
800071e4:	00000073          	ecall
800071e8:	00050793          	mv	a5,a0
800071ec:	00078513          	mv	a0,a5
800071f0:	02010113          	addi	sp,sp,32
800071f4:	00008067          	ret
800071f8:	fe010113          	addi	sp,sp,-32
800071fc:	00112e23          	sw	ra,28(sp)
80007200:	00a12623          	sw	a0,12(sp)
80007204:	00b12423          	sw	a1,8(sp)
80007208:	00049517          	auipc	a0,0x49
8000720c:	e6050513          	addi	a0,a0,-416 # 80050068 <__rodata_start+0x68>
80007210:	ed1ff0ef          	jal	ra,800070e0 <printstr>
80007214:	fff00793          	li	a5,-1
80007218:	00078513          	mv	a0,a5
8000721c:	01c12083          	lw	ra,28(sp)
80007220:	02010113          	addi	sp,sp,32
80007224:	00008067          	ret

80007228 <vSyscallInit>:
80007228:	fe010113          	addi	sp,sp,-32
8000722c:	00112e23          	sw	ra,28(sp)
80007230:	000017b7          	lui	a5,0x1
80007234:	80078793          	addi	a5,a5,-2048 # 800 <_STACK_SIZE-0xf800>
80007238:	3047a073          	csrs	mie,a5
8000723c:	00000593          	li	a1,0
80007240:	00000513          	li	a0,0
80007244:	3f1000ef          	jal	ra,80007e34 <main>
80007248:	00a12623          	sw	a0,12(sp)
8000724c:	00c12503          	lw	a0,12(sp)
80007250:	079000ef          	jal	ra,80007ac8 <exit>
80007254:	00000013          	nop
80007258:	01c12083          	lw	ra,28(sp)
8000725c:	02010113          	addi	sp,sp,32
80007260:	00008067          	ret

80007264 <ulSyscallTrap>:
80007264:	fd010113          	addi	sp,sp,-48
80007268:	02112623          	sw	ra,44(sp)
8000726c:	00a12623          	sw	a0,12(sp)
80007270:	00b12423          	sw	a1,8(sp)
80007274:	00c12223          	sw	a2,4(sp)
80007278:	00012e23          	sw	zero,28(sp)
8000727c:	00c12703          	lw	a4,12(sp)
80007280:	00b00793          	li	a5,11
80007284:	00f70863          	beq	a4,a5,80007294 <ulSyscallTrap+0x30>
80007288:	00c12503          	lw	a0,12(sp)
8000728c:	df1ff0ef          	jal	ra,8000707c <prvSyscallExit>
80007290:	0780006f          	j	80007308 <ulSyscallTrap+0xa4>
80007294:	00412783          	lw	a5,4(sp)
80007298:	04478793          	addi	a5,a5,68
8000729c:	0007a703          	lw	a4,0(a5)
800072a0:	05d00793          	li	a5,93
800072a4:	00f71e63          	bne	a4,a5,800072c0 <ulSyscallTrap+0x5c>
800072a8:	00412783          	lw	a5,4(sp)
800072ac:	02878793          	addi	a5,a5,40
800072b0:	0007a783          	lw	a5,0(a5)
800072b4:	00078513          	mv	a0,a5
800072b8:	dc5ff0ef          	jal	ra,8000707c <prvSyscallExit>
800072bc:	04c0006f          	j	80007308 <ulSyscallTrap+0xa4>
800072c0:	00412783          	lw	a5,4(sp)
800072c4:	04478793          	addi	a5,a5,68
800072c8:	0007a703          	lw	a4,0(a5)
800072cc:	00412783          	lw	a5,4(sp)
800072d0:	02878793          	addi	a5,a5,40
800072d4:	0007a583          	lw	a1,0(a5)
800072d8:	00412783          	lw	a5,4(sp)
800072dc:	02c78793          	addi	a5,a5,44
800072e0:	0007a603          	lw	a2,0(a5)
800072e4:	00412783          	lw	a5,4(sp)
800072e8:	03078793          	addi	a5,a5,48
800072ec:	0007a783          	lw	a5,0(a5)
800072f0:	00078693          	mv	a3,a5
800072f4:	00070513          	mv	a0,a4
800072f8:	ca5ff0ef          	jal	ra,80006f9c <prvSyscallToHost>
800072fc:	00050713          	mv	a4,a0
80007300:	00058793          	mv	a5,a1
80007304:	00e12e23          	sw	a4,28(sp)
80007308:	00412783          	lw	a5,4(sp)
8000730c:	02878793          	addi	a5,a5,40
80007310:	01c12703          	lw	a4,28(sp)
80007314:	00e7a023          	sw	a4,0(a5)
80007318:	00812783          	lw	a5,8(sp)
8000731c:	00478793          	addi	a5,a5,4
80007320:	00078513          	mv	a0,a5
80007324:	02c12083          	lw	ra,44(sp)
80007328:	03010113          	addi	sp,sp,48
8000732c:	00008067          	ret

80007330 <putchar>:
80007330:	fe010113          	addi	sp,sp,-32
80007334:	00112e23          	sw	ra,28(sp)
80007338:	00a12623          	sw	a0,12(sp)
8000733c:	00062797          	auipc	a5,0x62
80007340:	54478793          	addi	a5,a5,1348 # 80069880 <buflen.2>
80007344:	0007a783          	lw	a5,0(a5)
80007348:	00178693          	addi	a3,a5,1
8000734c:	00062717          	auipc	a4,0x62
80007350:	53470713          	addi	a4,a4,1332 # 80069880 <buflen.2>
80007354:	00d72023          	sw	a3,0(a4)
80007358:	00c12703          	lw	a4,12(sp)
8000735c:	0ff77713          	andi	a4,a4,255
80007360:	00062697          	auipc	a3,0x62
80007364:	56068693          	addi	a3,a3,1376 # 800698c0 <buf.1>
80007368:	00f687b3          	add	a5,a3,a5
8000736c:	00e78023          	sb	a4,0(a5)
80007370:	00c12703          	lw	a4,12(sp)
80007374:	00a00793          	li	a5,10
80007378:	00f70c63          	beq	a4,a5,80007390 <putchar+0x60>
8000737c:	00062797          	auipc	a5,0x62
80007380:	50478793          	addi	a5,a5,1284 # 80069880 <buflen.2>
80007384:	0007a703          	lw	a4,0(a5)
80007388:	04000793          	li	a5,64
8000738c:	02f71c63          	bne	a4,a5,800073c4 <putchar+0x94>
80007390:	00062717          	auipc	a4,0x62
80007394:	53070713          	addi	a4,a4,1328 # 800698c0 <buf.1>
80007398:	00062797          	auipc	a5,0x62
8000739c:	4e878793          	addi	a5,a5,1256 # 80069880 <buflen.2>
800073a0:	0007a783          	lw	a5,0(a5)
800073a4:	00078693          	mv	a3,a5
800073a8:	00070613          	mv	a2,a4
800073ac:	00100593          	li	a1,1
800073b0:	04000513          	li	a0,64
800073b4:	d75ff0ef          	jal	ra,80007128 <syscall>
800073b8:	00062797          	auipc	a5,0x62
800073bc:	4c878793          	addi	a5,a5,1224 # 80069880 <buflen.2>
800073c0:	0007a023          	sw	zero,0(a5)
800073c4:	00000793          	li	a5,0
800073c8:	00078513          	mv	a0,a5
800073cc:	01c12083          	lw	ra,28(sp)
800073d0:	02010113          	addi	sp,sp,32
800073d4:	00008067          	ret

800073d8 <printnum>:
800073d8:	eb010113          	addi	sp,sp,-336
800073dc:	14112623          	sw	ra,332(sp)
800073e0:	14812423          	sw	s0,328(sp)
800073e4:	14912223          	sw	s1,324(sp)
800073e8:	15212023          	sw	s2,320(sp)
800073ec:	13312e23          	sw	s3,316(sp)
800073f0:	13412c23          	sw	s4,312(sp)
800073f4:	13512a23          	sw	s5,308(sp)
800073f8:	00a12e23          	sw	a0,28(sp)
800073fc:	00b12c23          	sw	a1,24(sp)
80007400:	00c12823          	sw	a2,16(sp)
80007404:	00d12a23          	sw	a3,20(sp)
80007408:	00e12623          	sw	a4,12(sp)
8000740c:	00f12423          	sw	a5,8(sp)
80007410:	01012223          	sw	a6,4(sp)
80007414:	12012623          	sw	zero,300(sp)
80007418:	00c12783          	lw	a5,12(sp)
8000741c:	00078a13          	mv	s4,a5
80007420:	00000a93          	li	s5,0
80007424:	01012703          	lw	a4,16(sp)
80007428:	01412783          	lw	a5,20(sp)
8000742c:	000a0613          	mv	a2,s4
80007430:	000a8693          	mv	a3,s5
80007434:	00070513          	mv	a0,a4
80007438:	00078593          	mv	a1,a5
8000743c:	794020ef          	jal	ra,80009bd0 <__umoddi3>
80007440:	00050713          	mv	a4,a0
80007444:	00058793          	mv	a5,a1
80007448:	00070613          	mv	a2,a4
8000744c:	00078693          	mv	a3,a5
80007450:	12c12783          	lw	a5,300(sp)
80007454:	00178713          	addi	a4,a5,1
80007458:	12e12623          	sw	a4,300(sp)
8000745c:	00060713          	mv	a4,a2
80007460:	00279793          	slli	a5,a5,0x2
80007464:	13010693          	addi	a3,sp,304
80007468:	00f687b3          	add	a5,a3,a5
8000746c:	eee7ae23          	sw	a4,-260(a5)
80007470:	00c12783          	lw	a5,12(sp)
80007474:	00078413          	mv	s0,a5
80007478:	00000493          	li	s1,0
8000747c:	01412783          	lw	a5,20(sp)
80007480:	00048713          	mv	a4,s1
80007484:	04e7e863          	bltu	a5,a4,800074d4 <printnum+0xfc>
80007488:	01412783          	lw	a5,20(sp)
8000748c:	00048713          	mv	a4,s1
80007490:	00e79863          	bne	a5,a4,800074a0 <printnum+0xc8>
80007494:	01012783          	lw	a5,16(sp)
80007498:	00040713          	mv	a4,s0
8000749c:	02e7ec63          	bltu	a5,a4,800074d4 <printnum+0xfc>
800074a0:	00c12783          	lw	a5,12(sp)
800074a4:	00078913          	mv	s2,a5
800074a8:	00000993          	li	s3,0
800074ac:	00090613          	mv	a2,s2
800074b0:	00098693          	mv	a3,s3
800074b4:	01012503          	lw	a0,16(sp)
800074b8:	01412583          	lw	a1,20(sp)
800074bc:	13c020ef          	jal	ra,800095f8 <__udivdi3>
800074c0:	00050713          	mv	a4,a0
800074c4:	00058793          	mv	a5,a1
800074c8:	00e12823          	sw	a4,16(sp)
800074cc:	00f12a23          	sw	a5,20(sp)
800074d0:	f49ff06f          	j	80007418 <printnum+0x40>
800074d4:	00000013          	nop
800074d8:	0140006f          	j	800074ec <printnum+0x114>
800074dc:	01c12783          	lw	a5,28(sp)
800074e0:	01812583          	lw	a1,24(sp)
800074e4:	00412503          	lw	a0,4(sp)
800074e8:	000780e7          	jalr	a5
800074ec:	00812783          	lw	a5,8(sp)
800074f0:	fff78713          	addi	a4,a5,-1
800074f4:	00e12423          	sw	a4,8(sp)
800074f8:	12c12703          	lw	a4,300(sp)
800074fc:	fef740e3          	blt	a4,a5,800074dc <printnum+0x104>
80007500:	0540006f          	j	80007554 <printnum+0x17c>
80007504:	12c12783          	lw	a5,300(sp)
80007508:	00279793          	slli	a5,a5,0x2
8000750c:	13010713          	addi	a4,sp,304
80007510:	00f707b3          	add	a5,a4,a5
80007514:	efc7a703          	lw	a4,-260(a5)
80007518:	12c12783          	lw	a5,300(sp)
8000751c:	00279793          	slli	a5,a5,0x2
80007520:	13010693          	addi	a3,sp,304
80007524:	00f687b3          	add	a5,a3,a5
80007528:	efc7a683          	lw	a3,-260(a5)
8000752c:	00900793          	li	a5,9
80007530:	00d7f663          	bgeu	a5,a3,8000753c <printnum+0x164>
80007534:	05700793          	li	a5,87
80007538:	0080006f          	j	80007540 <printnum+0x168>
8000753c:	03000793          	li	a5,48
80007540:	00e787b3          	add	a5,a5,a4
80007544:	01c12703          	lw	a4,28(sp)
80007548:	01812583          	lw	a1,24(sp)
8000754c:	00078513          	mv	a0,a5
80007550:	000700e7          	jalr	a4
80007554:	12c12783          	lw	a5,300(sp)
80007558:	fff78713          	addi	a4,a5,-1
8000755c:	12e12623          	sw	a4,300(sp)
80007560:	faf042e3          	bgtz	a5,80007504 <printnum+0x12c>
80007564:	00000013          	nop
80007568:	00000013          	nop
8000756c:	14c12083          	lw	ra,332(sp)
80007570:	14812403          	lw	s0,328(sp)
80007574:	14412483          	lw	s1,324(sp)
80007578:	14012903          	lw	s2,320(sp)
8000757c:	13c12983          	lw	s3,316(sp)
80007580:	13812a03          	lw	s4,312(sp)
80007584:	13412a83          	lw	s5,308(sp)
80007588:	15010113          	addi	sp,sp,336
8000758c:	00008067          	ret

80007590 <getuint>:
80007590:	ff010113          	addi	sp,sp,-16
80007594:	00a12623          	sw	a0,12(sp)
80007598:	00b12423          	sw	a1,8(sp)
8000759c:	00812603          	lw	a2,8(sp)
800075a0:	00100693          	li	a3,1
800075a4:	02c6d663          	bge	a3,a2,800075d0 <getuint+0x40>
800075a8:	00c12783          	lw	a5,12(sp)
800075ac:	0007a783          	lw	a5,0(a5)
800075b0:	00778793          	addi	a5,a5,7
800075b4:	ff87f793          	andi	a5,a5,-8
800075b8:	00878693          	addi	a3,a5,8
800075bc:	00c12703          	lw	a4,12(sp)
800075c0:	00d72023          	sw	a3,0(a4)
800075c4:	0007a703          	lw	a4,0(a5)
800075c8:	0047a783          	lw	a5,4(a5)
800075cc:	0500006f          	j	8000761c <getuint+0x8c>
800075d0:	00812683          	lw	a3,8(sp)
800075d4:	02068463          	beqz	a3,800075fc <getuint+0x6c>
800075d8:	00c12683          	lw	a3,12(sp)
800075dc:	0006a683          	lw	a3,0(a3)
800075e0:	00468593          	addi	a1,a3,4
800075e4:	00c12603          	lw	a2,12(sp)
800075e8:	00b62023          	sw	a1,0(a2)
800075ec:	0006a683          	lw	a3,0(a3)
800075f0:	00068713          	mv	a4,a3
800075f4:	00000793          	li	a5,0
800075f8:	0240006f          	j	8000761c <getuint+0x8c>
800075fc:	00c12683          	lw	a3,12(sp)
80007600:	0006a683          	lw	a3,0(a3)
80007604:	00468593          	addi	a1,a3,4
80007608:	00c12603          	lw	a2,12(sp)
8000760c:	00b62023          	sw	a1,0(a2)
80007610:	0006a683          	lw	a3,0(a3)
80007614:	00068713          	mv	a4,a3
80007618:	00000793          	li	a5,0
8000761c:	00070513          	mv	a0,a4
80007620:	00078593          	mv	a1,a5
80007624:	01010113          	addi	sp,sp,16
80007628:	00008067          	ret

8000762c <getint>:
8000762c:	ff010113          	addi	sp,sp,-16
80007630:	00a12623          	sw	a0,12(sp)
80007634:	00b12423          	sw	a1,8(sp)
80007638:	00812603          	lw	a2,8(sp)
8000763c:	00100693          	li	a3,1
80007640:	02c6d663          	bge	a3,a2,8000766c <getint+0x40>
80007644:	00c12783          	lw	a5,12(sp)
80007648:	0007a783          	lw	a5,0(a5)
8000764c:	00778793          	addi	a5,a5,7
80007650:	ff87f793          	andi	a5,a5,-8
80007654:	00878693          	addi	a3,a5,8
80007658:	00c12703          	lw	a4,12(sp)
8000765c:	00d72023          	sw	a3,0(a4)
80007660:	0007a703          	lw	a4,0(a5)
80007664:	0047a783          	lw	a5,4(a5)
80007668:	0580006f          	j	800076c0 <getint+0x94>
8000766c:	00812683          	lw	a3,8(sp)
80007670:	02068663          	beqz	a3,8000769c <getint+0x70>
80007674:	00c12683          	lw	a3,12(sp)
80007678:	0006a683          	lw	a3,0(a3)
8000767c:	00468593          	addi	a1,a3,4
80007680:	00c12603          	lw	a2,12(sp)
80007684:	00b62023          	sw	a1,0(a2)
80007688:	0006a683          	lw	a3,0(a3)
8000768c:	00068713          	mv	a4,a3
80007690:	41f6d693          	srai	a3,a3,0x1f
80007694:	00068793          	mv	a5,a3
80007698:	0280006f          	j	800076c0 <getint+0x94>
8000769c:	00c12683          	lw	a3,12(sp)
800076a0:	0006a683          	lw	a3,0(a3)
800076a4:	00468593          	addi	a1,a3,4
800076a8:	00c12603          	lw	a2,12(sp)
800076ac:	00b62023          	sw	a1,0(a2)
800076b0:	0006a683          	lw	a3,0(a3)
800076b4:	00068713          	mv	a4,a3
800076b8:	41f6d693          	srai	a3,a3,0x1f
800076bc:	00068793          	mv	a5,a3
800076c0:	00070513          	mv	a0,a4
800076c4:	00078593          	mv	a1,a5
800076c8:	01010113          	addi	sp,sp,16
800076cc:	00008067          	ret

800076d0 <vFormatPrintString>:
800076d0:	fc010113          	addi	sp,sp,-64
800076d4:	02112e23          	sw	ra,60(sp)
800076d8:	02812c23          	sw	s0,56(sp)
800076dc:	02912a23          	sw	s1,52(sp)
800076e0:	00a12623          	sw	a0,12(sp)
800076e4:	00b12423          	sw	a1,8(sp)
800076e8:	00c12223          	sw	a2,4(sp)
800076ec:	00d12023          	sw	a3,0(sp)
800076f0:	0240006f          	j	80007714 <vFormatPrintString+0x44>
800076f4:	3a040e63          	beqz	s0,80007ab0 <vFormatPrintString+0x3e0>
800076f8:	00412783          	lw	a5,4(sp)
800076fc:	00178793          	addi	a5,a5,1
80007700:	00f12223          	sw	a5,4(sp)
80007704:	00c12783          	lw	a5,12(sp)
80007708:	00812583          	lw	a1,8(sp)
8000770c:	00040513          	mv	a0,s0
80007710:	000780e7          	jalr	a5
80007714:	00412783          	lw	a5,4(sp)
80007718:	0007c783          	lbu	a5,0(a5)
8000771c:	00078413          	mv	s0,a5
80007720:	02500793          	li	a5,37
80007724:	fcf418e3          	bne	s0,a5,800076f4 <vFormatPrintString+0x24>
80007728:	00412783          	lw	a5,4(sp)
8000772c:	00178793          	addi	a5,a5,1
80007730:	00f12223          	sw	a5,4(sp)
80007734:	00412783          	lw	a5,4(sp)
80007738:	00f12823          	sw	a5,16(sp)
8000773c:	02000793          	li	a5,32
80007740:	00f10ba3          	sb	a5,23(sp)
80007744:	fff00793          	li	a5,-1
80007748:	00f12e23          	sw	a5,28(sp)
8000774c:	fff00793          	li	a5,-1
80007750:	00f12c23          	sw	a5,24(sp)
80007754:	02012023          	sw	zero,32(sp)
80007758:	00412783          	lw	a5,4(sp)
8000775c:	00178713          	addi	a4,a5,1
80007760:	00e12223          	sw	a4,4(sp)
80007764:	0007c783          	lbu	a5,0(a5)
80007768:	00078413          	mv	s0,a5
8000776c:	fdd40793          	addi	a5,s0,-35
80007770:	05500713          	li	a4,85
80007774:	30f76e63          	bltu	a4,a5,80007a90 <vFormatPrintString+0x3c0>
80007778:	00279713          	slli	a4,a5,0x2
8000777c:	00049797          	auipc	a5,0x49
80007780:	91078793          	addi	a5,a5,-1776 # 8005008c <__rodata_start+0x8c>
80007784:	00f707b3          	add	a5,a4,a5
80007788:	0007a703          	lw	a4,0(a5)
8000778c:	00049797          	auipc	a5,0x49
80007790:	90078793          	addi	a5,a5,-1792 # 8005008c <__rodata_start+0x8c>
80007794:	00f707b3          	add	a5,a4,a5
80007798:	00078067          	jr	a5
8000779c:	02d00793          	li	a5,45
800077a0:	00f10ba3          	sb	a5,23(sp)
800077a4:	fb5ff06f          	j	80007758 <vFormatPrintString+0x88>
800077a8:	03000793          	li	a5,48
800077ac:	00f10ba3          	sb	a5,23(sp)
800077b0:	fa9ff06f          	j	80007758 <vFormatPrintString+0x88>
800077b4:	00012c23          	sw	zero,24(sp)
800077b8:	01812703          	lw	a4,24(sp)
800077bc:	00070793          	mv	a5,a4
800077c0:	00279793          	slli	a5,a5,0x2
800077c4:	00e787b3          	add	a5,a5,a4
800077c8:	00179793          	slli	a5,a5,0x1
800077cc:	00f407b3          	add	a5,s0,a5
800077d0:	fd078793          	addi	a5,a5,-48
800077d4:	00f12c23          	sw	a5,24(sp)
800077d8:	00412783          	lw	a5,4(sp)
800077dc:	0007c783          	lbu	a5,0(a5)
800077e0:	00078413          	mv	s0,a5
800077e4:	02f00793          	li	a5,47
800077e8:	0487d263          	bge	a5,s0,8000782c <vFormatPrintString+0x15c>
800077ec:	03900793          	li	a5,57
800077f0:	0287ce63          	blt	a5,s0,8000782c <vFormatPrintString+0x15c>
800077f4:	00412783          	lw	a5,4(sp)
800077f8:	00178793          	addi	a5,a5,1
800077fc:	00f12223          	sw	a5,4(sp)
80007800:	fb9ff06f          	j	800077b8 <vFormatPrintString+0xe8>
80007804:	00012783          	lw	a5,0(sp)
80007808:	00478713          	addi	a4,a5,4
8000780c:	00e12023          	sw	a4,0(sp)
80007810:	0007a783          	lw	a5,0(a5)
80007814:	00f12c23          	sw	a5,24(sp)
80007818:	0180006f          	j	80007830 <vFormatPrintString+0x160>
8000781c:	01c12783          	lw	a5,28(sp)
80007820:	f207dce3          	bgez	a5,80007758 <vFormatPrintString+0x88>
80007824:	00012e23          	sw	zero,28(sp)
80007828:	f31ff06f          	j	80007758 <vFormatPrintString+0x88>
8000782c:	00000013          	nop
80007830:	01c12783          	lw	a5,28(sp)
80007834:	f207d2e3          	bgez	a5,80007758 <vFormatPrintString+0x88>
80007838:	01812783          	lw	a5,24(sp)
8000783c:	00f12e23          	sw	a5,28(sp)
80007840:	fff00793          	li	a5,-1
80007844:	00f12c23          	sw	a5,24(sp)
80007848:	f11ff06f          	j	80007758 <vFormatPrintString+0x88>
8000784c:	02012783          	lw	a5,32(sp)
80007850:	00178793          	addi	a5,a5,1
80007854:	02f12023          	sw	a5,32(sp)
80007858:	f01ff06f          	j	80007758 <vFormatPrintString+0x88>
8000785c:	00012783          	lw	a5,0(sp)
80007860:	00478713          	addi	a4,a5,4
80007864:	00e12023          	sw	a4,0(sp)
80007868:	0007a783          	lw	a5,0(a5)
8000786c:	00c12703          	lw	a4,12(sp)
80007870:	00812583          	lw	a1,8(sp)
80007874:	00078513          	mv	a0,a5
80007878:	000700e7          	jalr	a4
8000787c:	2300006f          	j	80007aac <vFormatPrintString+0x3dc>
80007880:	00012783          	lw	a5,0(sp)
80007884:	00478713          	addi	a4,a5,4
80007888:	00e12023          	sw	a4,0(sp)
8000788c:	0007a483          	lw	s1,0(a5)
80007890:	00049663          	bnez	s1,8000789c <vFormatPrintString+0x1cc>
80007894:	00048497          	auipc	s1,0x48
80007898:	7f048493          	addi	s1,s1,2032 # 80050084 <__rodata_start+0x84>
8000789c:	01c12783          	lw	a5,28(sp)
800078a0:	08f05063          	blez	a5,80007920 <vFormatPrintString+0x250>
800078a4:	01714703          	lbu	a4,23(sp)
800078a8:	02d00793          	li	a5,45
800078ac:	06f70a63          	beq	a4,a5,80007920 <vFormatPrintString+0x250>
800078b0:	01812783          	lw	a5,24(sp)
800078b4:	00078593          	mv	a1,a5
800078b8:	00048513          	mv	a0,s1
800078bc:	505010ef          	jal	ra,800095c0 <strnlen>
800078c0:	00050713          	mv	a4,a0
800078c4:	01c12783          	lw	a5,28(sp)
800078c8:	40e787b3          	sub	a5,a5,a4
800078cc:	00f12e23          	sw	a5,28(sp)
800078d0:	0240006f          	j	800078f4 <vFormatPrintString+0x224>
800078d4:	01714783          	lbu	a5,23(sp)
800078d8:	00c12703          	lw	a4,12(sp)
800078dc:	00812583          	lw	a1,8(sp)
800078e0:	00078513          	mv	a0,a5
800078e4:	000700e7          	jalr	a4
800078e8:	01c12783          	lw	a5,28(sp)
800078ec:	fff78793          	addi	a5,a5,-1
800078f0:	00f12e23          	sw	a5,28(sp)
800078f4:	01c12783          	lw	a5,28(sp)
800078f8:	fcf04ee3          	bgtz	a5,800078d4 <vFormatPrintString+0x204>
800078fc:	0240006f          	j	80007920 <vFormatPrintString+0x250>
80007900:	00c12783          	lw	a5,12(sp)
80007904:	00812583          	lw	a1,8(sp)
80007908:	00040513          	mv	a0,s0
8000790c:	000780e7          	jalr	a5
80007910:	00148493          	addi	s1,s1,1
80007914:	01c12783          	lw	a5,28(sp)
80007918:	fff78793          	addi	a5,a5,-1
8000791c:	00f12e23          	sw	a5,28(sp)
80007920:	0004c783          	lbu	a5,0(s1)
80007924:	00078413          	mv	s0,a5
80007928:	04040063          	beqz	s0,80007968 <vFormatPrintString+0x298>
8000792c:	01812783          	lw	a5,24(sp)
80007930:	fc07c8e3          	bltz	a5,80007900 <vFormatPrintString+0x230>
80007934:	01812783          	lw	a5,24(sp)
80007938:	fff78793          	addi	a5,a5,-1
8000793c:	00f12c23          	sw	a5,24(sp)
80007940:	01812783          	lw	a5,24(sp)
80007944:	fa07dee3          	bgez	a5,80007900 <vFormatPrintString+0x230>
80007948:	0200006f          	j	80007968 <vFormatPrintString+0x298>
8000794c:	00c12783          	lw	a5,12(sp)
80007950:	00812583          	lw	a1,8(sp)
80007954:	02000513          	li	a0,32
80007958:	000780e7          	jalr	a5
8000795c:	01c12783          	lw	a5,28(sp)
80007960:	fff78793          	addi	a5,a5,-1
80007964:	00f12e23          	sw	a5,28(sp)
80007968:	01c12783          	lw	a5,28(sp)
8000796c:	fef040e3          	bgtz	a5,8000794c <vFormatPrintString+0x27c>
80007970:	13c0006f          	j	80007aac <vFormatPrintString+0x3dc>
80007974:	00010793          	mv	a5,sp
80007978:	02012583          	lw	a1,32(sp)
8000797c:	00078513          	mv	a0,a5
80007980:	cadff0ef          	jal	ra,8000762c <getint>
80007984:	00050713          	mv	a4,a0
80007988:	00058793          	mv	a5,a1
8000798c:	02e12423          	sw	a4,40(sp)
80007990:	02f12623          	sw	a5,44(sp)
80007994:	02812703          	lw	a4,40(sp)
80007998:	02c12783          	lw	a5,44(sp)
8000799c:	0407d663          	bgez	a5,800079e8 <vFormatPrintString+0x318>
800079a0:	00c12783          	lw	a5,12(sp)
800079a4:	00812583          	lw	a1,8(sp)
800079a8:	02d00513          	li	a0,45
800079ac:	000780e7          	jalr	a5
800079b0:	02812503          	lw	a0,40(sp)
800079b4:	02c12583          	lw	a1,44(sp)
800079b8:	00000713          	li	a4,0
800079bc:	00000793          	li	a5,0
800079c0:	40a70633          	sub	a2,a4,a0
800079c4:	00060813          	mv	a6,a2
800079c8:	01073833          	sltu	a6,a4,a6
800079cc:	40b786b3          	sub	a3,a5,a1
800079d0:	410687b3          	sub	a5,a3,a6
800079d4:	00078693          	mv	a3,a5
800079d8:	00060713          	mv	a4,a2
800079dc:	00068793          	mv	a5,a3
800079e0:	02e12423          	sw	a4,40(sp)
800079e4:	02f12623          	sw	a5,44(sp)
800079e8:	00a00793          	li	a5,10
800079ec:	02f12223          	sw	a5,36(sp)
800079f0:	0640006f          	j	80007a54 <vFormatPrintString+0x384>
800079f4:	00a00793          	li	a5,10
800079f8:	02f12223          	sw	a5,36(sp)
800079fc:	0400006f          	j	80007a3c <vFormatPrintString+0x36c>
80007a00:	00800793          	li	a5,8
80007a04:	02f12223          	sw	a5,36(sp)
80007a08:	0340006f          	j	80007a3c <vFormatPrintString+0x36c>
80007a0c:	00100793          	li	a5,1
80007a10:	02f12023          	sw	a5,32(sp)
80007a14:	00c12783          	lw	a5,12(sp)
80007a18:	00812583          	lw	a1,8(sp)
80007a1c:	03000513          	li	a0,48
80007a20:	000780e7          	jalr	a5
80007a24:	00c12783          	lw	a5,12(sp)
80007a28:	00812583          	lw	a1,8(sp)
80007a2c:	07800513          	li	a0,120
80007a30:	000780e7          	jalr	a5
80007a34:	01000793          	li	a5,16
80007a38:	02f12223          	sw	a5,36(sp)
80007a3c:	00010793          	mv	a5,sp
80007a40:	02012583          	lw	a1,32(sp)
80007a44:	00078513          	mv	a0,a5
80007a48:	b49ff0ef          	jal	ra,80007590 <getuint>
80007a4c:	02a12423          	sw	a0,40(sp)
80007a50:	02b12623          	sw	a1,44(sp)
80007a54:	02412703          	lw	a4,36(sp)
80007a58:	01714783          	lbu	a5,23(sp)
80007a5c:	00078813          	mv	a6,a5
80007a60:	01c12783          	lw	a5,28(sp)
80007a64:	02812603          	lw	a2,40(sp)
80007a68:	02c12683          	lw	a3,44(sp)
80007a6c:	00812583          	lw	a1,8(sp)
80007a70:	00c12503          	lw	a0,12(sp)
80007a74:	965ff0ef          	jal	ra,800073d8 <printnum>
80007a78:	0340006f          	j	80007aac <vFormatPrintString+0x3dc>
80007a7c:	00c12783          	lw	a5,12(sp)
80007a80:	00812583          	lw	a1,8(sp)
80007a84:	00040513          	mv	a0,s0
80007a88:	000780e7          	jalr	a5
80007a8c:	0200006f          	j	80007aac <vFormatPrintString+0x3dc>
80007a90:	00c12783          	lw	a5,12(sp)
80007a94:	00812583          	lw	a1,8(sp)
80007a98:	02500513          	li	a0,37
80007a9c:	000780e7          	jalr	a5
80007aa0:	01012783          	lw	a5,16(sp)
80007aa4:	00f12223          	sw	a5,4(sp)
80007aa8:	00000013          	nop
80007aac:	c69ff06f          	j	80007714 <vFormatPrintString+0x44>
80007ab0:	00000013          	nop
80007ab4:	03c12083          	lw	ra,60(sp)
80007ab8:	03812403          	lw	s0,56(sp)
80007abc:	03412483          	lw	s1,52(sp)
80007ac0:	04010113          	addi	sp,sp,64
80007ac4:	00008067          	ret

80007ac8 <exit>:
80007ac8:	fe010113          	addi	sp,sp,-32
80007acc:	00112e23          	sw	ra,28(sp)
80007ad0:	00a12623          	sw	a0,12(sp)
80007ad4:	881f80ef          	jal	ra,80000354 <terminate_platform>
80007ad8:	0000006f          	j	80007ad8 <exit+0x10>

80007adc <printf>:
80007adc:	fb010113          	addi	sp,sp,-80
80007ae0:	02112623          	sw	ra,44(sp)
80007ae4:	00a12623          	sw	a0,12(sp)
80007ae8:	02b12a23          	sw	a1,52(sp)
80007aec:	02c12c23          	sw	a2,56(sp)
80007af0:	02d12e23          	sw	a3,60(sp)
80007af4:	04e12023          	sw	a4,64(sp)
80007af8:	04f12223          	sw	a5,68(sp)
80007afc:	05012423          	sw	a6,72(sp)
80007b00:	05112623          	sw	a7,76(sp)
80007b04:	05010793          	addi	a5,sp,80
80007b08:	00f12423          	sw	a5,8(sp)
80007b0c:	00812783          	lw	a5,8(sp)
80007b10:	fe478793          	addi	a5,a5,-28
80007b14:	00f12e23          	sw	a5,28(sp)
80007b18:	01c12783          	lw	a5,28(sp)
80007b1c:	00078693          	mv	a3,a5
80007b20:	00c12603          	lw	a2,12(sp)
80007b24:	00000593          	li	a1,0
80007b28:	00000517          	auipc	a0,0x0
80007b2c:	80850513          	addi	a0,a0,-2040 # 80007330 <putchar>
80007b30:	ba1ff0ef          	jal	ra,800076d0 <vFormatPrintString>
80007b34:	00000793          	li	a5,0
80007b38:	00078513          	mv	a0,a5
80007b3c:	02c12083          	lw	ra,44(sp)
80007b40:	05010113          	addi	sp,sp,80
80007b44:	00008067          	ret

80007b48 <sprintf_putch.0>:
80007b48:	fe010113          	addi	sp,sp,-32
80007b4c:	00a12623          	sw	a0,12(sp)
80007b50:	00b12423          	sw	a1,8(sp)
80007b54:	00712223          	sw	t2,4(sp)
80007b58:	00812783          	lw	a5,8(sp)
80007b5c:	00f12e23          	sw	a5,28(sp)
80007b60:	01c12783          	lw	a5,28(sp)
80007b64:	0007a783          	lw	a5,0(a5)
80007b68:	00c12703          	lw	a4,12(sp)
80007b6c:	0ff77713          	andi	a4,a4,255
80007b70:	00e78023          	sb	a4,0(a5)
80007b74:	01c12783          	lw	a5,28(sp)
80007b78:	0007a783          	lw	a5,0(a5)
80007b7c:	00178713          	addi	a4,a5,1
80007b80:	01c12783          	lw	a5,28(sp)
80007b84:	00e7a023          	sw	a4,0(a5)
80007b88:	00000013          	nop
80007b8c:	02010113          	addi	sp,sp,32
80007b90:	00008067          	ret

80007b94 <sprintf>:
80007b94:	fa010113          	addi	sp,sp,-96
80007b98:	02112e23          	sw	ra,60(sp)
80007b9c:	00a12623          	sw	a0,12(sp)
80007ba0:	00b12423          	sw	a1,8(sp)
80007ba4:	04c12423          	sw	a2,72(sp)
80007ba8:	04d12623          	sw	a3,76(sp)
80007bac:	04e12823          	sw	a4,80(sp)
80007bb0:	04f12a23          	sw	a5,84(sp)
80007bb4:	05012c23          	sw	a6,88(sp)
80007bb8:	05112e23          	sw	a7,92(sp)
80007bbc:	06010793          	addi	a5,sp,96
80007bc0:	00f12223          	sw	a5,4(sp)
80007bc4:	00412783          	lw	a5,4(sp)
80007bc8:	02f12223          	sw	a5,36(sp)
80007bcc:	01410793          	addi	a5,sp,20
80007bd0:	01410593          	addi	a1,sp,20
80007bd4:	00000617          	auipc	a2,0x0
80007bd8:	f7460613          	addi	a2,a2,-140 # 80007b48 <sprintf_putch.0>
80007bdc:	fffff737          	lui	a4,0xfffff
80007be0:	fff74693          	not	a3,a4
80007be4:	00001537          	lui	a0,0x1
80007be8:	80050513          	addi	a0,a0,-2048 # 800 <_STACK_SIZE-0xf800>
80007bec:	00a58833          	add	a6,a1,a0
80007bf0:	00e87833          	and	a6,a6,a4
80007bf4:	3b786813          	ori	a6,a6,951
80007bf8:	0107a023          	sw	a6,0(a5)
80007bfc:	00a60533          	add	a0,a2,a0
80007c00:	00e57733          	and	a4,a0,a4
80007c04:	33776713          	ori	a4,a4,823
80007c08:	00e7a223          	sw	a4,4(a5)
80007c0c:	00d5f733          	and	a4,a1,a3
80007c10:	01471593          	slli	a1,a4,0x14
80007c14:	00038737          	lui	a4,0x38
80007c18:	39370713          	addi	a4,a4,915 # 38393 <_STACK_SIZE+0x28393>
80007c1c:	00e5e733          	or	a4,a1,a4
80007c20:	00e7a423          	sw	a4,8(a5)
80007c24:	00d67733          	and	a4,a2,a3
80007c28:	01471693          	slli	a3,a4,0x14
80007c2c:	00030737          	lui	a4,0x30
80007c30:	06770713          	addi	a4,a4,103 # 30067 <_STACK_SIZE+0x20067>
80007c34:	00e6e733          	or	a4,a3,a4
80007c38:	00e7a623          	sw	a4,12(a5)
80007c3c:	0000100f          	fence.i
80007c40:	00c12783          	lw	a5,12(sp)
80007c44:	02f12623          	sw	a5,44(sp)
80007c48:	06010793          	addi	a5,sp,96
80007c4c:	00f12223          	sw	a5,4(sp)
80007c50:	00412783          	lw	a5,4(sp)
80007c54:	fe878793          	addi	a5,a5,-24
80007c58:	02f12423          	sw	a5,40(sp)
80007c5c:	02812703          	lw	a4,40(sp)
80007c60:	01410793          	addi	a5,sp,20
80007c64:	00078513          	mv	a0,a5
80007c68:	00c10793          	addi	a5,sp,12
80007c6c:	00070693          	mv	a3,a4
80007c70:	00812603          	lw	a2,8(sp)
80007c74:	00078593          	mv	a1,a5
80007c78:	a59ff0ef          	jal	ra,800076d0 <vFormatPrintString>
80007c7c:	00c12783          	lw	a5,12(sp)
80007c80:	00078023          	sb	zero,0(a5)
80007c84:	00c12703          	lw	a4,12(sp)
80007c88:	02c12783          	lw	a5,44(sp)
80007c8c:	40f707b3          	sub	a5,a4,a5
80007c90:	00078513          	mv	a0,a5
80007c94:	03c12083          	lw	ra,60(sp)
80007c98:	06010113          	addi	sp,sp,96
80007c9c:	00008067          	ret

80007ca0 <irq_empty_handler>:
80007ca0:	00000793          	li	a5,0
80007ca4:	00078513          	mv	a0,a5
80007ca8:	00008067          	ret

80007cac <xExternalInterruptHandler>:
80007cac:	fe010113          	addi	sp,sp,-32
80007cb0:	00112e23          	sw	ra,28(sp)
80007cb4:	402007b7          	lui	a5,0x40200
80007cb8:	00478793          	addi	a5,a5,4 # 40200004 <SYSCALL_ADDR+0x3e1f0004>
80007cbc:	0007a783          	lw	a5,0(a5)
80007cc0:	00f12623          	sw	a5,12(sp)
80007cc4:	00049717          	auipc	a4,0x49
80007cc8:	86c70713          	addi	a4,a4,-1940 # 80050530 <irq_handler_table>
80007ccc:	00c12783          	lw	a5,12(sp)
80007cd0:	00279793          	slli	a5,a5,0x2
80007cd4:	00f707b3          	add	a5,a4,a5
80007cd8:	0007a783          	lw	a5,0(a5)
80007cdc:	000780e7          	jalr	a5
80007ce0:	00a12423          	sw	a0,8(sp)
80007ce4:	402007b7          	lui	a5,0x40200
80007ce8:	00478793          	addi	a5,a5,4 # 40200004 <SYSCALL_ADDR+0x3e1f0004>
80007cec:	00100713          	li	a4,1
80007cf0:	00e7a023          	sw	a4,0(a5)
80007cf4:	00812783          	lw	a5,8(sp)
80007cf8:	00078513          	mv	a0,a5
80007cfc:	01c12083          	lw	ra,28(sp)
80007d00:	02010113          	addi	sp,sp,32
80007d04:	00008067          	ret

80007d08 <register_interrupt_handler>:
80007d08:	ff010113          	addi	sp,sp,-16
80007d0c:	00a12623          	sw	a0,12(sp)
80007d10:	00b12423          	sw	a1,8(sp)
80007d14:	00c12703          	lw	a4,12(sp)
80007d18:	03f00793          	li	a5,63
80007d1c:	00e7f663          	bgeu	a5,a4,80007d28 <register_interrupt_handler+0x20>
80007d20:	30047073          	csrci	mstatus,8
80007d24:	0000006f          	j	80007d24 <register_interrupt_handler+0x1c>
80007d28:	00049717          	auipc	a4,0x49
80007d2c:	80870713          	addi	a4,a4,-2040 # 80050530 <irq_handler_table>
80007d30:	00c12783          	lw	a5,12(sp)
80007d34:	00279793          	slli	a5,a5,0x2
80007d38:	00f707b3          	add	a5,a4,a5
80007d3c:	00812703          	lw	a4,8(sp)
80007d40:	00e7a023          	sw	a4,0(a5)
80007d44:	00000013          	nop
80007d48:	01010113          	addi	sp,sp,16
80007d4c:	00008067          	ret

80007d50 <vPrintString>:
80007d50:	fe010113          	addi	sp,sp,-32
80007d54:	00112e23          	sw	ra,28(sp)
80007d58:	00a12623          	sw	a0,12(sp)
80007d5c:	00c12503          	lw	a0,12(sp)
80007d60:	d7dff0ef          	jal	ra,80007adc <printf>
80007d64:	00000013          	nop
80007d68:	01c12083          	lw	ra,28(sp)
80007d6c:	02010113          	addi	sp,sp,32
80007d70:	00008067          	ret

80007d74 <vTask1>:
80007d74:	fd010113          	addi	sp,sp,-48
80007d78:	02112623          	sw	ra,44(sp)
80007d7c:	00a12623          	sw	a0,12(sp)
80007d80:	00048797          	auipc	a5,0x48
80007d84:	46478793          	addi	a5,a5,1124 # 800501e4 <__rodata_start+0x1e4>
80007d88:	00f12e23          	sw	a5,28(sp)
80007d8c:	01c12503          	lw	a0,28(sp)
80007d90:	fc1ff0ef          	jal	ra,80007d50 <vPrintString>
80007d94:	00012c23          	sw	zero,24(sp)
80007d98:	0100006f          	j	80007da8 <vTask1+0x34>
80007d9c:	01812783          	lw	a5,24(sp)
80007da0:	00178793          	addi	a5,a5,1
80007da4:	00f12c23          	sw	a5,24(sp)
80007da8:	01812783          	lw	a5,24(sp)
80007dac:	00002737          	lui	a4,0x2
80007db0:	71070713          	addi	a4,a4,1808 # 2710 <_STACK_SIZE-0xd8f0>
80007db4:	fee7e4e3          	bltu	a5,a4,80007d9c <vTask1+0x28>
80007db8:	fd5ff06f          	j	80007d8c <vTask1+0x18>

80007dbc <vTask2>:
80007dbc:	fd010113          	addi	sp,sp,-48
80007dc0:	02112623          	sw	ra,44(sp)
80007dc4:	00a12623          	sw	a0,12(sp)
80007dc8:	00048797          	auipc	a5,0x48
80007dcc:	43078793          	addi	a5,a5,1072 # 800501f8 <__rodata_start+0x1f8>
80007dd0:	00f12e23          	sw	a5,28(sp)
80007dd4:	00010ba3          	sb	zero,23(sp)
80007dd8:	01c12503          	lw	a0,28(sp)
80007ddc:	f75ff0ef          	jal	ra,80007d50 <vPrintString>
80007de0:	00012c23          	sw	zero,24(sp)
80007de4:	0100006f          	j	80007df4 <vTask2+0x38>
80007de8:	01812783          	lw	a5,24(sp)
80007dec:	00178793          	addi	a5,a5,1
80007df0:	00f12c23          	sw	a5,24(sp)
80007df4:	01812783          	lw	a5,24(sp)
80007df8:	00002737          	lui	a4,0x2
80007dfc:	71070713          	addi	a4,a4,1808 # 2710 <_STACK_SIZE-0xd8f0>
80007e00:	fee7e4e3          	bltu	a5,a4,80007de8 <vTask2+0x2c>
80007e04:	01714783          	lbu	a5,23(sp)
80007e08:	0ff7f793          	andi	a5,a5,255
80007e0c:	00178793          	addi	a5,a5,1
80007e10:	0ff7f793          	andi	a5,a5,255
80007e14:	00f10ba3          	sb	a5,23(sp)
80007e18:	01714783          	lbu	a5,23(sp)
80007e1c:	0ff7f793          	andi	a5,a5,255
80007e20:	00078713          	mv	a4,a5
80007e24:	01400793          	li	a5,20
80007e28:	faf748e3          	blt	a4,a5,80007dd8 <vTask2+0x1c>
80007e2c:	ed4fb0ef          	jal	ra,80003500 <vTaskEndScheduler>
80007e30:	fa9ff06f          	j	80007dd8 <vTask2+0x1c>

80007e34 <main>:
80007e34:	ff010113          	addi	sp,sp,-16
80007e38:	00112623          	sw	ra,12(sp)
80007e3c:	00000793          	li	a5,0
80007e40:	00100713          	li	a4,1
80007e44:	00000693          	li	a3,0
80007e48:	3e800613          	li	a2,1000
80007e4c:	00048597          	auipc	a1,0x48
80007e50:	3c058593          	addi	a1,a1,960 # 8005020c <__rodata_start+0x20c>
80007e54:	00000517          	auipc	a0,0x0
80007e58:	f2050513          	addi	a0,a0,-224 # 80007d74 <vTask1>
80007e5c:	f80fa0ef          	jal	ra,800025dc <xTaskCreate>
80007e60:	00000793          	li	a5,0
80007e64:	00100713          	li	a4,1
80007e68:	00000693          	li	a3,0
80007e6c:	3e800613          	li	a2,1000
80007e70:	00048597          	auipc	a1,0x48
80007e74:	3a458593          	addi	a1,a1,932 # 80050214 <__rodata_start+0x214>
80007e78:	00000517          	auipc	a0,0x0
80007e7c:	f4450513          	addi	a0,a0,-188 # 80007dbc <vTask2>
80007e80:	f5cfa0ef          	jal	ra,800025dc <xTaskCreate>
80007e84:	dccfb0ef          	jal	ra,80003450 <vTaskStartScheduler>
80007e88:	00000793          	li	a5,0
80007e8c:	00078513          	mv	a0,a5
80007e90:	00c12083          	lw	ra,12(sp)
80007e94:	01010113          	addi	sp,sp,16
80007e98:	00008067          	ret

80007e9c <vApplicationMallocFailedHook>:
80007e9c:	30047073          	csrci	mstatus,8
80007ea0:	0000006f          	j	80007ea0 <vApplicationMallocFailedHook+0x4>

80007ea4 <vApplicationIdleHook>:
80007ea4:	00000013          	nop
80007ea8:	00008067          	ret

80007eac <vApplicationStackOverflowHook>:
80007eac:	ff010113          	addi	sp,sp,-16
80007eb0:	00a12623          	sw	a0,12(sp)
80007eb4:	00b12423          	sw	a1,8(sp)
80007eb8:	30047073          	csrci	mstatus,8
80007ebc:	0000006f          	j	80007ebc <vApplicationStackOverflowHook+0x10>

80007ec0 <vCreateBlockTimeTasks>:
80007ec0:	ff010113          	addi	sp,sp,-16
80007ec4:	00112623          	sw	ra,12(sp)
80007ec8:	00000613          	li	a2,0
80007ecc:	00400593          	li	a1,4
80007ed0:	00500513          	li	a0,5
80007ed4:	de9f80ef          	jal	ra,80000cbc <xQueueGenericCreate>
80007ed8:	00050713          	mv	a4,a0
80007edc:	00062797          	auipc	a5,0x62
80007ee0:	a2478793          	addi	a5,a5,-1500 # 80069900 <xTestQueue>
80007ee4:	00e7a023          	sw	a4,0(a5)
80007ee8:	00062797          	auipc	a5,0x62
80007eec:	a1878793          	addi	a5,a5,-1512 # 80069900 <xTestQueue>
80007ef0:	0007a783          	lw	a5,0(a5)
80007ef4:	06078663          	beqz	a5,80007f60 <vCreateBlockTimeTasks+0xa0>
80007ef8:	00062797          	auipc	a5,0x62
80007efc:	a0878793          	addi	a5,a5,-1528 # 80069900 <xTestQueue>
80007f00:	0007a783          	lw	a5,0(a5)
80007f04:	00048597          	auipc	a1,0x48
80007f08:	31858593          	addi	a1,a1,792 # 8005021c <__rodata_start+0x21c>
80007f0c:	00078513          	mv	a0,a5
80007f10:	c90fa0ef          	jal	ra,800023a0 <vQueueAddToRegistry>
80007f14:	00000793          	li	a5,0
80007f18:	00200713          	li	a4,2
80007f1c:	00000693          	li	a3,0
80007f20:	40000613          	li	a2,1024
80007f24:	00048597          	auipc	a1,0x48
80007f28:	30c58593          	addi	a1,a1,780 # 80050230 <__rodata_start+0x230>
80007f2c:	00000517          	auipc	a0,0x0
80007f30:	04450513          	addi	a0,a0,68 # 80007f70 <vPrimaryBlockTimeTestTask>
80007f34:	ea8fa0ef          	jal	ra,800025dc <xTaskCreate>
80007f38:	00062797          	auipc	a5,0x62
80007f3c:	9cc78793          	addi	a5,a5,-1588 # 80069904 <xSecondary>
80007f40:	00100713          	li	a4,1
80007f44:	00000693          	li	a3,0
80007f48:	40000613          	li	a2,1024
80007f4c:	00048597          	auipc	a1,0x48
80007f50:	2ec58593          	addi	a1,a1,748 # 80050238 <__rodata_start+0x238>
80007f54:	00000517          	auipc	a0,0x0
80007f58:	5ac50513          	addi	a0,a0,1452 # 80008500 <vSecondaryBlockTimeTestTask>
80007f5c:	e80fa0ef          	jal	ra,800025dc <xTaskCreate>
80007f60:	00000013          	nop
80007f64:	00c12083          	lw	ra,12(sp)
80007f68:	01010113          	addi	sp,sp,16
80007f6c:	00008067          	ret

80007f70 <vPrimaryBlockTimeTestTask>:
80007f70:	fc010113          	addi	sp,sp,-64
80007f74:	02112e23          	sw	ra,60(sp)
80007f78:	00a12623          	sw	a0,12(sp)
80007f7c:	720000ef          	jal	ra,8000869c <prvBasicDelayTests>
80007f80:	02012023          	sw	zero,32(sp)
80007f84:	0b00006f          	j	80008034 <vPrimaryBlockTimeTestTask+0xc4>
80007f88:	02012783          	lw	a5,32(sp)
80007f8c:	00a00713          	li	a4,10
80007f90:	00f717b3          	sll	a5,a4,a5
80007f94:	02f12623          	sw	a5,44(sp)
80007f98:	f8cfb0ef          	jal	ra,80003724 <xTaskGetTickCount>
80007f9c:	02a12423          	sw	a0,40(sp)
80007fa0:	00062797          	auipc	a5,0x62
80007fa4:	96078793          	addi	a5,a5,-1696 # 80069900 <xTestQueue>
80007fa8:	0007a783          	lw	a5,0(a5)
80007fac:	01c10713          	addi	a4,sp,28
80007fb0:	02c12603          	lw	a2,44(sp)
80007fb4:	00070593          	mv	a1,a4
80007fb8:	00078513          	mv	a0,a5
80007fbc:	d70f90ef          	jal	ra,8000152c <xQueueReceive>
80007fc0:	00050793          	mv	a5,a0
80007fc4:	00078a63          	beqz	a5,80007fd8 <vPrimaryBlockTimeTestTask+0x68>
80007fc8:	00062797          	auipc	a5,0x62
80007fcc:	94878793          	addi	a5,a5,-1720 # 80069910 <xErrorOccurred>
80007fd0:	00100713          	li	a4,1
80007fd4:	00e7a023          	sw	a4,0(a5)
80007fd8:	f4cfb0ef          	jal	ra,80003724 <xTaskGetTickCount>
80007fdc:	00050713          	mv	a4,a0
80007fe0:	02812783          	lw	a5,40(sp)
80007fe4:	40f707b3          	sub	a5,a4,a5
80007fe8:	02f12223          	sw	a5,36(sp)
80007fec:	02412703          	lw	a4,36(sp)
80007ff0:	02c12783          	lw	a5,44(sp)
80007ff4:	00f77a63          	bgeu	a4,a5,80008008 <vPrimaryBlockTimeTestTask+0x98>
80007ff8:	00062797          	auipc	a5,0x62
80007ffc:	91878793          	addi	a5,a5,-1768 # 80069910 <xErrorOccurred>
80008000:	00100713          	li	a4,1
80008004:	00e7a023          	sw	a4,0(a5)
80008008:	02c12783          	lw	a5,44(sp)
8000800c:	00f78793          	addi	a5,a5,15
80008010:	02412703          	lw	a4,36(sp)
80008014:	00e7fa63          	bgeu	a5,a4,80008028 <vPrimaryBlockTimeTestTask+0xb8>
80008018:	00062797          	auipc	a5,0x62
8000801c:	8f878793          	addi	a5,a5,-1800 # 80069910 <xErrorOccurred>
80008020:	00100713          	li	a4,1
80008024:	00e7a023          	sw	a4,0(a5)
80008028:	02012783          	lw	a5,32(sp)
8000802c:	00178793          	addi	a5,a5,1
80008030:	02f12023          	sw	a5,32(sp)
80008034:	02012703          	lw	a4,32(sp)
80008038:	00400793          	li	a5,4
8000803c:	f4e7d6e3          	bge	a5,a4,80007f88 <vPrimaryBlockTimeTestTask+0x18>
80008040:	02012023          	sw	zero,32(sp)
80008044:	0500006f          	j	80008094 <vPrimaryBlockTimeTestTask+0x124>
80008048:	00062797          	auipc	a5,0x62
8000804c:	8b878793          	addi	a5,a5,-1864 # 80069900 <xTestQueue>
80008050:	0007a783          	lw	a5,0(a5)
80008054:	02010713          	addi	a4,sp,32
80008058:	00000693          	li	a3,0
8000805c:	00000613          	li	a2,0
80008060:	00070593          	mv	a1,a4
80008064:	00078513          	mv	a0,a5
80008068:	fc9f80ef          	jal	ra,80001030 <xQueueGenericSend>
8000806c:	00050713          	mv	a4,a0
80008070:	00100793          	li	a5,1
80008074:	00f70a63          	beq	a4,a5,80008088 <vPrimaryBlockTimeTestTask+0x118>
80008078:	00062797          	auipc	a5,0x62
8000807c:	89878793          	addi	a5,a5,-1896 # 80069910 <xErrorOccurred>
80008080:	00100713          	li	a4,1
80008084:	00e7a023          	sw	a4,0(a5)
80008088:	02012783          	lw	a5,32(sp)
8000808c:	00178793          	addi	a5,a5,1
80008090:	02f12023          	sw	a5,32(sp)
80008094:	02012703          	lw	a4,32(sp)
80008098:	00400793          	li	a5,4
8000809c:	fae7d6e3          	bge	a5,a4,80008048 <vPrimaryBlockTimeTestTask+0xd8>
800080a0:	02012023          	sw	zero,32(sp)
800080a4:	0b40006f          	j	80008158 <vPrimaryBlockTimeTestTask+0x1e8>
800080a8:	02012783          	lw	a5,32(sp)
800080ac:	00a00713          	li	a4,10
800080b0:	00f717b3          	sll	a5,a4,a5
800080b4:	02f12623          	sw	a5,44(sp)
800080b8:	e6cfb0ef          	jal	ra,80003724 <xTaskGetTickCount>
800080bc:	02a12423          	sw	a0,40(sp)
800080c0:	00062797          	auipc	a5,0x62
800080c4:	84078793          	addi	a5,a5,-1984 # 80069900 <xTestQueue>
800080c8:	0007a783          	lw	a5,0(a5)
800080cc:	02010713          	addi	a4,sp,32
800080d0:	00000693          	li	a3,0
800080d4:	02c12603          	lw	a2,44(sp)
800080d8:	00070593          	mv	a1,a4
800080dc:	00078513          	mv	a0,a5
800080e0:	f51f80ef          	jal	ra,80001030 <xQueueGenericSend>
800080e4:	00050793          	mv	a5,a0
800080e8:	00078a63          	beqz	a5,800080fc <vPrimaryBlockTimeTestTask+0x18c>
800080ec:	00062797          	auipc	a5,0x62
800080f0:	82478793          	addi	a5,a5,-2012 # 80069910 <xErrorOccurred>
800080f4:	00100713          	li	a4,1
800080f8:	00e7a023          	sw	a4,0(a5)
800080fc:	e28fb0ef          	jal	ra,80003724 <xTaskGetTickCount>
80008100:	00050713          	mv	a4,a0
80008104:	02812783          	lw	a5,40(sp)
80008108:	40f707b3          	sub	a5,a4,a5
8000810c:	02f12223          	sw	a5,36(sp)
80008110:	02412703          	lw	a4,36(sp)
80008114:	02c12783          	lw	a5,44(sp)
80008118:	00f77a63          	bgeu	a4,a5,8000812c <vPrimaryBlockTimeTestTask+0x1bc>
8000811c:	00061797          	auipc	a5,0x61
80008120:	7f478793          	addi	a5,a5,2036 # 80069910 <xErrorOccurred>
80008124:	00100713          	li	a4,1
80008128:	00e7a023          	sw	a4,0(a5)
8000812c:	02c12783          	lw	a5,44(sp)
80008130:	00f78793          	addi	a5,a5,15
80008134:	02412703          	lw	a4,36(sp)
80008138:	00e7fa63          	bgeu	a5,a4,8000814c <vPrimaryBlockTimeTestTask+0x1dc>
8000813c:	00061797          	auipc	a5,0x61
80008140:	7d478793          	addi	a5,a5,2004 # 80069910 <xErrorOccurred>
80008144:	00100713          	li	a4,1
80008148:	00e7a023          	sw	a4,0(a5)
8000814c:	02012783          	lw	a5,32(sp)
80008150:	00178793          	addi	a5,a5,1
80008154:	02f12023          	sw	a5,32(sp)
80008158:	02012703          	lw	a4,32(sp)
8000815c:	00400793          	li	a5,4
80008160:	f4e7d4e3          	bge	a5,a4,800080a8 <vPrimaryBlockTimeTestTask+0x138>
80008164:	00061797          	auipc	a5,0x61
80008168:	7b078793          	addi	a5,a5,1968 # 80069914 <xRunIndicator>
8000816c:	0007a023          	sw	zero,0(a5)
80008170:	00061797          	auipc	a5,0x61
80008174:	79478793          	addi	a5,a5,1940 # 80069904 <xSecondary>
80008178:	0007a783          	lw	a5,0(a5)
8000817c:	00078513          	mv	a0,a5
80008180:	8acfb0ef          	jal	ra,8000322c <vTaskResume>
80008184:	00c0006f          	j	80008190 <vPrimaryBlockTimeTestTask+0x220>
80008188:	00100513          	li	a0,1
8000818c:	ac5fa0ef          	jal	ra,80002c50 <vTaskDelay>
80008190:	00061797          	auipc	a5,0x61
80008194:	78478793          	addi	a5,a5,1924 # 80069914 <xRunIndicator>
80008198:	0007a703          	lw	a4,0(a5)
8000819c:	05500793          	li	a5,85
800081a0:	fef714e3          	bne	a4,a5,80008188 <vPrimaryBlockTimeTestTask+0x218>
800081a4:	00100513          	li	a0,1
800081a8:	aa9fa0ef          	jal	ra,80002c50 <vTaskDelay>
800081ac:	00061797          	auipc	a5,0x61
800081b0:	76878793          	addi	a5,a5,1896 # 80069914 <xRunIndicator>
800081b4:	0007a023          	sw	zero,0(a5)
800081b8:	02012023          	sw	zero,32(sp)
800081bc:	1040006f          	j	800082c0 <vPrimaryBlockTimeTestTask+0x350>
800081c0:	00061797          	auipc	a5,0x61
800081c4:	74078793          	addi	a5,a5,1856 # 80069900 <xTestQueue>
800081c8:	0007a783          	lw	a5,0(a5)
800081cc:	01c10713          	addi	a4,sp,28
800081d0:	00000613          	li	a2,0
800081d4:	00070593          	mv	a1,a4
800081d8:	00078513          	mv	a0,a5
800081dc:	b50f90ef          	jal	ra,8000152c <xQueueReceive>
800081e0:	00050713          	mv	a4,a0
800081e4:	00100793          	li	a5,1
800081e8:	00f70a63          	beq	a4,a5,800081fc <vPrimaryBlockTimeTestTask+0x28c>
800081ec:	00061797          	auipc	a5,0x61
800081f0:	72478793          	addi	a5,a5,1828 # 80069910 <xErrorOccurred>
800081f4:	00100713          	li	a4,1
800081f8:	00e7a023          	sw	a4,0(a5)
800081fc:	00061797          	auipc	a5,0x61
80008200:	70478793          	addi	a5,a5,1796 # 80069900 <xTestQueue>
80008204:	0007a783          	lw	a5,0(a5)
80008208:	02010713          	addi	a4,sp,32
8000820c:	00000693          	li	a3,0
80008210:	00000613          	li	a2,0
80008214:	00070593          	mv	a1,a4
80008218:	00078513          	mv	a0,a5
8000821c:	e15f80ef          	jal	ra,80001030 <xQueueGenericSend>
80008220:	00050713          	mv	a4,a0
80008224:	00100793          	li	a5,1
80008228:	00f70a63          	beq	a4,a5,8000823c <vPrimaryBlockTimeTestTask+0x2cc>
8000822c:	00061797          	auipc	a5,0x61
80008230:	6e478793          	addi	a5,a5,1764 # 80069910 <xErrorOccurred>
80008234:	00100713          	li	a4,1
80008238:	00e7a023          	sw	a4,0(a5)
8000823c:	00061797          	auipc	a5,0x61
80008240:	6d878793          	addi	a5,a5,1752 # 80069914 <xRunIndicator>
80008244:	0007a703          	lw	a4,0(a5)
80008248:	05500793          	li	a5,85
8000824c:	00f71a63          	bne	a4,a5,80008260 <vPrimaryBlockTimeTestTask+0x2f0>
80008250:	00061797          	auipc	a5,0x61
80008254:	6c078793          	addi	a5,a5,1728 # 80069910 <xErrorOccurred>
80008258:	00100713          	li	a4,1
8000825c:	00e7a023          	sw	a4,0(a5)
80008260:	00061797          	auipc	a5,0x61
80008264:	6a478793          	addi	a5,a5,1700 # 80069904 <xSecondary>
80008268:	0007a783          	lw	a5,0(a5)
8000826c:	00400593          	li	a1,4
80008270:	00078513          	mv	a0,a5
80008274:	bf5fa0ef          	jal	ra,80002e68 <vTaskPrioritySet>
80008278:	00061797          	auipc	a5,0x61
8000827c:	69c78793          	addi	a5,a5,1692 # 80069914 <xRunIndicator>
80008280:	0007a703          	lw	a4,0(a5)
80008284:	05500793          	li	a5,85
80008288:	00f71a63          	bne	a4,a5,8000829c <vPrimaryBlockTimeTestTask+0x32c>
8000828c:	00061797          	auipc	a5,0x61
80008290:	68478793          	addi	a5,a5,1668 # 80069910 <xErrorOccurred>
80008294:	00100713          	li	a4,1
80008298:	00e7a023          	sw	a4,0(a5)
8000829c:	00061797          	auipc	a5,0x61
800082a0:	66878793          	addi	a5,a5,1640 # 80069904 <xSecondary>
800082a4:	0007a783          	lw	a5,0(a5)
800082a8:	00100593          	li	a1,1
800082ac:	00078513          	mv	a0,a5
800082b0:	bb9fa0ef          	jal	ra,80002e68 <vTaskPrioritySet>
800082b4:	02012783          	lw	a5,32(sp)
800082b8:	00178793          	addi	a5,a5,1
800082bc:	02f12023          	sw	a5,32(sp)
800082c0:	02012703          	lw	a4,32(sp)
800082c4:	00400793          	li	a5,4
800082c8:	eee7dce3          	bge	a5,a4,800081c0 <vPrimaryBlockTimeTestTask+0x250>
800082cc:	00c0006f          	j	800082d8 <vPrimaryBlockTimeTestTask+0x368>
800082d0:	00100513          	li	a0,1
800082d4:	97dfa0ef          	jal	ra,80002c50 <vTaskDelay>
800082d8:	00061797          	auipc	a5,0x61
800082dc:	63c78793          	addi	a5,a5,1596 # 80069914 <xRunIndicator>
800082e0:	0007a703          	lw	a4,0(a5)
800082e4:	05500793          	li	a5,85
800082e8:	fef714e3          	bne	a4,a5,800082d0 <vPrimaryBlockTimeTestTask+0x360>
800082ec:	00100513          	li	a0,1
800082f0:	961fa0ef          	jal	ra,80002c50 <vTaskDelay>
800082f4:	00061797          	auipc	a5,0x61
800082f8:	62078793          	addi	a5,a5,1568 # 80069914 <xRunIndicator>
800082fc:	0007a023          	sw	zero,0(a5)
80008300:	02012023          	sw	zero,32(sp)
80008304:	04c0006f          	j	80008350 <vPrimaryBlockTimeTestTask+0x3e0>
80008308:	00061797          	auipc	a5,0x61
8000830c:	5f878793          	addi	a5,a5,1528 # 80069900 <xTestQueue>
80008310:	0007a783          	lw	a5,0(a5)
80008314:	01c10713          	addi	a4,sp,28
80008318:	00000613          	li	a2,0
8000831c:	00070593          	mv	a1,a4
80008320:	00078513          	mv	a0,a5
80008324:	a08f90ef          	jal	ra,8000152c <xQueueReceive>
80008328:	00050713          	mv	a4,a0
8000832c:	00100793          	li	a5,1
80008330:	00f70a63          	beq	a4,a5,80008344 <vPrimaryBlockTimeTestTask+0x3d4>
80008334:	00061797          	auipc	a5,0x61
80008338:	5dc78793          	addi	a5,a5,1500 # 80069910 <xErrorOccurred>
8000833c:	00100713          	li	a4,1
80008340:	00e7a023          	sw	a4,0(a5)
80008344:	02012783          	lw	a5,32(sp)
80008348:	00178793          	addi	a5,a5,1
8000834c:	02f12023          	sw	a5,32(sp)
80008350:	02012703          	lw	a4,32(sp)
80008354:	00400793          	li	a5,4
80008358:	fae7d8e3          	bge	a5,a4,80008308 <vPrimaryBlockTimeTestTask+0x398>
8000835c:	00061797          	auipc	a5,0x61
80008360:	5a878793          	addi	a5,a5,1448 # 80069904 <xSecondary>
80008364:	0007a783          	lw	a5,0(a5)
80008368:	00078513          	mv	a0,a5
8000836c:	ec1fa0ef          	jal	ra,8000322c <vTaskResume>
80008370:	00c0006f          	j	8000837c <vPrimaryBlockTimeTestTask+0x40c>
80008374:	00100513          	li	a0,1
80008378:	8d9fa0ef          	jal	ra,80002c50 <vTaskDelay>
8000837c:	00061797          	auipc	a5,0x61
80008380:	59878793          	addi	a5,a5,1432 # 80069914 <xRunIndicator>
80008384:	0007a703          	lw	a4,0(a5)
80008388:	05500793          	li	a5,85
8000838c:	fef714e3          	bne	a4,a5,80008374 <vPrimaryBlockTimeTestTask+0x404>
80008390:	00100513          	li	a0,1
80008394:	8bdfa0ef          	jal	ra,80002c50 <vTaskDelay>
80008398:	00061797          	auipc	a5,0x61
8000839c:	57c78793          	addi	a5,a5,1404 # 80069914 <xRunIndicator>
800083a0:	0007a023          	sw	zero,0(a5)
800083a4:	02012023          	sw	zero,32(sp)
800083a8:	1040006f          	j	800084ac <vPrimaryBlockTimeTestTask+0x53c>
800083ac:	00061797          	auipc	a5,0x61
800083b0:	55478793          	addi	a5,a5,1364 # 80069900 <xTestQueue>
800083b4:	0007a783          	lw	a5,0(a5)
800083b8:	02010713          	addi	a4,sp,32
800083bc:	00000693          	li	a3,0
800083c0:	00000613          	li	a2,0
800083c4:	00070593          	mv	a1,a4
800083c8:	00078513          	mv	a0,a5
800083cc:	c65f80ef          	jal	ra,80001030 <xQueueGenericSend>
800083d0:	00050713          	mv	a4,a0
800083d4:	00100793          	li	a5,1
800083d8:	00f70a63          	beq	a4,a5,800083ec <vPrimaryBlockTimeTestTask+0x47c>
800083dc:	00061797          	auipc	a5,0x61
800083e0:	53478793          	addi	a5,a5,1332 # 80069910 <xErrorOccurred>
800083e4:	00100713          	li	a4,1
800083e8:	00e7a023          	sw	a4,0(a5)
800083ec:	00061797          	auipc	a5,0x61
800083f0:	51478793          	addi	a5,a5,1300 # 80069900 <xTestQueue>
800083f4:	0007a783          	lw	a5,0(a5)
800083f8:	01c10713          	addi	a4,sp,28
800083fc:	00000613          	li	a2,0
80008400:	00070593          	mv	a1,a4
80008404:	00078513          	mv	a0,a5
80008408:	924f90ef          	jal	ra,8000152c <xQueueReceive>
8000840c:	00050713          	mv	a4,a0
80008410:	00100793          	li	a5,1
80008414:	00f70a63          	beq	a4,a5,80008428 <vPrimaryBlockTimeTestTask+0x4b8>
80008418:	00061797          	auipc	a5,0x61
8000841c:	4f878793          	addi	a5,a5,1272 # 80069910 <xErrorOccurred>
80008420:	00100713          	li	a4,1
80008424:	00e7a023          	sw	a4,0(a5)
80008428:	00061797          	auipc	a5,0x61
8000842c:	4ec78793          	addi	a5,a5,1260 # 80069914 <xRunIndicator>
80008430:	0007a703          	lw	a4,0(a5)
80008434:	05500793          	li	a5,85
80008438:	00f71a63          	bne	a4,a5,8000844c <vPrimaryBlockTimeTestTask+0x4dc>
8000843c:	00061797          	auipc	a5,0x61
80008440:	4d478793          	addi	a5,a5,1236 # 80069910 <xErrorOccurred>
80008444:	00100713          	li	a4,1
80008448:	00e7a023          	sw	a4,0(a5)
8000844c:	00061797          	auipc	a5,0x61
80008450:	4b878793          	addi	a5,a5,1208 # 80069904 <xSecondary>
80008454:	0007a783          	lw	a5,0(a5)
80008458:	00400593          	li	a1,4
8000845c:	00078513          	mv	a0,a5
80008460:	a09fa0ef          	jal	ra,80002e68 <vTaskPrioritySet>
80008464:	00061797          	auipc	a5,0x61
80008468:	4b078793          	addi	a5,a5,1200 # 80069914 <xRunIndicator>
8000846c:	0007a703          	lw	a4,0(a5)
80008470:	05500793          	li	a5,85
80008474:	00f71a63          	bne	a4,a5,80008488 <vPrimaryBlockTimeTestTask+0x518>
80008478:	00061797          	auipc	a5,0x61
8000847c:	49878793          	addi	a5,a5,1176 # 80069910 <xErrorOccurred>
80008480:	00100713          	li	a4,1
80008484:	00e7a023          	sw	a4,0(a5)
80008488:	00061797          	auipc	a5,0x61
8000848c:	47c78793          	addi	a5,a5,1148 # 80069904 <xSecondary>
80008490:	0007a783          	lw	a5,0(a5)
80008494:	00100593          	li	a1,1
80008498:	00078513          	mv	a0,a5
8000849c:	9cdfa0ef          	jal	ra,80002e68 <vTaskPrioritySet>
800084a0:	02012783          	lw	a5,32(sp)
800084a4:	00178793          	addi	a5,a5,1
800084a8:	02f12023          	sw	a5,32(sp)
800084ac:	02012703          	lw	a4,32(sp)
800084b0:	00400793          	li	a5,4
800084b4:	eee7dce3          	bge	a5,a4,800083ac <vPrimaryBlockTimeTestTask+0x43c>
800084b8:	00c0006f          	j	800084c4 <vPrimaryBlockTimeTestTask+0x554>
800084bc:	00100513          	li	a0,1
800084c0:	f90fa0ef          	jal	ra,80002c50 <vTaskDelay>
800084c4:	00061797          	auipc	a5,0x61
800084c8:	45078793          	addi	a5,a5,1104 # 80069914 <xRunIndicator>
800084cc:	0007a703          	lw	a4,0(a5)
800084d0:	05500793          	li	a5,85
800084d4:	fef714e3          	bne	a4,a5,800084bc <vPrimaryBlockTimeTestTask+0x54c>
800084d8:	00100513          	li	a0,1
800084dc:	f74fa0ef          	jal	ra,80002c50 <vTaskDelay>
800084e0:	00061797          	auipc	a5,0x61
800084e4:	42878793          	addi	a5,a5,1064 # 80069908 <xPrimaryCycles>
800084e8:	0007a783          	lw	a5,0(a5)
800084ec:	00178713          	addi	a4,a5,1
800084f0:	00061797          	auipc	a5,0x61
800084f4:	41878793          	addi	a5,a5,1048 # 80069908 <xPrimaryCycles>
800084f8:	00e7a023          	sw	a4,0(a5)
800084fc:	a81ff06f          	j	80007f7c <vPrimaryBlockTimeTestTask+0xc>

80008500 <vSecondaryBlockTimeTestTask>:
80008500:	fd010113          	addi	sp,sp,-48
80008504:	02112623          	sw	ra,44(sp)
80008508:	00a12623          	sw	a0,12(sp)
8000850c:	00000513          	li	a0,0
80008510:	b59fa0ef          	jal	ra,80003068 <vTaskSuspend>
80008514:	a10fb0ef          	jal	ra,80003724 <xTaskGetTickCount>
80008518:	00a12e23          	sw	a0,28(sp)
8000851c:	00012a23          	sw	zero,20(sp)
80008520:	00061797          	auipc	a5,0x61
80008524:	3f478793          	addi	a5,a5,1012 # 80069914 <xRunIndicator>
80008528:	05500713          	li	a4,85
8000852c:	00e7a023          	sw	a4,0(a5)
80008530:	00061797          	auipc	a5,0x61
80008534:	3d078793          	addi	a5,a5,976 # 80069900 <xTestQueue>
80008538:	0007a783          	lw	a5,0(a5)
8000853c:	01410713          	addi	a4,sp,20
80008540:	00000693          	li	a3,0
80008544:	0af00613          	li	a2,175
80008548:	00070593          	mv	a1,a4
8000854c:	00078513          	mv	a0,a5
80008550:	ae1f80ef          	jal	ra,80001030 <xQueueGenericSend>
80008554:	00050793          	mv	a5,a0
80008558:	00078a63          	beqz	a5,8000856c <vSecondaryBlockTimeTestTask+0x6c>
8000855c:	00061797          	auipc	a5,0x61
80008560:	3b478793          	addi	a5,a5,948 # 80069910 <xErrorOccurred>
80008564:	00100713          	li	a4,1
80008568:	00e7a023          	sw	a4,0(a5)
8000856c:	9b8fb0ef          	jal	ra,80003724 <xTaskGetTickCount>
80008570:	00050713          	mv	a4,a0
80008574:	01c12783          	lw	a5,28(sp)
80008578:	40f707b3          	sub	a5,a4,a5
8000857c:	00f12c23          	sw	a5,24(sp)
80008580:	01812703          	lw	a4,24(sp)
80008584:	0ae00793          	li	a5,174
80008588:	00e7ea63          	bltu	a5,a4,8000859c <vSecondaryBlockTimeTestTask+0x9c>
8000858c:	00061797          	auipc	a5,0x61
80008590:	38478793          	addi	a5,a5,900 # 80069910 <xErrorOccurred>
80008594:	00100713          	li	a4,1
80008598:	00e7a023          	sw	a4,0(a5)
8000859c:	01812703          	lw	a4,24(sp)
800085a0:	0be00793          	li	a5,190
800085a4:	00e7fa63          	bgeu	a5,a4,800085b8 <vSecondaryBlockTimeTestTask+0xb8>
800085a8:	00061797          	auipc	a5,0x61
800085ac:	36878793          	addi	a5,a5,872 # 80069910 <xErrorOccurred>
800085b0:	00100713          	li	a4,1
800085b4:	00e7a023          	sw	a4,0(a5)
800085b8:	00061797          	auipc	a5,0x61
800085bc:	35c78793          	addi	a5,a5,860 # 80069914 <xRunIndicator>
800085c0:	05500713          	li	a4,85
800085c4:	00e7a023          	sw	a4,0(a5)
800085c8:	00000513          	li	a0,0
800085cc:	a9dfa0ef          	jal	ra,80003068 <vTaskSuspend>
800085d0:	954fb0ef          	jal	ra,80003724 <xTaskGetTickCount>
800085d4:	00a12e23          	sw	a0,28(sp)
800085d8:	00061797          	auipc	a5,0x61
800085dc:	33c78793          	addi	a5,a5,828 # 80069914 <xRunIndicator>
800085e0:	05500713          	li	a4,85
800085e4:	00e7a023          	sw	a4,0(a5)
800085e8:	00061797          	auipc	a5,0x61
800085ec:	31878793          	addi	a5,a5,792 # 80069900 <xTestQueue>
800085f0:	0007a783          	lw	a5,0(a5)
800085f4:	01410713          	addi	a4,sp,20
800085f8:	0af00613          	li	a2,175
800085fc:	00070593          	mv	a1,a4
80008600:	00078513          	mv	a0,a5
80008604:	f29f80ef          	jal	ra,8000152c <xQueueReceive>
80008608:	00050793          	mv	a5,a0
8000860c:	00078a63          	beqz	a5,80008620 <vSecondaryBlockTimeTestTask+0x120>
80008610:	00061797          	auipc	a5,0x61
80008614:	30078793          	addi	a5,a5,768 # 80069910 <xErrorOccurred>
80008618:	00100713          	li	a4,1
8000861c:	00e7a023          	sw	a4,0(a5)
80008620:	904fb0ef          	jal	ra,80003724 <xTaskGetTickCount>
80008624:	00050713          	mv	a4,a0
80008628:	01c12783          	lw	a5,28(sp)
8000862c:	40f707b3          	sub	a5,a4,a5
80008630:	00f12c23          	sw	a5,24(sp)
80008634:	01812703          	lw	a4,24(sp)
80008638:	0ae00793          	li	a5,174
8000863c:	00e7ea63          	bltu	a5,a4,80008650 <vSecondaryBlockTimeTestTask+0x150>
80008640:	00061797          	auipc	a5,0x61
80008644:	2d078793          	addi	a5,a5,720 # 80069910 <xErrorOccurred>
80008648:	00100713          	li	a4,1
8000864c:	00e7a023          	sw	a4,0(a5)
80008650:	01812703          	lw	a4,24(sp)
80008654:	0be00793          	li	a5,190
80008658:	00e7fa63          	bgeu	a5,a4,8000866c <vSecondaryBlockTimeTestTask+0x16c>
8000865c:	00061797          	auipc	a5,0x61
80008660:	2b478793          	addi	a5,a5,692 # 80069910 <xErrorOccurred>
80008664:	00100713          	li	a4,1
80008668:	00e7a023          	sw	a4,0(a5)
8000866c:	00061797          	auipc	a5,0x61
80008670:	2a878793          	addi	a5,a5,680 # 80069914 <xRunIndicator>
80008674:	05500713          	li	a4,85
80008678:	00e7a023          	sw	a4,0(a5)
8000867c:	00061797          	auipc	a5,0x61
80008680:	29078793          	addi	a5,a5,656 # 8006990c <xSecondaryCycles>
80008684:	0007a783          	lw	a5,0(a5)
80008688:	00178713          	addi	a4,a5,1
8000868c:	00061797          	auipc	a5,0x61
80008690:	28078793          	addi	a5,a5,640 # 8006990c <xSecondaryCycles>
80008694:	00e7a023          	sw	a4,0(a5)
80008698:	e75ff06f          	j	8000850c <vSecondaryBlockTimeTestTask+0xc>

8000869c <prvBasicDelayTests>:
8000869c:	fd010113          	addi	sp,sp,-48
800086a0:	02112623          	sw	ra,44(sp)
800086a4:	04b00793          	li	a5,75
800086a8:	00f12c23          	sw	a5,24(sp)
800086ac:	00500793          	li	a5,5
800086b0:	00f12a23          	sw	a5,20(sp)
800086b4:	00700793          	li	a5,7
800086b8:	00f12823          	sw	a5,16(sp)
800086bc:	00100593          	li	a1,1
800086c0:	00000513          	li	a0,0
800086c4:	fa4fa0ef          	jal	ra,80002e68 <vTaskPrioritySet>
800086c8:	85cfb0ef          	jal	ra,80003724 <xTaskGetTickCount>
800086cc:	00a12623          	sw	a0,12(sp)
800086d0:	0af00513          	li	a0,175
800086d4:	d7cfa0ef          	jal	ra,80002c50 <vTaskDelay>
800086d8:	84cfb0ef          	jal	ra,80003724 <xTaskGetTickCount>
800086dc:	00a12423          	sw	a0,8(sp)
800086e0:	00812703          	lw	a4,8(sp)
800086e4:	00c12783          	lw	a5,12(sp)
800086e8:	40f70733          	sub	a4,a4,a5
800086ec:	01012783          	lw	a5,16(sp)
800086f0:	0af78793          	addi	a5,a5,175
800086f4:	00e7fa63          	bgeu	a5,a4,80008708 <prvBasicDelayTests+0x6c>
800086f8:	00061797          	auipc	a5,0x61
800086fc:	21878793          	addi	a5,a5,536 # 80069910 <xErrorOccurred>
80008700:	00100713          	li	a4,1
80008704:	00e7a023          	sw	a4,0(a5)
80008708:	81cfb0ef          	jal	ra,80003724 <xTaskGetTickCount>
8000870c:	00a12423          	sw	a0,8(sp)
80008710:	00812783          	lw	a5,8(sp)
80008714:	00f12023          	sw	a5,0(sp)
80008718:	00012e23          	sw	zero,28(sp)
8000871c:	0880006f          	j	800087a4 <prvBasicDelayTests+0x108>
80008720:	01812583          	lw	a1,24(sp)
80008724:	01c12503          	lw	a0,28(sp)
80008728:	199010ef          	jal	ra,8000a0c0 <__mulsi3>
8000872c:	00050793          	mv	a5,a0
80008730:	00078713          	mv	a4,a5
80008734:	00812783          	lw	a5,8(sp)
80008738:	00e787b3          	add	a5,a5,a4
8000873c:	00f12223          	sw	a5,4(sp)
80008740:	00010793          	mv	a5,sp
80008744:	01812583          	lw	a1,24(sp)
80008748:	00078513          	mv	a0,a5
8000874c:	be4fa0ef          	jal	ra,80002b30 <vTaskDelayUntil>
80008750:	fd5fa0ef          	jal	ra,80003724 <xTaskGetTickCount>
80008754:	00050713          	mv	a4,a0
80008758:	00412783          	lw	a5,4(sp)
8000875c:	40f70733          	sub	a4,a4,a5
80008760:	01012783          	lw	a5,16(sp)
80008764:	0af78793          	addi	a5,a5,175
80008768:	00e7fa63          	bgeu	a5,a4,8000877c <prvBasicDelayTests+0xe0>
8000876c:	00061797          	auipc	a5,0x61
80008770:	1a478793          	addi	a5,a5,420 # 80069910 <xErrorOccurred>
80008774:	00100713          	li	a4,1
80008778:	00e7a023          	sw	a4,0(a5)
8000877c:	00061797          	auipc	a5,0x61
80008780:	18c78793          	addi	a5,a5,396 # 80069908 <xPrimaryCycles>
80008784:	0007a783          	lw	a5,0(a5)
80008788:	00178713          	addi	a4,a5,1
8000878c:	00061797          	auipc	a5,0x61
80008790:	17c78793          	addi	a5,a5,380 # 80069908 <xPrimaryCycles>
80008794:	00e7a023          	sw	a4,0(a5)
80008798:	01c12783          	lw	a5,28(sp)
8000879c:	00178793          	addi	a5,a5,1
800087a0:	00f12e23          	sw	a5,28(sp)
800087a4:	01c12703          	lw	a4,28(sp)
800087a8:	01412783          	lw	a5,20(sp)
800087ac:	f6f76ae3          	bltu	a4,a5,80008720 <prvBasicDelayTests+0x84>
800087b0:	00200593          	li	a1,2
800087b4:	00000513          	li	a0,0
800087b8:	eb0fa0ef          	jal	ra,80002e68 <vTaskPrioritySet>
800087bc:	00000013          	nop
800087c0:	02c12083          	lw	ra,44(sp)
800087c4:	03010113          	addi	sp,sp,48
800087c8:	00008067          	ret

800087cc <xAreBlockTimeTestTasksStillRunning>:
800087cc:	ff010113          	addi	sp,sp,-16
800087d0:	00100793          	li	a5,1
800087d4:	00f12623          	sw	a5,12(sp)
800087d8:	00061797          	auipc	a5,0x61
800087dc:	13078793          	addi	a5,a5,304 # 80069908 <xPrimaryCycles>
800087e0:	0007a703          	lw	a4,0(a5)
800087e4:	00061797          	auipc	a5,0x61
800087e8:	13478793          	addi	a5,a5,308 # 80069918 <xLastPrimaryCycleCount.1>
800087ec:	0007a783          	lw	a5,0(a5)
800087f0:	00f71463          	bne	a4,a5,800087f8 <xAreBlockTimeTestTasksStillRunning+0x2c>
800087f4:	00012623          	sw	zero,12(sp)
800087f8:	00061797          	auipc	a5,0x61
800087fc:	11478793          	addi	a5,a5,276 # 8006990c <xSecondaryCycles>
80008800:	0007a703          	lw	a4,0(a5)
80008804:	00061797          	auipc	a5,0x61
80008808:	11878793          	addi	a5,a5,280 # 8006991c <xLastSecondaryCycleCount.0>
8000880c:	0007a783          	lw	a5,0(a5)
80008810:	00f71463          	bne	a4,a5,80008818 <xAreBlockTimeTestTasksStillRunning+0x4c>
80008814:	00012623          	sw	zero,12(sp)
80008818:	00061797          	auipc	a5,0x61
8000881c:	0f878793          	addi	a5,a5,248 # 80069910 <xErrorOccurred>
80008820:	0007a703          	lw	a4,0(a5)
80008824:	00100793          	li	a5,1
80008828:	00f71463          	bne	a4,a5,80008830 <xAreBlockTimeTestTasksStillRunning+0x64>
8000882c:	00012623          	sw	zero,12(sp)
80008830:	00061797          	auipc	a5,0x61
80008834:	0dc78793          	addi	a5,a5,220 # 8006990c <xSecondaryCycles>
80008838:	0007a703          	lw	a4,0(a5)
8000883c:	00061797          	auipc	a5,0x61
80008840:	0e078793          	addi	a5,a5,224 # 8006991c <xLastSecondaryCycleCount.0>
80008844:	00e7a023          	sw	a4,0(a5)
80008848:	00061797          	auipc	a5,0x61
8000884c:	0c078793          	addi	a5,a5,192 # 80069908 <xPrimaryCycles>
80008850:	0007a703          	lw	a4,0(a5)
80008854:	00061797          	auipc	a5,0x61
80008858:	0c478793          	addi	a5,a5,196 # 80069918 <xLastPrimaryCycleCount.1>
8000885c:	00e7a023          	sw	a4,0(a5)
80008860:	00c12783          	lw	a5,12(sp)
80008864:	00078513          	mv	a0,a5
80008868:	01010113          	addi	sp,sp,16
8000886c:	00008067          	ret

80008870 <vStartCountingSemaphoreTasks>:
80008870:	ff010113          	addi	sp,sp,-16
80008874:	00112623          	sw	ra,12(sp)
80008878:	0c800593          	li	a1,200
8000887c:	0c800513          	li	a0,200
80008880:	f40f80ef          	jal	ra,80000fc0 <xQueueCreateCountingSemaphore>
80008884:	00050713          	mv	a4,a0
80008888:	00061797          	auipc	a5,0x61
8000888c:	09c78793          	addi	a5,a5,156 # 80069924 <xParameters>
80008890:	00e7a023          	sw	a4,0(a5)
80008894:	00061797          	auipc	a5,0x61
80008898:	09078793          	addi	a5,a5,144 # 80069924 <xParameters>
8000889c:	0aa00713          	li	a4,170
800088a0:	00e7a223          	sw	a4,4(a5)
800088a4:	00061797          	auipc	a5,0x61
800088a8:	08078793          	addi	a5,a5,128 # 80069924 <xParameters>
800088ac:	0007a423          	sw	zero,8(a5)
800088b0:	00000593          	li	a1,0
800088b4:	0c800513          	li	a0,200
800088b8:	f08f80ef          	jal	ra,80000fc0 <xQueueCreateCountingSemaphore>
800088bc:	00050713          	mv	a4,a0
800088c0:	00061797          	auipc	a5,0x61
800088c4:	06478793          	addi	a5,a5,100 # 80069924 <xParameters>
800088c8:	00e7a623          	sw	a4,12(a5)
800088cc:	00061797          	auipc	a5,0x61
800088d0:	05878793          	addi	a5,a5,88 # 80069924 <xParameters>
800088d4:	0007a823          	sw	zero,16(a5)
800088d8:	00061797          	auipc	a5,0x61
800088dc:	04c78793          	addi	a5,a5,76 # 80069924 <xParameters>
800088e0:	0007aa23          	sw	zero,20(a5)
800088e4:	00061797          	auipc	a5,0x61
800088e8:	04078793          	addi	a5,a5,64 # 80069924 <xParameters>
800088ec:	0007a783          	lw	a5,0(a5)
800088f0:	00079a63          	bnez	a5,80008904 <vStartCountingSemaphoreTasks+0x94>
800088f4:	00061797          	auipc	a5,0x61
800088f8:	03078793          	addi	a5,a5,48 # 80069924 <xParameters>
800088fc:	00c7a783          	lw	a5,12(a5)
80008900:	08078663          	beqz	a5,8000898c <vStartCountingSemaphoreTasks+0x11c>
80008904:	00061797          	auipc	a5,0x61
80008908:	02078793          	addi	a5,a5,32 # 80069924 <xParameters>
8000890c:	0007a783          	lw	a5,0(a5)
80008910:	00048597          	auipc	a1,0x48
80008914:	93058593          	addi	a1,a1,-1744 # 80050240 <__rodata_start+0x240>
80008918:	00078513          	mv	a0,a5
8000891c:	a85f90ef          	jal	ra,800023a0 <vQueueAddToRegistry>
80008920:	00061797          	auipc	a5,0x61
80008924:	00478793          	addi	a5,a5,4 # 80069924 <xParameters>
80008928:	00c7a783          	lw	a5,12(a5)
8000892c:	00048597          	auipc	a1,0x48
80008930:	92458593          	addi	a1,a1,-1756 # 80050250 <__rodata_start+0x250>
80008934:	00078513          	mv	a0,a5
80008938:	a69f90ef          	jal	ra,800023a0 <vQueueAddToRegistry>
8000893c:	00000793          	li	a5,0
80008940:	00000713          	li	a4,0
80008944:	00061697          	auipc	a3,0x61
80008948:	fe068693          	addi	a3,a3,-32 # 80069924 <xParameters>
8000894c:	40000613          	li	a2,1024
80008950:	00048597          	auipc	a1,0x48
80008954:	91058593          	addi	a1,a1,-1776 # 80050260 <__rodata_start+0x260>
80008958:	00000517          	auipc	a0,0x0
8000895c:	24c50513          	addi	a0,a0,588 # 80008ba4 <prvCountingSemaphoreTask>
80008960:	c7df90ef          	jal	ra,800025dc <xTaskCreate>
80008964:	00000793          	li	a5,0
80008968:	00000713          	li	a4,0
8000896c:	00061697          	auipc	a3,0x61
80008970:	fc468693          	addi	a3,a3,-60 # 80069930 <xParameters+0xc>
80008974:	40000613          	li	a2,1024
80008978:	00048597          	auipc	a1,0x48
8000897c:	8f058593          	addi	a1,a1,-1808 # 80050268 <__rodata_start+0x268>
80008980:	00000517          	auipc	a0,0x0
80008984:	22450513          	addi	a0,a0,548 # 80008ba4 <prvCountingSemaphoreTask>
80008988:	c55f90ef          	jal	ra,800025dc <xTaskCreate>
8000898c:	00000013          	nop
80008990:	00c12083          	lw	ra,12(sp)
80008994:	01010113          	addi	sp,sp,16
80008998:	00008067          	ret

8000899c <prvDecrementSemaphoreCount>:
8000899c:	fd010113          	addi	sp,sp,-48
800089a0:	02112623          	sw	ra,44(sp)
800089a4:	00a12623          	sw	a0,12(sp)
800089a8:	00b12423          	sw	a1,8(sp)
800089ac:	00000693          	li	a3,0
800089b0:	00000613          	li	a2,0
800089b4:	00000593          	li	a1,0
800089b8:	00c12503          	lw	a0,12(sp)
800089bc:	e74f80ef          	jal	ra,80001030 <xQueueGenericSend>
800089c0:	00050713          	mv	a4,a0
800089c4:	00100793          	li	a5,1
800089c8:	00f71a63          	bne	a4,a5,800089dc <prvDecrementSemaphoreCount+0x40>
800089cc:	00061797          	auipc	a5,0x61
800089d0:	f5478793          	addi	a5,a5,-172 # 80069920 <xErrorDetected>
800089d4:	00100713          	li	a4,1
800089d8:	00e7a023          	sw	a4,0(a5)
800089dc:	00012e23          	sw	zero,28(sp)
800089e0:	0700006f          	j	80008a50 <prvDecrementSemaphoreCount+0xb4>
800089e4:	00c12503          	lw	a0,12(sp)
800089e8:	be4f90ef          	jal	ra,80001dcc <uxQueueMessagesWaiting>
800089ec:	00050693          	mv	a3,a0
800089f0:	0c800713          	li	a4,200
800089f4:	01c12783          	lw	a5,28(sp)
800089f8:	40f707b3          	sub	a5,a4,a5
800089fc:	00f68663          	beq	a3,a5,80008a08 <prvDecrementSemaphoreCount+0x6c>
80008a00:	30047073          	csrci	mstatus,8
80008a04:	0000006f          	j	80008a04 <prvDecrementSemaphoreCount+0x68>
80008a08:	00000593          	li	a1,0
80008a0c:	00c12503          	lw	a0,12(sp)
80008a10:	d2df80ef          	jal	ra,8000173c <xQueueSemaphoreTake>
80008a14:	00050713          	mv	a4,a0
80008a18:	00100793          	li	a5,1
80008a1c:	00f70a63          	beq	a4,a5,80008a30 <prvDecrementSemaphoreCount+0x94>
80008a20:	00061797          	auipc	a5,0x61
80008a24:	f0078793          	addi	a5,a5,-256 # 80069920 <xErrorDetected>
80008a28:	00100713          	li	a4,1
80008a2c:	00e7a023          	sw	a4,0(a5)
80008a30:	00812783          	lw	a5,8(sp)
80008a34:	0007a783          	lw	a5,0(a5)
80008a38:	00178713          	addi	a4,a5,1
80008a3c:	00812783          	lw	a5,8(sp)
80008a40:	00e7a023          	sw	a4,0(a5)
80008a44:	01c12783          	lw	a5,28(sp)
80008a48:	00178793          	addi	a5,a5,1
80008a4c:	00f12e23          	sw	a5,28(sp)
80008a50:	01c12703          	lw	a4,28(sp)
80008a54:	0c700793          	li	a5,199
80008a58:	f8e7f6e3          	bgeu	a5,a4,800089e4 <prvDecrementSemaphoreCount+0x48>
80008a5c:	00c12503          	lw	a0,12(sp)
80008a60:	b6cf90ef          	jal	ra,80001dcc <uxQueueMessagesWaiting>
80008a64:	00050793          	mv	a5,a0
80008a68:	00078663          	beqz	a5,80008a74 <prvDecrementSemaphoreCount+0xd8>
80008a6c:	30047073          	csrci	mstatus,8
80008a70:	0000006f          	j	80008a70 <prvDecrementSemaphoreCount+0xd4>
80008a74:	00000593          	li	a1,0
80008a78:	00c12503          	lw	a0,12(sp)
80008a7c:	cc1f80ef          	jal	ra,8000173c <xQueueSemaphoreTake>
80008a80:	00050713          	mv	a4,a0
80008a84:	00100793          	li	a5,1
80008a88:	00f71a63          	bne	a4,a5,80008a9c <prvDecrementSemaphoreCount+0x100>
80008a8c:	00061797          	auipc	a5,0x61
80008a90:	e9478793          	addi	a5,a5,-364 # 80069920 <xErrorDetected>
80008a94:	00100713          	li	a4,1
80008a98:	00e7a023          	sw	a4,0(a5)
80008a9c:	00000013          	nop
80008aa0:	02c12083          	lw	ra,44(sp)
80008aa4:	03010113          	addi	sp,sp,48
80008aa8:	00008067          	ret

80008aac <prvIncrementSemaphoreCount>:
80008aac:	fd010113          	addi	sp,sp,-48
80008ab0:	02112623          	sw	ra,44(sp)
80008ab4:	00a12623          	sw	a0,12(sp)
80008ab8:	00b12423          	sw	a1,8(sp)
80008abc:	00000593          	li	a1,0
80008ac0:	00c12503          	lw	a0,12(sp)
80008ac4:	c79f80ef          	jal	ra,8000173c <xQueueSemaphoreTake>
80008ac8:	00050713          	mv	a4,a0
80008acc:	00100793          	li	a5,1
80008ad0:	00f71a63          	bne	a4,a5,80008ae4 <prvIncrementSemaphoreCount+0x38>
80008ad4:	00061797          	auipc	a5,0x61
80008ad8:	e4c78793          	addi	a5,a5,-436 # 80069920 <xErrorDetected>
80008adc:	00100713          	li	a4,1
80008ae0:	00e7a023          	sw	a4,0(a5)
80008ae4:	00012e23          	sw	zero,28(sp)
80008ae8:	0700006f          	j	80008b58 <prvIncrementSemaphoreCount+0xac>
80008aec:	00c12503          	lw	a0,12(sp)
80008af0:	adcf90ef          	jal	ra,80001dcc <uxQueueMessagesWaiting>
80008af4:	00050713          	mv	a4,a0
80008af8:	01c12783          	lw	a5,28(sp)
80008afc:	00e78663          	beq	a5,a4,80008b08 <prvIncrementSemaphoreCount+0x5c>
80008b00:	30047073          	csrci	mstatus,8
80008b04:	0000006f          	j	80008b04 <prvIncrementSemaphoreCount+0x58>
80008b08:	00000693          	li	a3,0
80008b0c:	00000613          	li	a2,0
80008b10:	00000593          	li	a1,0
80008b14:	00c12503          	lw	a0,12(sp)
80008b18:	d18f80ef          	jal	ra,80001030 <xQueueGenericSend>
80008b1c:	00050713          	mv	a4,a0
80008b20:	00100793          	li	a5,1
80008b24:	00f70a63          	beq	a4,a5,80008b38 <prvIncrementSemaphoreCount+0x8c>
80008b28:	00061797          	auipc	a5,0x61
80008b2c:	df878793          	addi	a5,a5,-520 # 80069920 <xErrorDetected>
80008b30:	00100713          	li	a4,1
80008b34:	00e7a023          	sw	a4,0(a5)
80008b38:	00812783          	lw	a5,8(sp)
80008b3c:	0007a783          	lw	a5,0(a5)
80008b40:	00178713          	addi	a4,a5,1
80008b44:	00812783          	lw	a5,8(sp)
80008b48:	00e7a023          	sw	a4,0(a5)
80008b4c:	01c12783          	lw	a5,28(sp)
80008b50:	00178793          	addi	a5,a5,1
80008b54:	00f12e23          	sw	a5,28(sp)
80008b58:	01c12703          	lw	a4,28(sp)
80008b5c:	0c700793          	li	a5,199
80008b60:	f8e7f6e3          	bgeu	a5,a4,80008aec <prvIncrementSemaphoreCount+0x40>
80008b64:	00000693          	li	a3,0
80008b68:	00000613          	li	a2,0
80008b6c:	00000593          	li	a1,0
80008b70:	00c12503          	lw	a0,12(sp)
80008b74:	cbcf80ef          	jal	ra,80001030 <xQueueGenericSend>
80008b78:	00050713          	mv	a4,a0
80008b7c:	00100793          	li	a5,1
80008b80:	00f71a63          	bne	a4,a5,80008b94 <prvIncrementSemaphoreCount+0xe8>
80008b84:	00061797          	auipc	a5,0x61
80008b88:	d9c78793          	addi	a5,a5,-612 # 80069920 <xErrorDetected>
80008b8c:	00100713          	li	a4,1
80008b90:	00e7a023          	sw	a4,0(a5)
80008b94:	00000013          	nop
80008b98:	02c12083          	lw	ra,44(sp)
80008b9c:	03010113          	addi	sp,sp,48
80008ba0:	00008067          	ret

80008ba4 <prvCountingSemaphoreTask>:
80008ba4:	fd010113          	addi	sp,sp,-48
80008ba8:	02112623          	sw	ra,44(sp)
80008bac:	00a12623          	sw	a0,12(sp)
80008bb0:	00c12783          	lw	a5,12(sp)
80008bb4:	00f12e23          	sw	a5,28(sp)
80008bb8:	01c12783          	lw	a5,28(sp)
80008bbc:	0047a703          	lw	a4,4(a5)
80008bc0:	0aa00793          	li	a5,170
80008bc4:	02f71063          	bne	a4,a5,80008be4 <prvCountingSemaphoreTask+0x40>
80008bc8:	01c12783          	lw	a5,28(sp)
80008bcc:	0007a703          	lw	a4,0(a5)
80008bd0:	01c12783          	lw	a5,28(sp)
80008bd4:	00878793          	addi	a5,a5,8
80008bd8:	00078593          	mv	a1,a5
80008bdc:	00070513          	mv	a0,a4
80008be0:	dbdff0ef          	jal	ra,8000899c <prvDecrementSemaphoreCount>
80008be4:	01c12783          	lw	a5,28(sp)
80008be8:	0007a783          	lw	a5,0(a5)
80008bec:	00000593          	li	a1,0
80008bf0:	00078513          	mv	a0,a5
80008bf4:	b49f80ef          	jal	ra,8000173c <xQueueSemaphoreTake>
80008bf8:	00050713          	mv	a4,a0
80008bfc:	00100793          	li	a5,1
80008c00:	00f71a63          	bne	a4,a5,80008c14 <prvCountingSemaphoreTask+0x70>
80008c04:	00061797          	auipc	a5,0x61
80008c08:	d1c78793          	addi	a5,a5,-740 # 80069920 <xErrorDetected>
80008c0c:	00100713          	li	a4,1
80008c10:	00e7a023          	sw	a4,0(a5)
80008c14:	01c12783          	lw	a5,28(sp)
80008c18:	0007a703          	lw	a4,0(a5)
80008c1c:	01c12783          	lw	a5,28(sp)
80008c20:	00878793          	addi	a5,a5,8
80008c24:	00078593          	mv	a1,a5
80008c28:	00070513          	mv	a0,a4
80008c2c:	e81ff0ef          	jal	ra,80008aac <prvIncrementSemaphoreCount>
80008c30:	01c12783          	lw	a5,28(sp)
80008c34:	0007a703          	lw	a4,0(a5)
80008c38:	01c12783          	lw	a5,28(sp)
80008c3c:	00878793          	addi	a5,a5,8
80008c40:	00078593          	mv	a1,a5
80008c44:	00070513          	mv	a0,a4
80008c48:	d55ff0ef          	jal	ra,8000899c <prvDecrementSemaphoreCount>
80008c4c:	fc9ff06f          	j	80008c14 <prvCountingSemaphoreTask+0x70>

80008c50 <xAreCountingSemaphoreTasksStillRunning>:
80008c50:	ff010113          	addi	sp,sp,-16
80008c54:	00100793          	li	a5,1
80008c58:	00f12623          	sw	a5,12(sp)
80008c5c:	00061797          	auipc	a5,0x61
80008c60:	cc478793          	addi	a5,a5,-828 # 80069920 <xErrorDetected>
80008c64:	0007a783          	lw	a5,0(a5)
80008c68:	00078463          	beqz	a5,80008c70 <xAreCountingSemaphoreTasksStillRunning+0x20>
80008c6c:	00012623          	sw	zero,12(sp)
80008c70:	00061797          	auipc	a5,0x61
80008c74:	cb478793          	addi	a5,a5,-844 # 80069924 <xParameters>
80008c78:	0087a703          	lw	a4,8(a5)
80008c7c:	00061797          	auipc	a5,0x61
80008c80:	cc078793          	addi	a5,a5,-832 # 8006993c <uxLastCount0.1>
80008c84:	0007a783          	lw	a5,0(a5)
80008c88:	00f71663          	bne	a4,a5,80008c94 <xAreCountingSemaphoreTasksStillRunning+0x44>
80008c8c:	00012623          	sw	zero,12(sp)
80008c90:	01c0006f          	j	80008cac <xAreCountingSemaphoreTasksStillRunning+0x5c>
80008c94:	00061797          	auipc	a5,0x61
80008c98:	c9078793          	addi	a5,a5,-880 # 80069924 <xParameters>
80008c9c:	0087a703          	lw	a4,8(a5)
80008ca0:	00061797          	auipc	a5,0x61
80008ca4:	c9c78793          	addi	a5,a5,-868 # 8006993c <uxLastCount0.1>
80008ca8:	00e7a023          	sw	a4,0(a5)
80008cac:	00061797          	auipc	a5,0x61
80008cb0:	c7878793          	addi	a5,a5,-904 # 80069924 <xParameters>
80008cb4:	0147a703          	lw	a4,20(a5)
80008cb8:	00061797          	auipc	a5,0x61
80008cbc:	c8878793          	addi	a5,a5,-888 # 80069940 <uxLastCount1.0>
80008cc0:	0007a783          	lw	a5,0(a5)
80008cc4:	00f71663          	bne	a4,a5,80008cd0 <xAreCountingSemaphoreTasksStillRunning+0x80>
80008cc8:	00012623          	sw	zero,12(sp)
80008ccc:	01c0006f          	j	80008ce8 <xAreCountingSemaphoreTasksStillRunning+0x98>
80008cd0:	00061797          	auipc	a5,0x61
80008cd4:	c5478793          	addi	a5,a5,-940 # 80069924 <xParameters>
80008cd8:	0147a703          	lw	a4,20(a5)
80008cdc:	00061797          	auipc	a5,0x61
80008ce0:	c6478793          	addi	a5,a5,-924 # 80069940 <uxLastCount1.0>
80008ce4:	00e7a023          	sw	a4,0(a5)
80008ce8:	00c12783          	lw	a5,12(sp)
80008cec:	00078513          	mv	a0,a5
80008cf0:	01010113          	addi	sp,sp,16
80008cf4:	00008067          	ret

80008cf8 <vStartRecursiveMutexTasks>:
80008cf8:	ff010113          	addi	sp,sp,-16
80008cfc:	00112623          	sw	ra,12(sp)
80008d00:	00400513          	li	a0,4
80008d04:	930f80ef          	jal	ra,80000e34 <xQueueCreateMutex>
80008d08:	00050713          	mv	a4,a0
80008d0c:	00061797          	auipc	a5,0x61
80008d10:	c3878793          	addi	a5,a5,-968 # 80069944 <xMutex>
80008d14:	00e7a023          	sw	a4,0(a5)
80008d18:	00061797          	auipc	a5,0x61
80008d1c:	c2c78793          	addi	a5,a5,-980 # 80069944 <xMutex>
80008d20:	0007a783          	lw	a5,0(a5)
80008d24:	08078a63          	beqz	a5,80008db8 <vStartRecursiveMutexTasks+0xc0>
80008d28:	00061797          	auipc	a5,0x61
80008d2c:	c1c78793          	addi	a5,a5,-996 # 80069944 <xMutex>
80008d30:	0007a783          	lw	a5,0(a5)
80008d34:	00047597          	auipc	a1,0x47
80008d38:	53c58593          	addi	a1,a1,1340 # 80050270 <__rodata_start+0x270>
80008d3c:	00078513          	mv	a0,a5
80008d40:	e60f90ef          	jal	ra,800023a0 <vQueueAddToRegistry>
80008d44:	00061797          	auipc	a5,0x61
80008d48:	c1c78793          	addi	a5,a5,-996 # 80069960 <xControllingTaskHandle>
80008d4c:	00200713          	li	a4,2
80008d50:	00000693          	li	a3,0
80008d54:	40000613          	li	a2,1024
80008d58:	00047597          	auipc	a1,0x47
80008d5c:	52858593          	addi	a1,a1,1320 # 80050280 <__rodata_start+0x280>
80008d60:	00000517          	auipc	a0,0x0
80008d64:	06850513          	addi	a0,a0,104 # 80008dc8 <prvRecursiveMutexControllingTask>
80008d68:	875f90ef          	jal	ra,800025dc <xTaskCreate>
80008d6c:	00061797          	auipc	a5,0x61
80008d70:	bf878793          	addi	a5,a5,-1032 # 80069964 <xBlockingTaskHandle>
80008d74:	00100713          	li	a4,1
80008d78:	00000693          	li	a3,0
80008d7c:	40000613          	li	a2,1024
80008d80:	00047597          	auipc	a1,0x47
80008d84:	50858593          	addi	a1,a1,1288 # 80050288 <__rodata_start+0x288>
80008d88:	00000517          	auipc	a0,0x0
80008d8c:	1a450513          	addi	a0,a0,420 # 80008f2c <prvRecursiveMutexBlockingTask>
80008d90:	84df90ef          	jal	ra,800025dc <xTaskCreate>
80008d94:	00000793          	li	a5,0
80008d98:	00000713          	li	a4,0
80008d9c:	00000693          	li	a3,0
80008da0:	40000613          	li	a2,1024
80008da4:	00047597          	auipc	a1,0x47
80008da8:	4ec58593          	addi	a1,a1,1260 # 80050290 <__rodata_start+0x290>
80008dac:	00000517          	auipc	a0,0x0
80008db0:	29050513          	addi	a0,a0,656 # 8000903c <prvRecursiveMutexPollingTask>
80008db4:	829f90ef          	jal	ra,800025dc <xTaskCreate>
80008db8:	00000013          	nop
80008dbc:	00c12083          	lw	ra,12(sp)
80008dc0:	01010113          	addi	sp,sp,16
80008dc4:	00008067          	ret

80008dc8 <prvRecursiveMutexControllingTask>:
80008dc8:	fd010113          	addi	sp,sp,-48
80008dcc:	02112623          	sw	ra,44(sp)
80008dd0:	00a12623          	sw	a0,12(sp)
80008dd4:	00061797          	auipc	a5,0x61
80008dd8:	b7078793          	addi	a5,a5,-1168 # 80069944 <xMutex>
80008ddc:	0007a783          	lw	a5,0(a5)
80008de0:	00078513          	mv	a0,a5
80008de4:	8a0f80ef          	jal	ra,80000e84 <xQueueGiveMutexRecursive>
80008de8:	00050713          	mv	a4,a0
80008dec:	00100793          	li	a5,1
80008df0:	00f71a63          	bne	a4,a5,80008e04 <prvRecursiveMutexControllingTask+0x3c>
80008df4:	00061797          	auipc	a5,0x61
80008df8:	b5478793          	addi	a5,a5,-1196 # 80069948 <xErrorOccurred>
80008dfc:	00100713          	li	a4,1
80008e00:	00e7a023          	sw	a4,0(a5)
80008e04:	00012e23          	sw	zero,28(sp)
80008e08:	04c0006f          	j	80008e54 <prvRecursiveMutexControllingTask+0x8c>
80008e0c:	00061797          	auipc	a5,0x61
80008e10:	b3878793          	addi	a5,a5,-1224 # 80069944 <xMutex>
80008e14:	0007a783          	lw	a5,0(a5)
80008e18:	00000593          	li	a1,0
80008e1c:	00078513          	mv	a0,a5
80008e20:	8fcf80ef          	jal	ra,80000f1c <xQueueTakeMutexRecursive>
80008e24:	00050713          	mv	a4,a0
80008e28:	00100793          	li	a5,1
80008e2c:	00f70a63          	beq	a4,a5,80008e40 <prvRecursiveMutexControllingTask+0x78>
80008e30:	00061797          	auipc	a5,0x61
80008e34:	b1878793          	addi	a5,a5,-1256 # 80069948 <xErrorOccurred>
80008e38:	00100713          	li	a4,1
80008e3c:	00e7a023          	sw	a4,0(a5)
80008e40:	00100513          	li	a0,1
80008e44:	e0df90ef          	jal	ra,80002c50 <vTaskDelay>
80008e48:	01c12783          	lw	a5,28(sp)
80008e4c:	00178793          	addi	a5,a5,1
80008e50:	00f12e23          	sw	a5,28(sp)
80008e54:	01c12703          	lw	a4,28(sp)
80008e58:	00900793          	li	a5,9
80008e5c:	fae7f8e3          	bgeu	a5,a4,80008e0c <prvRecursiveMutexControllingTask+0x44>
80008e60:	00012e23          	sw	zero,28(sp)
80008e64:	0480006f          	j	80008eac <prvRecursiveMutexControllingTask+0xe4>
80008e68:	00100513          	li	a0,1
80008e6c:	de5f90ef          	jal	ra,80002c50 <vTaskDelay>
80008e70:	00061797          	auipc	a5,0x61
80008e74:	ad478793          	addi	a5,a5,-1324 # 80069944 <xMutex>
80008e78:	0007a783          	lw	a5,0(a5)
80008e7c:	00078513          	mv	a0,a5
80008e80:	804f80ef          	jal	ra,80000e84 <xQueueGiveMutexRecursive>
80008e84:	00050713          	mv	a4,a0
80008e88:	00100793          	li	a5,1
80008e8c:	00f70a63          	beq	a4,a5,80008ea0 <prvRecursiveMutexControllingTask+0xd8>
80008e90:	00061797          	auipc	a5,0x61
80008e94:	ab878793          	addi	a5,a5,-1352 # 80069948 <xErrorOccurred>
80008e98:	00100713          	li	a4,1
80008e9c:	00e7a023          	sw	a4,0(a5)
80008ea0:	01c12783          	lw	a5,28(sp)
80008ea4:	00178793          	addi	a5,a5,1
80008ea8:	00f12e23          	sw	a5,28(sp)
80008eac:	01c12703          	lw	a4,28(sp)
80008eb0:	00900793          	li	a5,9
80008eb4:	fae7fae3          	bgeu	a5,a4,80008e68 <prvRecursiveMutexControllingTask+0xa0>
80008eb8:	00061797          	auipc	a5,0x61
80008ebc:	a8c78793          	addi	a5,a5,-1396 # 80069944 <xMutex>
80008ec0:	0007a783          	lw	a5,0(a5)
80008ec4:	00078513          	mv	a0,a5
80008ec8:	fbdf70ef          	jal	ra,80000e84 <xQueueGiveMutexRecursive>
80008ecc:	00050713          	mv	a4,a0
80008ed0:	00100793          	li	a5,1
80008ed4:	00f71a63          	bne	a4,a5,80008ee8 <prvRecursiveMutexControllingTask+0x120>
80008ed8:	00061797          	auipc	a5,0x61
80008edc:	a7078793          	addi	a5,a5,-1424 # 80069948 <xErrorOccurred>
80008ee0:	00100713          	li	a4,1
80008ee4:	00e7a023          	sw	a4,0(a5)
80008ee8:	00061797          	auipc	a5,0x61
80008eec:	a6c78793          	addi	a5,a5,-1428 # 80069954 <uxControllingCycles>
80008ef0:	0007a783          	lw	a5,0(a5)
80008ef4:	00178713          	addi	a4,a5,1
80008ef8:	00061797          	auipc	a5,0x61
80008efc:	a5c78793          	addi	a5,a5,-1444 # 80069954 <uxControllingCycles>
80008f00:	00e7a023          	sw	a4,0(a5)
80008f04:	00061797          	auipc	a5,0x61
80008f08:	a4878793          	addi	a5,a5,-1464 # 8006994c <xControllingIsSuspended>
80008f0c:	00100713          	li	a4,1
80008f10:	00e7a023          	sw	a4,0(a5)
80008f14:	00000513          	li	a0,0
80008f18:	950fa0ef          	jal	ra,80003068 <vTaskSuspend>
80008f1c:	00061797          	auipc	a5,0x61
80008f20:	a3078793          	addi	a5,a5,-1488 # 8006994c <xControllingIsSuspended>
80008f24:	0007a023          	sw	zero,0(a5)
80008f28:	eadff06f          	j	80008dd4 <prvRecursiveMutexControllingTask+0xc>

80008f2c <prvRecursiveMutexBlockingTask>:
80008f2c:	fe010113          	addi	sp,sp,-32
80008f30:	00112e23          	sw	ra,28(sp)
80008f34:	00a12623          	sw	a0,12(sp)
80008f38:	00061797          	auipc	a5,0x61
80008f3c:	a0c78793          	addi	a5,a5,-1524 # 80069944 <xMutex>
80008f40:	0007a783          	lw	a5,0(a5)
80008f44:	ffe00593          	li	a1,-2
80008f48:	00078513          	mv	a0,a5
80008f4c:	fd1f70ef          	jal	ra,80000f1c <xQueueTakeMutexRecursive>
80008f50:	00050713          	mv	a4,a0
80008f54:	00100793          	li	a5,1
80008f58:	08f71263          	bne	a4,a5,80008fdc <prvRecursiveMutexBlockingTask+0xb0>
80008f5c:	00061797          	auipc	a5,0x61
80008f60:	9f078793          	addi	a5,a5,-1552 # 8006994c <xControllingIsSuspended>
80008f64:	0007a703          	lw	a4,0(a5)
80008f68:	00100793          	li	a5,1
80008f6c:	00f70c63          	beq	a4,a5,80008f84 <prvRecursiveMutexBlockingTask+0x58>
80008f70:	00061797          	auipc	a5,0x61
80008f74:	9d878793          	addi	a5,a5,-1576 # 80069948 <xErrorOccurred>
80008f78:	00100713          	li	a4,1
80008f7c:	00e7a023          	sw	a4,0(a5)
80008f80:	06c0006f          	j	80008fec <prvRecursiveMutexBlockingTask+0xc0>
80008f84:	00061797          	auipc	a5,0x61
80008f88:	9c078793          	addi	a5,a5,-1600 # 80069944 <xMutex>
80008f8c:	0007a783          	lw	a5,0(a5)
80008f90:	00078513          	mv	a0,a5
80008f94:	ef1f70ef          	jal	ra,80000e84 <xQueueGiveMutexRecursive>
80008f98:	00050713          	mv	a4,a0
80008f9c:	00100793          	li	a5,1
80008fa0:	00f70a63          	beq	a4,a5,80008fb4 <prvRecursiveMutexBlockingTask+0x88>
80008fa4:	00061797          	auipc	a5,0x61
80008fa8:	9a478793          	addi	a5,a5,-1628 # 80069948 <xErrorOccurred>
80008fac:	00100713          	li	a4,1
80008fb0:	00e7a023          	sw	a4,0(a5)
80008fb4:	00061797          	auipc	a5,0x61
80008fb8:	99c78793          	addi	a5,a5,-1636 # 80069950 <xBlockingIsSuspended>
80008fbc:	00100713          	li	a4,1
80008fc0:	00e7a023          	sw	a4,0(a5)
80008fc4:	00000513          	li	a0,0
80008fc8:	8a0fa0ef          	jal	ra,80003068 <vTaskSuspend>
80008fcc:	00061797          	auipc	a5,0x61
80008fd0:	98478793          	addi	a5,a5,-1660 # 80069950 <xBlockingIsSuspended>
80008fd4:	0007a023          	sw	zero,0(a5)
80008fd8:	0140006f          	j	80008fec <prvRecursiveMutexBlockingTask+0xc0>
80008fdc:	00061797          	auipc	a5,0x61
80008fe0:	96c78793          	addi	a5,a5,-1684 # 80069948 <xErrorOccurred>
80008fe4:	00100713          	li	a4,1
80008fe8:	00e7a023          	sw	a4,0(a5)
80008fec:	00061797          	auipc	a5,0x61
80008ff0:	96c78793          	addi	a5,a5,-1684 # 80069958 <uxBlockingCycles>
80008ff4:	0007a783          	lw	a5,0(a5)
80008ff8:	00178713          	addi	a4,a5,1
80008ffc:	00061797          	auipc	a5,0x61
80009000:	95878793          	addi	a5,a5,-1704 # 80069954 <uxControllingCycles>
80009004:	0007a783          	lw	a5,0(a5)
80009008:	00f70a63          	beq	a4,a5,8000901c <prvRecursiveMutexBlockingTask+0xf0>
8000900c:	00061797          	auipc	a5,0x61
80009010:	93c78793          	addi	a5,a5,-1732 # 80069948 <xErrorOccurred>
80009014:	00100713          	li	a4,1
80009018:	00e7a023          	sw	a4,0(a5)
8000901c:	00061797          	auipc	a5,0x61
80009020:	93c78793          	addi	a5,a5,-1732 # 80069958 <uxBlockingCycles>
80009024:	0007a783          	lw	a5,0(a5)
80009028:	00178713          	addi	a4,a5,1
8000902c:	00061797          	auipc	a5,0x61
80009030:	92c78793          	addi	a5,a5,-1748 # 80069958 <uxBlockingCycles>
80009034:	00e7a023          	sw	a4,0(a5)
80009038:	f01ff06f          	j	80008f38 <prvRecursiveMutexBlockingTask+0xc>

8000903c <prvRecursiveMutexPollingTask>:
8000903c:	fe010113          	addi	sp,sp,-32
80009040:	00112e23          	sw	ra,28(sp)
80009044:	00a12623          	sw	a0,12(sp)
80009048:	00061797          	auipc	a5,0x61
8000904c:	8fc78793          	addi	a5,a5,-1796 # 80069944 <xMutex>
80009050:	0007a783          	lw	a5,0(a5)
80009054:	00000593          	li	a1,0
80009058:	00078513          	mv	a0,a5
8000905c:	ec1f70ef          	jal	ra,80000f1c <xQueueTakeMutexRecursive>
80009060:	00050713          	mv	a4,a0
80009064:	00100793          	li	a5,1
80009068:	fef710e3          	bne	a4,a5,80009048 <prvRecursiveMutexPollingTask+0xc>
8000906c:	00061797          	auipc	a5,0x61
80009070:	8f478793          	addi	a5,a5,-1804 # 80069960 <xControllingTaskHandle>
80009074:	0007a783          	lw	a5,0(a5)
80009078:	00078513          	mv	a0,a5
8000907c:	c39f90ef          	jal	ra,80002cb4 <eTaskGetState>
80009080:	00050713          	mv	a4,a0
80009084:	00300793          	li	a5,3
80009088:	00f70663          	beq	a4,a5,80009094 <prvRecursiveMutexPollingTask+0x58>
8000908c:	30047073          	csrci	mstatus,8
80009090:	0000006f          	j	80009090 <prvRecursiveMutexPollingTask+0x54>
80009094:	00061797          	auipc	a5,0x61
80009098:	8d078793          	addi	a5,a5,-1840 # 80069964 <xBlockingTaskHandle>
8000909c:	0007a783          	lw	a5,0(a5)
800090a0:	00078513          	mv	a0,a5
800090a4:	c11f90ef          	jal	ra,80002cb4 <eTaskGetState>
800090a8:	00050713          	mv	a4,a0
800090ac:	00300793          	li	a5,3
800090b0:	00f70663          	beq	a4,a5,800090bc <prvRecursiveMutexPollingTask+0x80>
800090b4:	30047073          	csrci	mstatus,8
800090b8:	0000006f          	j	800090b8 <prvRecursiveMutexPollingTask+0x7c>
800090bc:	00061797          	auipc	a5,0x61
800090c0:	89478793          	addi	a5,a5,-1900 # 80069950 <xBlockingIsSuspended>
800090c4:	0007a703          	lw	a4,0(a5)
800090c8:	00100793          	li	a5,1
800090cc:	00f71c63          	bne	a4,a5,800090e4 <prvRecursiveMutexPollingTask+0xa8>
800090d0:	00061797          	auipc	a5,0x61
800090d4:	87c78793          	addi	a5,a5,-1924 # 8006994c <xControllingIsSuspended>
800090d8:	0007a703          	lw	a4,0(a5)
800090dc:	00100793          	li	a5,1
800090e0:	00f70c63          	beq	a4,a5,800090f8 <prvRecursiveMutexPollingTask+0xbc>
800090e4:	00061797          	auipc	a5,0x61
800090e8:	86478793          	addi	a5,a5,-1948 # 80069948 <xErrorOccurred>
800090ec:	00100713          	li	a4,1
800090f0:	00e7a023          	sw	a4,0(a5)
800090f4:	1340006f          	j	80009228 <prvRecursiveMutexPollingTask+0x1ec>
800090f8:	00061797          	auipc	a5,0x61
800090fc:	86478793          	addi	a5,a5,-1948 # 8006995c <uxPollingCycles>
80009100:	0007a783          	lw	a5,0(a5)
80009104:	00178713          	addi	a4,a5,1
80009108:	00061797          	auipc	a5,0x61
8000910c:	85478793          	addi	a5,a5,-1964 # 8006995c <uxPollingCycles>
80009110:	00e7a023          	sw	a4,0(a5)
80009114:	00061797          	auipc	a5,0x61
80009118:	85078793          	addi	a5,a5,-1968 # 80069964 <xBlockingTaskHandle>
8000911c:	0007a783          	lw	a5,0(a5)
80009120:	00078513          	mv	a0,a5
80009124:	908fa0ef          	jal	ra,8000322c <vTaskResume>
80009128:	00061797          	auipc	a5,0x61
8000912c:	83878793          	addi	a5,a5,-1992 # 80069960 <xControllingTaskHandle>
80009130:	0007a783          	lw	a5,0(a5)
80009134:	00078513          	mv	a0,a5
80009138:	8f4fa0ef          	jal	ra,8000322c <vTaskResume>
8000913c:	00061797          	auipc	a5,0x61
80009140:	81478793          	addi	a5,a5,-2028 # 80069950 <xBlockingIsSuspended>
80009144:	0007a703          	lw	a4,0(a5)
80009148:	00100793          	li	a5,1
8000914c:	00f70c63          	beq	a4,a5,80009164 <prvRecursiveMutexPollingTask+0x128>
80009150:	00060797          	auipc	a5,0x60
80009154:	7fc78793          	addi	a5,a5,2044 # 8006994c <xControllingIsSuspended>
80009158:	0007a703          	lw	a4,0(a5)
8000915c:	00100793          	li	a5,1
80009160:	00f71a63          	bne	a4,a5,80009174 <prvRecursiveMutexPollingTask+0x138>
80009164:	00060797          	auipc	a5,0x60
80009168:	7e478793          	addi	a5,a5,2020 # 80069948 <xErrorOccurred>
8000916c:	00100713          	li	a4,1
80009170:	00e7a023          	sw	a4,0(a5)
80009174:	00000513          	li	a0,0
80009178:	c39f90ef          	jal	ra,80002db0 <uxTaskPriorityGet>
8000917c:	00050713          	mv	a4,a0
80009180:	00200793          	li	a5,2
80009184:	00f70663          	beq	a4,a5,80009190 <prvRecursiveMutexPollingTask+0x154>
80009188:	30047073          	csrci	mstatus,8
8000918c:	0000006f          	j	8000918c <prvRecursiveMutexPollingTask+0x150>
80009190:	00060797          	auipc	a5,0x60
80009194:	7d078793          	addi	a5,a5,2000 # 80069960 <xControllingTaskHandle>
80009198:	0007a783          	lw	a5,0(a5)
8000919c:	00078513          	mv	a0,a5
800091a0:	b15f90ef          	jal	ra,80002cb4 <eTaskGetState>
800091a4:	00050713          	mv	a4,a0
800091a8:	00200793          	li	a5,2
800091ac:	00f70663          	beq	a4,a5,800091b8 <prvRecursiveMutexPollingTask+0x17c>
800091b0:	30047073          	csrci	mstatus,8
800091b4:	0000006f          	j	800091b4 <prvRecursiveMutexPollingTask+0x178>
800091b8:	00060797          	auipc	a5,0x60
800091bc:	7ac78793          	addi	a5,a5,1964 # 80069964 <xBlockingTaskHandle>
800091c0:	0007a783          	lw	a5,0(a5)
800091c4:	00078513          	mv	a0,a5
800091c8:	aedf90ef          	jal	ra,80002cb4 <eTaskGetState>
800091cc:	00050713          	mv	a4,a0
800091d0:	00200793          	li	a5,2
800091d4:	00f70663          	beq	a4,a5,800091e0 <prvRecursiveMutexPollingTask+0x1a4>
800091d8:	30047073          	csrci	mstatus,8
800091dc:	0000006f          	j	800091dc <prvRecursiveMutexPollingTask+0x1a0>
800091e0:	00060797          	auipc	a5,0x60
800091e4:	76478793          	addi	a5,a5,1892 # 80069944 <xMutex>
800091e8:	0007a783          	lw	a5,0(a5)
800091ec:	00078513          	mv	a0,a5
800091f0:	c95f70ef          	jal	ra,80000e84 <xQueueGiveMutexRecursive>
800091f4:	00050713          	mv	a4,a0
800091f8:	00100793          	li	a5,1
800091fc:	00f70a63          	beq	a4,a5,80009210 <prvRecursiveMutexPollingTask+0x1d4>
80009200:	00060797          	auipc	a5,0x60
80009204:	74878793          	addi	a5,a5,1864 # 80069948 <xErrorOccurred>
80009208:	00100713          	li	a4,1
8000920c:	00e7a023          	sw	a4,0(a5)
80009210:	00000513          	li	a0,0
80009214:	b9df90ef          	jal	ra,80002db0 <uxTaskPriorityGet>
80009218:	00050793          	mv	a5,a0
8000921c:	e20786e3          	beqz	a5,80009048 <prvRecursiveMutexPollingTask+0xc>
80009220:	30047073          	csrci	mstatus,8
80009224:	0000006f          	j	80009224 <prvRecursiveMutexPollingTask+0x1e8>
80009228:	e21ff06f          	j	80009048 <prvRecursiveMutexPollingTask+0xc>

8000922c <xAreRecursiveMutexTasksStillRunning>:
8000922c:	ff010113          	addi	sp,sp,-16
80009230:	00060797          	auipc	a5,0x60
80009234:	73878793          	addi	a5,a5,1848 # 80069968 <uxLastControllingCycles.2>
80009238:	0007a703          	lw	a4,0(a5)
8000923c:	00060797          	auipc	a5,0x60
80009240:	71878793          	addi	a5,a5,1816 # 80069954 <uxControllingCycles>
80009244:	0007a783          	lw	a5,0(a5)
80009248:	00f71c63          	bne	a4,a5,80009260 <xAreRecursiveMutexTasksStillRunning+0x34>
8000924c:	00060797          	auipc	a5,0x60
80009250:	6fc78793          	addi	a5,a5,1788 # 80069948 <xErrorOccurred>
80009254:	00100713          	li	a4,1
80009258:	00e7a023          	sw	a4,0(a5)
8000925c:	01c0006f          	j	80009278 <xAreRecursiveMutexTasksStillRunning+0x4c>
80009260:	00060797          	auipc	a5,0x60
80009264:	6f478793          	addi	a5,a5,1780 # 80069954 <uxControllingCycles>
80009268:	0007a703          	lw	a4,0(a5)
8000926c:	00060797          	auipc	a5,0x60
80009270:	6fc78793          	addi	a5,a5,1788 # 80069968 <uxLastControllingCycles.2>
80009274:	00e7a023          	sw	a4,0(a5)
80009278:	00060797          	auipc	a5,0x60
8000927c:	6f478793          	addi	a5,a5,1780 # 8006996c <uxLastBlockingCycles.1>
80009280:	0007a703          	lw	a4,0(a5)
80009284:	00060797          	auipc	a5,0x60
80009288:	6d478793          	addi	a5,a5,1748 # 80069958 <uxBlockingCycles>
8000928c:	0007a783          	lw	a5,0(a5)
80009290:	00f71c63          	bne	a4,a5,800092a8 <xAreRecursiveMutexTasksStillRunning+0x7c>
80009294:	00060797          	auipc	a5,0x60
80009298:	6b478793          	addi	a5,a5,1716 # 80069948 <xErrorOccurred>
8000929c:	00100713          	li	a4,1
800092a0:	00e7a023          	sw	a4,0(a5)
800092a4:	01c0006f          	j	800092c0 <xAreRecursiveMutexTasksStillRunning+0x94>
800092a8:	00060797          	auipc	a5,0x60
800092ac:	6b078793          	addi	a5,a5,1712 # 80069958 <uxBlockingCycles>
800092b0:	0007a703          	lw	a4,0(a5)
800092b4:	00060797          	auipc	a5,0x60
800092b8:	6b878793          	addi	a5,a5,1720 # 8006996c <uxLastBlockingCycles.1>
800092bc:	00e7a023          	sw	a4,0(a5)
800092c0:	00060797          	auipc	a5,0x60
800092c4:	6b078793          	addi	a5,a5,1712 # 80069970 <uxLastPollingCycles.0>
800092c8:	0007a703          	lw	a4,0(a5)
800092cc:	00060797          	auipc	a5,0x60
800092d0:	69078793          	addi	a5,a5,1680 # 8006995c <uxPollingCycles>
800092d4:	0007a783          	lw	a5,0(a5)
800092d8:	00f71c63          	bne	a4,a5,800092f0 <xAreRecursiveMutexTasksStillRunning+0xc4>
800092dc:	00060797          	auipc	a5,0x60
800092e0:	66c78793          	addi	a5,a5,1644 # 80069948 <xErrorOccurred>
800092e4:	00100713          	li	a4,1
800092e8:	00e7a023          	sw	a4,0(a5)
800092ec:	01c0006f          	j	80009308 <xAreRecursiveMutexTasksStillRunning+0xdc>
800092f0:	00060797          	auipc	a5,0x60
800092f4:	66c78793          	addi	a5,a5,1644 # 8006995c <uxPollingCycles>
800092f8:	0007a703          	lw	a4,0(a5)
800092fc:	00060797          	auipc	a5,0x60
80009300:	67478793          	addi	a5,a5,1652 # 80069970 <uxLastPollingCycles.0>
80009304:	00e7a023          	sw	a4,0(a5)
80009308:	00060797          	auipc	a5,0x60
8000930c:	64078793          	addi	a5,a5,1600 # 80069948 <xErrorOccurred>
80009310:	0007a703          	lw	a4,0(a5)
80009314:	00100793          	li	a5,1
80009318:	00f71663          	bne	a4,a5,80009324 <xAreRecursiveMutexTasksStillRunning+0xf8>
8000931c:	00012623          	sw	zero,12(sp)
80009320:	00c0006f          	j	8000932c <xAreRecursiveMutexTasksStillRunning+0x100>
80009324:	00100793          	li	a5,1
80009328:	00f12623          	sw	a5,12(sp)
8000932c:	00c12783          	lw	a5,12(sp)
80009330:	00078513          	mv	a0,a5
80009334:	01010113          	addi	sp,sp,16
80009338:	00008067          	ret

8000933c <memcpy>:
8000933c:	00a5c7b3          	xor	a5,a1,a0
80009340:	0037f793          	andi	a5,a5,3
80009344:	00c508b3          	add	a7,a0,a2
80009348:	06079263          	bnez	a5,800093ac <memcpy+0x70>
8000934c:	00300793          	li	a5,3
80009350:	04c7fe63          	bgeu	a5,a2,800093ac <memcpy+0x70>
80009354:	00357793          	andi	a5,a0,3
80009358:	00050713          	mv	a4,a0
8000935c:	06079863          	bnez	a5,800093cc <memcpy+0x90>
80009360:	ffc8f613          	andi	a2,a7,-4
80009364:	fe060793          	addi	a5,a2,-32
80009368:	08f76c63          	bltu	a4,a5,80009400 <memcpy+0xc4>
8000936c:	02c77c63          	bgeu	a4,a2,800093a4 <memcpy+0x68>
80009370:	00058693          	mv	a3,a1
80009374:	00070793          	mv	a5,a4
80009378:	0006a803          	lw	a6,0(a3)
8000937c:	00478793          	addi	a5,a5,4
80009380:	00468693          	addi	a3,a3,4
80009384:	ff07ae23          	sw	a6,-4(a5)
80009388:	fec7e8e3          	bltu	a5,a2,80009378 <memcpy+0x3c>
8000938c:	fff60793          	addi	a5,a2,-1
80009390:	40e787b3          	sub	a5,a5,a4
80009394:	ffc7f793          	andi	a5,a5,-4
80009398:	00478793          	addi	a5,a5,4
8000939c:	00f70733          	add	a4,a4,a5
800093a0:	00f585b3          	add	a1,a1,a5
800093a4:	01176863          	bltu	a4,a7,800093b4 <memcpy+0x78>
800093a8:	00008067          	ret
800093ac:	00050713          	mv	a4,a0
800093b0:	ff157ce3          	bgeu	a0,a7,800093a8 <memcpy+0x6c>
800093b4:	0005c783          	lbu	a5,0(a1)
800093b8:	00170713          	addi	a4,a4,1
800093bc:	00158593          	addi	a1,a1,1
800093c0:	fef70fa3          	sb	a5,-1(a4)
800093c4:	ff1768e3          	bltu	a4,a7,800093b4 <memcpy+0x78>
800093c8:	00008067          	ret
800093cc:	0005c683          	lbu	a3,0(a1)
800093d0:	00170713          	addi	a4,a4,1
800093d4:	00377793          	andi	a5,a4,3
800093d8:	fed70fa3          	sb	a3,-1(a4)
800093dc:	00158593          	addi	a1,a1,1
800093e0:	f80780e3          	beqz	a5,80009360 <memcpy+0x24>
800093e4:	0005c683          	lbu	a3,0(a1)
800093e8:	00170713          	addi	a4,a4,1
800093ec:	00377793          	andi	a5,a4,3
800093f0:	fed70fa3          	sb	a3,-1(a4)
800093f4:	00158593          	addi	a1,a1,1
800093f8:	fc079ae3          	bnez	a5,800093cc <memcpy+0x90>
800093fc:	f65ff06f          	j	80009360 <memcpy+0x24>
80009400:	0045a683          	lw	a3,4(a1)
80009404:	0005a283          	lw	t0,0(a1)
80009408:	0085af83          	lw	t6,8(a1)
8000940c:	00c5af03          	lw	t5,12(a1)
80009410:	0105ae83          	lw	t4,16(a1)
80009414:	0145ae03          	lw	t3,20(a1)
80009418:	0185a303          	lw	t1,24(a1)
8000941c:	01c5a803          	lw	a6,28(a1)
80009420:	00d72223          	sw	a3,4(a4)
80009424:	0205a683          	lw	a3,32(a1)
80009428:	00572023          	sw	t0,0(a4)
8000942c:	01f72423          	sw	t6,8(a4)
80009430:	01e72623          	sw	t5,12(a4)
80009434:	01d72823          	sw	t4,16(a4)
80009438:	01c72a23          	sw	t3,20(a4)
8000943c:	00672c23          	sw	t1,24(a4)
80009440:	01072e23          	sw	a6,28(a4)
80009444:	02d72023          	sw	a3,32(a4)
80009448:	02470713          	addi	a4,a4,36
8000944c:	02458593          	addi	a1,a1,36
80009450:	faf768e3          	bltu	a4,a5,80009400 <memcpy+0xc4>
80009454:	f19ff06f          	j	8000936c <memcpy+0x30>

80009458 <memset>:
80009458:	00f00313          	li	t1,15
8000945c:	00050713          	mv	a4,a0
80009460:	02c37e63          	bgeu	t1,a2,8000949c <memset+0x44>
80009464:	00f77793          	andi	a5,a4,15
80009468:	0a079063          	bnez	a5,80009508 <memset+0xb0>
8000946c:	08059263          	bnez	a1,800094f0 <memset+0x98>
80009470:	ff067693          	andi	a3,a2,-16
80009474:	00f67613          	andi	a2,a2,15
80009478:	00e686b3          	add	a3,a3,a4
8000947c:	00b72023          	sw	a1,0(a4)
80009480:	00b72223          	sw	a1,4(a4)
80009484:	00b72423          	sw	a1,8(a4)
80009488:	00b72623          	sw	a1,12(a4)
8000948c:	01070713          	addi	a4,a4,16
80009490:	fed766e3          	bltu	a4,a3,8000947c <memset+0x24>
80009494:	00061463          	bnez	a2,8000949c <memset+0x44>
80009498:	00008067          	ret
8000949c:	40c306b3          	sub	a3,t1,a2
800094a0:	00269693          	slli	a3,a3,0x2
800094a4:	00000297          	auipc	t0,0x0
800094a8:	005686b3          	add	a3,a3,t0
800094ac:	00c68067          	jr	12(a3)
800094b0:	00b70723          	sb	a1,14(a4)
800094b4:	00b706a3          	sb	a1,13(a4)
800094b8:	00b70623          	sb	a1,12(a4)
800094bc:	00b705a3          	sb	a1,11(a4)
800094c0:	00b70523          	sb	a1,10(a4)
800094c4:	00b704a3          	sb	a1,9(a4)
800094c8:	00b70423          	sb	a1,8(a4)
800094cc:	00b703a3          	sb	a1,7(a4)
800094d0:	00b70323          	sb	a1,6(a4)
800094d4:	00b702a3          	sb	a1,5(a4)
800094d8:	00b70223          	sb	a1,4(a4)
800094dc:	00b701a3          	sb	a1,3(a4)
800094e0:	00b70123          	sb	a1,2(a4)
800094e4:	00b700a3          	sb	a1,1(a4)
800094e8:	00b70023          	sb	a1,0(a4)
800094ec:	00008067          	ret
800094f0:	0ff5f593          	andi	a1,a1,255
800094f4:	00859693          	slli	a3,a1,0x8
800094f8:	00d5e5b3          	or	a1,a1,a3
800094fc:	01059693          	slli	a3,a1,0x10
80009500:	00d5e5b3          	or	a1,a1,a3
80009504:	f6dff06f          	j	80009470 <memset+0x18>
80009508:	00279693          	slli	a3,a5,0x2
8000950c:	00000297          	auipc	t0,0x0
80009510:	005686b3          	add	a3,a3,t0
80009514:	00008293          	mv	t0,ra
80009518:	fa0680e7          	jalr	-96(a3)
8000951c:	00028093          	mv	ra,t0
80009520:	ff078793          	addi	a5,a5,-16
80009524:	40f70733          	sub	a4,a4,a5
80009528:	00f60633          	add	a2,a2,a5
8000952c:	f6c378e3          	bgeu	t1,a2,8000949c <memset+0x44>
80009530:	f3dff06f          	j	8000946c <memset+0x14>

80009534 <strlen>:
80009534:	00357793          	andi	a5,a0,3
80009538:	00050713          	mv	a4,a0
8000953c:	04079c63          	bnez	a5,80009594 <strlen+0x60>
80009540:	7f7f86b7          	lui	a3,0x7f7f8
80009544:	f7f68693          	addi	a3,a3,-129 # 7f7f7f7f <SYSCALL_ADDR+0x7d7e7f7f>
80009548:	fff00593          	li	a1,-1
8000954c:	00072603          	lw	a2,0(a4)
80009550:	00470713          	addi	a4,a4,4
80009554:	00d677b3          	and	a5,a2,a3
80009558:	00d787b3          	add	a5,a5,a3
8000955c:	00c7e7b3          	or	a5,a5,a2
80009560:	00d7e7b3          	or	a5,a5,a3
80009564:	feb784e3          	beq	a5,a1,8000954c <strlen+0x18>
80009568:	ffc74683          	lbu	a3,-4(a4)
8000956c:	ffd74603          	lbu	a2,-3(a4)
80009570:	ffe74783          	lbu	a5,-2(a4)
80009574:	40a70733          	sub	a4,a4,a0
80009578:	04068063          	beqz	a3,800095b8 <strlen+0x84>
8000957c:	02060a63          	beqz	a2,800095b0 <strlen+0x7c>
80009580:	00f03533          	snez	a0,a5
80009584:	00e50533          	add	a0,a0,a4
80009588:	ffe50513          	addi	a0,a0,-2
8000958c:	00008067          	ret
80009590:	fa0688e3          	beqz	a3,80009540 <strlen+0xc>
80009594:	00074783          	lbu	a5,0(a4)
80009598:	00170713          	addi	a4,a4,1
8000959c:	00377693          	andi	a3,a4,3
800095a0:	fe0798e3          	bnez	a5,80009590 <strlen+0x5c>
800095a4:	40a70733          	sub	a4,a4,a0
800095a8:	fff70513          	addi	a0,a4,-1
800095ac:	00008067          	ret
800095b0:	ffd70513          	addi	a0,a4,-3
800095b4:	00008067          	ret
800095b8:	ffc70513          	addi	a0,a4,-4
800095bc:	00008067          	ret

800095c0 <strnlen>:
800095c0:	00b506b3          	add	a3,a0,a1
800095c4:	00050793          	mv	a5,a0
800095c8:	00059863          	bnez	a1,800095d8 <strnlen+0x18>
800095cc:	0240006f          	j	800095f0 <strnlen+0x30>
800095d0:	00178793          	addi	a5,a5,1
800095d4:	00f68a63          	beq	a3,a5,800095e8 <strnlen+0x28>
800095d8:	0007c703          	lbu	a4,0(a5)
800095dc:	fe071ae3          	bnez	a4,800095d0 <strnlen+0x10>
800095e0:	40a78533          	sub	a0,a5,a0
800095e4:	00008067          	ret
800095e8:	40a68533          	sub	a0,a3,a0
800095ec:	00008067          	ret
800095f0:	00000513          	li	a0,0
800095f4:	00008067          	ret

800095f8 <__udivdi3>:
800095f8:	fd010113          	addi	sp,sp,-48
800095fc:	02812423          	sw	s0,40(sp)
80009600:	01712623          	sw	s7,12(sp)
80009604:	02112623          	sw	ra,44(sp)
80009608:	02912223          	sw	s1,36(sp)
8000960c:	03212023          	sw	s2,32(sp)
80009610:	01312e23          	sw	s3,28(sp)
80009614:	01412c23          	sw	s4,24(sp)
80009618:	01512a23          	sw	s5,20(sp)
8000961c:	01612823          	sw	s6,16(sp)
80009620:	01812423          	sw	s8,8(sp)
80009624:	01912223          	sw	s9,4(sp)
80009628:	00050b93          	mv	s7,a0
8000962c:	00058413          	mv	s0,a1
80009630:	38069c63          	bnez	a3,800099c8 <__udivdi3+0x3d0>
80009634:	800504b7          	lui	s1,0x80050
80009638:	00060913          	mv	s2,a2
8000963c:	00050a13          	mv	s4,a0
80009640:	29848493          	addi	s1,s1,664 # 80050298 <__stack+0xffed6924>
80009644:	12c5f863          	bgeu	a1,a2,80009774 <__udivdi3+0x17c>
80009648:	000107b7          	lui	a5,0x10
8000964c:	00058c13          	mv	s8,a1
80009650:	10f67863          	bgeu	a2,a5,80009760 <__udivdi3+0x168>
80009654:	0ff00713          	li	a4,255
80009658:	00c73733          	sltu	a4,a4,a2
8000965c:	00371713          	slli	a4,a4,0x3
80009660:	00e657b3          	srl	a5,a2,a4
80009664:	00f484b3          	add	s1,s1,a5
80009668:	0004c683          	lbu	a3,0(s1)
8000966c:	00e68733          	add	a4,a3,a4
80009670:	02000693          	li	a3,32
80009674:	40e687b3          	sub	a5,a3,a4
80009678:	00e68c63          	beq	a3,a4,80009690 <__udivdi3+0x98>
8000967c:	00f41433          	sll	s0,s0,a5
80009680:	00ebd733          	srl	a4,s7,a4
80009684:	00f61933          	sll	s2,a2,a5
80009688:	00876c33          	or	s8,a4,s0
8000968c:	00fb9a33          	sll	s4,s7,a5
80009690:	01095b13          	srli	s6,s2,0x10
80009694:	000b0593          	mv	a1,s6
80009698:	000c0513          	mv	a0,s8
8000969c:	299000ef          	jal	ra,8000a134 <__umodsi3>
800096a0:	00050493          	mv	s1,a0
800096a4:	000b0593          	mv	a1,s6
800096a8:	01091a93          	slli	s5,s2,0x10
800096ac:	000c0513          	mv	a0,s8
800096b0:	23d000ef          	jal	ra,8000a0ec <__udivsi3>
800096b4:	010ada93          	srli	s5,s5,0x10
800096b8:	00050413          	mv	s0,a0
800096bc:	00050593          	mv	a1,a0
800096c0:	000a8513          	mv	a0,s5
800096c4:	1fd000ef          	jal	ra,8000a0c0 <__mulsi3>
800096c8:	01049493          	slli	s1,s1,0x10
800096cc:	010a5713          	srli	a4,s4,0x10
800096d0:	00e4e733          	or	a4,s1,a4
800096d4:	00040993          	mv	s3,s0
800096d8:	00a77e63          	bgeu	a4,a0,800096f4 <__udivdi3+0xfc>
800096dc:	01270733          	add	a4,a4,s2
800096e0:	fff40993          	addi	s3,s0,-1
800096e4:	01276863          	bltu	a4,s2,800096f4 <__udivdi3+0xfc>
800096e8:	00a77663          	bgeu	a4,a0,800096f4 <__udivdi3+0xfc>
800096ec:	ffe40993          	addi	s3,s0,-2
800096f0:	01270733          	add	a4,a4,s2
800096f4:	40a70433          	sub	s0,a4,a0
800096f8:	000b0593          	mv	a1,s6
800096fc:	00040513          	mv	a0,s0
80009700:	235000ef          	jal	ra,8000a134 <__umodsi3>
80009704:	00050493          	mv	s1,a0
80009708:	000b0593          	mv	a1,s6
8000970c:	00040513          	mv	a0,s0
80009710:	1dd000ef          	jal	ra,8000a0ec <__udivsi3>
80009714:	010a1a13          	slli	s4,s4,0x10
80009718:	00050413          	mv	s0,a0
8000971c:	00050593          	mv	a1,a0
80009720:	01049493          	slli	s1,s1,0x10
80009724:	000a8513          	mv	a0,s5
80009728:	010a5a13          	srli	s4,s4,0x10
8000972c:	195000ef          	jal	ra,8000a0c0 <__mulsi3>
80009730:	0144ea33          	or	s4,s1,s4
80009734:	00040613          	mv	a2,s0
80009738:	00aa7c63          	bgeu	s4,a0,80009750 <__udivdi3+0x158>
8000973c:	01490a33          	add	s4,s2,s4
80009740:	fff40613          	addi	a2,s0,-1
80009744:	012a6663          	bltu	s4,s2,80009750 <__udivdi3+0x158>
80009748:	00aa7463          	bgeu	s4,a0,80009750 <__udivdi3+0x158>
8000974c:	ffe40613          	addi	a2,s0,-2
80009750:	01099793          	slli	a5,s3,0x10
80009754:	00c7e7b3          	or	a5,a5,a2
80009758:	00000493          	li	s1,0
8000975c:	1300006f          	j	8000988c <__udivdi3+0x294>
80009760:	010007b7          	lui	a5,0x1000
80009764:	01000713          	li	a4,16
80009768:	eef66ce3          	bltu	a2,a5,80009660 <__udivdi3+0x68>
8000976c:	01800713          	li	a4,24
80009770:	ef1ff06f          	j	80009660 <__udivdi3+0x68>
80009774:	00068993          	mv	s3,a3
80009778:	00061a63          	bnez	a2,8000978c <__udivdi3+0x194>
8000977c:	00000593          	li	a1,0
80009780:	00100513          	li	a0,1
80009784:	169000ef          	jal	ra,8000a0ec <__udivsi3>
80009788:	00050913          	mv	s2,a0
8000978c:	000107b7          	lui	a5,0x10
80009790:	12f97c63          	bgeu	s2,a5,800098c8 <__udivdi3+0x2d0>
80009794:	0ff00793          	li	a5,255
80009798:	0127f463          	bgeu	a5,s2,800097a0 <__udivdi3+0x1a8>
8000979c:	00800993          	li	s3,8
800097a0:	013957b3          	srl	a5,s2,s3
800097a4:	00f484b3          	add	s1,s1,a5
800097a8:	0004c783          	lbu	a5,0(s1)
800097ac:	02000693          	li	a3,32
800097b0:	013787b3          	add	a5,a5,s3
800097b4:	40f68733          	sub	a4,a3,a5
800097b8:	12f69263          	bne	a3,a5,800098dc <__udivdi3+0x2e4>
800097bc:	41240433          	sub	s0,s0,s2
800097c0:	00100493          	li	s1,1
800097c4:	01095a93          	srli	s5,s2,0x10
800097c8:	000a8593          	mv	a1,s5
800097cc:	00040513          	mv	a0,s0
800097d0:	165000ef          	jal	ra,8000a134 <__umodsi3>
800097d4:	00050993          	mv	s3,a0
800097d8:	000a8593          	mv	a1,s5
800097dc:	00040513          	mv	a0,s0
800097e0:	01091b13          	slli	s6,s2,0x10
800097e4:	109000ef          	jal	ra,8000a0ec <__udivsi3>
800097e8:	010b5b13          	srli	s6,s6,0x10
800097ec:	00050413          	mv	s0,a0
800097f0:	00050593          	mv	a1,a0
800097f4:	000b0513          	mv	a0,s6
800097f8:	0c9000ef          	jal	ra,8000a0c0 <__mulsi3>
800097fc:	01099993          	slli	s3,s3,0x10
80009800:	010a5713          	srli	a4,s4,0x10
80009804:	00e9e733          	or	a4,s3,a4
80009808:	00040b93          	mv	s7,s0
8000980c:	00a77e63          	bgeu	a4,a0,80009828 <__udivdi3+0x230>
80009810:	01270733          	add	a4,a4,s2
80009814:	fff40b93          	addi	s7,s0,-1
80009818:	01276863          	bltu	a4,s2,80009828 <__udivdi3+0x230>
8000981c:	00a77663          	bgeu	a4,a0,80009828 <__udivdi3+0x230>
80009820:	ffe40b93          	addi	s7,s0,-2
80009824:	01270733          	add	a4,a4,s2
80009828:	40a70433          	sub	s0,a4,a0
8000982c:	000a8593          	mv	a1,s5
80009830:	00040513          	mv	a0,s0
80009834:	101000ef          	jal	ra,8000a134 <__umodsi3>
80009838:	00050993          	mv	s3,a0
8000983c:	000a8593          	mv	a1,s5
80009840:	00040513          	mv	a0,s0
80009844:	0a9000ef          	jal	ra,8000a0ec <__udivsi3>
80009848:	010a1a13          	slli	s4,s4,0x10
8000984c:	00050413          	mv	s0,a0
80009850:	00050593          	mv	a1,a0
80009854:	01099993          	slli	s3,s3,0x10
80009858:	000b0513          	mv	a0,s6
8000985c:	010a5a13          	srli	s4,s4,0x10
80009860:	061000ef          	jal	ra,8000a0c0 <__mulsi3>
80009864:	0149ea33          	or	s4,s3,s4
80009868:	00040613          	mv	a2,s0
8000986c:	00aa7c63          	bgeu	s4,a0,80009884 <__udivdi3+0x28c>
80009870:	01490a33          	add	s4,s2,s4
80009874:	fff40613          	addi	a2,s0,-1
80009878:	012a6663          	bltu	s4,s2,80009884 <__udivdi3+0x28c>
8000987c:	00aa7463          	bgeu	s4,a0,80009884 <__udivdi3+0x28c>
80009880:	ffe40613          	addi	a2,s0,-2
80009884:	010b9793          	slli	a5,s7,0x10
80009888:	00c7e7b3          	or	a5,a5,a2
8000988c:	00078513          	mv	a0,a5
80009890:	00048593          	mv	a1,s1
80009894:	02c12083          	lw	ra,44(sp)
80009898:	02812403          	lw	s0,40(sp)
8000989c:	02412483          	lw	s1,36(sp)
800098a0:	02012903          	lw	s2,32(sp)
800098a4:	01c12983          	lw	s3,28(sp)
800098a8:	01812a03          	lw	s4,24(sp)
800098ac:	01412a83          	lw	s5,20(sp)
800098b0:	01012b03          	lw	s6,16(sp)
800098b4:	00c12b83          	lw	s7,12(sp)
800098b8:	00812c03          	lw	s8,8(sp)
800098bc:	00412c83          	lw	s9,4(sp)
800098c0:	03010113          	addi	sp,sp,48
800098c4:	00008067          	ret
800098c8:	010007b7          	lui	a5,0x1000
800098cc:	01000993          	li	s3,16
800098d0:	ecf968e3          	bltu	s2,a5,800097a0 <__udivdi3+0x1a8>
800098d4:	01800993          	li	s3,24
800098d8:	ec9ff06f          	j	800097a0 <__udivdi3+0x1a8>
800098dc:	00e91933          	sll	s2,s2,a4
800098e0:	00f459b3          	srl	s3,s0,a5
800098e4:	00fbd7b3          	srl	a5,s7,a5
800098e8:	00e41433          	sll	s0,s0,a4
800098ec:	0087eab3          	or	s5,a5,s0
800098f0:	01095413          	srli	s0,s2,0x10
800098f4:	00040593          	mv	a1,s0
800098f8:	00098513          	mv	a0,s3
800098fc:	00eb9a33          	sll	s4,s7,a4
80009900:	035000ef          	jal	ra,8000a134 <__umodsi3>
80009904:	00050493          	mv	s1,a0
80009908:	00040593          	mv	a1,s0
8000990c:	00098513          	mv	a0,s3
80009910:	01091b13          	slli	s6,s2,0x10
80009914:	7d8000ef          	jal	ra,8000a0ec <__udivsi3>
80009918:	010b5b13          	srli	s6,s6,0x10
8000991c:	00050993          	mv	s3,a0
80009920:	00050593          	mv	a1,a0
80009924:	000b0513          	mv	a0,s6
80009928:	798000ef          	jal	ra,8000a0c0 <__mulsi3>
8000992c:	01049493          	slli	s1,s1,0x10
80009930:	010ad793          	srli	a5,s5,0x10
80009934:	00f4e7b3          	or	a5,s1,a5
80009938:	00098b93          	mv	s7,s3
8000993c:	00a7fe63          	bgeu	a5,a0,80009958 <__udivdi3+0x360>
80009940:	012787b3          	add	a5,a5,s2
80009944:	fff98b93          	addi	s7,s3,-1
80009948:	0127e863          	bltu	a5,s2,80009958 <__udivdi3+0x360>
8000994c:	00a7f663          	bgeu	a5,a0,80009958 <__udivdi3+0x360>
80009950:	ffe98b93          	addi	s7,s3,-2
80009954:	012787b3          	add	a5,a5,s2
80009958:	40a789b3          	sub	s3,a5,a0
8000995c:	00040593          	mv	a1,s0
80009960:	00098513          	mv	a0,s3
80009964:	7d0000ef          	jal	ra,8000a134 <__umodsi3>
80009968:	00040593          	mv	a1,s0
8000996c:	00050493          	mv	s1,a0
80009970:	00098513          	mv	a0,s3
80009974:	778000ef          	jal	ra,8000a0ec <__udivsi3>
80009978:	010a9413          	slli	s0,s5,0x10
8000997c:	00050993          	mv	s3,a0
80009980:	00050593          	mv	a1,a0
80009984:	01049493          	slli	s1,s1,0x10
80009988:	000b0513          	mv	a0,s6
8000998c:	01045413          	srli	s0,s0,0x10
80009990:	730000ef          	jal	ra,8000a0c0 <__mulsi3>
80009994:	0084e433          	or	s0,s1,s0
80009998:	00098793          	mv	a5,s3
8000999c:	00a47e63          	bgeu	s0,a0,800099b8 <__udivdi3+0x3c0>
800099a0:	01240433          	add	s0,s0,s2
800099a4:	fff98793          	addi	a5,s3,-1
800099a8:	01246863          	bltu	s0,s2,800099b8 <__udivdi3+0x3c0>
800099ac:	00a47663          	bgeu	s0,a0,800099b8 <__udivdi3+0x3c0>
800099b0:	ffe98793          	addi	a5,s3,-2
800099b4:	01240433          	add	s0,s0,s2
800099b8:	010b9493          	slli	s1,s7,0x10
800099bc:	40a40433          	sub	s0,s0,a0
800099c0:	00f4e4b3          	or	s1,s1,a5
800099c4:	e01ff06f          	j	800097c4 <__udivdi3+0x1cc>
800099c8:	1ed5ee63          	bltu	a1,a3,80009bc4 <__udivdi3+0x5cc>
800099cc:	000107b7          	lui	a5,0x10
800099d0:	04f6f463          	bgeu	a3,a5,80009a18 <__udivdi3+0x420>
800099d4:	0ff00a93          	li	s5,255
800099d8:	00dab733          	sltu	a4,s5,a3
800099dc:	00371713          	slli	a4,a4,0x3
800099e0:	800507b7          	lui	a5,0x80050
800099e4:	00e6d5b3          	srl	a1,a3,a4
800099e8:	29878793          	addi	a5,a5,664 # 80050298 <__stack+0xffed6924>
800099ec:	00b787b3          	add	a5,a5,a1
800099f0:	0007ca83          	lbu	s5,0(a5)
800099f4:	02000793          	li	a5,32
800099f8:	00ea8ab3          	add	s5,s5,a4
800099fc:	415784b3          	sub	s1,a5,s5
80009a00:	03579663          	bne	a5,s5,80009a2c <__udivdi3+0x434>
80009a04:	00100793          	li	a5,1
80009a08:	e886e2e3          	bltu	a3,s0,8000988c <__udivdi3+0x294>
80009a0c:	00cbb633          	sltu	a2,s7,a2
80009a10:	00164793          	xori	a5,a2,1
80009a14:	e79ff06f          	j	8000988c <__udivdi3+0x294>
80009a18:	010007b7          	lui	a5,0x1000
80009a1c:	01000713          	li	a4,16
80009a20:	fcf6e0e3          	bltu	a3,a5,800099e0 <__udivdi3+0x3e8>
80009a24:	01800713          	li	a4,24
80009a28:	fb9ff06f          	j	800099e0 <__udivdi3+0x3e8>
80009a2c:	01565cb3          	srl	s9,a2,s5
80009a30:	009696b3          	sll	a3,a3,s1
80009a34:	00dcecb3          	or	s9,s9,a3
80009a38:	015459b3          	srl	s3,s0,s5
80009a3c:	00941433          	sll	s0,s0,s1
80009a40:	015bdab3          	srl	s5,s7,s5
80009a44:	008aeab3          	or	s5,s5,s0
80009a48:	010cd413          	srli	s0,s9,0x10
80009a4c:	00040593          	mv	a1,s0
80009a50:	00098513          	mv	a0,s3
80009a54:	00961933          	sll	s2,a2,s1
80009a58:	6dc000ef          	jal	ra,8000a134 <__umodsi3>
80009a5c:	00050a13          	mv	s4,a0
80009a60:	00040593          	mv	a1,s0
80009a64:	00098513          	mv	a0,s3
80009a68:	010c9b13          	slli	s6,s9,0x10
80009a6c:	680000ef          	jal	ra,8000a0ec <__udivsi3>
80009a70:	010b5b13          	srli	s6,s6,0x10
80009a74:	00050993          	mv	s3,a0
80009a78:	00050593          	mv	a1,a0
80009a7c:	000b0513          	mv	a0,s6
80009a80:	640000ef          	jal	ra,8000a0c0 <__mulsi3>
80009a84:	010a1a13          	slli	s4,s4,0x10
80009a88:	010ad713          	srli	a4,s5,0x10
80009a8c:	00ea6733          	or	a4,s4,a4
80009a90:	00098c13          	mv	s8,s3
80009a94:	00a77e63          	bgeu	a4,a0,80009ab0 <__udivdi3+0x4b8>
80009a98:	01970733          	add	a4,a4,s9
80009a9c:	fff98c13          	addi	s8,s3,-1
80009aa0:	01976863          	bltu	a4,s9,80009ab0 <__udivdi3+0x4b8>
80009aa4:	00a77663          	bgeu	a4,a0,80009ab0 <__udivdi3+0x4b8>
80009aa8:	ffe98c13          	addi	s8,s3,-2
80009aac:	01970733          	add	a4,a4,s9
80009ab0:	40a709b3          	sub	s3,a4,a0
80009ab4:	00040593          	mv	a1,s0
80009ab8:	00098513          	mv	a0,s3
80009abc:	678000ef          	jal	ra,8000a134 <__umodsi3>
80009ac0:	00040593          	mv	a1,s0
80009ac4:	00050a13          	mv	s4,a0
80009ac8:	00098513          	mv	a0,s3
80009acc:	620000ef          	jal	ra,8000a0ec <__udivsi3>
80009ad0:	010a9413          	slli	s0,s5,0x10
80009ad4:	00050993          	mv	s3,a0
80009ad8:	00050593          	mv	a1,a0
80009adc:	010a1a13          	slli	s4,s4,0x10
80009ae0:	000b0513          	mv	a0,s6
80009ae4:	01045413          	srli	s0,s0,0x10
80009ae8:	5d8000ef          	jal	ra,8000a0c0 <__mulsi3>
80009aec:	008a6433          	or	s0,s4,s0
80009af0:	00098613          	mv	a2,s3
80009af4:	00a47e63          	bgeu	s0,a0,80009b10 <__udivdi3+0x518>
80009af8:	01940433          	add	s0,s0,s9
80009afc:	fff98613          	addi	a2,s3,-1
80009b00:	01946863          	bltu	s0,s9,80009b10 <__udivdi3+0x518>
80009b04:	00a47663          	bgeu	s0,a0,80009b10 <__udivdi3+0x518>
80009b08:	ffe98613          	addi	a2,s3,-2
80009b0c:	01940433          	add	s0,s0,s9
80009b10:	010c1793          	slli	a5,s8,0x10
80009b14:	00010e37          	lui	t3,0x10
80009b18:	00c7e7b3          	or	a5,a5,a2
80009b1c:	fffe0313          	addi	t1,t3,-1 # ffff <_STACK_SIZE-0x1>
80009b20:	0067f8b3          	and	a7,a5,t1
80009b24:	00697333          	and	t1,s2,t1
80009b28:	40a40433          	sub	s0,s0,a0
80009b2c:	0107de93          	srli	t4,a5,0x10
80009b30:	01095913          	srli	s2,s2,0x10
80009b34:	00088513          	mv	a0,a7
80009b38:	00030593          	mv	a1,t1
80009b3c:	584000ef          	jal	ra,8000a0c0 <__mulsi3>
80009b40:	00050813          	mv	a6,a0
80009b44:	00090593          	mv	a1,s2
80009b48:	00088513          	mv	a0,a7
80009b4c:	574000ef          	jal	ra,8000a0c0 <__mulsi3>
80009b50:	00050893          	mv	a7,a0
80009b54:	00030593          	mv	a1,t1
80009b58:	000e8513          	mv	a0,t4
80009b5c:	564000ef          	jal	ra,8000a0c0 <__mulsi3>
80009b60:	00050313          	mv	t1,a0
80009b64:	00090593          	mv	a1,s2
80009b68:	000e8513          	mv	a0,t4
80009b6c:	554000ef          	jal	ra,8000a0c0 <__mulsi3>
80009b70:	01085713          	srli	a4,a6,0x10
80009b74:	006888b3          	add	a7,a7,t1
80009b78:	01170733          	add	a4,a4,a7
80009b7c:	00050693          	mv	a3,a0
80009b80:	00677463          	bgeu	a4,t1,80009b88 <__udivdi3+0x590>
80009b84:	01c506b3          	add	a3,a0,t3
80009b88:	01075513          	srli	a0,a4,0x10
80009b8c:	00d506b3          	add	a3,a0,a3
80009b90:	02d46663          	bltu	s0,a3,80009bbc <__udivdi3+0x5c4>
80009b94:	bcd412e3          	bne	s0,a3,80009758 <__udivdi3+0x160>
80009b98:	00010537          	lui	a0,0x10
80009b9c:	fff50513          	addi	a0,a0,-1 # ffff <_STACK_SIZE-0x1>
80009ba0:	00a77733          	and	a4,a4,a0
80009ba4:	01071713          	slli	a4,a4,0x10
80009ba8:	00a87833          	and	a6,a6,a0
80009bac:	009b9bb3          	sll	s7,s7,s1
80009bb0:	01070733          	add	a4,a4,a6
80009bb4:	00000493          	li	s1,0
80009bb8:	ccebfae3          	bgeu	s7,a4,8000988c <__udivdi3+0x294>
80009bbc:	fff78793          	addi	a5,a5,-1 # ffffff <_HEAP_SIZE+0xefffff>
80009bc0:	b99ff06f          	j	80009758 <__udivdi3+0x160>
80009bc4:	00000493          	li	s1,0
80009bc8:	00000793          	li	a5,0
80009bcc:	cc1ff06f          	j	8000988c <__udivdi3+0x294>

80009bd0 <__umoddi3>:
80009bd0:	fd010113          	addi	sp,sp,-48
80009bd4:	02812423          	sw	s0,40(sp)
80009bd8:	02912223          	sw	s1,36(sp)
80009bdc:	03212023          	sw	s2,32(sp)
80009be0:	01612823          	sw	s6,16(sp)
80009be4:	02112623          	sw	ra,44(sp)
80009be8:	01312e23          	sw	s3,28(sp)
80009bec:	01412c23          	sw	s4,24(sp)
80009bf0:	01512a23          	sw	s5,20(sp)
80009bf4:	01712623          	sw	s7,12(sp)
80009bf8:	01812423          	sw	s8,8(sp)
80009bfc:	01912223          	sw	s9,4(sp)
80009c00:	01a12023          	sw	s10,0(sp)
80009c04:	00050913          	mv	s2,a0
80009c08:	00058b13          	mv	s6,a1
80009c0c:	00050413          	mv	s0,a0
80009c10:	00058493          	mv	s1,a1
80009c14:	26069c63          	bnez	a3,80009e8c <__umoddi3+0x2bc>
80009c18:	80050ab7          	lui	s5,0x80050
80009c1c:	00060a13          	mv	s4,a2
80009c20:	00068993          	mv	s3,a3
80009c24:	298a8a93          	addi	s5,s5,664 # 80050298 <__stack+0xffed6924>
80009c28:	14c5f263          	bgeu	a1,a2,80009d6c <__umoddi3+0x19c>
80009c2c:	000107b7          	lui	a5,0x10
80009c30:	12f67463          	bgeu	a2,a5,80009d58 <__umoddi3+0x188>
80009c34:	0ff00793          	li	a5,255
80009c38:	00c7f463          	bgeu	a5,a2,80009c40 <__umoddi3+0x70>
80009c3c:	00800993          	li	s3,8
80009c40:	013657b3          	srl	a5,a2,s3
80009c44:	00fa8ab3          	add	s5,s5,a5
80009c48:	000ac783          	lbu	a5,0(s5)
80009c4c:	02000713          	li	a4,32
80009c50:	013787b3          	add	a5,a5,s3
80009c54:	40f709b3          	sub	s3,a4,a5
80009c58:	00f70c63          	beq	a4,a5,80009c70 <__umoddi3+0xa0>
80009c5c:	013b15b3          	sll	a1,s6,s3
80009c60:	00f957b3          	srl	a5,s2,a5
80009c64:	01361a33          	sll	s4,a2,s3
80009c68:	00b7e4b3          	or	s1,a5,a1
80009c6c:	01391433          	sll	s0,s2,s3
80009c70:	010a5a93          	srli	s5,s4,0x10
80009c74:	000a8593          	mv	a1,s5
80009c78:	00048513          	mv	a0,s1
80009c7c:	4b8000ef          	jal	ra,8000a134 <__umodsi3>
80009c80:	00050913          	mv	s2,a0
80009c84:	000a8593          	mv	a1,s5
80009c88:	010a1b13          	slli	s6,s4,0x10
80009c8c:	00048513          	mv	a0,s1
80009c90:	45c000ef          	jal	ra,8000a0ec <__udivsi3>
80009c94:	010b5b13          	srli	s6,s6,0x10
80009c98:	00050593          	mv	a1,a0
80009c9c:	000b0513          	mv	a0,s6
80009ca0:	420000ef          	jal	ra,8000a0c0 <__mulsi3>
80009ca4:	01091913          	slli	s2,s2,0x10
80009ca8:	01045793          	srli	a5,s0,0x10
80009cac:	00f967b3          	or	a5,s2,a5
80009cb0:	00a7fa63          	bgeu	a5,a0,80009cc4 <__umoddi3+0xf4>
80009cb4:	014787b3          	add	a5,a5,s4
80009cb8:	0147e663          	bltu	a5,s4,80009cc4 <__umoddi3+0xf4>
80009cbc:	00a7f463          	bgeu	a5,a0,80009cc4 <__umoddi3+0xf4>
80009cc0:	014787b3          	add	a5,a5,s4
80009cc4:	40a784b3          	sub	s1,a5,a0
80009cc8:	000a8593          	mv	a1,s5
80009ccc:	00048513          	mv	a0,s1
80009cd0:	464000ef          	jal	ra,8000a134 <__umodsi3>
80009cd4:	00050913          	mv	s2,a0
80009cd8:	000a8593          	mv	a1,s5
80009cdc:	00048513          	mv	a0,s1
80009ce0:	40c000ef          	jal	ra,8000a0ec <__udivsi3>
80009ce4:	01041413          	slli	s0,s0,0x10
80009ce8:	00050593          	mv	a1,a0
80009cec:	01091913          	slli	s2,s2,0x10
80009cf0:	000b0513          	mv	a0,s6
80009cf4:	01045413          	srli	s0,s0,0x10
80009cf8:	3c8000ef          	jal	ra,8000a0c0 <__mulsi3>
80009cfc:	00896433          	or	s0,s2,s0
80009d00:	00a47a63          	bgeu	s0,a0,80009d14 <__umoddi3+0x144>
80009d04:	01440433          	add	s0,s0,s4
80009d08:	01446663          	bltu	s0,s4,80009d14 <__umoddi3+0x144>
80009d0c:	00a47463          	bgeu	s0,a0,80009d14 <__umoddi3+0x144>
80009d10:	01440433          	add	s0,s0,s4
80009d14:	40a40433          	sub	s0,s0,a0
80009d18:	01345533          	srl	a0,s0,s3
80009d1c:	00000593          	li	a1,0
80009d20:	02c12083          	lw	ra,44(sp)
80009d24:	02812403          	lw	s0,40(sp)
80009d28:	02412483          	lw	s1,36(sp)
80009d2c:	02012903          	lw	s2,32(sp)
80009d30:	01c12983          	lw	s3,28(sp)
80009d34:	01812a03          	lw	s4,24(sp)
80009d38:	01412a83          	lw	s5,20(sp)
80009d3c:	01012b03          	lw	s6,16(sp)
80009d40:	00c12b83          	lw	s7,12(sp)
80009d44:	00812c03          	lw	s8,8(sp)
80009d48:	00412c83          	lw	s9,4(sp)
80009d4c:	00012d03          	lw	s10,0(sp)
80009d50:	03010113          	addi	sp,sp,48
80009d54:	00008067          	ret
80009d58:	010007b7          	lui	a5,0x1000
80009d5c:	01000993          	li	s3,16
80009d60:	eef660e3          	bltu	a2,a5,80009c40 <__umoddi3+0x70>
80009d64:	01800993          	li	s3,24
80009d68:	ed9ff06f          	j	80009c40 <__umoddi3+0x70>
80009d6c:	00061a63          	bnez	a2,80009d80 <__umoddi3+0x1b0>
80009d70:	00000593          	li	a1,0
80009d74:	00100513          	li	a0,1
80009d78:	374000ef          	jal	ra,8000a0ec <__udivsi3>
80009d7c:	00050a13          	mv	s4,a0
80009d80:	000107b7          	lui	a5,0x10
80009d84:	0efa7a63          	bgeu	s4,a5,80009e78 <__umoddi3+0x2a8>
80009d88:	0ff00793          	li	a5,255
80009d8c:	0147f463          	bgeu	a5,s4,80009d94 <__umoddi3+0x1c4>
80009d90:	00800993          	li	s3,8
80009d94:	013a57b3          	srl	a5,s4,s3
80009d98:	00fa8ab3          	add	s5,s5,a5
80009d9c:	000ac783          	lbu	a5,0(s5)
80009da0:	02000713          	li	a4,32
80009da4:	414b04b3          	sub	s1,s6,s4
80009da8:	013787b3          	add	a5,a5,s3
80009dac:	40f709b3          	sub	s3,a4,a5
80009db0:	ecf700e3          	beq	a4,a5,80009c70 <__umoddi3+0xa0>
80009db4:	013a1a33          	sll	s4,s4,s3
80009db8:	00fb5ab3          	srl	s5,s6,a5
80009dbc:	013b15b3          	sll	a1,s6,s3
80009dc0:	00f957b3          	srl	a5,s2,a5
80009dc4:	010a5493          	srli	s1,s4,0x10
80009dc8:	00b7eb33          	or	s6,a5,a1
80009dcc:	000a8513          	mv	a0,s5
80009dd0:	00048593          	mv	a1,s1
80009dd4:	360000ef          	jal	ra,8000a134 <__umodsi3>
80009dd8:	00048593          	mv	a1,s1
80009ddc:	01391433          	sll	s0,s2,s3
80009de0:	010a1b93          	slli	s7,s4,0x10
80009de4:	00050913          	mv	s2,a0
80009de8:	000a8513          	mv	a0,s5
80009dec:	300000ef          	jal	ra,8000a0ec <__udivsi3>
80009df0:	010bdb93          	srli	s7,s7,0x10
80009df4:	00050593          	mv	a1,a0
80009df8:	000b8513          	mv	a0,s7
80009dfc:	2c4000ef          	jal	ra,8000a0c0 <__mulsi3>
80009e00:	01091913          	slli	s2,s2,0x10
80009e04:	010b5793          	srli	a5,s6,0x10
80009e08:	00f967b3          	or	a5,s2,a5
80009e0c:	00a7fa63          	bgeu	a5,a0,80009e20 <__umoddi3+0x250>
80009e10:	014787b3          	add	a5,a5,s4
80009e14:	0147e663          	bltu	a5,s4,80009e20 <__umoddi3+0x250>
80009e18:	00a7f463          	bgeu	a5,a0,80009e20 <__umoddi3+0x250>
80009e1c:	014787b3          	add	a5,a5,s4
80009e20:	40a78ab3          	sub	s5,a5,a0
80009e24:	00048593          	mv	a1,s1
80009e28:	000a8513          	mv	a0,s5
80009e2c:	308000ef          	jal	ra,8000a134 <__umodsi3>
80009e30:	00050913          	mv	s2,a0
80009e34:	00048593          	mv	a1,s1
80009e38:	000a8513          	mv	a0,s5
80009e3c:	2b0000ef          	jal	ra,8000a0ec <__udivsi3>
80009e40:	00050593          	mv	a1,a0
80009e44:	000b8513          	mv	a0,s7
80009e48:	278000ef          	jal	ra,8000a0c0 <__mulsi3>
80009e4c:	010b1593          	slli	a1,s6,0x10
80009e50:	01091913          	slli	s2,s2,0x10
80009e54:	0105d593          	srli	a1,a1,0x10
80009e58:	00b965b3          	or	a1,s2,a1
80009e5c:	00a5fa63          	bgeu	a1,a0,80009e70 <__umoddi3+0x2a0>
80009e60:	014585b3          	add	a1,a1,s4
80009e64:	0145e663          	bltu	a1,s4,80009e70 <__umoddi3+0x2a0>
80009e68:	00a5f463          	bgeu	a1,a0,80009e70 <__umoddi3+0x2a0>
80009e6c:	014585b3          	add	a1,a1,s4
80009e70:	40a584b3          	sub	s1,a1,a0
80009e74:	dfdff06f          	j	80009c70 <__umoddi3+0xa0>
80009e78:	010007b7          	lui	a5,0x1000
80009e7c:	01000993          	li	s3,16
80009e80:	f0fa6ae3          	bltu	s4,a5,80009d94 <__umoddi3+0x1c4>
80009e84:	01800993          	li	s3,24
80009e88:	f0dff06f          	j	80009d94 <__umoddi3+0x1c4>
80009e8c:	e8d5eae3          	bltu	a1,a3,80009d20 <__umoddi3+0x150>
80009e90:	000107b7          	lui	a5,0x10
80009e94:	04f6fc63          	bgeu	a3,a5,80009eec <__umoddi3+0x31c>
80009e98:	0ff00a93          	li	s5,255
80009e9c:	00dab533          	sltu	a0,s5,a3
80009ea0:	00351513          	slli	a0,a0,0x3
80009ea4:	800507b7          	lui	a5,0x80050
80009ea8:	00a6d733          	srl	a4,a3,a0
80009eac:	29878793          	addi	a5,a5,664 # 80050298 <__stack+0xffed6924>
80009eb0:	00e787b3          	add	a5,a5,a4
80009eb4:	0007ca83          	lbu	s5,0(a5)
80009eb8:	02000793          	li	a5,32
80009ebc:	00aa8ab3          	add	s5,s5,a0
80009ec0:	41578a33          	sub	s4,a5,s5
80009ec4:	03579e63          	bne	a5,s5,80009f00 <__umoddi3+0x330>
80009ec8:	0166e463          	bltu	a3,s6,80009ed0 <__umoddi3+0x300>
80009ecc:	00c96a63          	bltu	s2,a2,80009ee0 <__umoddi3+0x310>
80009ed0:	40c90433          	sub	s0,s2,a2
80009ed4:	40db05b3          	sub	a1,s6,a3
80009ed8:	00893533          	sltu	a0,s2,s0
80009edc:	40a584b3          	sub	s1,a1,a0
80009ee0:	00040513          	mv	a0,s0
80009ee4:	00048593          	mv	a1,s1
80009ee8:	e39ff06f          	j	80009d20 <__umoddi3+0x150>
80009eec:	010007b7          	lui	a5,0x1000
80009ef0:	01000513          	li	a0,16
80009ef4:	faf6e8e3          	bltu	a3,a5,80009ea4 <__umoddi3+0x2d4>
80009ef8:	01800513          	li	a0,24
80009efc:	fa9ff06f          	j	80009ea4 <__umoddi3+0x2d4>
80009f00:	014696b3          	sll	a3,a3,s4
80009f04:	015657b3          	srl	a5,a2,s5
80009f08:	00d7ec33          	or	s8,a5,a3
80009f0c:	015b5d33          	srl	s10,s6,s5
80009f10:	014b15b3          	sll	a1,s6,s4
80009f14:	015954b3          	srl	s1,s2,s5
80009f18:	010c5b13          	srli	s6,s8,0x10
80009f1c:	00b4e4b3          	or	s1,s1,a1
80009f20:	000d0513          	mv	a0,s10
80009f24:	000b0593          	mv	a1,s6
80009f28:	01461cb3          	sll	s9,a2,s4
80009f2c:	208000ef          	jal	ra,8000a134 <__umodsi3>
80009f30:	00050993          	mv	s3,a0
80009f34:	000b0593          	mv	a1,s6
80009f38:	000d0513          	mv	a0,s10
80009f3c:	010c1b93          	slli	s7,s8,0x10
80009f40:	1ac000ef          	jal	ra,8000a0ec <__udivsi3>
80009f44:	010bdb93          	srli	s7,s7,0x10
80009f48:	00050593          	mv	a1,a0
80009f4c:	01491433          	sll	s0,s2,s4
80009f50:	00050913          	mv	s2,a0
80009f54:	000b8513          	mv	a0,s7
80009f58:	168000ef          	jal	ra,8000a0c0 <__mulsi3>
80009f5c:	01099993          	slli	s3,s3,0x10
80009f60:	0104d713          	srli	a4,s1,0x10
80009f64:	00e9e733          	or	a4,s3,a4
80009f68:	00090d13          	mv	s10,s2
80009f6c:	00a77e63          	bgeu	a4,a0,80009f88 <__umoddi3+0x3b8>
80009f70:	01870733          	add	a4,a4,s8
80009f74:	fff90d13          	addi	s10,s2,-1
80009f78:	01876863          	bltu	a4,s8,80009f88 <__umoddi3+0x3b8>
80009f7c:	00a77663          	bgeu	a4,a0,80009f88 <__umoddi3+0x3b8>
80009f80:	ffe90d13          	addi	s10,s2,-2
80009f84:	01870733          	add	a4,a4,s8
80009f88:	40a70933          	sub	s2,a4,a0
80009f8c:	000b0593          	mv	a1,s6
80009f90:	00090513          	mv	a0,s2
80009f94:	1a0000ef          	jal	ra,8000a134 <__umodsi3>
80009f98:	00050993          	mv	s3,a0
80009f9c:	000b0593          	mv	a1,s6
80009fa0:	00090513          	mv	a0,s2
80009fa4:	148000ef          	jal	ra,8000a0ec <__udivsi3>
80009fa8:	00050913          	mv	s2,a0
80009fac:	00050593          	mv	a1,a0
80009fb0:	000b8513          	mv	a0,s7
80009fb4:	10c000ef          	jal	ra,8000a0c0 <__mulsi3>
80009fb8:	01049713          	slli	a4,s1,0x10
80009fbc:	01099993          	slli	s3,s3,0x10
80009fc0:	01075713          	srli	a4,a4,0x10
80009fc4:	00e9e733          	or	a4,s3,a4
80009fc8:	00090793          	mv	a5,s2
80009fcc:	00a77e63          	bgeu	a4,a0,80009fe8 <__umoddi3+0x418>
80009fd0:	01870733          	add	a4,a4,s8
80009fd4:	fff90793          	addi	a5,s2,-1
80009fd8:	01876863          	bltu	a4,s8,80009fe8 <__umoddi3+0x418>
80009fdc:	00a77663          	bgeu	a4,a0,80009fe8 <__umoddi3+0x418>
80009fe0:	ffe90793          	addi	a5,s2,-2
80009fe4:	01870733          	add	a4,a4,s8
80009fe8:	00010eb7          	lui	t4,0x10
80009fec:	010d1d13          	slli	s10,s10,0x10
80009ff0:	00fd6d33          	or	s10,s10,a5
80009ff4:	fffe8793          	addi	a5,t4,-1 # ffff <_STACK_SIZE-0x1>
80009ff8:	00fd78b3          	and	a7,s10,a5
80009ffc:	00fcf7b3          	and	a5,s9,a5
8000a000:	40a70733          	sub	a4,a4,a0
8000a004:	010d5d13          	srli	s10,s10,0x10
8000a008:	010cde13          	srli	t3,s9,0x10
8000a00c:	00088513          	mv	a0,a7
8000a010:	00078593          	mv	a1,a5
8000a014:	0ac000ef          	jal	ra,8000a0c0 <__mulsi3>
8000a018:	00050813          	mv	a6,a0
8000a01c:	000e0593          	mv	a1,t3
8000a020:	00088513          	mv	a0,a7
8000a024:	09c000ef          	jal	ra,8000a0c0 <__mulsi3>
8000a028:	00050893          	mv	a7,a0
8000a02c:	00078593          	mv	a1,a5
8000a030:	000d0513          	mv	a0,s10
8000a034:	08c000ef          	jal	ra,8000a0c0 <__mulsi3>
8000a038:	00050313          	mv	t1,a0
8000a03c:	000e0593          	mv	a1,t3
8000a040:	000d0513          	mv	a0,s10
8000a044:	07c000ef          	jal	ra,8000a0c0 <__mulsi3>
8000a048:	01085793          	srli	a5,a6,0x10
8000a04c:	006888b3          	add	a7,a7,t1
8000a050:	011787b3          	add	a5,a5,a7
8000a054:	0067f463          	bgeu	a5,t1,8000a05c <__umoddi3+0x48c>
8000a058:	01d50533          	add	a0,a0,t4
8000a05c:	0107d593          	srli	a1,a5,0x10
8000a060:	00a585b3          	add	a1,a1,a0
8000a064:	00010537          	lui	a0,0x10
8000a068:	fff50513          	addi	a0,a0,-1 # ffff <_STACK_SIZE-0x1>
8000a06c:	00a7f7b3          	and	a5,a5,a0
8000a070:	01079793          	slli	a5,a5,0x10
8000a074:	00a87533          	and	a0,a6,a0
8000a078:	00a78533          	add	a0,a5,a0
8000a07c:	00b76663          	bltu	a4,a1,8000a088 <__umoddi3+0x4b8>
8000a080:	00b71e63          	bne	a4,a1,8000a09c <__umoddi3+0x4cc>
8000a084:	00a47c63          	bgeu	s0,a0,8000a09c <__umoddi3+0x4cc>
8000a088:	41950633          	sub	a2,a0,s9
8000a08c:	00c537b3          	sltu	a5,a0,a2
8000a090:	018787b3          	add	a5,a5,s8
8000a094:	40f585b3          	sub	a1,a1,a5
8000a098:	00060513          	mv	a0,a2
8000a09c:	40a40533          	sub	a0,s0,a0
8000a0a0:	00a43433          	sltu	s0,s0,a0
8000a0a4:	40b705b3          	sub	a1,a4,a1
8000a0a8:	408585b3          	sub	a1,a1,s0
8000a0ac:	01559433          	sll	s0,a1,s5
8000a0b0:	01455533          	srl	a0,a0,s4
8000a0b4:	00a46533          	or	a0,s0,a0
8000a0b8:	0145d5b3          	srl	a1,a1,s4
8000a0bc:	c65ff06f          	j	80009d20 <__umoddi3+0x150>

8000a0c0 <__mulsi3>:
8000a0c0:	00050613          	mv	a2,a0
8000a0c4:	00000513          	li	a0,0
8000a0c8:	0015f693          	andi	a3,a1,1
8000a0cc:	00068463          	beqz	a3,8000a0d4 <__mulsi3+0x14>
8000a0d0:	00c50533          	add	a0,a0,a2
8000a0d4:	0015d593          	srli	a1,a1,0x1
8000a0d8:	00161613          	slli	a2,a2,0x1
8000a0dc:	fe0596e3          	bnez	a1,8000a0c8 <__mulsi3+0x8>
8000a0e0:	00008067          	ret

8000a0e4 <__divsi3>:
8000a0e4:	06054063          	bltz	a0,8000a144 <__umodsi3+0x10>
8000a0e8:	0605c663          	bltz	a1,8000a154 <__umodsi3+0x20>

8000a0ec <__udivsi3>:
8000a0ec:	00058613          	mv	a2,a1
8000a0f0:	00050593          	mv	a1,a0
8000a0f4:	fff00513          	li	a0,-1
8000a0f8:	02060c63          	beqz	a2,8000a130 <__udivsi3+0x44>
8000a0fc:	00100693          	li	a3,1
8000a100:	00b67a63          	bgeu	a2,a1,8000a114 <__udivsi3+0x28>
8000a104:	00c05863          	blez	a2,8000a114 <__udivsi3+0x28>
8000a108:	00161613          	slli	a2,a2,0x1
8000a10c:	00169693          	slli	a3,a3,0x1
8000a110:	feb66ae3          	bltu	a2,a1,8000a104 <__udivsi3+0x18>
8000a114:	00000513          	li	a0,0
8000a118:	00c5e663          	bltu	a1,a2,8000a124 <__udivsi3+0x38>
8000a11c:	40c585b3          	sub	a1,a1,a2
8000a120:	00d56533          	or	a0,a0,a3
8000a124:	0016d693          	srli	a3,a3,0x1
8000a128:	00165613          	srli	a2,a2,0x1
8000a12c:	fe0696e3          	bnez	a3,8000a118 <__udivsi3+0x2c>
8000a130:	00008067          	ret

8000a134 <__umodsi3>:
8000a134:	00008293          	mv	t0,ra
8000a138:	fb5ff0ef          	jal	ra,8000a0ec <__udivsi3>
8000a13c:	00058513          	mv	a0,a1
8000a140:	00028067          	jr	t0 # 8000950c <memset+0xb4>
8000a144:	40a00533          	neg	a0,a0
8000a148:	00b04863          	bgtz	a1,8000a158 <__umodsi3+0x24>
8000a14c:	40b005b3          	neg	a1,a1
8000a150:	f9dff06f          	j	8000a0ec <__udivsi3>
8000a154:	40b005b3          	neg	a1,a1
8000a158:	00008293          	mv	t0,ra
8000a15c:	f91ff0ef          	jal	ra,8000a0ec <__udivsi3>
8000a160:	40a00533          	neg	a0,a0
8000a164:	00028067          	jr	t0

8000a168 <__modsi3>:
8000a168:	00008293          	mv	t0,ra
8000a16c:	0005ca63          	bltz	a1,8000a180 <__modsi3+0x18>
8000a170:	00054c63          	bltz	a0,8000a188 <__modsi3+0x20>
8000a174:	f79ff0ef          	jal	ra,8000a0ec <__udivsi3>
8000a178:	00058513          	mv	a0,a1
8000a17c:	00028067          	jr	t0
8000a180:	40b005b3          	neg	a1,a1
8000a184:	fe0558e3          	bgez	a0,8000a174 <__modsi3+0xc>
8000a188:	40a00533          	neg	a0,a0
8000a18c:	f61ff0ef          	jal	ra,8000a0ec <__udivsi3>
8000a190:	40b00533          	neg	a0,a1
8000a194:	00028067          	jr	t0

Disassembly of section .rodata:

80050000 <__rodata_start>:
80050000:	4449                	li	s0,18
80050002:	454c                	lw	a1,12(a0)
80050004:	0000                	unimp
80050006:	0000                	unimp
80050008:	5200                	lw	s0,32(a2)
8005000a:	5198fffb          	0x5198fffb
8005000e:	51b4fffb          	0x51b4fffb
80050012:	51ccfffb          	0x51ccfffb
80050016:	51dcfffb          	0x51dcfffb
8005001a:	53d0fffb          	0x53d0fffb
8005001e:	5368fffb          	0x5368fffb
80050022:	5384fffb          	0x5384fffb
80050026:	539cfffb          	0x539cfffb
8005002a:	53acfffb          	0x53acfffb
8005002e:	6d54fffb          	0x6d54fffb
80050032:	2072                	fld	ft0,280(sp)
80050034:	00637653          	fadd.s	fa2,ft6,ft6
80050038:	5f1c                	lw	a5,56(a4)
8005003a:	5f1cfffb          	0x5f1cfffb
8005003e:	5f1cfffb          	0x5f1cfffb
80050042:	6000fffb          	0x6000fffb
80050046:	5fa8fffb          	0x5fa8fffb
8005004a:	5ff0fffb          	0x5ff0fffb
8005004e:	5f1cfffb          	0x5f1cfffb
80050052:	5f1cfffb          	0x5f1cfffb
80050056:	6000fffb          	0x6000fffb
8005005a:	5fa8fffb          	0x5fa8fffb
8005005e:	6d54fffb          	0x6d54fffb
80050062:	5172                	lw	sp,60(sp)
80050064:	0000                	unimp
80050066:	0000                	unimp
80050068:	6d49                	lui	s10,0x12
8005006a:	6c70                	flw	fa2,92(s0)
8005006c:	6d65                	lui	s10,0x19
8005006e:	6e65                	lui	t3,0x19
80050070:	2074                	fld	fa3,192(s0)
80050072:	2061                	jal	800500fa <__rodata_start+0xfa>
80050074:	616d                	addi	sp,sp,240
80050076:	6e69                	lui	t3,0x1a
80050078:	6620                	flw	fs0,72(a2)
8005007a:	6e75                	lui	t3,0x1d
8005007c:	6f697463          	bgeu	s2,s6,80050764 <xDelayedTaskList1+0x4>
80050080:	216e                	fld	ft2,216(sp)
80050082:	000a                	c.slli	zero,0x2
80050084:	6e28                	flw	fa0,88(a2)
80050086:	6c75                	lui	s8,0x1d
80050088:	296c                	fld	fa1,208(a0)
8005008a:	0000                	unimp
8005008c:	76cc                	flw	fa1,44(a3)
8005008e:	7a04fffb          	0x7a04fffb
80050092:	79f0fffb          	0x79f0fffb
80050096:	7a04fffb          	0x7a04fffb
8005009a:	7a04fffb          	0x7a04fffb
8005009e:	7a04fffb          	0x7a04fffb
800500a2:	7a04fffb          	0x7a04fffb
800500a6:	7778fffb          	0x7778fffb
800500aa:	7a04fffb          	0x7a04fffb
800500ae:	7a04fffb          	0x7a04fffb
800500b2:	7710fffb          	0x7710fffb
800500b6:	7790fffb          	0x7790fffb
800500ba:	7a04fffb          	0x7a04fffb
800500be:	771cfffb          	0x771cfffb
800500c2:	7728fffb          	0x7728fffb
800500c6:	7728fffb          	0x7728fffb
800500ca:	7728fffb          	0x7728fffb
800500ce:	7728fffb          	0x7728fffb
800500d2:	7728fffb          	0x7728fffb
800500d6:	7728fffb          	0x7728fffb
800500da:	7728fffb          	0x7728fffb
800500de:	7728fffb          	0x7728fffb
800500e2:	7728fffb          	0x7728fffb
800500e6:	7a04fffb          	0x7a04fffb
800500ea:	7a04fffb          	0x7a04fffb
800500ee:	7a04fffb          	0x7a04fffb
800500f2:	7a04fffb          	0x7a04fffb
800500f6:	7a04fffb          	0x7a04fffb
800500fa:	7a04fffb          	0x7a04fffb
800500fe:	7a04fffb          	0x7a04fffb
80050102:	7a04fffb          	0x7a04fffb
80050106:	7a04fffb          	0x7a04fffb
8005010a:	7a04fffb          	0x7a04fffb
8005010e:	7a04fffb          	0x7a04fffb
80050112:	7a04fffb          	0x7a04fffb
80050116:	7a04fffb          	0x7a04fffb
8005011a:	7a04fffb          	0x7a04fffb
8005011e:	7a04fffb          	0x7a04fffb
80050122:	7a04fffb          	0x7a04fffb
80050126:	7a04fffb          	0x7a04fffb
8005012a:	7a04fffb          	0x7a04fffb
8005012e:	7a04fffb          	0x7a04fffb
80050132:	7a04fffb          	0x7a04fffb
80050136:	7a04fffb          	0x7a04fffb
8005013a:	7a04fffb          	0x7a04fffb
8005013e:	7a04fffb          	0x7a04fffb
80050142:	7a04fffb          	0x7a04fffb
80050146:	7a04fffb          	0x7a04fffb
8005014a:	7a04fffb          	0x7a04fffb
8005014e:	7a04fffb          	0x7a04fffb
80050152:	7a04fffb          	0x7a04fffb
80050156:	7a04fffb          	0x7a04fffb
8005015a:	7a04fffb          	0x7a04fffb
8005015e:	7a04fffb          	0x7a04fffb
80050162:	7a04fffb          	0x7a04fffb
80050166:	7a04fffb          	0x7a04fffb
8005016a:	7a04fffb          	0x7a04fffb
8005016e:	7a04fffb          	0x7a04fffb
80050172:	7a04fffb          	0x7a04fffb
80050176:	7a04fffb          	0x7a04fffb
8005017a:	7a04fffb          	0x7a04fffb
8005017e:	7a04fffb          	0x7a04fffb
80050182:	7a04fffb          	0x7a04fffb
80050186:	7a04fffb          	0x7a04fffb
8005018a:	77d0fffb          	0x77d0fffb
8005018e:	78e8fffb          	0x78e8fffb
80050192:	7a04fffb          	0x7a04fffb
80050196:	7a04fffb          	0x7a04fffb
8005019a:	7a04fffb          	0x7a04fffb
8005019e:	7a04fffb          	0x7a04fffb
800501a2:	7a04fffb          	0x7a04fffb
800501a6:	7a04fffb          	0x7a04fffb
800501aa:	7a04fffb          	0x7a04fffb
800501ae:	77c0fffb          	0x77c0fffb
800501b2:	7a04fffb          	0x7a04fffb
800501b6:	7a04fffb          	0x7a04fffb
800501ba:	7974fffb          	0x7974fffb
800501be:	7980fffb          	0x7980fffb
800501c2:	7a04fffb          	0x7a04fffb
800501c6:	7a04fffb          	0x7a04fffb
800501ca:	77f4fffb          	0x77f4fffb
800501ce:	7a04fffb          	0x7a04fffb
800501d2:	7968fffb          	0x7968fffb
800501d6:	7a04fffb          	0x7a04fffb
800501da:	7a04fffb          	0x7a04fffb
800501de:	79a8fffb          	0x79a8fffb
800501e2:	6154fffb          	0x6154fffb
800501e6:	31206b73          	csrrsi	s6,0x312,0
800501ea:	6920                	flw	fs0,80(a0)
800501ec:	75722073          	csrs	0x757,tp
800501f0:	6e6e                	flw	ft8,216(sp)
800501f2:	6e69                	lui	t3,0x1a
800501f4:	000a0d67          	jalr	s10,s4
800501f8:	6154                	flw	fa3,4(a0)
800501fa:	32206b73          	csrrsi	s6,0x322,0
800501fe:	6920                	flw	fs0,80(a0)
80050200:	75722073          	csrs	0x757,tp
80050204:	6e6e                	flw	ft8,216(sp)
80050206:	6e69                	lui	t3,0x1a
80050208:	000a0d67          	jalr	s10,s4
8005020c:	6154                	flw	fa3,4(a0)
8005020e:	31206b73          	csrrsi	s6,0x312,0
80050212:	0000                	unimp
80050214:	6154                	flw	fa3,4(a0)
80050216:	32206b73          	csrrsi	s6,0x322,0
8005021a:	0000                	unimp
8005021c:	6c42                	flw	fs8,16(sp)
8005021e:	5f6b636f          	jal	t1,80106814 <__bss_end+0x9cea0>
80050222:	6954                	flw	fa3,20(a0)
80050224:	656d                	lui	a0,0x1b
80050226:	515f 6575 6575      	0x65756575515f
8005022c:	0000                	unimp
8005022e:	0000                	unimp
80050230:	5442                	lw	s0,48(sp)
80050232:	7365                	lui	t1,0xffff9
80050234:	3174                	fld	fa3,224(a0)
80050236:	0000                	unimp
80050238:	5442                	lw	s0,48(sp)
8005023a:	7365                	lui	t1,0xffff9
8005023c:	3274                	fld	fa3,224(a2)
8005023e:	0000                	unimp
80050240:	6e756f43          	fmadd.q	ft10,fa0,ft7,fa3,unknown
80050244:	6974                	flw	fa3,84(a0)
80050246:	676e                	flw	fa4,216(sp)
80050248:	535f 6d65 315f      	0x315f6d65535f
8005024e:	0000                	unimp
80050250:	6e756f43          	fmadd.q	ft10,fa0,ft7,fa3,unknown
80050254:	6974                	flw	fa3,84(a0)
80050256:	676e                	flw	fa4,216(sp)
80050258:	535f 6d65 325f      	0x325f6d65535f
8005025e:	0000                	unimp
80050260:	31544e43          	fmadd.s	ft8,fs0,fs5,ft6,rmm
80050264:	0000                	unimp
80050266:	0000                	unimp
80050268:	32544e43          	fmadd.d	ft8,fs0,ft5,ft6,rmm
8005026c:	0000                	unimp
8005026e:	0000                	unimp
80050270:	6552                	flw	fa0,20(sp)
80050272:	73727563          	bgeu	tp,s7,8005099c <ucHeap+0x164>
80050276:	7669                	lui	a2,0xffffa
80050278:	5f65                	li	t5,-7
8005027a:	754d                	lui	a0,0xffff3
8005027c:	6574                	flw	fa3,76(a0)
8005027e:	0078                	addi	a4,sp,12
80050280:	6552                	flw	fa0,20(sp)
80050282:	00003163          	0x3163
80050286:	0000                	unimp
80050288:	6552                	flw	fa0,20(sp)
8005028a:	00003263          	0x3263
8005028e:	0000                	unimp
80050290:	6552                	flw	fa0,20(sp)
80050292:	00003363          	0x3363
	...

80050298 <__clz_tab>:
80050298:	0100                	addi	s0,sp,128
8005029a:	0202                	c.slli64	tp
8005029c:	03030303          	lb	t1,48(t1) # ffff9030 <__stack+0x7fe7f6bc>
800502a0:	0404                	addi	s1,sp,512
800502a2:	0404                	addi	s1,sp,512
800502a4:	0404                	addi	s1,sp,512
800502a6:	0404                	addi	s1,sp,512
800502a8:	0505                	addi	a0,a0,1
800502aa:	0505                	addi	a0,a0,1
800502ac:	0505                	addi	a0,a0,1
800502ae:	0505                	addi	a0,a0,1
800502b0:	0505                	addi	a0,a0,1
800502b2:	0505                	addi	a0,a0,1
800502b4:	0505                	addi	a0,a0,1
800502b6:	0505                	addi	a0,a0,1
800502b8:	0606                	slli	a2,a2,0x1
800502ba:	0606                	slli	a2,a2,0x1
800502bc:	0606                	slli	a2,a2,0x1
800502be:	0606                	slli	a2,a2,0x1
800502c0:	0606                	slli	a2,a2,0x1
800502c2:	0606                	slli	a2,a2,0x1
800502c4:	0606                	slli	a2,a2,0x1
800502c6:	0606                	slli	a2,a2,0x1
800502c8:	0606                	slli	a2,a2,0x1
800502ca:	0606                	slli	a2,a2,0x1
800502cc:	0606                	slli	a2,a2,0x1
800502ce:	0606                	slli	a2,a2,0x1
800502d0:	0606                	slli	a2,a2,0x1
800502d2:	0606                	slli	a2,a2,0x1
800502d4:	0606                	slli	a2,a2,0x1
800502d6:	0606                	slli	a2,a2,0x1
800502d8:	07070707          	0x7070707
800502dc:	07070707          	0x7070707
800502e0:	07070707          	0x7070707
800502e4:	07070707          	0x7070707
800502e8:	07070707          	0x7070707
800502ec:	07070707          	0x7070707
800502f0:	07070707          	0x7070707
800502f4:	07070707          	0x7070707
800502f8:	07070707          	0x7070707
800502fc:	07070707          	0x7070707
80050300:	07070707          	0x7070707
80050304:	07070707          	0x7070707
80050308:	07070707          	0x7070707
8005030c:	07070707          	0x7070707
80050310:	07070707          	0x7070707
80050314:	07070707          	0x7070707
80050318:	0808                	addi	a0,sp,16
8005031a:	0808                	addi	a0,sp,16
8005031c:	0808                	addi	a0,sp,16
8005031e:	0808                	addi	a0,sp,16
80050320:	0808                	addi	a0,sp,16
80050322:	0808                	addi	a0,sp,16
80050324:	0808                	addi	a0,sp,16
80050326:	0808                	addi	a0,sp,16
80050328:	0808                	addi	a0,sp,16
8005032a:	0808                	addi	a0,sp,16
8005032c:	0808                	addi	a0,sp,16
8005032e:	0808                	addi	a0,sp,16
80050330:	0808                	addi	a0,sp,16
80050332:	0808                	addi	a0,sp,16
80050334:	0808                	addi	a0,sp,16
80050336:	0808                	addi	a0,sp,16
80050338:	0808                	addi	a0,sp,16
8005033a:	0808                	addi	a0,sp,16
8005033c:	0808                	addi	a0,sp,16
8005033e:	0808                	addi	a0,sp,16
80050340:	0808                	addi	a0,sp,16
80050342:	0808                	addi	a0,sp,16
80050344:	0808                	addi	a0,sp,16
80050346:	0808                	addi	a0,sp,16
80050348:	0808                	addi	a0,sp,16
8005034a:	0808                	addi	a0,sp,16
8005034c:	0808                	addi	a0,sp,16
8005034e:	0808                	addi	a0,sp,16
80050350:	0808                	addi	a0,sp,16
80050352:	0808                	addi	a0,sp,16
80050354:	0808                	addi	a0,sp,16
80050356:	0808                	addi	a0,sp,16
80050358:	0808                	addi	a0,sp,16
8005035a:	0808                	addi	a0,sp,16
8005035c:	0808                	addi	a0,sp,16
8005035e:	0808                	addi	a0,sp,16
80050360:	0808                	addi	a0,sp,16
80050362:	0808                	addi	a0,sp,16
80050364:	0808                	addi	a0,sp,16
80050366:	0808                	addi	a0,sp,16
80050368:	0808                	addi	a0,sp,16
8005036a:	0808                	addi	a0,sp,16
8005036c:	0808                	addi	a0,sp,16
8005036e:	0808                	addi	a0,sp,16
80050370:	0808                	addi	a0,sp,16
80050372:	0808                	addi	a0,sp,16
80050374:	0808                	addi	a0,sp,16
80050376:	0808                	addi	a0,sp,16
80050378:	0808                	addi	a0,sp,16
8005037a:	0808                	addi	a0,sp,16
8005037c:	0808                	addi	a0,sp,16
8005037e:	0808                	addi	a0,sp,16
80050380:	0808                	addi	a0,sp,16
80050382:	0808                	addi	a0,sp,16
80050384:	0808                	addi	a0,sp,16
80050386:	0808                	addi	a0,sp,16
80050388:	0808                	addi	a0,sp,16
8005038a:	0808                	addi	a0,sp,16
8005038c:	0808                	addi	a0,sp,16
8005038e:	0808                	addi	a0,sp,16
80050390:	0808                	addi	a0,sp,16
80050392:	0808                	addi	a0,sp,16
80050394:	0808                	addi	a0,sp,16
80050396:	0808                	addi	a0,sp,16

Disassembly of section .eh_frame:

80050398 <.eh_frame>:
80050398:	0010                	0x10
8005039a:	0000                	unimp
8005039c:	0000                	unimp
8005039e:	0000                	unimp
800503a0:	00527a03          	0x527a03
800503a4:	7c01                	lui	s8,0xfffe0
800503a6:	0101                	addi	sp,sp,0
800503a8:	00020d1b          	0x20d1b
800503ac:	0048                	addi	a0,sp,4
800503ae:	0000                	unimp
800503b0:	0018                	0x18
800503b2:	0000                	unimp
800503b4:	9244                	0x9244
800503b6:	05d8fffb          	0x5d8fffb
800503ba:	0000                	unimp
800503bc:	4400                	lw	s0,8(s0)
800503be:	300e                	fld	ft0,224(sp)
800503c0:	886c                	0x886c
800503c2:	9702                	jalr	a4
800503c4:	8109                	srli	a0,a0,0x2
800503c6:	8901                	andi	a0,a0,0
800503c8:	93049203          	lh	tp,-1744(s1)
800503cc:	9405                	srai	s0,s0,0x21
800503ce:	9506                	add	a0,a0,ra
800503d0:	98089607          	0x98089607
800503d4:	990a                	add	s2,s2,sp
800503d6:	0270030b          	0x270030b
800503da:	c10a                	sw	sp,128(sp)
800503dc:	c844                	sw	s1,20(s0)
800503de:	c944                	sw	s1,20(a0)
800503e0:	d244                	sw	s1,36(a2)
800503e2:	d344                	sw	s1,36(a4)
800503e4:	d444                	sw	s1,44(s0)
800503e6:	d544                	sw	s1,44(a0)
800503e8:	d644                	sw	s1,44(a2)
800503ea:	d744                	sw	s1,44(a4)
800503ec:	d844                	sw	s1,52(s0)
800503ee:	d944                	sw	s1,52(a0)
800503f0:	0e44                	addi	s1,sp,788
800503f2:	4400                	lw	s0,8(s0)
800503f4:	0000000b          	0xb
800503f8:	004c                	addi	a1,sp,4
800503fa:	0000                	unimp
800503fc:	0064                	addi	s1,sp,12
800503fe:	0000                	unimp
80050400:	97d0                	0x97d0
80050402:	04f0fffb          	0x4f0fffb
80050406:	0000                	unimp
80050408:	4400                	lw	s0,8(s0)
8005040a:	300e                	fld	ft0,224(sp)
8005040c:	8870                	0x8870
8005040e:	8902                	jr	s2
80050410:	96049203          	lh	tp,-1696(s1)
80050414:	8108                	0x8108
80050416:	9301                	srli	a4,a4,0x20
80050418:	9405                	srai	s0,s0,0x21
8005041a:	9506                	add	a0,a0,ra
8005041c:	98099707          	0x98099707
80050420:	990a                	add	s2,s2,sp
80050422:	030c9a0b          	0x30c9a0b
80050426:	0120                	addi	s0,sp,136
80050428:	c10a                	sw	sp,128(sp)
8005042a:	c844                	sw	s1,20(s0)
8005042c:	c944                	sw	s1,20(a0)
8005042e:	d244                	sw	s1,36(a2)
80050430:	d344                	sw	s1,36(a4)
80050432:	d444                	sw	s1,44(s0)
80050434:	d544                	sw	s1,44(a0)
80050436:	d644                	sw	s1,44(a2)
80050438:	d744                	sw	s1,44(a4)
8005043a:	d844                	sw	s1,52(s0)
8005043c:	d944                	sw	s1,52(a0)
8005043e:	da44                	sw	s1,52(a2)
80050440:	0e44                	addi	s1,sp,788
80050442:	4400                	lw	s0,8(s0)
80050444:	0000000b          	0xb

Disassembly of section .sbss:

80050480 <pxCurrentTCB>:
	...

800504c0 <tohost>:
	...

80050500 <fromhost>:
	...

Disassembly of section .sdata:

80050508 <heapSTRUCT_SIZE>:
80050508:	0008                	0x8
	...

8005050c <PLIC_CLAIM_AND_RESPONSE_REGISTER>:
8005050c:	0004                	0x4
8005050e:	4020                	lw	s0,64(s0)

80050510 <mainDELAY_LOOP_COUNT>:
80050510:	2710                	fld	fa2,8(a4)
	...

80050514 <CNT_MAX>:
80050514:	0014                	0x14
	...

80050518 <uxCriticalNesting>:
80050518:	aaaa                	fsd	fa0,336(sp)
8005051a:	aaaa                	fsd	fa0,336(sp)

8005051c <mtime>:
8005051c:	bff8                	fsd	fa4,248(a5)
8005051e:	0200                	addi	s0,sp,256

80050520 <timecmp>:
80050520:	4000                	lw	s0,0(s0)
80050522:	0200                	addi	s0,sp,256

80050524 <xFreeBytesRemaining>:
80050524:	8ffc                	0x8ffc
80050526:	0001                	nop

80050528 <UART_TX_ADDR>:
80050528:	0000                	unimp
8005052a:	8200                	0x8200

8005052c <UART_TX_CTRL>:
8005052c:	0004                	0x4
8005052e:	8200                	0x8200

Disassembly of section .data:

80050530 <irq_handler_table>:
80050530:	7ca0                	flw	fs0,120(s1)
80050532:	8000                	0x8000
80050534:	7ca0                	flw	fs0,120(s1)
80050536:	8000                	0x8000
80050538:	7ca0                	flw	fs0,120(s1)
8005053a:	8000                	0x8000
8005053c:	7ca0                	flw	fs0,120(s1)
8005053e:	8000                	0x8000
80050540:	7ca0                	flw	fs0,120(s1)
80050542:	8000                	0x8000
80050544:	7ca0                	flw	fs0,120(s1)
80050546:	8000                	0x8000
80050548:	7ca0                	flw	fs0,120(s1)
8005054a:	8000                	0x8000
8005054c:	7ca0                	flw	fs0,120(s1)
8005054e:	8000                	0x8000
80050550:	7ca0                	flw	fs0,120(s1)
80050552:	8000                	0x8000
80050554:	7ca0                	flw	fs0,120(s1)
80050556:	8000                	0x8000
80050558:	7ca0                	flw	fs0,120(s1)
8005055a:	8000                	0x8000
8005055c:	7ca0                	flw	fs0,120(s1)
8005055e:	8000                	0x8000
80050560:	7ca0                	flw	fs0,120(s1)
80050562:	8000                	0x8000
80050564:	7ca0                	flw	fs0,120(s1)
80050566:	8000                	0x8000
80050568:	7ca0                	flw	fs0,120(s1)
8005056a:	8000                	0x8000
8005056c:	7ca0                	flw	fs0,120(s1)
8005056e:	8000                	0x8000
80050570:	7ca0                	flw	fs0,120(s1)
80050572:	8000                	0x8000
80050574:	7ca0                	flw	fs0,120(s1)
80050576:	8000                	0x8000
80050578:	7ca0                	flw	fs0,120(s1)
8005057a:	8000                	0x8000
8005057c:	7ca0                	flw	fs0,120(s1)
8005057e:	8000                	0x8000
80050580:	7ca0                	flw	fs0,120(s1)
80050582:	8000                	0x8000
80050584:	7ca0                	flw	fs0,120(s1)
80050586:	8000                	0x8000
80050588:	7ca0                	flw	fs0,120(s1)
8005058a:	8000                	0x8000
8005058c:	7ca0                	flw	fs0,120(s1)
8005058e:	8000                	0x8000
80050590:	7ca0                	flw	fs0,120(s1)
80050592:	8000                	0x8000
80050594:	7ca0                	flw	fs0,120(s1)
80050596:	8000                	0x8000
80050598:	7ca0                	flw	fs0,120(s1)
8005059a:	8000                	0x8000
8005059c:	7ca0                	flw	fs0,120(s1)
8005059e:	8000                	0x8000
800505a0:	7ca0                	flw	fs0,120(s1)
800505a2:	8000                	0x8000
800505a4:	7ca0                	flw	fs0,120(s1)
800505a6:	8000                	0x8000
800505a8:	7ca0                	flw	fs0,120(s1)
800505aa:	8000                	0x8000
800505ac:	7ca0                	flw	fs0,120(s1)
800505ae:	8000                	0x8000
800505b0:	7ca0                	flw	fs0,120(s1)
800505b2:	8000                	0x8000
800505b4:	7ca0                	flw	fs0,120(s1)
800505b6:	8000                	0x8000
800505b8:	7ca0                	flw	fs0,120(s1)
800505ba:	8000                	0x8000
800505bc:	7ca0                	flw	fs0,120(s1)
800505be:	8000                	0x8000
800505c0:	7ca0                	flw	fs0,120(s1)
800505c2:	8000                	0x8000
800505c4:	7ca0                	flw	fs0,120(s1)
800505c6:	8000                	0x8000
800505c8:	7ca0                	flw	fs0,120(s1)
800505ca:	8000                	0x8000
800505cc:	7ca0                	flw	fs0,120(s1)
800505ce:	8000                	0x8000
800505d0:	7ca0                	flw	fs0,120(s1)
800505d2:	8000                	0x8000
800505d4:	7ca0                	flw	fs0,120(s1)
800505d6:	8000                	0x8000
800505d8:	7ca0                	flw	fs0,120(s1)
800505da:	8000                	0x8000
800505dc:	7ca0                	flw	fs0,120(s1)
800505de:	8000                	0x8000
800505e0:	7ca0                	flw	fs0,120(s1)
800505e2:	8000                	0x8000
800505e4:	7ca0                	flw	fs0,120(s1)
800505e6:	8000                	0x8000
800505e8:	7ca0                	flw	fs0,120(s1)
800505ea:	8000                	0x8000
800505ec:	7ca0                	flw	fs0,120(s1)
800505ee:	8000                	0x8000
800505f0:	7ca0                	flw	fs0,120(s1)
800505f2:	8000                	0x8000
800505f4:	7ca0                	flw	fs0,120(s1)
800505f6:	8000                	0x8000
800505f8:	7ca0                	flw	fs0,120(s1)
800505fa:	8000                	0x8000
800505fc:	7ca0                	flw	fs0,120(s1)
800505fe:	8000                	0x8000
80050600:	7ca0                	flw	fs0,120(s1)
80050602:	8000                	0x8000
80050604:	7ca0                	flw	fs0,120(s1)
80050606:	8000                	0x8000
80050608:	7ca0                	flw	fs0,120(s1)
8005060a:	8000                	0x8000
8005060c:	7ca0                	flw	fs0,120(s1)
8005060e:	8000                	0x8000
80050610:	7ca0                	flw	fs0,120(s1)
80050612:	8000                	0x8000
80050614:	7ca0                	flw	fs0,120(s1)
80050616:	8000                	0x8000
80050618:	7ca0                	flw	fs0,120(s1)
8005061a:	8000                	0x8000
8005061c:	7ca0                	flw	fs0,120(s1)
8005061e:	8000                	0x8000
80050620:	7ca0                	flw	fs0,120(s1)
80050622:	8000                	0x8000
80050624:	7ca0                	flw	fs0,120(s1)
80050626:	8000                	0x8000
80050628:	7ca0                	flw	fs0,120(s1)
8005062a:	8000                	0x8000
8005062c:	7ca0                	flw	fs0,120(s1)
8005062e:	8000                	0x8000

Disassembly of section .bss:

80050640 <xStartContext>:
	...

800506bc <xQueueRegistry>:
	...

800506fc <pxReadyTasksLists>:
	...

80050760 <xDelayedTaskList1>:
	...

80050774 <xDelayedTaskList2>:
	...

80050788 <pxDelayedTaskList>:
80050788:	0000                	unimp
	...

8005078c <pxOverflowDelayedTaskList>:
8005078c:	0000                	unimp
	...

80050790 <xPendingReadyList>:
	...

800507a4 <xTasksWaitingTermination>:
	...

800507b8 <uxDeletedTasksWaitingCleanUp>:
800507b8:	0000                	unimp
	...

800507bc <xSuspendedTaskList>:
	...

800507d0 <uxCurrentNumberOfTasks>:
800507d0:	0000                	unimp
	...

800507d4 <xTickCount>:
800507d4:	0000                	unimp
	...

800507d8 <uxTopReadyPriority>:
800507d8:	0000                	unimp
	...

800507dc <xSchedulerRunning>:
800507dc:	0000                	unimp
	...

800507e0 <uxPendedTicks>:
800507e0:	0000                	unimp
	...

800507e4 <xYieldPending>:
800507e4:	0000                	unimp
	...

800507e8 <xNumOfOverflows>:
800507e8:	0000                	unimp
	...

800507ec <uxTaskNumber>:
800507ec:	0000                	unimp
	...

800507f0 <xNextTaskUnblockTime>:
800507f0:	0000                	unimp
	...

800507f4 <xIdleTaskHandle>:
800507f4:	0000                	unimp
	...

800507f8 <uxSchedulerSuspended>:
800507f8:	0000                	unimp
	...

800507fc <xActiveTimerList1>:
	...

80050810 <xActiveTimerList2>:
	...

80050824 <pxCurrentTimerList>:
80050824:	0000                	unimp
	...

80050828 <pxOverflowTimerList>:
80050828:	0000                	unimp
	...

8005082c <xTimerQueue>:
8005082c:	0000                	unimp
	...

80050830 <xTimerTaskHandle>:
80050830:	0000                	unimp
	...

80050834 <xLastTime.0>:
80050834:	0000                	unimp
	...

80050838 <ucHeap>:
	...

80069838 <xStart>:
	...

80069840 <xEnd>:
	...

80069848 <xHeapHasBeenInitialised.0>:
	...

80069880 <buflen.2>:
	...

800698c0 <buf.1>:
	...

80069900 <xTestQueue>:
80069900:	0000                	unimp
	...

80069904 <xSecondary>:
80069904:	0000                	unimp
	...

80069908 <xPrimaryCycles>:
80069908:	0000                	unimp
	...

8006990c <xSecondaryCycles>:
8006990c:	0000                	unimp
	...

80069910 <xErrorOccurred>:
80069910:	0000                	unimp
	...

80069914 <xRunIndicator>:
80069914:	0000                	unimp
	...

80069918 <xLastPrimaryCycleCount.1>:
80069918:	0000                	unimp
	...

8006991c <xLastSecondaryCycleCount.0>:
8006991c:	0000                	unimp
	...

80069920 <xErrorDetected>:
80069920:	0000                	unimp
	...

80069924 <xParameters>:
	...

8006993c <uxLastCount0.1>:
8006993c:	0000                	unimp
	...

80069940 <uxLastCount1.0>:
80069940:	0000                	unimp
	...

80069944 <xMutex>:
80069944:	0000                	unimp
	...

80069948 <xErrorOccurred>:
80069948:	0000                	unimp
	...

8006994c <xControllingIsSuspended>:
8006994c:	0000                	unimp
	...

80069950 <xBlockingIsSuspended>:
80069950:	0000                	unimp
	...

80069954 <uxControllingCycles>:
80069954:	0000                	unimp
	...

80069958 <uxBlockingCycles>:
80069958:	0000                	unimp
	...

8006995c <uxPollingCycles>:
8006995c:	0000                	unimp
	...

80069960 <xControllingTaskHandle>:
80069960:	0000                	unimp
	...

80069964 <xBlockingTaskHandle>:
80069964:	0000                	unimp
	...

80069968 <uxLastControllingCycles.2>:
80069968:	0000                	unimp
	...

8006996c <uxLastBlockingCycles.1>:
8006996c:	0000                	unimp
	...

80069970 <uxLastPollingCycles.0>:
80069970:	0000                	unimp
	...

Disassembly of section .heap:

80069974 <_heap>:
	...

Disassembly of section .stack:

80169974 <_stack_end>:
	...

Disassembly of section .riscv.attributes:

00000000 <.riscv.attributes>:
   0:	1f41                	addi	t5,t5,-16
   2:	0000                	unimp
   4:	7200                	flw	fs0,32(a2)
   6:	7369                	lui	t1,0xffffa
   8:	01007663          	bgeu	zero,a6,14 <_STACK_SIZE-0xffec>
   c:	0015                	c.nop	5
   e:	0000                	unimp
  10:	1004                	addi	s1,sp,32
  12:	7205                	lui	tp,0xfffe1
  14:	3376                	fld	ft6,376(sp)
  16:	6932                	flw	fs2,12(sp)
  18:	7032                	flw	ft0,44(sp)
  1a:	0030                	addi	a2,sp,8
  1c:	0108                	addi	a0,sp,128
  1e:	0b0a                	slli	s6,s6,0x2

Disassembly of section .comment:

00000000 <.comment>:
   0:	3a434347          	fmsub.d	ft6,ft6,ft4,ft7,rmm
   4:	2820                	fld	fs0,80(s0)
   6:	29554e47          	fmsub.s	ft8,fa0,fs5,ft5,rmm
   a:	3120                	fld	fs0,96(a0)
   c:	2e30                	fld	fa2,88(a2)
   e:	2e32                	fld	ft8,264(sp)
  10:	0030                	addi	a2,sp,8

Disassembly of section .debug_info:

00000000 <.debug_info>:
       0:	09a2                	slli	s3,s3,0x8
       2:	0000                	unimp
       4:	0004                	0x4
       6:	0000                	unimp
       8:	0000                	unimp
       a:	0104                	addi	s1,sp,128
       c:	01c4                	addi	s1,sp,196
       e:	0000                	unimp
      10:	d50c                	sw	a1,40(a0)
      12:	0000                	unimp
      14:	1400                	addi	s0,sp,544
      16:	0001                	nop
      18:	f800                	fsw	fs0,48(s0)
      1a:	0095                	addi	ra,ra,5
      1c:	d880                	sw	s0,48(s1)
      1e:	0005                	c.nop	1
      20:	0000                	unimp
      22:	0000                	unimp
      24:	0200                	addi	s0,sp,256
      26:	0708                	addi	a0,sp,896
      28:	0061                	c.nop	24
      2a:	0000                	unimp
      2c:	69050403          	lb	s0,1680(a0) # ffff3690 <__stack+0x7fe79d1c>
      30:	746e                	flw	fs0,248(sp)
      32:	0200                	addi	s0,sp,256
      34:	0704                	addi	s1,sp,896
      36:	0000006b          	0x6b
      3a:	0802                	c.slli64	a6
      3c:	5305                	li	t1,-31
      3e:	0000                	unimp
      40:	0200                	addi	s0,sp,256
      42:	0410                	addi	a2,sp,512
      44:	00000197          	auipc	gp,0x0
      48:	0102                	c.slli64	sp
      4a:	8906                	mv	s2,ra
      4c:	0000                	unimp
      4e:	0200                	addi	s0,sp,256
      50:	0801                	addi	a6,a6,0
      52:	00000087          	0x87
      56:	0202                	c.slli64	tp
      58:	2905                	jal	488 <_STACK_SIZE-0xfb78>
      5a:	0000                	unimp
      5c:	0200                	addi	s0,sp,256
      5e:	0702                	c.slli64	a4
      60:	00ba                	slli	ra,ra,0xe
      62:	0000                	unimp
      64:	0402                	c.slli64	s0
      66:	5805                	li	a6,-31
      68:	0000                	unimp
      6a:	0200                	addi	s0,sp,256
      6c:	0704                	addi	s1,sp,896
      6e:	0066                	c.slli	zero,0x19
      70:	0000                	unimp
      72:	0102                	c.slli64	sp
      74:	9008                	0x9008
      76:	0000                	unimp
      78:	0400                	addi	s0,sp,512
      7a:	00a9                	addi	ra,ra,10
      7c:	0000                	unimp
      7e:	7b02                	flw	fs6,32(sp)
      80:	4f16                	lw	t5,68(sp)
      82:	0000                	unimp
      84:	0500                	addi	s0,sp,640
      86:	0079                	c.nop	30
      88:	0000                	unimp
      8a:	a404                	fsd	fs1,8(s0)
      8c:	0001                	nop
      8e:	0200                	addi	s0,sp,256
      90:	0f80                	addi	s0,sp,976
      92:	002c                	addi	a1,sp,8
      94:	0000                	unimp
      96:	a304                	fsd	fs1,0(a4)
      98:	0001                	nop
      9a:	0200                	addi	s0,sp,256
      9c:	1681                	addi	a3,a3,-32
      9e:	00000033          	add	zero,zero,zero
      a2:	ce04                	sw	s1,24(a2)
      a4:	0000                	unimp
      a6:	0200                	addi	s0,sp,256
      a8:	0f84                	addi	s1,sp,976
      aa:	003a                	c.slli	zero,0xe
      ac:	0000                	unimp
      ae:	cd04                	sw	s1,24(a0)
      b0:	0000                	unimp
      b2:	0200                	addi	s0,sp,256
      b4:	1685                	addi	a3,a3,-31
      b6:	0025                	c.nop	9
      b8:	0000                	unimp
      ba:	0402                	c.slli64	s0
      bc:	1a04                	addi	s1,sp,304
      be:	0000                	unimp
      c0:	0200                	addi	s0,sp,256
      c2:	0308                	addi	a0,sp,384
      c4:	0012                	c.slli	zero,0x4
      c6:	0000                	unimp
      c8:	0802                	c.slli64	a6
      ca:	9c04                	0x9c04
      cc:	0001                	nop
      ce:	0200                	addi	s0,sp,256
      d0:	0310                	addi	a2,sp,384
      d2:	016e                	slli	sp,sp,0x1b
      d4:	0000                	unimp
      d6:	2002                	fld	ft0,0(sp)
      d8:	00018f03          	lb	t5,0(gp) # 44 <_STACK_SIZE-0xffbc>
      dc:	0600                	addi	s0,sp,768
      de:	00b1                	addi	ra,ra,12
      e0:	0000                	unimp
      e2:	0208                	addi	a0,sp,256
      e4:	01ed                	addi	gp,gp,27
      e6:	080a                	slli	a6,a6,0x2
      e8:	0001                	nop
      ea:	0700                	addi	s0,sp,896
      ec:	6f6c                	flw	fa1,92(a4)
      ee:	ed020077          	0xed020077
      f2:	1a01                	addi	s4,s4,-32
      f4:	008a                	slli	ra,ra,0x2
      f6:	0000                	unimp
      f8:	0800                	addi	s0,sp,16
      fa:	0078                	addi	a4,sp,12
      fc:	0000                	unimp
      fe:	ed02                	fsw	ft0,152(sp)
     100:	1f01                	addi	t5,t5,-32
     102:	008a                	slli	ra,ra,0x2
     104:	0000                	unimp
     106:	0004                	0x4
     108:	0809                	addi	a6,a6,2
     10a:	f402                	fsw	ft0,40(sp)
     10c:	0901                	addi	s2,s2,0
     10e:	012a                	slli	sp,sp,0xa
     110:	0000                	unimp
     112:	730a                	flw	ft6,160(sp)
     114:	0200                	addi	s0,sp,256
     116:	01f6                	slli	gp,gp,0x1d
     118:	0000dd13          	srli	s10,ra,0x0
     11c:	0a00                	addi	s0,sp,272
     11e:	6c6c                	flw	fa1,92(s0)
     120:	0200                	addi	s0,sp,256
     122:	a20a01f7          	0xa20a01f7
     126:	0000                	unimp
     128:	0000                	unimp
     12a:	0000000b          	0xb
     12e:	0200                	addi	s0,sp,256
     130:	01f8                	addi	a4,sp,204
     132:	00010803          	lb	a6,0(sp)
     136:	0500                	addi	s0,sp,640
     138:	012a                	slli	sp,sp,0xa
     13a:	0000                	unimp
     13c:	850c                	0x850c
     13e:	0000                	unimp
     140:	4c00                	lw	s0,24(s0)
     142:	0001                	nop
     144:	0d00                	addi	s0,sp,656
     146:	00000033          	add	zero,zero,zero
     14a:	00ff                	0xff
     14c:	3c05                	jal	fffffb7c <__stack+0x7fe86208>
     14e:	0001                	nop
     150:	0e00                	addi	s0,sp,784
     152:	007d                	c.nop	31
     154:	0000                	unimp
     156:	0202                	c.slli64	tp
     158:	1602                	slli	a2,a2,0x20
     15a:	014c                	addi	a1,sp,132
     15c:	0000                	unimp
     15e:	0000080f          	0x80f
     162:	0100                	addi	s0,sp,128
     164:	0526                	slli	a0,a0,0x9
     166:	ae01                	j	476 <_STACK_SIZE-0xfb8a>
     168:	0000                	unimp
     16a:	f800                	fsw	fs0,48(s0)
     16c:	0095                	addi	ra,ra,5
     16e:	d880                	sw	s0,48(s1)
     170:	0005                	c.nop	1
     172:	0100                	addi	s0,sp,128
     174:	979c                	0x979c
     176:	0005                	c.nop	1
     178:	1000                	addi	s0,sp,32
     17a:	006e                	c.slli	zero,0x1b
     17c:	2601                	jal	47c <_STACK_SIZE-0xfb84>
     17e:	1405                	addi	s0,s0,-31
     180:	00ae                	slli	ra,ra,0xb
     182:	0000                	unimp
     184:	0000                	unimp
     186:	0000                	unimp
     188:	6410                	flw	fa2,8(s0)
     18a:	0100                	addi	s0,sp,128
     18c:	0526                	slli	a0,a0,0x9
     18e:	ae1f 0000 7800      	0x78000000ae1f
     194:	0000                	unimp
     196:	1100                	addi	s0,sp,160
     198:	00000597          	auipc	a1,0x0
     19c:	95f8                	0x95f8
     19e:	8000                	0x8000
     1a0:	0000                	unimp
     1a2:	0000                	unimp
     1a4:	2801                	jal	1b4 <_STACK_SIZE-0xfe4c>
     1a6:	0a05                	addi	s4,s4,1
     1a8:	bf12                	fsd	ft4,440(sp)
     1aa:	0005                	c.nop	1
     1ac:	1000                	addi	s0,sp,32
     1ae:	0001                	nop
     1b0:	1200                	addi	s0,sp,288
     1b2:	05b4                	addi	a3,sp,712
     1b4:	0000                	unimp
     1b6:	0130                	addi	a2,sp,136
     1b8:	0000                	unimp
     1ba:	a912                	fsd	ft4,144(sp)
     1bc:	0005                	c.nop	1
     1be:	9800                	0x9800
     1c0:	0001                	nop
     1c2:	1300                	addi	s0,sp,416
     1c4:	0000                	unimp
     1c6:	0000                	unimp
     1c8:	cb14                	sw	a3,16(a4)
     1ca:	0005                	c.nop	1
     1cc:	1400                	addi	s0,sp,544
     1ce:	000005d7          	0x5d7
     1d2:	e314                	fsw	fa3,0(a4)
     1d4:	0005                	c.nop	1
     1d6:	1500                	addi	s0,sp,672
     1d8:	000005ef          	jal	a1,1d8 <_STACK_SIZE-0xfe28>
     1dc:	0200                	addi	s0,sp,256
     1de:	0000                	unimp
     1e0:	fb15                	bnez	a4,114 <_STACK_SIZE-0xfeec>
     1e2:	0005                	c.nop	1
     1e4:	9100                	0x9100
     1e6:	0002                	c.slli64	zero
     1e8:	1500                	addi	s0,sp,672
     1ea:	00000607          	0x607
     1ee:	02e6                	slli	t0,t0,0x19
     1f0:	0000                	unimp
     1f2:	1315                	addi	t1,t1,-27
     1f4:	0006                	c.slli	zero,0x1
     1f6:	5600                	lw	s0,40(a2)
     1f8:	15000003          	lb	zero,336(zero) # 150 <_STACK_SIZE-0xfeb0>
     1fc:	061f 0000 03b6      	0x3b60000061f
     202:	0000                	unimp
     204:	2b15                	jal	738 <_STACK_SIZE-0xf8c8>
     206:	0006                	c.slli	zero,0x1
     208:	df00                	sw	s0,56(a4)
     20a:	15000003          	lb	zero,336(zero) # 150 <_STACK_SIZE-0xfeb0>
     20e:	00000637          	lui	a2,0x0
     212:	03fd                	addi	t2,t2,31
     214:	0000                	unimp
     216:	4315                	li	t1,5
     218:	0006                	c.slli	zero,0x1
     21a:	2700                	fld	fs0,8(a4)
     21c:	0004                	0x4
     21e:	1500                	addi	s0,sp,672
     220:	064e                	slli	a2,a2,0x13
     222:	0000                	unimp
     224:	0445                	addi	s0,s0,17
     226:	0000                	unimp
     228:	5a14                	lw	a3,48(a2)
     22a:	0006                	c.slli	zero,0x1
     22c:	1600                	addi	s0,sp,800
     22e:	0666                	slli	a2,a2,0x19
     230:	0000                	unimp
     232:	0028                	addi	a0,sp,8
     234:	0000                	unimp
     236:	024d                	addi	tp,tp,19
     238:	0000                	unimp
     23a:	6b15                	lui	s6,0x5
     23c:	0006                	c.slli	zero,0x1
     23e:	8400                	0x8400
     240:	0004                	0x4
     242:	1500                	addi	s0,sp,672
     244:	0678                	addi	a4,sp,780
     246:	0000                	unimp
     248:	04c0                	addi	s0,sp,580
     24a:	0000                	unimp
     24c:	1700                	addi	s0,sp,928
     24e:	0686                	slli	a3,a3,0x1
     250:	0000                	unimp
     252:	9690                	0x9690
     254:	8000                	0x8000
     256:	00c8                	addi	a0,sp,68
     258:	0000                	unimp
     25a:	02d4                	addi	a3,sp,324
     25c:	0000                	unimp
     25e:	8b15                	andi	a4,a4,5
     260:	0006                	c.slli	zero,0x1
     262:	d300                	sw	s0,32(a4)
     264:	0004                	0x4
     266:	1500                	addi	s0,sp,672
     268:	0698                	addi	a4,sp,832
     26a:	0000                	unimp
     26c:	04e6                	slli	s1,s1,0x19
     26e:	0000                	unimp
     270:	a515                	j	894 <_STACK_SIZE-0xf76c>
     272:	0006                	c.slli	zero,0x1
     274:	f900                	fsw	fs0,48(a0)
     276:	0004                	0x4
     278:	1500                	addi	s0,sp,672
     27a:	06b2                	slli	a3,a3,0xc
     27c:	0000                	unimp
     27e:	00000517          	auipc	a0,0x0
     282:	bf15                	j	1b6 <_STACK_SIZE-0xfe4a>
     284:	0006                	c.slli	zero,0x1
     286:	3500                	fld	fs0,40(a0)
     288:	0005                	c.nop	1
     28a:	1500                	addi	s0,sp,672
     28c:	06cc                	addi	a1,sp,836
     28e:	0000                	unimp
     290:	0000057b          	0x57b
     294:	d915                	beqz	a0,1c8 <_STACK_SIZE-0xfe38>
     296:	0006                	c.slli	zero,0x1
     298:	9900                	0x9900
     29a:	0005                	c.nop	1
     29c:	1800                	addi	s0,sp,48
     29e:	96a0                	0x96a0
     2a0:	8000                	0x8000
     2a2:	098a                	slli	s3,s3,0x2
     2a4:	0000                	unimp
     2a6:	b418                	fsd	fa4,40(s0)
     2a8:	0096                	slli	ra,ra,0x5
     2aa:	9380                	0x9380
     2ac:	0009                	c.nop	2
     2ae:	1800                	addi	s0,sp,48
     2b0:	96c8                	0x96c8
     2b2:	8000                	0x8000
     2b4:	099c                	addi	a5,sp,208
     2b6:	0000                	unimp
     2b8:	0418                	addi	a4,sp,512
     2ba:	8a800097          	auipc	ra,0x8a800
     2be:	0009                	c.nop	2
     2c0:	1800                	addi	s0,sp,48
     2c2:	9714                	0x9714
     2c4:	8000                	0x8000
     2c6:	00000993          	li	s3,0
     2ca:	3018                	fld	fa4,32(s0)
     2cc:	9c800097          	auipc	ra,0x9c800
     2d0:	0009                	c.nop	2
     2d2:	0000                	unimp
     2d4:	fc16                	fsw	ft5,56(sp)
     2d6:	48000007          	0x48000007
     2da:	0000                	unimp
     2dc:	4100                	lw	s0,0(a0)
     2de:	0004                	0x4
     2e0:	1500                	addi	s0,sp,672
     2e2:	07fd                	addi	a5,a5,31
     2e4:	0000                	unimp
     2e6:	000005b7          	lui	a1,0x0
     2ea:	0915                	addi	s2,s2,5
     2ec:	0008                	0x8
     2ee:	ca00                	sw	s0,16(a2)
     2f0:	0005                	c.nop	1
     2f2:	1600                	addi	s0,sp,800
     2f4:	0815                	addi	a6,a6,5
     2f6:	0000                	unimp
     2f8:	0060                	addi	s0,sp,12
     2fa:	0000                	unimp
     2fc:	0376                	slli	t1,t1,0x1d
     2fe:	0000                	unimp
     300:	1a15                	addi	s4,s4,-27
     302:	0008                	0x8
     304:	0b00                	addi	s0,sp,400
     306:	0006                	c.slli	zero,0x1
     308:	1500                	addi	s0,sp,672
     30a:	00000827          	0x827
     30e:	062d                	addi	a2,a2,11
     310:	0000                	unimp
     312:	3415                	jal	fffffd36 <__stack+0x7fe863c2>
     314:	0008                	0x8
     316:	4000                	lw	s0,0(s0)
     318:	0006                	c.slli	zero,0x1
     31a:	1500                	addi	s0,sp,672
     31c:	0841                	addi	a6,a6,16
     31e:	0000                	unimp
     320:	0674                	addi	a3,sp,780
     322:	0000                	unimp
     324:	4e15                	li	t3,5
     326:	0008                	0x8
     328:	a800                	fsd	fs0,16(s0)
     32a:	0006                	c.slli	zero,0x1
     32c:	1500                	addi	s0,sp,672
     32e:	0000085b          	0x85b
     332:	06ee                	slli	a3,a3,0x1b
     334:	0000                	unimp
     336:	6815                	lui	a6,0x5
     338:	0008                	0x8
     33a:	3600                	fld	fs0,40(a2)
     33c:	18000007          	0x18000007
     340:	9a5c                	0x9a5c
     342:	8000                	0x8000
     344:	098a                	slli	s3,s3,0x2
     346:	0000                	unimp
     348:	7018                	flw	fa4,32(s0)
     34a:	009a                	slli	ra,ra,0x6
     34c:	9380                	0x9380
     34e:	0009                	c.nop	2
     350:	1800                	addi	s0,sp,48
     352:	9a84                	0x9a84
     354:	8000                	0x8000
     356:	099c                	addi	a5,sp,208
     358:	0000                	unimp
     35a:	c018                	sw	a4,0(s0)
     35c:	009a                	slli	ra,ra,0x6
     35e:	8a80                	0x8a80
     360:	0009                	c.nop	2
     362:	1800                	addi	s0,sp,48
     364:	9ad0                	0x9ad0
     366:	8000                	0x8000
     368:	00000993          	li	s3,0
     36c:	ec18                	fsw	fa4,24(s0)
     36e:	009a                	slli	ra,ra,0x6
     370:	9c80                	0x9c80
     372:	0009                	c.nop	2
     374:	0000                	unimp
     376:	7619                	lui	a2,0xfffe6
     378:	0008                	0x8
     37a:	8800                	0x8800
     37c:	0000                	unimp
     37e:	1500                	addi	s0,sp,672
     380:	0000087b          	0x87b
     384:	0754                	addi	a3,sp,900
     386:	0000                	unimp
     388:	8815                	andi	s0,s0,5
     38a:	0008                	0x8
     38c:	7200                	flw	fs0,32(a2)
     38e:	15000007          	0x15000007
     392:	0895                	addi	a7,a7,5
     394:	0000                	unimp
     396:	07ad                	addi	a5,a5,11
     398:	0000                	unimp
     39a:	a215                	j	4be <_STACK_SIZE-0xfb42>
     39c:	0008                	0x8
     39e:	c000                	sw	s0,0(s0)
     3a0:	15000007          	0x15000007
     3a4:	000008af          	0x8af
     3a8:	07de                	slli	a5,a5,0x17
     3aa:	0000                	unimp
     3ac:	bc15                	j	fffffde0 <__stack+0x7fe8646c>
     3ae:	0008                	0x8
     3b0:	3100                	fld	fs0,32(a0)
     3b2:	0008                	0x8
     3b4:	1500                	addi	s0,sp,672
     3b6:	08c9                	addi	a7,a7,18
     3b8:	0000                	unimp
     3ba:	0844                	addi	s1,sp,20
     3bc:	0000                	unimp
     3be:	d615                	beqz	a2,2ea <_STACK_SIZE-0xfd16>
     3c0:	0008                	0x8
     3c2:	5700                	lw	s0,40(a4)
     3c4:	0008                	0x8
     3c6:	1700                	addi	s0,sp,928
     3c8:	000008e3          	beqz	zero,bd8 <_STACK_SIZE-0xf428>
     3cc:	9b34                	0x9b34
     3ce:	8000                	0x8000
     3d0:	0010                	0x10
     3d2:	0000                	unimp
     3d4:	000003e7          	jalr	t2,zero # 0 <_STACK_SIZE-0x10000>
     3d8:	e81a                	fsw	ft6,16(sp)
     3da:	0008                	0x8
     3dc:	0100                	addi	s0,sp,128
     3de:	1a5a                	slli	s4,s4,0x36
     3e0:	08f5                	addi	a7,a7,29
     3e2:	0000                	unimp
     3e4:	5b01                	li	s6,-32
     3e6:	1700                	addi	s0,sp,928
     3e8:	00000903          	lb	s2,0(zero) # 0 <_STACK_SIZE-0x10000>
     3ec:	9b44                	0x9b44
     3ee:	8000                	0x8000
     3f0:	0010                	0x10
     3f2:	0000                	unimp
     3f4:	00000407          	0x407
     3f8:	081a                	slli	a6,a6,0x6
     3fa:	0009                	c.nop	2
     3fc:	0100                	addi	s0,sp,128
     3fe:	1a5a                	slli	s4,s4,0x36
     400:	0915                	addi	s2,s2,5
     402:	0000                	unimp
     404:	5b01                	li	s6,-32
     406:	1700                	addi	s0,sp,928
     408:	00000923          	sb	zero,18(zero) # 12 <_STACK_SIZE-0xffee>
     40c:	9b54                	0x9b54
     40e:	8000                	0x8000
     410:	0010                	0x10
     412:	0000                	unimp
     414:	00000427          	0x427
     418:	281a                	fld	fa6,384(sp)
     41a:	0009                	c.nop	2
     41c:	0100                	addi	s0,sp,128
     41e:	1a5a                	slli	s4,s4,0x36
     420:	0935                	addi	s2,s2,13
     422:	0000                	unimp
     424:	5b01                	li	s6,-32
     426:	1900                	addi	s0,sp,176
     428:	00000943          	fmadd.s	fs2,ft0,ft0,ft0,rne
     42c:	00b8                	addi	a4,sp,72
     42e:	0000                	unimp
     430:	441a                	lw	s0,132(sp)
     432:	0009                	c.nop	2
     434:	0100                	addi	s0,sp,128
     436:	1a5a                	slli	s4,s4,0x36
     438:	0951                	addi	s2,s2,20
     43a:	0000                	unimp
     43c:	5b01                	li	s6,-32
     43e:	0000                	unimp
     440:	1600                	addi	s0,sp,800
     442:	000006e7          	jalr	a3,zero # 0 <_STACK_SIZE-0x10000>
     446:	00d0                	addi	a2,sp,68
     448:	0000                	unimp
     44a:	0461                	addi	s0,s0,24
     44c:	0000                	unimp
     44e:	ec15                	bnez	s0,48a <_STACK_SIZE-0xfb76>
     450:	0006                	c.slli	zero,0x1
     452:	6a00                	flw	fs0,16(a2)
     454:	0008                	0x8
     456:	1500                	addi	s0,sp,672
     458:	06f9                	addi	a3,a3,30
     45a:	0000                	unimp
     45c:	0890                	addi	a2,sp,80
     45e:	0000                	unimp
     460:	1700                	addi	s0,sp,928
     462:	0768                	addi	a0,sp,908
     464:	0000                	unimp
     466:	97c4                	0x97c4
     468:	8000                	0x8000
     46a:	00c8                	addi	a0,sp,68
     46c:	0000                	unimp
     46e:	04e8                	addi	a0,sp,588
     470:	0000                	unimp
     472:	6d15                	lui	s10,0x5
     474:	ae000007          	0xae000007
     478:	0008                	0x8
     47a:	1500                	addi	s0,sp,672
     47c:	077a                	slli	a4,a4,0x1e
     47e:	0000                	unimp
     480:	08c1                	addi	a7,a7,16
     482:	0000                	unimp
     484:	8715                	srai	a4,a4,0x5
     486:	d4000007          	0xd4000007
     48a:	0008                	0x8
     48c:	1500                	addi	s0,sp,672
     48e:	0794                	addi	a3,sp,960
     490:	0000                	unimp
     492:	08f2                	slli	a7,a7,0x1c
     494:	0000                	unimp
     496:	a115                	j	8ba <_STACK_SIZE-0xf746>
     498:	10000007          	0x10000007
     49c:	0009                	c.nop	2
     49e:	1500                	addi	s0,sp,672
     4a0:	07ae                	slli	a5,a5,0xb
     4a2:	0000                	unimp
     4a4:	0956                	slli	s2,s2,0x15
     4a6:	0000                	unimp
     4a8:	bb15                	j	1dc <_STACK_SIZE-0xfe24>
     4aa:	7f000007          	0x7f000007
     4ae:	0009                	c.nop	2
     4b0:	1800                	addi	s0,sp,48
     4b2:	97d4                	0x97d4
     4b4:	8000                	0x8000
     4b6:	098a                	slli	s3,s3,0x2
     4b8:	0000                	unimp
     4ba:	e818                	fsw	fa4,16(s0)
     4bc:	93800097          	auipc	ra,0x93800
     4c0:	0009                	c.nop	2
     4c2:	1800                	addi	s0,sp,48
     4c4:	97fc                	0x97fc
     4c6:	8000                	0x8000
     4c8:	099c                	addi	a5,sp,208
     4ca:	0000                	unimp
     4cc:	3818                	fld	fa4,48(s0)
     4ce:	0098                	addi	a4,sp,64
     4d0:	8a80                	0x8a80
     4d2:	0009                	c.nop	2
     4d4:	1800                	addi	s0,sp,48
     4d6:	9848                	0x9848
     4d8:	8000                	0x8000
     4da:	00000993          	li	s3,0
     4de:	6418                	flw	fa4,8(s0)
     4e0:	0098                	addi	a4,sp,64
     4e2:	9c80                	0x9c80
     4e4:	0009                	c.nop	2
     4e6:	0000                	unimp
     4e8:	0716                	slli	a4,a4,0x5
     4ea:	e8000007          	0xe8000007
     4ee:	0000                	unimp
     4f0:	6b00                	flw	fs0,16(a4)
     4f2:	0005                	c.nop	1
     4f4:	1500                	addi	s0,sp,672
     4f6:	070c                	addi	a1,sp,896
     4f8:	0000                	unimp
     4fa:	099d                	addi	s3,s3,7
     4fc:	0000                	unimp
     4fe:	1915                	addi	s2,s2,-27
     500:	bf000007          	0xbf000007
     504:	0009                	c.nop	2
     506:	1500                	addi	s0,sp,672
     508:	0726                	slli	a4,a4,0x9
     50a:	0000                	unimp
     50c:	09d2                	slli	s3,s3,0x14
     50e:	0000                	unimp
     510:	3315                	jal	234 <_STACK_SIZE-0xfdcc>
     512:	06000007          	0x6000007
     516:	000a                	c.slli	zero,0x2
     518:	1500                	addi	s0,sp,672
     51a:	0740                	addi	s0,sp,900
     51c:	0000                	unimp
     51e:	0a3a                	slli	s4,s4,0xe
     520:	0000                	unimp
     522:	4d15                	li	s10,5
     524:	80000007          	0x80000007
     528:	000a                	c.slli	zero,0x2
     52a:	1500                	addi	s0,sp,672
     52c:	075a                	slli	a4,a4,0x16
     52e:	0000                	unimp
     530:	0abd                	addi	s5,s5,15
     532:	0000                	unimp
     534:	0418                	addi	a4,sp,512
     536:	0099                	addi	ra,ra,6
     538:	8a80                	0x8a80
     53a:	0009                	c.nop	2
     53c:	1800                	addi	s0,sp,48
     53e:	9918                	0x9918
     540:	8000                	0x8000
     542:	00000993          	li	s3,0
     546:	2c18                	fld	fa4,24(s0)
     548:	0099                	addi	ra,ra,6
     54a:	9c80                	0x9c80
     54c:	0009                	c.nop	2
     54e:	1800                	addi	s0,sp,48
     550:	9968                	0x9968
     552:	8000                	0x8000
     554:	098a                	slli	s3,s3,0x2
     556:	0000                	unimp
     558:	7818                	flw	fa4,48(s0)
     55a:	0099                	addi	ra,ra,6
     55c:	9380                	0x9380
     55e:	0009                	c.nop	2
     560:	1800                	addi	s0,sp,48
     562:	9994                	0x9994
     564:	8000                	0x8000
     566:	099c                	addi	a5,sp,208
     568:	0000                	unimp
     56a:	1600                	addi	s0,sp,800
     56c:	07c9                	addi	a5,a5,18
     56e:	0000                	unimp
     570:	0100                	addi	s0,sp,128
     572:	0000                	unimp
     574:	0000058b          	0x58b
     578:	ce15                	beqz	a2,5b4 <_STACK_SIZE-0xfa4c>
     57a:	db000007          	0xdb000007
     57e:	000a                	c.slli	zero,0x2
     580:	1500                	addi	s0,sp,672
     582:	000007db          	0x7db
     586:	0aee                	slli	s5,s5,0x1b
     588:	0000                	unimp
     58a:	1800                	addi	s0,sp,48
     58c:	9788                	0x9788
     58e:	8000                	0x8000
     590:	00000993          	li	s3,0
     594:	0000                	unimp
     596:	1b00                	addi	s0,sp,432
     598:	0182                	c.slli64	gp
     59a:	0000                	unimp
     59c:	f701                	bnez	a4,4a4 <_STACK_SIZE-0xfb5c>
     59e:	00ae0103          	lb	sp,10(t3) # 1a00a <_STACK_SIZE+0xa00a>
     5a2:	0000                	unimp
     5a4:	00098403          	lb	s0,0(s3)
     5a8:	1c00                	addi	s0,sp,560
     5aa:	006e                	c.slli	zero,0x1b
     5ac:	f701                	bnez	a4,4b4 <_STACK_SIZE-0xfb4c>
     5ae:	00ae1703          	lh	a4,10(t3)
     5b2:	0000                	unimp
     5b4:	641c                	flw	fa5,8(s0)
     5b6:	0100                	addi	s0,sp,128
     5b8:	ae2203f7          	0xae2203f7
     5bc:	0000                	unimp
     5be:	1c00                	addi	s0,sp,560
     5c0:	7072                	flw	ft0,60(sp)
     5c2:	0100                	addi	s0,sp,128
     5c4:	842e03f7          	0x842e03f7
     5c8:	0009                	c.nop	2
     5ca:	1d00                	addi	s0,sp,688
     5cc:	6e6e                	flw	ft8,216(sp)
     5ce:	0100                	addi	s0,sp,128
     5d0:	03f9                	addi	t2,t2,30
     5d2:	3711                	jal	4d6 <_STACK_SIZE-0xfb2a>
     5d4:	0001                	nop
     5d6:	1d00                	addi	s0,sp,688
     5d8:	6464                	flw	fs1,76(s0)
     5da:	0100                	addi	s0,sp,128
     5dc:	03fa                	slli	t2,t2,0x1e
     5de:	3711                	jal	4e2 <_STACK_SIZE-0xfb1e>
     5e0:	0001                	nop
     5e2:	1d00                	addi	s0,sp,688
     5e4:	7272                	flw	ft4,60(sp)
     5e6:	0100                	addi	s0,sp,128
     5e8:	2a0b03fb          	0x2a0b03fb
     5ec:	0001                	nop
     5ee:	1d00                	addi	s0,sp,688
     5f0:	3064                	fld	fs1,224(s0)
     5f2:	0100                	addi	s0,sp,128
     5f4:	03fc                	addi	a5,sp,460
     5f6:	960a                	add	a2,a2,sp
     5f8:	0000                	unimp
     5fa:	1d00                	addi	s0,sp,688
     5fc:	3164                	fld	fs1,224(a0)
     5fe:	0100                	addi	s0,sp,128
     600:	03fc                	addi	a5,sp,460
     602:	960e                	add	a2,a2,gp
     604:	0000                	unimp
     606:	1d00                	addi	s0,sp,688
     608:	306e                	fld	ft0,248(sp)
     60a:	0100                	addi	s0,sp,128
     60c:	03fc                	addi	a5,sp,460
     60e:	9612                	add	a2,a2,tp
     610:	0000                	unimp
     612:	1d00                	addi	s0,sp,688
     614:	316e                	fld	ft2,248(sp)
     616:	0100                	addi	s0,sp,128
     618:	03fc                	addi	a5,sp,460
     61a:	9616                	add	a2,a2,t0
     61c:	0000                	unimp
     61e:	1d00                	addi	s0,sp,688
     620:	326e                	fld	ft4,248(sp)
     622:	0100                	addi	s0,sp,128
     624:	03fc                	addi	a5,sp,460
     626:	961a                	add	a2,a2,t1
     628:	0000                	unimp
     62a:	1d00                	addi	s0,sp,688
     62c:	3071                	jal	fffffeb8 <__stack+0x7fe86544>
     62e:	0100                	addi	s0,sp,128
     630:	03fd                	addi	t2,t2,31
     632:	960a                	add	a2,a2,sp
     634:	0000                	unimp
     636:	1d00                	addi	s0,sp,688
     638:	3171                	jal	2c4 <_STACK_SIZE-0xfd3c>
     63a:	0100                	addi	s0,sp,128
     63c:	03fd                	addi	t2,t2,31
     63e:	960e                	add	a2,a2,gp
     640:	0000                	unimp
     642:	1d00                	addi	s0,sp,688
     644:	0062                	c.slli	zero,0x18
     646:	fe01                	bnez	a2,55e <_STACK_SIZE-0xfaa2>
     648:	00960a03          	lb	s4,9(a2) # fffe6009 <__stack+0x7fe6c695>
     64c:	0000                	unimp
     64e:	621d                	lui	tp,0x7
     650:	006d                	c.nop	27
     652:	fe01                	bnez	a2,56a <_STACK_SIZE-0xfa96>
     654:	00960d03          	lb	s10,9(a2)
     658:	0000                	unimp
     65a:	771d                	lui	a4,0xfffe7
     65c:	c7010077          	0xc7010077
     660:	1104                	addi	s1,sp,160
     662:	00000137          	lui	sp,0x0
     666:	861e                	mv	a2,t2
     668:	0006                	c.slli	zero,0x1
     66a:	1f00                	addi	s0,sp,944
     66c:	000001ab          	0x1ab
     670:	2e01                	jal	980 <_STACK_SIZE-0xf680>
     672:	0404                	addi	s1,sp,512
     674:	0096                	slli	ra,ra,0x5
     676:	0000                	unimp
     678:	5f1d                	li	t5,-25
     67a:	615f 0100 042e      	0x42e0100615f
     680:	9604                	0x9604
     682:	0000                	unimp
     684:	0000                	unimp
     686:	e71e                	fsw	ft7,140(sp)
     688:	0006                	c.slli	zero,0x1
     68a:	1f00                	addi	s0,sp,944
     68c:	0105                	addi	sp,sp,1
     68e:	0000                	unimp
     690:	3a01                	jal	ffffffa0 <__stack+0x7fe8662c>
     692:	0404                	addi	s1,sp,512
     694:	0096                	slli	ra,ra,0x5
     696:	0000                	unimp
     698:	331f 0000 0100      	0x1000000331f
     69e:	043a                	slli	s0,s0,0xe
     6a0:	9604                	0x9604
     6a2:	0000                	unimp
     6a4:	1f00                	addi	s0,sp,944
     6a6:	0100                	addi	s0,sp,128
     6a8:	0000                	unimp
     6aa:	3a01                	jal	ffffffba <__stack+0x7fe86646>
     6ac:	0404                	addi	s1,sp,512
     6ae:	0096                	slli	ra,ra,0x5
     6b0:	0000                	unimp
     6b2:	fb1f 0000 0100      	0x1000000fb1f
     6b8:	043a                	slli	s0,s0,0xe
     6ba:	9604                	0x9604
     6bc:	0000                	unimp
     6be:	1f00                	addi	s0,sp,944
     6c0:	01b5                	addi	gp,gp,13
     6c2:	0000                	unimp
     6c4:	3a01                	jal	ffffffd4 <__stack+0x7fe86660>
     6c6:	0404                	addi	s1,sp,512
     6c8:	0096                	slli	ra,ra,0x5
     6ca:	0000                	unimp
     6cc:	b01f 0001 0100      	0x1000001b01f
     6d2:	043a                	slli	s0,s0,0xe
     6d4:	9604                	0x9604
     6d6:	0000                	unimp
     6d8:	1d00                	addi	s0,sp,688
     6da:	5f5f 006d 3a01      	0x3a01006d5f5f
     6e0:	0404                	addi	s1,sp,512
     6e2:	0096                	slli	ra,ra,0x5
     6e4:	0000                	unimp
     6e6:	1e00                	addi	s0,sp,816
     6e8:	00000707          	0x707
     6ec:	ab1f 0001 0100      	0x1000001ab1f
     6f2:	0446                	slli	s0,s0,0x11
     6f4:	9604                	0x9604
     6f6:	0000                	unimp
     6f8:	1d00                	addi	s0,sp,688
     6fa:	5f5f 0061 4601      	0x460100615f5f
     700:	0404                	addi	s1,sp,512
     702:	0096                	slli	ra,ra,0x5
     704:	0000                	unimp
     706:	1e00                	addi	s0,sp,816
     708:	0768                	addi	a0,sp,908
     70a:	0000                	unimp
     70c:	051f 0001 0100      	0x1000001051f
     712:	045f 9608 0000      	0x9608045f
     718:	1f00                	addi	s0,sp,944
     71a:	00000033          	add	zero,zero,zero
     71e:	5f01                	li	t5,-32
     720:	0804                	addi	s1,sp,16
     722:	0096                	slli	ra,ra,0x5
     724:	0000                	unimp
     726:	001f 0001 0100      	0x1000001001f
     72c:	045f 9608 0000      	0x9608045f
     732:	1f00                	addi	s0,sp,944
     734:	000000fb          	0xfb
     738:	5f01                	li	t5,-32
     73a:	0804                	addi	s1,sp,16
     73c:	0096                	slli	ra,ra,0x5
     73e:	0000                	unimp
     740:	b51f 0001 0100      	0x1000001b51f
     746:	045f 9608 0000      	0x9608045f
     74c:	1f00                	addi	s0,sp,944
     74e:	01b0                	addi	a2,sp,200
     750:	0000                	unimp
     752:	5f01                	li	t5,-32
     754:	0804                	addi	s1,sp,16
     756:	0096                	slli	ra,ra,0x5
     758:	0000                	unimp
     75a:	5f1d                	li	t5,-25
     75c:	6d5f 0100 045f      	0x45f01006d5f
     762:	9608                	0x9608
     764:	0000                	unimp
     766:	0000                	unimp
     768:	c91e                	sw	t2,144(sp)
     76a:	1f000007          	0x1f000007
     76e:	0105                	addi	sp,sp,1
     770:	0000                	unimp
     772:	6401                	0x6401
     774:	0404                	addi	s1,sp,512
     776:	0096                	slli	ra,ra,0x5
     778:	0000                	unimp
     77a:	331f 0000 0100      	0x1000000331f
     780:	0464                	addi	s1,sp,524
     782:	9604                	0x9604
     784:	0000                	unimp
     786:	1f00                	addi	s0,sp,944
     788:	0100                	addi	s0,sp,128
     78a:	0000                	unimp
     78c:	6401                	0x6401
     78e:	0404                	addi	s1,sp,512
     790:	0096                	slli	ra,ra,0x5
     792:	0000                	unimp
     794:	fb1f 0000 0100      	0x1000000fb1f
     79a:	0464                	addi	s1,sp,524
     79c:	9604                	0x9604
     79e:	0000                	unimp
     7a0:	1f00                	addi	s0,sp,944
     7a2:	01b5                	addi	gp,gp,13
     7a4:	0000                	unimp
     7a6:	6401                	0x6401
     7a8:	0404                	addi	s1,sp,512
     7aa:	0096                	slli	ra,ra,0x5
     7ac:	0000                	unimp
     7ae:	b01f 0001 0100      	0x1000001b01f
     7b4:	0464                	addi	s1,sp,524
     7b6:	9604                	0x9604
     7b8:	0000                	unimp
     7ba:	1d00                	addi	s0,sp,688
     7bc:	5f5f 006d 6401      	0x6401006d5f5f
     7c2:	0404                	addi	s1,sp,512
     7c4:	0096                	slli	ra,ra,0x5
     7c6:	0000                	unimp
     7c8:	1e00                	addi	s0,sp,816
     7ca:	07e9                	addi	a5,a5,26
     7cc:	0000                	unimp
     7ce:	ab1f 0001 0100      	0x1000001ab1f
     7d4:	96040487          	0x96040487
     7d8:	0000                	unimp
     7da:	1d00                	addi	s0,sp,688
     7dc:	5f5f 0061 8701      	0x870100615f5f
     7e2:	0404                	addi	s1,sp,512
     7e4:	0096                	slli	ra,ra,0x5
     7e6:	0000                	unimp
     7e8:	1e00                	addi	s0,sp,816
     7ea:	07fc                	addi	a5,sp,972
     7ec:	0000                	unimp
     7ee:	5f1d                	li	t5,-25
     7f0:	785f 0100 0495      	0x4950100785f
     7f6:	9605                	srai	a2,a2,0x21
     7f8:	0000                	unimp
     7fa:	0000                	unimp
     7fc:	1d20                	addi	s0,sp,696
     7fe:	316d                	jal	4a8 <_STACK_SIZE-0xfb58>
     800:	0100                	addi	s0,sp,128
     802:	04a5                	addi	s1,s1,9
     804:	0000960f          	0x960f
     808:	1d00                	addi	s0,sp,688
     80a:	306d                	jal	b4 <_STACK_SIZE-0xff4c>
     80c:	0100                	addi	s0,sp,128
     80e:	04a5                	addi	s1,s1,9
     810:	00009613          	slli	a2,ra,0x0
     814:	1e00                	addi	s0,sp,816
     816:	0876                	slli	a6,a6,0x1d
     818:	0000                	unimp
     81a:	051f 0001 0100      	0x1000001051f
     820:	04b0                	addi	a2,sp,584
     822:	9608                	0x9608
     824:	0000                	unimp
     826:	1f00                	addi	s0,sp,944
     828:	00000033          	add	zero,zero,zero
     82c:	b001                	j	2c <_STACK_SIZE-0xffd4>
     82e:	0804                	addi	s1,sp,16
     830:	0096                	slli	ra,ra,0x5
     832:	0000                	unimp
     834:	001f 0001 0100      	0x1000001001f
     83a:	04b0                	addi	a2,sp,584
     83c:	9608                	0x9608
     83e:	0000                	unimp
     840:	1f00                	addi	s0,sp,944
     842:	000000fb          	0xfb
     846:	b001                	j	46 <_STACK_SIZE-0xffba>
     848:	0804                	addi	s1,sp,16
     84a:	0096                	slli	ra,ra,0x5
     84c:	0000                	unimp
     84e:	b51f 0001 0100      	0x1000001b51f
     854:	04b0                	addi	a2,sp,584
     856:	9608                	0x9608
     858:	0000                	unimp
     85a:	1f00                	addi	s0,sp,944
     85c:	01b0                	addi	a2,sp,200
     85e:	0000                	unimp
     860:	b001                	j	60 <_STACK_SIZE-0xffa0>
     862:	0804                	addi	s1,sp,16
     864:	0096                	slli	ra,ra,0x5
     866:	0000                	unimp
     868:	5f1d                	li	t5,-25
     86a:	6d5f 0100 04b0      	0x4b001006d5f
     870:	9608                	0x9608
     872:	0000                	unimp
     874:	0000                	unimp
     876:	601e                	flw	ft0,196(sp)
     878:	0009                	c.nop	2
     87a:	1f00                	addi	s0,sp,944
     87c:	0095                	addi	ra,ra,5
     87e:	0000                	unimp
     880:	b101                	j	480 <_STACK_SIZE-0xfb80>
     882:	0804                	addi	s1,sp,16
     884:	0096                	slli	ra,ra,0x5
     886:	0000                	unimp
     888:	9a1f 0000 0100      	0x10000009a1f
     88e:	04b1                	addi	s1,s1,12
     890:	9608                	0x9608
     892:	0000                	unimp
     894:	1f00                	addi	s0,sp,944
     896:	009f 0000 b101      	0xb1010000009f
     89c:	0804                	addi	s1,sp,16
     89e:	0096                	slli	ra,ra,0x5
     8a0:	0000                	unimp
     8a2:	a41f 0000 0100      	0x1000000a41f
     8a8:	04b1                	addi	s1,s1,12
     8aa:	9608                	0x9608
     8ac:	0000                	unimp
     8ae:	1f00                	addi	s0,sp,944
     8b0:	000001bf 0804b101 	0x804b101000001bf
     8b8:	0096                	slli	ra,ra,0x5
     8ba:	0000                	unimp
     8bc:	7d1f 0001 0100      	0x10000017d1f
     8c2:	04b1                	addi	s1,s1,12
     8c4:	9608                	0x9608
     8c6:	0000                	unimp
     8c8:	1f00                	addi	s0,sp,944
     8ca:	01ba                	slli	gp,gp,0xe
     8cc:	0000                	unimp
     8ce:	b101                	j	4ce <_STACK_SIZE-0xfb32>
     8d0:	0804                	addi	s1,sp,16
     8d2:	0096                	slli	ra,ra,0x5
     8d4:	0000                	unimp
     8d6:	381f 0000 0100      	0x1000000381f
     8dc:	04b1                	addi	s1,s1,12
     8de:	9608                	0x9608
     8e0:	0000                	unimp
     8e2:	1e00                	addi	s0,sp,816
     8e4:	00000903          	lb	s2,0(zero) # 0 <_STACK_SIZE-0x10000>
     8e8:	3d1f 0000 0100      	0x10000003d1f
     8ee:	04b1                	addi	s1,s1,12
     8f0:	9608                	0x9608
     8f2:	0000                	unimp
     8f4:	1f00                	addi	s0,sp,944
     8f6:	00000043          	fmadd.s	ft0,ft0,ft0,ft0,rne
     8fa:	b101                	j	4fa <_STACK_SIZE-0xfb06>
     8fc:	0804                	addi	s1,sp,16
     8fe:	0096                	slli	ra,ra,0x5
     900:	0000                	unimp
     902:	1e00                	addi	s0,sp,816
     904:	00000923          	sb	zero,18(zero) # 12 <_STACK_SIZE-0xffee>
     908:	3d1f 0000 0100      	0x10000003d1f
     90e:	04b1                	addi	s1,s1,12
     910:	9608                	0x9608
     912:	0000                	unimp
     914:	1f00                	addi	s0,sp,944
     916:	00000043          	fmadd.s	ft0,ft0,ft0,ft0,rne
     91a:	b101                	j	51a <_STACK_SIZE-0xfae6>
     91c:	0804                	addi	s1,sp,16
     91e:	0096                	slli	ra,ra,0x5
     920:	0000                	unimp
     922:	1e00                	addi	s0,sp,816
     924:	00000943          	fmadd.s	fs2,ft0,ft0,ft0,rne
     928:	3d1f 0000 0100      	0x10000003d1f
     92e:	04b1                	addi	s1,s1,12
     930:	9608                	0x9608
     932:	0000                	unimp
     934:	1f00                	addi	s0,sp,944
     936:	00000043          	fmadd.s	ft0,ft0,ft0,ft0,rne
     93a:	b101                	j	53a <_STACK_SIZE-0xfac6>
     93c:	0804                	addi	s1,sp,16
     93e:	0096                	slli	ra,ra,0x5
     940:	0000                	unimp
     942:	2000                	fld	fs0,0(s0)
     944:	3d1f 0000 0100      	0x10000003d1f
     94a:	04b1                	addi	s1,s1,12
     94c:	9608                	0x9608
     94e:	0000                	unimp
     950:	1f00                	addi	s0,sp,944
     952:	00000043          	fmadd.s	ft0,ft0,ft0,ft0,rne
     956:	b101                	j	556 <_STACK_SIZE-0xfaaa>
     958:	0804                	addi	s1,sp,16
     95a:	0096                	slli	ra,ra,0x5
     95c:	0000                	unimp
     95e:	0000                	unimp
     960:	731e                	flw	ft6,228(sp)
     962:	0009                	c.nop	2
     964:	1d00                	addi	s0,sp,688
     966:	5f5f 0078 b601      	0xb60100785f5f
     96c:	0504                	addi	s1,sp,640
     96e:	0096                	slli	ra,ra,0x5
     970:	0000                	unimp
     972:	2000                	fld	fs0,0(s0)
     974:	5f1d                	li	t5,-25
     976:	785f 0100 04be      	0x4be0100785f
     97c:	9605                	srai	a2,a2,0x21
     97e:	0000                	unimp
     980:	0000                	unimp
     982:	0000                	unimp
     984:	0421                	addi	s0,s0,8
     986:	00ae                	slli	ra,ra,0xb
     988:	0000                	unimp
     98a:	0a22                	slli	s4,s4,0x8
     98c:	0001                	nop
     98e:	0a00                	addi	s0,sp,272
     990:	0001                	nop
     992:	2200                	fld	fs0,0(a2)
     994:	0049                	c.nop	18
     996:	0000                	unimp
     998:	0049                	c.nop	18
     99a:	0000                	unimp
     99c:	2022                	fld	ft0,8(sp)
     99e:	0000                	unimp
     9a0:	2000                	fld	fs0,0(s0)
     9a2:	0000                	unimp
     9a4:	0000                	unimp
     9a6:	09b2                	slli	s3,s3,0xc
     9a8:	0000                	unimp
     9aa:	0004                	0x4
     9ac:	01be                	slli	gp,gp,0xf
     9ae:	0000                	unimp
     9b0:	0104                	addi	s1,sp,128
     9b2:	01c4                	addi	s1,sp,196
     9b4:	0000                	unimp
     9b6:	d50c                	sw	a1,40(a0)
     9b8:	0000                	unimp
     9ba:	1400                	addi	s0,sp,544
     9bc:	0001                	nop
     9be:	d000                	sw	s0,32(s0)
     9c0:	f080009b          	0xf080009b
     9c4:	0004                	0x4
     9c6:	8300                	0x8300
     9c8:	02000007          	0x2000007
     9cc:	0708                	addi	a0,sp,896
     9ce:	0061                	c.nop	24
     9d0:	0000                	unimp
     9d2:	69050403          	lb	s0,1680(a0) # 90e <_STACK_SIZE-0xf6f2>
     9d6:	746e                	flw	fs0,248(sp)
     9d8:	0200                	addi	s0,sp,256
     9da:	0704                	addi	s1,sp,896
     9dc:	0000006b          	0x6b
     9e0:	0802                	c.slli64	a6
     9e2:	5305                	li	t1,-31
     9e4:	0000                	unimp
     9e6:	0200                	addi	s0,sp,256
     9e8:	0410                	addi	a2,sp,512
     9ea:	00000197          	auipc	gp,0x0
     9ee:	0102                	c.slli64	sp
     9f0:	8906                	mv	s2,ra
     9f2:	0000                	unimp
     9f4:	0200                	addi	s0,sp,256
     9f6:	0801                	addi	a6,a6,0
     9f8:	00000087          	0x87
     9fc:	0202                	c.slli64	tp
     9fe:	2905                	jal	e2e <_STACK_SIZE-0xf1d2>
     a00:	0000                	unimp
     a02:	0200                	addi	s0,sp,256
     a04:	0702                	c.slli64	a4
     a06:	00ba                	slli	ra,ra,0xe
     a08:	0000                	unimp
     a0a:	0402                	c.slli64	s0
     a0c:	5805                	li	a6,-31
     a0e:	0000                	unimp
     a10:	0200                	addi	s0,sp,256
     a12:	0704                	addi	s1,sp,896
     a14:	0066                	c.slli	zero,0x19
     a16:	0000                	unimp
     a18:	0102                	c.slli64	sp
     a1a:	9008                	0x9008
     a1c:	0000                	unimp
     a1e:	0400                	addi	s0,sp,512
     a20:	00a9                	addi	ra,ra,10
     a22:	0000                	unimp
     a24:	7b02                	flw	fs6,32(sp)
     a26:	4f16                	lw	t5,68(sp)
     a28:	0000                	unimp
     a2a:	0500                	addi	s0,sp,640
     a2c:	0079                	c.nop	30
     a2e:	0000                	unimp
     a30:	a404                	fsd	fs1,8(s0)
     a32:	0001                	nop
     a34:	0200                	addi	s0,sp,256
     a36:	0f80                	addi	s0,sp,976
     a38:	002c                	addi	a1,sp,8
     a3a:	0000                	unimp
     a3c:	a304                	fsd	fs1,0(a4)
     a3e:	0001                	nop
     a40:	0200                	addi	s0,sp,256
     a42:	1681                	addi	a3,a3,-32
     a44:	00000033          	add	zero,zero,zero
     a48:	ce04                	sw	s1,24(a2)
     a4a:	0000                	unimp
     a4c:	0200                	addi	s0,sp,256
     a4e:	0f84                	addi	s1,sp,976
     a50:	003a                	c.slli	zero,0xe
     a52:	0000                	unimp
     a54:	cd04                	sw	s1,24(a0)
     a56:	0000                	unimp
     a58:	0200                	addi	s0,sp,256
     a5a:	1685                	addi	a3,a3,-31
     a5c:	0025                	c.nop	9
     a5e:	0000                	unimp
     a60:	0402                	c.slli64	s0
     a62:	1a04                	addi	s1,sp,304
     a64:	0000                	unimp
     a66:	0200                	addi	s0,sp,256
     a68:	0308                	addi	a0,sp,384
     a6a:	0012                	c.slli	zero,0x4
     a6c:	0000                	unimp
     a6e:	0802                	c.slli64	a6
     a70:	9c04                	0x9c04
     a72:	0001                	nop
     a74:	0200                	addi	s0,sp,256
     a76:	0310                	addi	a2,sp,384
     a78:	016e                	slli	sp,sp,0x1b
     a7a:	0000                	unimp
     a7c:	2002                	fld	ft0,0(sp)
     a7e:	00018f03          	lb	t5,0(gp) # 9ea <_STACK_SIZE-0xf616>
     a82:	0600                	addi	s0,sp,768
     a84:	00b1                	addi	ra,ra,12
     a86:	0000                	unimp
     a88:	0208                	addi	a0,sp,256
     a8a:	01ed                	addi	gp,gp,27
     a8c:	080a                	slli	a6,a6,0x2
     a8e:	0001                	nop
     a90:	0700                	addi	s0,sp,896
     a92:	6f6c                	flw	fa1,92(a4)
     a94:	ed020077          	0xed020077
     a98:	1a01                	addi	s4,s4,-32
     a9a:	008a                	slli	ra,ra,0x2
     a9c:	0000                	unimp
     a9e:	0800                	addi	s0,sp,16
     aa0:	0078                	addi	a4,sp,12
     aa2:	0000                	unimp
     aa4:	ed02                	fsw	ft0,152(sp)
     aa6:	1f01                	addi	t5,t5,-32
     aa8:	008a                	slli	ra,ra,0x2
     aaa:	0000                	unimp
     aac:	0004                	0x4
     aae:	0809                	addi	a6,a6,2
     ab0:	f402                	fsw	ft0,40(sp)
     ab2:	0901                	addi	s2,s2,0
     ab4:	012a                	slli	sp,sp,0xa
     ab6:	0000                	unimp
     ab8:	730a                	flw	ft6,160(sp)
     aba:	0200                	addi	s0,sp,256
     abc:	01f6                	slli	gp,gp,0x1d
     abe:	0000dd13          	srli	s10,ra,0x0
     ac2:	0a00                	addi	s0,sp,272
     ac4:	6c6c                	flw	fa1,92(s0)
     ac6:	0200                	addi	s0,sp,256
     ac8:	a20a01f7          	0xa20a01f7
     acc:	0000                	unimp
     ace:	0000                	unimp
     ad0:	0000000b          	0xb
     ad4:	0200                	addi	s0,sp,256
     ad6:	01f8                	addi	a4,sp,204
     ad8:	00010803          	lb	a6,0(sp) # 0 <_STACK_SIZE-0x10000>
     adc:	0500                	addi	s0,sp,640
     ade:	012a                	slli	sp,sp,0xa
     ae0:	0000                	unimp
     ae2:	850c                	0x850c
     ae4:	0000                	unimp
     ae6:	4c00                	lw	s0,24(s0)
     ae8:	0001                	nop
     aea:	0d00                	addi	s0,sp,656
     aec:	00000033          	add	zero,zero,zero
     af0:	00ff                	0xff
     af2:	3c05                	jal	522 <_STACK_SIZE-0xfade>
     af4:	0001                	nop
     af6:	0e00                	addi	s0,sp,784
     af8:	007d                	c.nop	31
     afa:	0000                	unimp
     afc:	0202                	c.slli64	tp
     afe:	1602                	slli	a2,a2,0x20
     b00:	014c                	addi	a1,sp,132
     b02:	0000                	unimp
     b04:	0002940f          	0x2940f
     b08:	0100                	addi	s0,sp,128
     b0a:	051a                	slli	a0,a0,0x6
     b0c:	ae01                	j	e1c <_STACK_SIZE-0xf1e4>
     b0e:	0000                	unimp
     b10:	d000                	sw	s0,32(s0)
     b12:	f080009b          	0xf080009b
     b16:	0004                	0x4
     b18:	0100                	addi	s0,sp,128
     b1a:	a79c                	fsd	fa5,8(a5)
     b1c:	0005                	c.nop	1
     b1e:	1000                	addi	s0,sp,32
     b20:	0075                	c.nop	29
     b22:	1a01                	addi	s4,s4,-32
     b24:	1405                	addi	s0,s0,-31
     b26:	00ae                	slli	ra,ra,0xb
     b28:	0000                	unimp
     b2a:	0b0c                	addi	a1,sp,400
     b2c:	0000                	unimp
     b2e:	7610                	flw	fa2,40(a2)
     b30:	0100                	addi	s0,sp,128
     b32:	051a                	slli	a0,a0,0x6
     b34:	ae1f 0000 9400      	0x94000000ae1f
     b3a:	1100000b          	0x1100000b
     b3e:	1c010077          	0x1c010077
     b42:	0b05                	addi	s6,s6,1
     b44:	00ae                	slli	ra,ra,0xb
     b46:	0000                	unimp
     b48:	0bfc                	addi	a5,sp,476
     b4a:	0000                	unimp
     b4c:	a712                	fsd	ft4,392(sp)
     b4e:	0005                	c.nop	1
     b50:	0800                	addi	s0,sp,16
     b52:	009c                	addi	a5,sp,64
     b54:	1880                	addi	s0,sp,112
     b56:	0001                	nop
     b58:	0100                	addi	s0,sp,128
     b5a:	051e                	slli	a0,a0,0x7
     b5c:	130a                	slli	t1,t1,0x22
     b5e:	000005cf          	fnmadd.s	fa1,ft0,ft0,ft0,rne
     b62:	0c24                	addi	s1,sp,536
     b64:	0000                	unimp
     b66:	0005c413          	xori	s0,a1,0
     b6a:	4c00                	lw	s0,24(s0)
     b6c:	000c                	0xc
     b6e:	1300                	addi	s0,sp,416
     b70:	05b9                	addi	a1,a1,14
     b72:	0000                	unimp
     b74:	0c94                	addi	a3,sp,592
     b76:	0000                	unimp
     b78:	1814                	addi	a3,sp,48
     b7a:	0001                	nop
     b7c:	1500                	addi	s0,sp,672
     b7e:	000005db          	0x5db
     b82:	e715                	bnez	a4,bae <_STACK_SIZE-0xf452>
     b84:	0005                	c.nop	1
     b86:	1500                	addi	s0,sp,672
     b88:	000005f3          	0x5f3
     b8c:	ff16                	fsw	ft5,188(sp)
     b8e:	0005                	c.nop	1
     b90:	3c00                	fld	fs0,56(s0)
     b92:	000d                	c.nop	3
     b94:	1600                	addi	s0,sp,800
     b96:	0000060b          	0x60b
     b9a:	0d86                	slli	s11,s11,0x1
     b9c:	0000                	unimp
     b9e:	1716                	slli	a4,a4,0x25
     ba0:	0006                	c.slli	zero,0x1
     ba2:	d000                	sw	s0,32(s0)
     ba4:	000d                	c.nop	3
     ba6:	1600                	addi	s0,sp,800
     ba8:	00000623          	sb	zero,12(zero) # c <_STACK_SIZE-0xfff4>
     bac:	0e25                	addi	t3,t3,9
     bae:	0000                	unimp
     bb0:	2f16                	fld	ft10,320(sp)
     bb2:	0006                	c.slli	zero,0x1
     bb4:	9000                	0x9000
     bb6:	000e                	c.slli	zero,0x3
     bb8:	1600                	addi	s0,sp,800
     bba:	0000063b          	0x63b
     bbe:	0eb9                	addi	t4,t4,14
     bc0:	0000                	unimp
     bc2:	4716                	lw	a4,68(sp)
     bc4:	0006                	c.slli	zero,0x1
     bc6:	cd00                	sw	s0,24(a0)
     bc8:	000e                	c.slli	zero,0x3
     bca:	1600                	addi	s0,sp,800
     bcc:	00000653          	fadd.s	fa2,ft0,ft0,rne
     bd0:	0eed                	addi	t4,t4,27
     bd2:	0000                	unimp
     bd4:	5e16                	lw	t3,100(sp)
     bd6:	0006                	c.slli	zero,0x1
     bd8:	0b00                	addi	s0,sp,400
     bda:	1500000f          	0x1500000f
     bde:	066a                	slli	a2,a2,0x1a
     be0:	0000                	unimp
     be2:	00067617          	auipc	a2,0x67
     be6:	3800                	fld	fs0,48(s0)
     be8:	0001                	nop
     bea:	5c00                	lw	s0,56(s0)
     bec:	0002                	c.slli64	zero
     bee:	1600                	addi	s0,sp,800
     bf0:	0000067b          	0x67b
     bf4:	00000f3f 00068816 	0x6881600000f3f
     bfc:	5d00                	lw	s0,56(a0)
     bfe:	0000000f          	fence	unknown,unknown
     c02:	9618                	0x9618
     c04:	0006                	c.slli	zero,0x1
     c06:	7000                	flw	fs0,32(s0)
     c08:	009c                	addi	a5,sp,64
     c0a:	0080                	addi	s0,sp,64
     c0c:	0000                	unimp
     c0e:	9500                	0x9500
     c10:	0002                	c.slli64	zero
     c12:	1900                	addi	s0,sp,176
     c14:	0000069b          	0x69b
     c18:	6501                	0x6501
     c1a:	a819                	j	c30 <_STACK_SIZE-0xf3d0>
     c1c:	0006                	c.slli	zero,0x1
     c1e:	0100                	addi	s0,sp,128
     c20:	1566                	slli	a0,a0,0x39
     c22:	06b5                	addi	a3,a3,13
     c24:	0000                	unimp
     c26:	c215                	beqz	a2,c4a <_STACK_SIZE-0xf3b6>
     c28:	0006                	c.slli	zero,0x1
     c2a:	1500                	addi	s0,sp,672
     c2c:	000006cf          	fnmadd.s	fa3,ft0,ft0,ft0,rne
     c30:	dc15                	beqz	s0,b6c <_STACK_SIZE-0xf494>
     c32:	0006                	c.slli	zero,0x1
     c34:	1500                	addi	s0,sp,672
     c36:	06e9                	addi	a3,a3,26
     c38:	0000                	unimp
     c3a:	1800                	addi	s0,sp,48
     c3c:	0778                	addi	a4,sp,908
     c3e:	0000                	unimp
     c40:	9c70                	0x9c70
     c42:	8000                	0x8000
     c44:	00a8                	addi	a0,sp,72
     c46:	0000                	unimp
     c48:	031c                	addi	a5,sp,384
     c4a:	0000                	unimp
     c4c:	7d16                	flw	fs10,100(sp)
     c4e:	70000007          	0x70000007
     c52:	1600000f          	0x1600000f
     c56:	078a                	slli	a5,a5,0x2
     c58:	0000                	unimp
     c5a:	00000f83          	lb	t6,0(zero) # 0 <_STACK_SIZE-0x10000>
     c5e:	9716                	add	a4,a4,t0
     c60:	96000007          	0x96000007
     c64:	1600000f          	0x1600000f
     c68:	07a4                	addi	s1,sp,968
     c6a:	0000                	unimp
     c6c:	0fb4                	addi	a3,sp,984
     c6e:	0000                	unimp
     c70:	b116                	fsd	ft5,160(sp)
     c72:	d2000007          	0xd2000007
     c76:	1600000f          	0x1600000f
     c7a:	07be                	slli	a5,a5,0xf
     c7c:	0000                	unimp
     c7e:	00000ffb          	0xffb
     c82:	cb16                	sw	t0,148(sp)
     c84:	24000007          	0x24000007
     c88:	0010                	0x10
     c8a:	1a00                	addi	s0,sp,304
     c8c:	9c80                	0x9c80
     c8e:	8000                	0x8000
     c90:	099a                	slli	s3,s3,0x6
     c92:	0000                	unimp
     c94:	941a                	add	s0,s0,t1
     c96:	009c                	addi	a5,sp,64
     c98:	a380                	fsd	fs0,0(a5)
     c9a:	0009                	c.nop	2
     c9c:	1a00                	addi	s0,sp,304
     c9e:	9ca4                	0x9ca4
     ca0:	8000                	0x8000
     ca2:	09ac                	addi	a1,sp,216
     ca4:	0000                	unimp
     ca6:	d41a                	sw	t1,40(sp)
     ca8:	009c                	addi	a5,sp,64
     caa:	9a80                	0x9a80
     cac:	0009                	c.nop	2
     cae:	1a00                	addi	s0,sp,304
     cb0:	9ce4                	0x9ce4
     cb2:	8000                	0x8000
     cb4:	000009a3          	sb	zero,19(zero) # 13 <_STACK_SIZE-0xffed>
     cb8:	fc1a                	fsw	ft6,56(sp)
     cba:	009c                	addi	a5,sp,64
     cbc:	ac80                	fsd	fs0,24(s1)
     cbe:	0009                	c.nop	2
     cc0:	0000                	unimp
     cc2:	0006f717          	auipc	a4,0x6f
     cc6:	5000                	lw	s0,32(s0)
     cc8:	0001                	nop
     cca:	3c00                	fld	fs0,56(s0)
     ccc:	16000003          	lb	zero,352(zero) # 160 <_STACK_SIZE-0xfea0>
     cd0:	06fc                	addi	a5,sp,844
     cd2:	0000                	unimp
     cd4:	1042                	c.slli	zero,0x30
     cd6:	0000                	unimp
     cd8:	0916                	slli	s2,s2,0x5
     cda:	60000007          	0x60000007
     cde:	0010                	0x10
     ce0:	0000                	unimp
     ce2:	00071717          	auipc	a4,0x71
     ce6:	7000                	flw	fs0,32(s0)
     ce8:	0001                	nop
     cea:	bf00                	fsd	fs0,56(a4)
     cec:	16000003          	lb	zero,352(zero) # 160 <_STACK_SIZE-0xfea0>
     cf0:	071c                	addi	a5,sp,896
     cf2:	0000                	unimp
     cf4:	00001073          	csrw	ustatus,zero
     cf8:	2916                	fld	fs2,320(sp)
     cfa:	95000007          	0x95000007
     cfe:	0010                	0x10
     d00:	1600                	addi	s0,sp,800
     d02:	0736                	slli	a4,a4,0xd
     d04:	0000                	unimp
     d06:	10a8                	addi	a0,sp,104
     d08:	0000                	unimp
     d0a:	4316                	lw	t1,68(sp)
     d0c:	c6000007          	0xc6000007
     d10:	0010                	0x10
     d12:	1600                	addi	s0,sp,800
     d14:	0750                	addi	a2,sp,900
     d16:	0000                	unimp
     d18:	10e4                	addi	s1,sp,108
     d1a:	0000                	unimp
     d1c:	5d16                	lw	s10,100(sp)
     d1e:	0d000007          	0xd000007
     d22:	0011                	c.nop	4
     d24:	1600                	addi	s0,sp,800
     d26:	076a                	slli	a4,a4,0x1a
     d28:	0000                	unimp
     d2a:	1141                	addi	sp,sp,-16
     d2c:	0000                	unimp
     d2e:	d81a                	sw	t1,48(sp)
     d30:	009d                	addi	ra,ra,7
     d32:	9a80                	0x9a80
     d34:	0009                	c.nop	2
     d36:	1a00                	addi	s0,sp,304
     d38:	9df0                	0x9df0
     d3a:	8000                	0x8000
     d3c:	000009a3          	sb	zero,19(zero) # 13 <_STACK_SIZE-0xffed>
     d40:	001a                	c.slli	zero,0x6
     d42:	009e                	slli	ra,ra,0x7
     d44:	ac80                	fsd	fs0,24(s1)
     d46:	0009                	c.nop	2
     d48:	1a00                	addi	s0,sp,304
     d4a:	9e30                	0x9e30
     d4c:	8000                	0x8000
     d4e:	099a                	slli	s3,s3,0x6
     d50:	0000                	unimp
     d52:	401a                	0x401a
     d54:	009e                	slli	ra,ra,0x7
     d56:	a380                	fsd	fs0,0(a5)
     d58:	0009                	c.nop	2
     d5a:	1a00                	addi	s0,sp,304
     d5c:	9e4c                	0x9e4c
     d5e:	8000                	0x8000
     d60:	09ac                	addi	a1,sp,216
     d62:	0000                	unimp
     d64:	1700                	addi	s0,sp,928
     d66:	07d9                	addi	a5,a5,22
     d68:	0000                	unimp
     d6a:	0190                	addi	a2,sp,192
     d6c:	0000                	unimp
     d6e:	03df 0000 de16      	0xde16000003df
     d74:	5f000007          	0x5f000007
     d78:	0011                	c.nop	4
     d7a:	1600                	addi	s0,sp,800
     d7c:	000007eb          	0x7eb
     d80:	1172                	slli	sp,sp,0x3c
     d82:	0000                	unimp
     d84:	1800                	addi	s0,sp,48
     d86:	07f9                	addi	a5,a5,30
     d88:	0000                	unimp
     d8a:	9ed0                	0x9ed0
     d8c:	8000                	0x8000
     d8e:	0010                	0x10
     d90:	0000                	unimp
     d92:	03fa                	slli	t2,t2,0x1e
     d94:	0000                	unimp
     d96:	fe16                	fsw	ft5,60(sp)
     d98:	90000007          	0x90000007
     d9c:	0011                	c.nop	4
     d9e:	0000                	unimp
     da0:	0c18                	addi	a4,sp,528
     da2:	0008                	0x8
     da4:	0000                	unimp
     da6:	009f c080 0001      	0x1c080009f
     dac:	9b00                	0x9b00
     dae:	0005                	c.nop	1
     db0:	1600                	addi	s0,sp,800
     db2:	080d                	addi	a6,a6,3
     db4:	0000                	unimp
     db6:	000011a3          	sh	zero,3(zero) # 3 <_STACK_SIZE-0xfffd>
     dba:	1916                	slli	s2,s2,0x25
     dbc:	0008                	0x8
     dbe:	b600                	fsd	fs0,40(a2)
     dc0:	0011                	c.nop	4
     dc2:	1700                	addi	s0,sp,928
     dc4:	0825                	addi	a6,a6,9
     dc6:	0000                	unimp
     dc8:	01a8                	addi	a0,sp,200
     dca:	0000                	unimp
     dcc:	049c                	addi	a5,sp,576
     dce:	0000                	unimp
     dd0:	2a19                	jal	ee6 <_STACK_SIZE-0xf11a>
     dd2:	0008                	0x8
     dd4:	0100                	addi	s0,sp,128
     dd6:	1966                	slli	s2,s2,0x39
     dd8:	00000837          	lui	a6,0x0
     ddc:	6701                	0x6701
     dde:	4416                	lw	s0,68(sp)
     de0:	0008                	0x8
     de2:	df00                	sw	s0,56(a4)
     de4:	0011                	c.nop	4
     de6:	1600                	addi	s0,sp,800
     de8:	0851                	addi	a6,a6,20
     dea:	0000                	unimp
     dec:	00001213          	slli	tp,zero,0x0
     df0:	5e16                	lw	t3,100(sp)
     df2:	0008                	0x8
     df4:	4700                	lw	s0,8(a4)
     df6:	0012                	c.slli	zero,0x4
     df8:	1600                	addi	s0,sp,800
     dfa:	0000086b          	0x86b
     dfe:	128d                	addi	t0,t0,-29
     e00:	0000                	unimp
     e02:	7816                	flw	fa6,100(sp)
     e04:	0008                	0x8
     e06:	d500                	sw	s0,40(a0)
     e08:	0012                	c.slli	zero,0x4
     e0a:	1a00                	addi	s0,sp,304
     e0c:	9f30                	0x9f30
     e0e:	8000                	0x8000
     e10:	099a                	slli	s3,s3,0x6
     e12:	0000                	unimp
     e14:	441a                	lw	s0,132(sp)
     e16:	009f a380 0009      	0x9a380009f
     e1c:	1a00                	addi	s0,sp,304
     e1e:	9f5c                	0x9f5c
     e20:	8000                	0x8000
     e22:	09ac                	addi	a1,sp,216
     e24:	0000                	unimp
     e26:	981a                	add	a6,a6,t1
     e28:	009f 9a80 0009      	0x99a80009f
     e2e:	1a00                	addi	s0,sp,304
     e30:	9fa8                	0x9fa8
     e32:	8000                	0x8000
     e34:	000009a3          	sb	zero,19(zero) # 13 <_STACK_SIZE-0xffed>
     e38:	b81a                	fsd	ft6,48(sp)
     e3a:	009f ac80 0009      	0x9ac80009f
     e40:	0000                	unimp
     e42:	00088617          	auipc	a2,0x88
     e46:	e000                	fsw	fs0,0(s0)
     e48:	0001                	nop
     e4a:	6800                	flw	fs0,16(s0)
     e4c:	0005                	c.nop	1
     e4e:	1600                	addi	s0,sp,800
     e50:	0000088b          	0x88b
     e54:	000012f3          	csrrw	t0,ustatus,zero
     e58:	9816                	add	a6,a6,t0
     e5a:	0008                	0x8
     e5c:	1100                	addi	s0,sp,160
     e5e:	19000013          	li	zero,400
     e62:	08a5                	addi	a7,a7,9
     e64:	0000                	unimp
     e66:	5601                	li	a2,-32
     e68:	b216                	fsd	ft5,288(sp)
     e6a:	0008                	0x8
     e6c:	5e00                	lw	s0,56(a2)
     e6e:	16000013          	li	zero,352
     e72:	000008bf 00001371 	0x1371000008bf
     e7a:	cc16                	sw	t0,24(sp)
     e7c:	0008                	0x8
     e7e:	8400                	0x8400
     e80:	19000013          	li	zero,400
     e84:	08d9                	addi	a7,a7,22
     e86:	0000                	unimp
     e88:	6a01                	0x6a01
     e8a:	e619                	bnez	a2,e98 <_STACK_SIZE-0xf168>
     e8c:	0008                	0x8
     e8e:	0100                	addi	s0,sp,128
     e90:	186c                	addi	a1,sp,60
     e92:	000008f3          	0x8f3
     e96:	a00c                	fsd	fa1,0(s0)
     e98:	8000                	0x8000
     e9a:	0010                	0x10
     e9c:	0000                	unimp
     e9e:	0000050b          	0x50b
     ea2:	f819                	bnez	s0,db8 <_STACK_SIZE-0xf248>
     ea4:	0008                	0x8
     ea6:	0100                	addi	s0,sp,128
     ea8:	195a                	slli	s2,s2,0x36
     eaa:	0905                	addi	s2,s2,1
     eac:	0000                	unimp
     eae:	5b01                	li	s6,-32
     eb0:	1800                	addi	s0,sp,48
     eb2:	00000913          	li	s2,0
     eb6:	a01c                	fsd	fa5,0(s0)
     eb8:	8000                	0x8000
     eba:	0010                	0x10
     ebc:	0000                	unimp
     ebe:	0000052b          	0x52b
     ec2:	1819                	addi	a6,a6,-26
     ec4:	0009                	c.nop	2
     ec6:	0100                	addi	s0,sp,128
     ec8:	195a                	slli	s2,s2,0x36
     eca:	0925                	addi	s2,s2,9
     ecc:	0000                	unimp
     ece:	5b01                	li	s6,-32
     ed0:	1800                	addi	s0,sp,48
     ed2:	00000933          	add	s2,zero,zero
     ed6:	a02c                	fsd	fa1,64(s0)
     ed8:	8000                	0x8000
     eda:	0010                	0x10
     edc:	0000                	unimp
     ede:	0000054b          	fnmsub.s	fa0,ft0,ft0,ft0,rne
     ee2:	3819                	jal	6f8 <_STACK_SIZE-0xf908>
     ee4:	0009                	c.nop	2
     ee6:	0100                	addi	s0,sp,128
     ee8:	195a                	slli	s2,s2,0x36
     eea:	0945                	addi	s2,s2,17
     eec:	0000                	unimp
     eee:	5b01                	li	s6,-32
     ef0:	1b00                	addi	s0,sp,432
     ef2:	00000953          	fadd.s	fs2,ft0,ft0,rne
     ef6:	a03c                	fsd	fa5,64(s0)
     ef8:	8000                	0x8000
     efa:	000c                	0xc
     efc:	0000                	unimp
     efe:	5419                	li	s0,-26
     f00:	0009                	c.nop	2
     f02:	0100                	addi	s0,sp,128
     f04:	195a                	slli	s2,s2,0x36
     f06:	0961                	addi	s2,s2,24
     f08:	0000                	unimp
     f0a:	5b01                	li	s6,-32
     f0c:	0000                	unimp
     f0e:	7018                	flw	fa4,32(s0)
     f10:	0009                	c.nop	2
     f12:	8800                	0x8800
     f14:	00a0                	addi	s0,sp,72
     f16:	1480                	addi	s0,sp,608
     f18:	0000                	unimp
     f1a:	8300                	0x8300
     f1c:	0005                	c.nop	1
     f1e:	1600                	addi	s0,sp,800
     f20:	0975                	addi	s2,s2,29
     f22:	0000                	unimp
     f24:	000013c7          	fmsub.s	ft7,ft0,ft0,ft0,rtz
     f28:	1b00                	addi	s0,sp,432
     f2a:	00000983          	lb	s3,0(zero) # 0 <_STACK_SIZE-0x10000>
     f2e:	a09c                	fsd	fa5,0(s1)
     f30:	8000                	0x8000
     f32:	0010                	0x10
     f34:	0000                	unimp
     f36:	8416                	mv	s0,t0
     f38:	0009                	c.nop	2
     f3a:	da00                	sw	s0,48(a2)
     f3c:	00000013          	nop
     f40:	1a00                	addi	s0,sp,304
     f42:	9d7c                	0x9d7c
     f44:	8000                	0x8000
     f46:	000009a3          	sb	zero,19(zero) # 13 <_STACK_SIZE-0xffed>
     f4a:	0000                	unimp
     f4c:	1c00                	addi	s0,sp,560
     f4e:	0182                	c.slli64	gp
     f50:	0000                	unimp
     f52:	f701                	bnez	a4,e5a <_STACK_SIZE-0xf1a6>
     f54:	00ae0103          	lb	sp,10(t3)
     f58:	0000                	unimp
     f5a:	00099403          	lh	s0,0(s3)
     f5e:	1d00                	addi	s0,sp,688
     f60:	006e                	c.slli	zero,0x1b
     f62:	f701                	bnez	a4,e6a <_STACK_SIZE-0xf196>
     f64:	00ae1703          	lh	a4,10(t3)
     f68:	0000                	unimp
     f6a:	641d                	lui	s0,0x7
     f6c:	0100                	addi	s0,sp,128
     f6e:	ae2203f7          	0xae2203f7
     f72:	0000                	unimp
     f74:	1d00                	addi	s0,sp,688
     f76:	7072                	flw	ft0,60(sp)
     f78:	0100                	addi	s0,sp,128
     f7a:	942e03f7          	0x942e03f7
     f7e:	0009                	c.nop	2
     f80:	1e00                	addi	s0,sp,816
     f82:	6e6e                	flw	ft8,216(sp)
     f84:	0100                	addi	s0,sp,128
     f86:	03f9                	addi	t2,t2,30
     f88:	3711                	jal	e8c <_STACK_SIZE-0xf174>
     f8a:	0001                	nop
     f8c:	1e00                	addi	s0,sp,816
     f8e:	6464                	flw	fs1,76(s0)
     f90:	0100                	addi	s0,sp,128
     f92:	03fa                	slli	t2,t2,0x1e
     f94:	3711                	jal	e98 <_STACK_SIZE-0xf168>
     f96:	0001                	nop
     f98:	1e00                	addi	s0,sp,816
     f9a:	7272                	flw	ft4,60(sp)
     f9c:	0100                	addi	s0,sp,128
     f9e:	2a0b03fb          	0x2a0b03fb
     fa2:	0001                	nop
     fa4:	1e00                	addi	s0,sp,816
     fa6:	3064                	fld	fs1,224(s0)
     fa8:	0100                	addi	s0,sp,128
     faa:	03fc                	addi	a5,sp,460
     fac:	960a                	add	a2,a2,sp
     fae:	0000                	unimp
     fb0:	1e00                	addi	s0,sp,816
     fb2:	3164                	fld	fs1,224(a0)
     fb4:	0100                	addi	s0,sp,128
     fb6:	03fc                	addi	a5,sp,460
     fb8:	960e                	add	a2,a2,gp
     fba:	0000                	unimp
     fbc:	1e00                	addi	s0,sp,816
     fbe:	306e                	fld	ft0,248(sp)
     fc0:	0100                	addi	s0,sp,128
     fc2:	03fc                	addi	a5,sp,460
     fc4:	9612                	add	a2,a2,tp
     fc6:	0000                	unimp
     fc8:	1e00                	addi	s0,sp,816
     fca:	316e                	fld	ft2,248(sp)
     fcc:	0100                	addi	s0,sp,128
     fce:	03fc                	addi	a5,sp,460
     fd0:	9616                	add	a2,a2,t0
     fd2:	0000                	unimp
     fd4:	1e00                	addi	s0,sp,816
     fd6:	326e                	fld	ft4,248(sp)
     fd8:	0100                	addi	s0,sp,128
     fda:	03fc                	addi	a5,sp,460
     fdc:	961a                	add	a2,a2,t1
     fde:	0000                	unimp
     fe0:	1e00                	addi	s0,sp,816
     fe2:	3071                	jal	86e <_STACK_SIZE-0xf792>
     fe4:	0100                	addi	s0,sp,128
     fe6:	03fd                	addi	t2,t2,31
     fe8:	960a                	add	a2,a2,sp
     fea:	0000                	unimp
     fec:	1e00                	addi	s0,sp,816
     fee:	3171                	jal	c7a <_STACK_SIZE-0xf386>
     ff0:	0100                	addi	s0,sp,128
     ff2:	03fd                	addi	t2,t2,31
     ff4:	960e                	add	a2,a2,gp
     ff6:	0000                	unimp
     ff8:	1e00                	addi	s0,sp,816
     ffa:	0062                	c.slli	zero,0x18
     ffc:	fe01                	bnez	a2,f14 <_STACK_SIZE-0xf0ec>
     ffe:	00960a03          	lb	s4,9(a2) # 88e4b <_STACK_SIZE+0x78e4b>
    1002:	0000                	unimp
    1004:	621e                	flw	ft4,196(sp)
    1006:	006d                	c.nop	27
    1008:	fe01                	bnez	a2,f20 <_STACK_SIZE-0xf0e0>
    100a:	00960d03          	lb	s10,9(a2)
    100e:	0000                	unimp
    1010:	771e                	flw	fa4,228(sp)
    1012:	c7010077          	0xc7010077
    1016:	1104                	addi	s1,sp,160
    1018:	00000137          	lui	sp,0x0
    101c:	961f 0006 2000      	0x20000006961f
    1022:	000001ab          	0x1ab
    1026:	2e01                	jal	1336 <_STACK_SIZE-0xecca>
    1028:	0404                	addi	s1,sp,512
    102a:	0096                	slli	ra,ra,0x5
    102c:	0000                	unimp
    102e:	5f1e                	lw	t5,228(sp)
    1030:	615f 0100 042e      	0x42e0100615f
    1036:	9604                	0x9604
    1038:	0000                	unimp
    103a:	0000                	unimp
    103c:	f71f 0006 2000      	0x20000006f71f
    1042:	0105                	addi	sp,sp,1
    1044:	0000                	unimp
    1046:	3a01                	jal	956 <_STACK_SIZE-0xf6aa>
    1048:	0404                	addi	s1,sp,512
    104a:	0096                	slli	ra,ra,0x5
    104c:	0000                	unimp
    104e:	3320                	fld	fs0,96(a4)
    1050:	0000                	unimp
    1052:	0100                	addi	s0,sp,128
    1054:	043a                	slli	s0,s0,0xe
    1056:	9604                	0x9604
    1058:	0000                	unimp
    105a:	2000                	fld	fs0,0(s0)
    105c:	0100                	addi	s0,sp,128
    105e:	0000                	unimp
    1060:	3a01                	jal	970 <_STACK_SIZE-0xf690>
    1062:	0404                	addi	s1,sp,512
    1064:	0096                	slli	ra,ra,0x5
    1066:	0000                	unimp
    1068:	fb20                	fsw	fs0,112(a4)
    106a:	0000                	unimp
    106c:	0100                	addi	s0,sp,128
    106e:	043a                	slli	s0,s0,0xe
    1070:	9604                	0x9604
    1072:	0000                	unimp
    1074:	2000                	fld	fs0,0(s0)
    1076:	01b5                	addi	gp,gp,13
    1078:	0000                	unimp
    107a:	3a01                	jal	98a <_STACK_SIZE-0xf676>
    107c:	0404                	addi	s1,sp,512
    107e:	0096                	slli	ra,ra,0x5
    1080:	0000                	unimp
    1082:	b020                	fsd	fs0,96(s0)
    1084:	0001                	nop
    1086:	0100                	addi	s0,sp,128
    1088:	043a                	slli	s0,s0,0xe
    108a:	9604                	0x9604
    108c:	0000                	unimp
    108e:	1e00                	addi	s0,sp,816
    1090:	5f5f 006d 3a01      	0x3a01006d5f5f
    1096:	0404                	addi	s1,sp,512
    1098:	0096                	slli	ra,ra,0x5
    109a:	0000                	unimp
    109c:	1f00                	addi	s0,sp,944
    109e:	00000717          	auipc	a4,0x0
    10a2:	ab20                	fsd	fs0,80(a4)
    10a4:	0001                	nop
    10a6:	0100                	addi	s0,sp,128
    10a8:	0446                	slli	s0,s0,0x11
    10aa:	9604                	0x9604
    10ac:	0000                	unimp
    10ae:	1e00                	addi	s0,sp,816
    10b0:	5f5f 0061 4601      	0x460100615f5f
    10b6:	0404                	addi	s1,sp,512
    10b8:	0096                	slli	ra,ra,0x5
    10ba:	0000                	unimp
    10bc:	1f00                	addi	s0,sp,944
    10be:	0778                	addi	a4,sp,908
    10c0:	0000                	unimp
    10c2:	0520                	addi	s0,sp,648
    10c4:	0001                	nop
    10c6:	0100                	addi	s0,sp,128
    10c8:	045f 9608 0000      	0x9608045f
    10ce:	2000                	fld	fs0,0(s0)
    10d0:	00000033          	add	zero,zero,zero
    10d4:	5f01                	li	t5,-32
    10d6:	0804                	addi	s1,sp,16
    10d8:	0096                	slli	ra,ra,0x5
    10da:	0000                	unimp
    10dc:	0020                	addi	s0,sp,8
    10de:	0001                	nop
    10e0:	0100                	addi	s0,sp,128
    10e2:	045f 9608 0000      	0x9608045f
    10e8:	2000                	fld	fs0,0(s0)
    10ea:	000000fb          	0xfb
    10ee:	5f01                	li	t5,-32
    10f0:	0804                	addi	s1,sp,16
    10f2:	0096                	slli	ra,ra,0x5
    10f4:	0000                	unimp
    10f6:	b520                	fsd	fs0,104(a0)
    10f8:	0001                	nop
    10fa:	0100                	addi	s0,sp,128
    10fc:	045f 9608 0000      	0x9608045f
    1102:	2000                	fld	fs0,0(s0)
    1104:	01b0                	addi	a2,sp,200
    1106:	0000                	unimp
    1108:	5f01                	li	t5,-32
    110a:	0804                	addi	s1,sp,16
    110c:	0096                	slli	ra,ra,0x5
    110e:	0000                	unimp
    1110:	5f1e                	lw	t5,228(sp)
    1112:	6d5f 0100 045f      	0x45f01006d5f
    1118:	9608                	0x9608
    111a:	0000                	unimp
    111c:	0000                	unimp
    111e:	d91f 0007 2000      	0x20000007d91f
    1124:	0105                	addi	sp,sp,1
    1126:	0000                	unimp
    1128:	6401                	0x6401
    112a:	0404                	addi	s1,sp,512
    112c:	0096                	slli	ra,ra,0x5
    112e:	0000                	unimp
    1130:	3320                	fld	fs0,96(a4)
    1132:	0000                	unimp
    1134:	0100                	addi	s0,sp,128
    1136:	0464                	addi	s1,sp,524
    1138:	9604                	0x9604
    113a:	0000                	unimp
    113c:	2000                	fld	fs0,0(s0)
    113e:	0100                	addi	s0,sp,128
    1140:	0000                	unimp
    1142:	6401                	0x6401
    1144:	0404                	addi	s1,sp,512
    1146:	0096                	slli	ra,ra,0x5
    1148:	0000                	unimp
    114a:	fb20                	fsw	fs0,112(a4)
    114c:	0000                	unimp
    114e:	0100                	addi	s0,sp,128
    1150:	0464                	addi	s1,sp,524
    1152:	9604                	0x9604
    1154:	0000                	unimp
    1156:	2000                	fld	fs0,0(s0)
    1158:	01b5                	addi	gp,gp,13
    115a:	0000                	unimp
    115c:	6401                	0x6401
    115e:	0404                	addi	s1,sp,512
    1160:	0096                	slli	ra,ra,0x5
    1162:	0000                	unimp
    1164:	b020                	fsd	fs0,96(s0)
    1166:	0001                	nop
    1168:	0100                	addi	s0,sp,128
    116a:	0464                	addi	s1,sp,524
    116c:	9604                	0x9604
    116e:	0000                	unimp
    1170:	1e00                	addi	s0,sp,816
    1172:	5f5f 006d 6401      	0x6401006d5f5f
    1178:	0404                	addi	s1,sp,512
    117a:	0096                	slli	ra,ra,0x5
    117c:	0000                	unimp
    117e:	1f00                	addi	s0,sp,944
    1180:	07f9                	addi	a5,a5,30
    1182:	0000                	unimp
    1184:	ab20                	fsd	fs0,80(a4)
    1186:	0001                	nop
    1188:	0100                	addi	s0,sp,128
    118a:	96040487          	0x96040487
    118e:	0000                	unimp
    1190:	1e00                	addi	s0,sp,816
    1192:	5f5f 0061 8701      	0x870100615f5f
    1198:	0404                	addi	s1,sp,512
    119a:	0096                	slli	ra,ra,0x5
    119c:	0000                	unimp
    119e:	1f00                	addi	s0,sp,944
    11a0:	080c                	addi	a1,sp,16
    11a2:	0000                	unimp
    11a4:	5f1e                	lw	t5,228(sp)
    11a6:	785f 0100 0495      	0x4950100785f
    11ac:	9605                	srai	a2,a2,0x21
    11ae:	0000                	unimp
    11b0:	0000                	unimp
    11b2:	1e21                	addi	t3,t3,-24
    11b4:	316d                	jal	e5e <_STACK_SIZE-0xf1a2>
    11b6:	0100                	addi	s0,sp,128
    11b8:	04a5                	addi	s1,s1,9
    11ba:	0000960f          	0x960f
    11be:	1e00                	addi	s0,sp,816
    11c0:	306d                	jal	a6a <_STACK_SIZE-0xf596>
    11c2:	0100                	addi	s0,sp,128
    11c4:	04a5                	addi	s1,s1,9
    11c6:	00009613          	slli	a2,ra,0x0
    11ca:	1f00                	addi	s0,sp,944
    11cc:	0886                	slli	a7,a7,0x1
    11ce:	0000                	unimp
    11d0:	0520                	addi	s0,sp,648
    11d2:	0001                	nop
    11d4:	0100                	addi	s0,sp,128
    11d6:	04b0                	addi	a2,sp,584
    11d8:	9608                	0x9608
    11da:	0000                	unimp
    11dc:	2000                	fld	fs0,0(s0)
    11de:	00000033          	add	zero,zero,zero
    11e2:	b001                	j	9e2 <_STACK_SIZE-0xf61e>
    11e4:	0804                	addi	s1,sp,16
    11e6:	0096                	slli	ra,ra,0x5
    11e8:	0000                	unimp
    11ea:	0020                	addi	s0,sp,8
    11ec:	0001                	nop
    11ee:	0100                	addi	s0,sp,128
    11f0:	04b0                	addi	a2,sp,584
    11f2:	9608                	0x9608
    11f4:	0000                	unimp
    11f6:	2000                	fld	fs0,0(s0)
    11f8:	000000fb          	0xfb
    11fc:	b001                	j	9fc <_STACK_SIZE-0xf604>
    11fe:	0804                	addi	s1,sp,16
    1200:	0096                	slli	ra,ra,0x5
    1202:	0000                	unimp
    1204:	b520                	fsd	fs0,104(a0)
    1206:	0001                	nop
    1208:	0100                	addi	s0,sp,128
    120a:	04b0                	addi	a2,sp,584
    120c:	9608                	0x9608
    120e:	0000                	unimp
    1210:	2000                	fld	fs0,0(s0)
    1212:	01b0                	addi	a2,sp,200
    1214:	0000                	unimp
    1216:	b001                	j	a16 <_STACK_SIZE-0xf5ea>
    1218:	0804                	addi	s1,sp,16
    121a:	0096                	slli	ra,ra,0x5
    121c:	0000                	unimp
    121e:	5f1e                	lw	t5,228(sp)
    1220:	6d5f 0100 04b0      	0x4b001006d5f
    1226:	9608                	0x9608
    1228:	0000                	unimp
    122a:	0000                	unimp
    122c:	701f 0009 2000      	0x20000009701f
    1232:	0095                	addi	ra,ra,5
    1234:	0000                	unimp
    1236:	b101                	j	e36 <_STACK_SIZE-0xf1ca>
    1238:	0804                	addi	s1,sp,16
    123a:	0096                	slli	ra,ra,0x5
    123c:	0000                	unimp
    123e:	9a20                	0x9a20
    1240:	0000                	unimp
    1242:	0100                	addi	s0,sp,128
    1244:	04b1                	addi	s1,s1,12
    1246:	9608                	0x9608
    1248:	0000                	unimp
    124a:	2000                	fld	fs0,0(s0)
    124c:	009f 0000 b101      	0xb1010000009f
    1252:	0804                	addi	s1,sp,16
    1254:	0096                	slli	ra,ra,0x5
    1256:	0000                	unimp
    1258:	a420                	fsd	fs0,72(s0)
    125a:	0000                	unimp
    125c:	0100                	addi	s0,sp,128
    125e:	04b1                	addi	s1,s1,12
    1260:	9608                	0x9608
    1262:	0000                	unimp
    1264:	2000                	fld	fs0,0(s0)
    1266:	000001bf 0804b101 	0x804b101000001bf
    126e:	0096                	slli	ra,ra,0x5
    1270:	0000                	unimp
    1272:	7d20                	flw	fs0,120(a0)
    1274:	0001                	nop
    1276:	0100                	addi	s0,sp,128
    1278:	04b1                	addi	s1,s1,12
    127a:	9608                	0x9608
    127c:	0000                	unimp
    127e:	2000                	fld	fs0,0(s0)
    1280:	01ba                	slli	gp,gp,0xe
    1282:	0000                	unimp
    1284:	b101                	j	e84 <_STACK_SIZE-0xf17c>
    1286:	0804                	addi	s1,sp,16
    1288:	0096                	slli	ra,ra,0x5
    128a:	0000                	unimp
    128c:	3820                	fld	fs0,112(s0)
    128e:	0000                	unimp
    1290:	0100                	addi	s0,sp,128
    1292:	04b1                	addi	s1,s1,12
    1294:	9608                	0x9608
    1296:	0000                	unimp
    1298:	1f00                	addi	s0,sp,944
    129a:	00000913          	li	s2,0
    129e:	3d20                	fld	fs0,120(a0)
    12a0:	0000                	unimp
    12a2:	0100                	addi	s0,sp,128
    12a4:	04b1                	addi	s1,s1,12
    12a6:	9608                	0x9608
    12a8:	0000                	unimp
    12aa:	2000                	fld	fs0,0(s0)
    12ac:	00000043          	fmadd.s	ft0,ft0,ft0,ft0,rne
    12b0:	b101                	j	eb0 <_STACK_SIZE-0xf150>
    12b2:	0804                	addi	s1,sp,16
    12b4:	0096                	slli	ra,ra,0x5
    12b6:	0000                	unimp
    12b8:	1f00                	addi	s0,sp,944
    12ba:	00000933          	add	s2,zero,zero
    12be:	3d20                	fld	fs0,120(a0)
    12c0:	0000                	unimp
    12c2:	0100                	addi	s0,sp,128
    12c4:	04b1                	addi	s1,s1,12
    12c6:	9608                	0x9608
    12c8:	0000                	unimp
    12ca:	2000                	fld	fs0,0(s0)
    12cc:	00000043          	fmadd.s	ft0,ft0,ft0,ft0,rne
    12d0:	b101                	j	ed0 <_STACK_SIZE-0xf130>
    12d2:	0804                	addi	s1,sp,16
    12d4:	0096                	slli	ra,ra,0x5
    12d6:	0000                	unimp
    12d8:	1f00                	addi	s0,sp,944
    12da:	00000953          	fadd.s	fs2,ft0,ft0,rne
    12de:	3d20                	fld	fs0,120(a0)
    12e0:	0000                	unimp
    12e2:	0100                	addi	s0,sp,128
    12e4:	04b1                	addi	s1,s1,12
    12e6:	9608                	0x9608
    12e8:	0000                	unimp
    12ea:	2000                	fld	fs0,0(s0)
    12ec:	00000043          	fmadd.s	ft0,ft0,ft0,ft0,rne
    12f0:	b101                	j	ef0 <_STACK_SIZE-0xf110>
    12f2:	0804                	addi	s1,sp,16
    12f4:	0096                	slli	ra,ra,0x5
    12f6:	0000                	unimp
    12f8:	2100                	fld	fs0,0(a0)
    12fa:	3d20                	fld	fs0,120(a0)
    12fc:	0000                	unimp
    12fe:	0100                	addi	s0,sp,128
    1300:	04b1                	addi	s1,s1,12
    1302:	9608                	0x9608
    1304:	0000                	unimp
    1306:	2000                	fld	fs0,0(s0)
    1308:	00000043          	fmadd.s	ft0,ft0,ft0,ft0,rne
    130c:	b101                	j	f0c <_STACK_SIZE-0xf0f4>
    130e:	0804                	addi	s1,sp,16
    1310:	0096                	slli	ra,ra,0x5
    1312:	0000                	unimp
    1314:	0000                	unimp
    1316:	831f 0009 1e00      	0x1e000009831f
    131c:	5f5f 0078 b601      	0xb60100785f5f
    1322:	0504                	addi	s1,sp,640
    1324:	0096                	slli	ra,ra,0x5
    1326:	0000                	unimp
    1328:	2100                	fld	fs0,0(a0)
    132a:	5f1e                	lw	t5,228(sp)
    132c:	785f 0100 04be      	0x4be0100785f
    1332:	9605                	srai	a2,a2,0x21
    1334:	0000                	unimp
    1336:	0000                	unimp
    1338:	0000                	unimp
    133a:	0422                	slli	s0,s0,0x8
    133c:	00ae                	slli	ra,ra,0xb
    133e:	0000                	unimp
    1340:	00010a23          	sb	zero,20(sp) # 14 <_STACK_SIZE-0xffec>
    1344:	0a00                	addi	s0,sp,272
    1346:	0001                	nop
    1348:	2300                	fld	fs0,0(a4)
    134a:	0049                	c.nop	18
    134c:	0000                	unimp
    134e:	0049                	c.nop	18
    1350:	0000                	unimp
    1352:	00002023          	sw	zero,0(zero) # 0 <_STACK_SIZE-0x10000>
    1356:	2000                	fld	fs0,0(s0)
    1358:	0000                	unimp
    135a:	0000                	unimp
    135c:	0022                	c.slli	zero,0x8
    135e:	0000                	unimp
    1360:	0002                	c.slli64	zero
    1362:	0000038f          	0x38f
    1366:	0104                	addi	s1,sp,128
    1368:	0f4e                	slli	t5,t5,0x13
    136a:	0000                	unimp
    136c:	a0c0                	fsd	fs0,128(s1)
    136e:	8000                	0x8000
    1370:	a0e4                	fsd	fs1,192(s1)
    1372:	8000                	0x8000
    1374:	029e                	slli	t0,t0,0x7
    1376:	0000                	unimp
    1378:	0114                	addi	a3,sp,128
    137a:	0000                	unimp
    137c:	02d0                	addi	a2,sp,324
    137e:	0000                	unimp
    1380:	8001                	c.srli64	s0
    1382:	0022                	c.slli	zero,0x8
    1384:	0000                	unimp
    1386:	0002                	c.slli64	zero
    1388:	000003a3          	sb	zero,7(zero) # 7 <_STACK_SIZE-0xfff9>
    138c:	0104                	addi	s1,sp,128
    138e:	0fe0                	addi	s0,sp,988
    1390:	0000                	unimp
    1392:	a0e4                	fsd	fs1,192(s1)
    1394:	8000                	0x8000
    1396:	a198                	fsd	fa4,0(a1)
    1398:	8000                	0x8000
    139a:	02dc                	addi	a5,sp,324
    139c:	0000                	unimp
    139e:	0114                	addi	a3,sp,128
    13a0:	0000                	unimp
    13a2:	02d0                	addi	a2,sp,324
    13a4:	0000                	unimp
    13a6:	8001                	c.srli64	s0
    13a8:	000000d3          	fadd.s	ft1,ft0,ft0,rne
    13ac:	0004                	0x4
    13ae:	000003b7          	lui	t2,0x0
    13b2:	0104                	addi	s1,sp,128
    13b4:	0000030b          	0x30b
    13b8:	d50c                	sw	a1,40(a0)
    13ba:	0000                	unimp
    13bc:	1400                	addi	s0,sp,544
    13be:	0001                	nop
    13c0:	4800                	lw	s0,16(s0)
    13c2:	0011                	c.nop	4
    13c4:	0200                	addi	s0,sp,256
    13c6:	0504                	addi	s1,sp,640
    13c8:	6e69                	lui	t3,0x1a
    13ca:	0074                	addi	a3,sp,12
    13cc:	6b070403          	lb	s0,1712(a4) # 174e <_STACK_SIZE-0xe8b2>
    13d0:	0000                	unimp
    13d2:	0300                	addi	s0,sp,384
    13d4:	0508                	addi	a0,sp,640
    13d6:	00000053          	fadd.s	ft0,ft0,ft0,rne
    13da:	97041003          	lh	zero,-1680(s0) # 6970 <_STACK_SIZE-0x9690>
    13de:	0001                	nop
    13e0:	0300                	addi	s0,sp,384
    13e2:	0601                	addi	a2,a2,0
    13e4:	0089                	addi	ra,ra,2
    13e6:	0000                	unimp
    13e8:	87080103          	lb	sp,-1936(a6) # fffff870 <__stack+0x7fe85efc>
    13ec:	0000                	unimp
    13ee:	0300                	addi	s0,sp,384
    13f0:	0502                	c.slli64	a0
    13f2:	0029                	c.nop	10
    13f4:	0000                	unimp
    13f6:	ba070203          	lb	tp,-1120(a4)
    13fa:	0000                	unimp
    13fc:	0300                	addi	s0,sp,384
    13fe:	0504                	addi	s1,sp,640
    1400:	0058                	addi	a4,sp,4
    1402:	0000                	unimp
    1404:	66070403          	lb	s0,1632(a4)
    1408:	0000                	unimp
    140a:	0300                	addi	s0,sp,384
    140c:	0708                	addi	a0,sp,896
    140e:	0061                	c.nop	24
    1410:	0000                	unimp
    1412:	90080103          	lb	sp,-1792(a6)
    1416:	0000                	unimp
    1418:	0400                	addi	s0,sp,512
    141a:	00a9                	addi	ra,ra,10
    141c:	0000                	unimp
    141e:	7b01                	lui	s6,0xfffe0
    1420:	4016                	0x4016
    1422:	0000                	unimp
    1424:	0500                	addi	s0,sp,640
    1426:	0071                	c.nop	28
    1428:	0000                	unimp
    142a:	1a040403          	lb	s0,416(s0)
    142e:	0000                	unimp
    1430:	0300                	addi	s0,sp,384
    1432:	0308                	addi	a0,sp,384
    1434:	0012                	c.slli	zero,0x4
    1436:	0000                	unimp
    1438:	9c040803          	lb	a6,-1600(s0)
    143c:	0001                	nop
    143e:	0300                	addi	s0,sp,384
    1440:	0310                	addi	a2,sp,384
    1442:	016e                	slli	sp,sp,0x1b
    1444:	0000                	unimp
    1446:	8f032003          	lw	zero,-1808(t1) # ffff98f0 <__stack+0x7fe7ff7c>
    144a:	0001                	nop
    144c:	0600                	addi	s0,sp,768
    144e:	007d                	c.nop	31
    1450:	0000                	unimp
    1452:	00b5                	addi	ra,ra,13
    1454:	0000                	unimp
    1456:	00002407          	flw	fs0,0(zero) # 0 <_STACK_SIZE-0x10000>
    145a:	ff00                	fsw	fs0,56(a4)
    145c:	0500                	addi	s0,sp,640
    145e:	00a5                	addi	ra,ra,9
    1460:	0000                	unimp
    1462:	7d08                	flw	fa0,56(a0)
    1464:	0000                	unimp
    1466:	0100                	addi	s0,sp,128
    1468:	0202                	c.slli64	tp
    146a:	b516                	fsd	ft5,168(sp)
    146c:	0000                	unimp
    146e:	0900                	addi	s0,sp,144
    1470:	00ba                	slli	ra,ra,0xe
    1472:	0000                	unimp
    1474:	b202                	fsd	ft0,288(sp)
    1476:	0f02                	c.slli64	t5
    1478:	0305                	addi	t1,t1,1
    147a:	0298                	addi	a4,sp,320
    147c:	8005                	srli	s0,s0,0x1
	...

Disassembly of section .debug_abbrev:

00000000 <.debug_abbrev>:
   0:	1101                	addi	sp,sp,-32
   2:	2501                	jal	602 <_STACK_SIZE-0xf9fe>
   4:	130e                	slli	t1,t1,0x23
   6:	1b0e030b          	0x1b0e030b
   a:	110e                	slli	sp,sp,0x23
   c:	1201                	addi	tp,tp,-32
   e:	1006                	c.slli	zero,0x21
  10:	02000017          	auipc	zero,0x2000
  14:	0024                	addi	s1,sp,8
  16:	0b3e0b0b          	0xb3e0b0b
  1a:	00000e03          	lb	t3,0(zero) # 0 <_STACK_SIZE-0x10000>
  1e:	0b002403          	lw	s0,176(zero) # b0 <_STACK_SIZE-0xff50>
  22:	030b3e0b          	0x30b3e0b
  26:	0008                	0x8
  28:	0400                	addi	s0,sp,512
  2a:	0016                	c.slli	zero,0x5
  2c:	0b3a0e03          	lb	t3,179(s4)
  30:	0b390b3b          	0xb390b3b
  34:	1349                	addi	t1,t1,-14
  36:	0000                	unimp
  38:	2605                	jal	358 <_STACK_SIZE-0xfca8>
  3a:	4900                	lw	s0,16(a0)
  3c:	06000013          	li	zero,96
  40:	0e030113          	addi	sp,t1,224
  44:	0b3a0b0b          	0xb3a0b0b
  48:	0b39053b          	0xb39053b
  4c:	1301                	addi	t1,t1,-32
  4e:	0000                	unimp
  50:	03000d07          	0x3000d07
  54:	3a08                	fld	fa0,48(a2)
  56:	39053b0b          	0x39053b0b
  5a:	3813490b          	0x3813490b
  5e:	0800000b          	0x800000b
  62:	000d                	c.nop	3
  64:	0b3a0e03          	lb	t3,179(s4)
  68:	0b39053b          	0xb39053b
  6c:	1349                	addi	t1,t1,-14
  6e:	0b38                	addi	a4,sp,408
  70:	0000                	unimp
  72:	1709                	addi	a4,a4,-30
  74:	0b01                	addi	s6,s6,0
  76:	3b0b3a0b          	0x3b0b3a0b
  7a:	3905                	jal	fffffcaa <__stack+0x7fe86336>
  7c:	0013010b          	0x13010b
  80:	0a00                	addi	s0,sp,272
  82:	000d                	c.nop	3
  84:	0b3a0803          	lb	a6,179(s4)
  88:	0b39053b          	0xb39053b
  8c:	1349                	addi	t1,t1,-14
  8e:	0000                	unimp
  90:	0300160b          	0x300160b
  94:	3a0e                	fld	fs4,224(sp)
  96:	39053b0b          	0x39053b0b
  9a:	0013490b          	0x13490b
  9e:	0c00                	addi	s0,sp,528
  a0:	0101                	addi	sp,sp,0
  a2:	1349                	addi	t1,t1,-14
  a4:	1301                	addi	t1,t1,-32
  a6:	0000                	unimp
  a8:	210d                	jal	4ca <_STACK_SIZE-0xfb36>
  aa:	4900                	lw	s0,16(a0)
  ac:	000b2f13          	slti	t5,s6,0
  b0:	0e00                	addi	s0,sp,784
  b2:	0034                	addi	a3,sp,8
  b4:	0b3a0e03          	lb	t3,179(s4)
  b8:	0b39053b          	0xb39053b
  bc:	1349                	addi	t1,t1,-14
  be:	193c193f 2e0f0000 	0x2e0f0000193c193f
  c6:	3f01                	jal	ffffffd6 <__stack+0x7fe86662>
  c8:	0319                	addi	t1,t1,6
  ca:	3a0e                	fld	fs4,224(sp)
  cc:	39053b0b          	0x39053b0b
  d0:	4919270b          	0x4919270b
  d4:	12011113          	0x12011113
  d8:	4006                	0x4006
  da:	9718                	0x9718
  dc:	1942                	slli	s2,s2,0x30
  de:	1301                	addi	t1,t1,-32
  e0:	0000                	unimp
  e2:	0510                	addi	a2,sp,640
  e4:	0300                	addi	s0,sp,384
  e6:	3a08                	fld	fa0,48(a2)
  e8:	39053b0b          	0x39053b0b
  ec:	0213490b          	0x213490b
  f0:	11000017          	auipc	zero,0x11000
  f4:	011d                	addi	sp,sp,7
  f6:	1331                	addi	t1,t1,-20
  f8:	0152                	slli	sp,sp,0x14
  fa:	1755                	addi	a4,a4,-11
  fc:	0b58                	addi	a4,sp,404
  fe:	0559                	addi	a0,a0,22
 100:	00000b57          	0xb57
 104:	0512                	slli	a0,a0,0x4
 106:	3100                	fld	fs0,32(a0)
 108:	00170213          	addi	tp,a4,1
 10c:	1300                	addi	s0,sp,416
 10e:	1755010b          	0x1755010b
 112:	0000                	unimp
 114:	3414                	fld	fa3,40(s0)
 116:	3100                	fld	fs0,32(a0)
 118:	15000013          	li	zero,336
 11c:	0034                	addi	a3,sp,8
 11e:	1331                	addi	t1,t1,-20
 120:	1702                	slli	a4,a4,0x20
 122:	0000                	unimp
 124:	0b16                	slli	s6,s6,0x5
 126:	3101                	jal	fffffd26 <__stack+0x7fe863b2>
 128:	01175513          	srli	a0,a4,0x11
 12c:	17000013          	li	zero,368
 130:	1331010b          	0x1331010b
 134:	0111                	addi	sp,sp,4
 136:	0612                	slli	a2,a2,0x4
 138:	1301                	addi	t1,t1,-32
 13a:	0000                	unimp
 13c:	8918                	0x8918
 13e:	0182                	c.slli64	gp
 140:	1100                	addi	s0,sp,160
 142:	3101                	jal	fffffd42 <__stack+0x7fe863ce>
 144:	19000013          	li	zero,400
 148:	1331010b          	0x1331010b
 14c:	1755                	addi	a4,a4,-11
 14e:	0000                	unimp
 150:	341a                	fld	fs0,416(sp)
 152:	3100                	fld	fs0,32(a0)
 154:	00180213          	addi	tp,a6,1
 158:	1b00                	addi	s0,sp,432
 15a:	012e                	slli	sp,sp,0xb
 15c:	0b3a0e03          	lb	t3,179(s4)
 160:	0b39053b          	0xb39053b
 164:	13491927          	0x13491927
 168:	0b20                	addi	s0,sp,408
 16a:	1301                	addi	t1,t1,-32
 16c:	0000                	unimp
 16e:	051c                	addi	a5,sp,640
 170:	0300                	addi	s0,sp,384
 172:	3a08                	fld	fa0,48(a2)
 174:	39053b0b          	0x39053b0b
 178:	0013490b          	0x13490b
 17c:	1d00                	addi	s0,sp,688
 17e:	0034                	addi	a3,sp,8
 180:	0b3a0803          	lb	a6,179(s4)
 184:	0b39053b          	0xb39053b
 188:	1349                	addi	t1,t1,-14
 18a:	0000                	unimp
 18c:	0b1e                	slli	s6,s6,0x7
 18e:	0101                	addi	sp,sp,0
 190:	1f000013          	li	zero,496
 194:	0034                	addi	a3,sp,8
 196:	0b3a0e03          	lb	t3,179(s4)
 19a:	0b39053b          	0xb39053b
 19e:	1349                	addi	t1,t1,-14
 1a0:	0000                	unimp
 1a2:	0b20                	addi	s0,sp,408
 1a4:	0001                	nop
 1a6:	2100                	fld	fs0,0(a0)
 1a8:	0b0b000f          	0xb0b000f
 1ac:	1349                	addi	t1,t1,-14
 1ae:	0000                	unimp
 1b0:	2e22                	fld	ft8,8(sp)
 1b2:	3f00                	fld	fs0,56(a4)
 1b4:	3c19                	jal	fffffbca <__stack+0x7fe86256>
 1b6:	6e19                	lui	t3,0x6
 1b8:	030e                	slli	t1,t1,0x3
 1ba:	000e                	c.slli	zero,0x3
 1bc:	0000                	unimp
 1be:	1101                	addi	sp,sp,-32
 1c0:	2501                	jal	7c0 <_STACK_SIZE-0xf840>
 1c2:	130e                	slli	t1,t1,0x23
 1c4:	1b0e030b          	0x1b0e030b
 1c8:	110e                	slli	sp,sp,0x23
 1ca:	1201                	addi	tp,tp,-32
 1cc:	1006                	c.slli	zero,0x21
 1ce:	02000017          	auipc	zero,0x2000
 1d2:	0024                	addi	s1,sp,8
 1d4:	0b3e0b0b          	0xb3e0b0b
 1d8:	00000e03          	lb	t3,0(zero) # 0 <_STACK_SIZE-0x10000>
 1dc:	0b002403          	lw	s0,176(zero) # b0 <_STACK_SIZE-0xff50>
 1e0:	030b3e0b          	0x30b3e0b
 1e4:	0008                	0x8
 1e6:	0400                	addi	s0,sp,512
 1e8:	0016                	c.slli	zero,0x5
 1ea:	0b3a0e03          	lb	t3,179(s4)
 1ee:	0b390b3b          	0xb390b3b
 1f2:	1349                	addi	t1,t1,-14
 1f4:	0000                	unimp
 1f6:	2605                	jal	516 <_STACK_SIZE-0xfaea>
 1f8:	4900                	lw	s0,16(a0)
 1fa:	06000013          	li	zero,96
 1fe:	0e030113          	addi	sp,t1,224
 202:	0b3a0b0b          	0xb3a0b0b
 206:	0b39053b          	0xb39053b
 20a:	1301                	addi	t1,t1,-32
 20c:	0000                	unimp
 20e:	03000d07          	0x3000d07
 212:	3a08                	fld	fa0,48(a2)
 214:	39053b0b          	0x39053b0b
 218:	3813490b          	0x3813490b
 21c:	0800000b          	0x800000b
 220:	000d                	c.nop	3
 222:	0b3a0e03          	lb	t3,179(s4)
 226:	0b39053b          	0xb39053b
 22a:	1349                	addi	t1,t1,-14
 22c:	0b38                	addi	a4,sp,408
 22e:	0000                	unimp
 230:	1709                	addi	a4,a4,-30
 232:	0b01                	addi	s6,s6,0
 234:	3b0b3a0b          	0x3b0b3a0b
 238:	3905                	jal	fffffe68 <__stack+0x7fe864f4>
 23a:	0013010b          	0x13010b
 23e:	0a00                	addi	s0,sp,272
 240:	000d                	c.nop	3
 242:	0b3a0803          	lb	a6,179(s4)
 246:	0b39053b          	0xb39053b
 24a:	1349                	addi	t1,t1,-14
 24c:	0000                	unimp
 24e:	0300160b          	0x300160b
 252:	3a0e                	fld	fs4,224(sp)
 254:	39053b0b          	0x39053b0b
 258:	0013490b          	0x13490b
 25c:	0c00                	addi	s0,sp,528
 25e:	0101                	addi	sp,sp,0
 260:	1349                	addi	t1,t1,-14
 262:	1301                	addi	t1,t1,-32
 264:	0000                	unimp
 266:	210d                	jal	688 <_STACK_SIZE-0xf978>
 268:	4900                	lw	s0,16(a0)
 26a:	000b2f13          	slti	t5,s6,0
 26e:	0e00                	addi	s0,sp,784
 270:	0034                	addi	a3,sp,8
 272:	0b3a0e03          	lb	t3,179(s4)
 276:	0b39053b          	0xb39053b
 27a:	1349                	addi	t1,t1,-14
 27c:	193c193f 2e0f0000 	0x2e0f0000193c193f
 284:	3f01                	jal	194 <_STACK_SIZE-0xfe6c>
 286:	0319                	addi	t1,t1,6
 288:	3a0e                	fld	fs4,224(sp)
 28a:	39053b0b          	0x39053b0b
 28e:	4919270b          	0x4919270b
 292:	12011113          	0x12011113
 296:	4006                	0x4006
 298:	9718                	0x9718
 29a:	1942                	slli	s2,s2,0x30
 29c:	1301                	addi	t1,t1,-32
 29e:	0000                	unimp
 2a0:	0510                	addi	a2,sp,640
 2a2:	0300                	addi	s0,sp,384
 2a4:	3a08                	fld	fa0,48(a2)
 2a6:	39053b0b          	0x39053b0b
 2aa:	0213490b          	0x213490b
 2ae:	11000017          	auipc	zero,0x11000
 2b2:	0034                	addi	a3,sp,8
 2b4:	0b3a0803          	lb	a6,179(s4)
 2b8:	0b39053b          	0xb39053b
 2bc:	1349                	addi	t1,t1,-14
 2be:	1702                	slli	a4,a4,0x20
 2c0:	0000                	unimp
 2c2:	1d12                	slli	s10,s10,0x24
 2c4:	3101                	jal	fffffec4 <__stack+0x7fe86550>
 2c6:	55015213          	0x55015213
 2ca:	590b5817          	auipc	a6,0x590b5
 2ce:	5705                	li	a4,-31
 2d0:	1300000b          	0x1300000b
 2d4:	0005                	c.nop	1
 2d6:	1331                	addi	t1,t1,-20
 2d8:	1702                	slli	a4,a4,0x20
 2da:	0000                	unimp
 2dc:	0b14                	addi	a3,sp,400
 2de:	5501                	li	a0,-32
 2e0:	15000017          	auipc	zero,0x15000
 2e4:	0034                	addi	a3,sp,8
 2e6:	1331                	addi	t1,t1,-20
 2e8:	0000                	unimp
 2ea:	3416                	fld	fs0,352(sp)
 2ec:	3100                	fld	fs0,32(a0)
 2ee:	00170213          	addi	tp,a4,1
 2f2:	1700                	addi	s0,sp,928
 2f4:	1331010b          	0x1331010b
 2f8:	1755                	addi	a4,a4,-11
 2fa:	1301                	addi	t1,t1,-32
 2fc:	0000                	unimp
 2fe:	0b18                	addi	a4,sp,400
 300:	3101                	jal	ffffff00 <__stack+0x7fe8658c>
 302:	12011113          	0x12011113
 306:	0106                	slli	sp,sp,0x1
 308:	19000013          	li	zero,400
 30c:	0034                	addi	a3,sp,8
 30e:	1331                	addi	t1,t1,-20
 310:	1802                	slli	a6,a6,0x20
 312:	0000                	unimp
 314:	891a                	mv	s2,t1
 316:	0182                	c.slli64	gp
 318:	1100                	addi	s0,sp,160
 31a:	3101                	jal	ffffff1a <__stack+0x7fe865a6>
 31c:	1b000013          	li	zero,432
 320:	1331010b          	0x1331010b
 324:	0111                	addi	sp,sp,4
 326:	0612                	slli	a2,a2,0x4
 328:	0000                	unimp
 32a:	2e1c                	fld	fa5,24(a2)
 32c:	0301                	addi	t1,t1,0
 32e:	3a0e                	fld	fs4,224(sp)
 330:	39053b0b          	0x39053b0b
 334:	4919270b          	0x4919270b
 338:	010b2013          	slti	zero,s6,16
 33c:	1d000013          	li	zero,464
 340:	0005                	c.nop	1
 342:	0b3a0803          	lb	a6,179(s4)
 346:	0b39053b          	0xb39053b
 34a:	1349                	addi	t1,t1,-14
 34c:	0000                	unimp
 34e:	341e                	fld	fs0,480(sp)
 350:	0300                	addi	s0,sp,384
 352:	3a08                	fld	fa0,48(a2)
 354:	39053b0b          	0x39053b0b
 358:	0013490b          	0x13490b
 35c:	1f00                	addi	s0,sp,944
 35e:	1301010b          	0x1301010b
 362:	0000                	unimp
 364:	3420                	fld	fs0,104(s0)
 366:	0300                	addi	s0,sp,384
 368:	3a0e                	fld	fs4,224(sp)
 36a:	39053b0b          	0x39053b0b
 36e:	0013490b          	0x13490b
 372:	2100                	fld	fs0,0(a0)
 374:	0000010b          	0x10b
 378:	0f22                	slli	t5,t5,0x8
 37a:	0b00                	addi	s0,sp,400
 37c:	0013490b          	0x13490b
 380:	2300                	fld	fs0,0(a4)
 382:	002e                	c.slli	zero,0xb
 384:	193c193f 0e030e6e 	0xe030e6e193c193f
 38c:	0000                	unimp
 38e:	0100                	addi	s0,sp,128
 390:	0011                	c.nop	4
 392:	0610                	addi	a2,sp,768
 394:	0111                	addi	sp,sp,4
 396:	0112                	slli	sp,sp,0x4
 398:	0e1b0e03          	lb	t3,225(s6) # fffe00e1 <__stack+0x7fe6676d>
 39c:	0e25                	addi	t3,t3,9
 39e:	00000513          	li	a0,0
 3a2:	0100                	addi	s0,sp,128
 3a4:	0011                	c.nop	4
 3a6:	0610                	addi	a2,sp,768
 3a8:	0111                	addi	sp,sp,4
 3aa:	0112                	slli	sp,sp,0x4
 3ac:	0e1b0e03          	lb	t3,225(s6)
 3b0:	0e25                	addi	t3,t3,9
 3b2:	00000513          	li	a0,0
 3b6:	0100                	addi	s0,sp,128
 3b8:	0111                	addi	sp,sp,4
 3ba:	0e25                	addi	t3,t3,9
 3bc:	0e030b13          	addi	s6,t1,224
 3c0:	17100e1b          	0x17100e1b
 3c4:	0000                	unimp
 3c6:	2402                	fld	fs0,0(sp)
 3c8:	0b00                	addi	s0,sp,400
 3ca:	030b3e0b          	0x30b3e0b
 3ce:	0008                	0x8
 3d0:	0300                	addi	s0,sp,384
 3d2:	0024                	addi	s1,sp,8
 3d4:	0b3e0b0b          	0xb3e0b0b
 3d8:	00000e03          	lb	t3,0(zero) # 0 <_STACK_SIZE-0x10000>
 3dc:	1604                	addi	s1,sp,800
 3de:	0300                	addi	s0,sp,384
 3e0:	3a0e                	fld	fs4,224(sp)
 3e2:	390b3b0b          	0x390b3b0b
 3e6:	0013490b          	0x13490b
 3ea:	0500                	addi	s0,sp,640
 3ec:	0026                	c.slli	zero,0x9
 3ee:	1349                	addi	t1,t1,-14
 3f0:	0000                	unimp
 3f2:	0106                	slli	sp,sp,0x1
 3f4:	4901                	li	s2,0
 3f6:	00130113          	addi	sp,t1,1
 3fa:	0700                	addi	s0,sp,896
 3fc:	0021                	c.nop	8
 3fe:	1349                	addi	t1,t1,-14
 400:	00000b2f          	0xb2f
 404:	3408                	fld	fa0,40(s0)
 406:	0300                	addi	s0,sp,384
 408:	3a0e                	fld	fs4,224(sp)
 40a:	39053b0b          	0x39053b0b
 40e:	3f13490b          	0x3f13490b
 412:	3c19                	jal	fffffe28 <__stack+0x7fe864b4>
 414:	0019                	c.nop	6
 416:	0900                	addi	s0,sp,144
 418:	0034                	addi	a3,sp,8
 41a:	0b3a1347          	fmsub.d	ft6,fs4,fs3,ft1,rtz
 41e:	0b39053b          	0xb39053b
 422:	1802                	slli	a6,a6,0x20
 424:	0000                	unimp
	...

Disassembly of section .debug_loc:

00000000 <.debug_loc>:
       0:	0000                	unimp
       2:	0000                	unimp
       4:	00a4                	addi	s1,sp,72
       6:	0000                	unimp
       8:	0006                	c.slli	zero,0x1
       a:	935a                	add	t1,t1,s6
       c:	5b04                	lw	s1,48(a4)
       e:	00a40493          	addi	s1,s0,10
      12:	0000                	unimp
      14:	0168                	addi	a0,sp,140
      16:	0000                	unimp
      18:	0006                	c.slli	zero,0x1
      1a:	0af503f3          	0xaf503f3
      1e:	9f25                	0x9f25
      20:	0168                	addi	a0,sp,140
      22:	0000                	unimp
      24:	018c                	addi	a1,sp,192
      26:	0000                	unimp
      28:	0006                	c.slli	zero,0x1
      2a:	935a                	add	t1,t1,s6
      2c:	5b04                	lw	s1,48(a4)
      2e:	018c0493          	addi	s1,s8,24 # fffe0018 <__stack+0x7fe666a4>
      32:	0000                	unimp
      34:	03d0                	addi	a2,sp,452
      36:	0000                	unimp
      38:	0006                	c.slli	zero,0x1
      3a:	0af503f3          	0xaf503f3
      3e:	9f25                	0x9f25
      40:	03d0                	addi	a2,sp,452
      42:	0000                	unimp
      44:	045c                	addi	a5,sp,516
      46:	0000                	unimp
      48:	0006                	c.slli	zero,0x1
      4a:	935a                	add	t1,t1,s6
      4c:	5b04                	lw	s1,48(a4)
      4e:	045c0493          	addi	s1,s8,69
      52:	0000                	unimp
      54:	05cc                	addi	a1,sp,708
      56:	0000                	unimp
      58:	0006                	c.slli	zero,0x1
      5a:	0af503f3          	0xaf503f3
      5e:	9f25                	0x9f25
      60:	05cc                	addi	a1,sp,708
      62:	0000                	unimp
      64:	05d8                	addi	a4,sp,708
      66:	0000                	unimp
      68:	0006                	c.slli	zero,0x1
      6a:	935a                	add	t1,t1,s6
      6c:	5b04                	lw	s1,48(a4)
      6e:	00000493          	li	s1,0
	...
      7a:	0000                	unimp
      7c:	000000a7          	0xa7
      80:	0006                	c.slli	zero,0x1
      82:	935c                	0x935c
      84:	5d04                	lw	s1,56(a0)
      86:	00a70493          	addi	s1,a4,10
      8a:	0000                	unimp
      8c:	0168                	addi	a0,sp,140
      8e:	0000                	unimp
      90:	0006                	c.slli	zero,0x1
      92:	0cf503f3          	0xcf503f3
      96:	9f25                	0x9f25
      98:	0168                	addi	a0,sp,140
      9a:	0000                	unimp
      9c:	0000018f          	0x18f
      a0:	0006                	c.slli	zero,0x1
      a2:	935c                	0x935c
      a4:	5d04                	lw	s1,56(a0)
      a6:	018f0493          	addi	s1,t5,24
      aa:	0000                	unimp
      ac:	03d0                	addi	a2,sp,452
      ae:	0000                	unimp
      b0:	0006                	c.slli	zero,0x1
      b2:	0cf503f3          	0xcf503f3
      b6:	9f25                	0x9f25
      b8:	03d0                	addi	a2,sp,452
      ba:	0000                	unimp
      bc:	0418                	addi	a4,sp,512
      be:	0000                	unimp
      c0:	0006                	c.slli	zero,0x1
      c2:	935c                	0x935c
      c4:	5d04                	lw	s1,56(a0)
      c6:	04180493          	addi	s1,a6,65 # 590b530b <SYSCALL_ADDR+0x570a530b>
      ca:	0000                	unimp
      cc:	0420                	addi	s0,sp,520
      ce:	0000                	unimp
      d0:	0006                	c.slli	zero,0x1
      d2:	0cf503f3          	0xcf503f3
      d6:	9f25                	0x9f25
      d8:	0420                	addi	s0,sp,520
      da:	0000                	unimp
      dc:	00000463          	beqz	zero,e4 <_STACK_SIZE-0xff1c>
      e0:	0006                	c.slli	zero,0x1
      e2:	935c                	0x935c
      e4:	5d04                	lw	s1,56(a0)
      e6:	04630493          	addi	s1,t1,70
      ea:	0000                	unimp
      ec:	05cc                	addi	a1,sp,708
      ee:	0000                	unimp
      f0:	0006                	c.slli	zero,0x1
      f2:	0cf503f3          	0xcf503f3
      f6:	9f25                	0x9f25
      f8:	05cc                	addi	a1,sp,708
      fa:	0000                	unimp
      fc:	05d8                	addi	a4,sp,708
      fe:	0000                	unimp
     100:	0006                	c.slli	zero,0x1
     102:	935c                	0x935c
     104:	5d04                	lw	s1,56(a0)
     106:	00000493          	li	s1,0
	...
     112:	0000                	unimp
     114:	0294                	addi	a3,sp,320
     116:	0000                	unimp
     118:	0002                	c.slli64	zero
     11a:	9f30                	0x9f30
     11c:	02d0                	addi	a2,sp,324
     11e:	0000                	unimp
     120:	05d8                	addi	a4,sp,708
     122:	0000                	unimp
     124:	0002                	c.slli64	zero
     126:	9f30                	0x9f30
	...
     134:	0074                	addi	a3,sp,12
     136:	0000                	unimp
     138:	0006                	c.slli	zero,0x1
     13a:	935c                	0x935c
     13c:	5d04                	lw	s1,56(a0)
     13e:	01680493          	addi	s1,a6,22
     142:	0000                	unimp
     144:	0000018f          	0x18f
     148:	0006                	c.slli	zero,0x1
     14a:	935c                	0x935c
     14c:	5d04                	lw	s1,56(a0)
     14e:	018f0493          	addi	s1,t5,24
     152:	0000                	unimp
     154:	0194                	addi	a3,sp,192
     156:	0000                	unimp
     158:	0006                	c.slli	zero,0x1
     15a:	9362                	add	t1,t1,s8
     15c:	6304                	flw	fs1,0(a4)
     15e:	03d00493          	li	s1,61
     162:	0000                	unimp
     164:	0418                	addi	a4,sp,512
     166:	0000                	unimp
     168:	0006                	c.slli	zero,0x1
     16a:	935c                	0x935c
     16c:	5d04                	lw	s1,56(a0)
     16e:	04200493          	li	s1,66
     172:	0000                	unimp
     174:	043c                	addi	a5,sp,520
     176:	0000                	unimp
     178:	0006                	c.slli	zero,0x1
     17a:	935c                	0x935c
     17c:	5d04                	lw	s1,56(a0)
     17e:	05cc0493          	addi	s1,s8,92
     182:	0000                	unimp
     184:	05d8                	addi	a4,sp,708
     186:	0000                	unimp
     188:	0006                	c.slli	zero,0x1
     18a:	935c                	0x935c
     18c:	5d04                	lw	s1,56(a0)
     18e:	00000493          	li	s1,0
	...
     19a:	0000                	unimp
     19c:	00a0                	addi	s0,sp,72
     19e:	0000                	unimp
     1a0:	0006                	c.slli	zero,0x1
     1a2:	935a                	add	t1,t1,s6
     1a4:	5b04                	lw	s1,48(a4)
     1a6:	01680493          	addi	s1,a6,22
     1aa:	0000                	unimp
     1ac:	018c                	addi	a1,sp,192
     1ae:	0000                	unimp
     1b0:	0006                	c.slli	zero,0x1
     1b2:	935a                	add	t1,t1,s6
     1b4:	5804                	lw	s1,48(s0)
     1b6:	018c0493          	addi	s1,s8,24
     1ba:	0000                	unimp
     1bc:	01c8                	addi	a0,sp,196
     1be:	0000                	unimp
     1c0:	0006                	c.slli	zero,0x1
     1c2:	9364                	0x9364
     1c4:	5804                	lw	s1,48(s0)
     1c6:	02d00493          	li	s1,45
     1ca:	0000                	unimp
     1cc:	02f4                	addi	a3,sp,332
     1ce:	0000                	unimp
     1d0:	0006                	c.slli	zero,0x1
     1d2:	9364                	0x9364
     1d4:	5804                	lw	s1,48(s0)
     1d6:	03d00493          	li	s1,61
     1da:	0000                	unimp
     1dc:	0448                	addi	a0,sp,516
     1de:	0000                	unimp
     1e0:	0006                	c.slli	zero,0x1
     1e2:	935a                	add	t1,t1,s6
     1e4:	5804                	lw	s1,48(s0)
     1e6:	05cc0493          	addi	s1,s8,92
     1ea:	0000                	unimp
     1ec:	05d8                	addi	a4,sp,708
     1ee:	0000                	unimp
     1f0:	0006                	c.slli	zero,0x1
     1f2:	935a                	add	t1,t1,s6
     1f4:	5804                	lw	s1,48(s0)
     1f6:	00000493          	li	s1,0
	...
     202:	0000                	unimp
     204:	0084                	addi	s1,sp,64
     206:	0000                	unimp
     208:	0001                	nop
     20a:	845c                	0x845c
     20c:	0000                	unimp
     20e:	9000                	0x9000
     210:	0000                	unimp
     212:	0900                	addi	s0,sp,144
     214:	7c00                	flw	fs0,56(s0)
     216:	7f00                	flw	fs0,56(a4)
     218:	0800                	addi	s0,sp,16
     21a:	1aff                	0x1aff
     21c:	9f24                	0x9f24
     21e:	0090                	addi	a2,sp,64
     220:	0000                	unimp
     222:	0160                	addi	s0,sp,140
     224:	0000                	unimp
     226:	0001                	nop
     228:	6862                	flw	fa6,24(sp)
     22a:	0001                	nop
     22c:	8f00                	0x8f00
     22e:	0001                	nop
     230:	0100                	addi	s0,sp,128
     232:	5c00                	lw	s0,56(s0)
     234:	0000018f          	0x18f
     238:	0194                	addi	a3,sp,192
     23a:	0000                	unimp
     23c:	0001                	nop
     23e:	e462                	fsw	fs8,8(sp)
     240:	0002                	c.slli64	zero
     242:	e800                	fsw	fs0,16(s0)
     244:	0002                	c.slli64	zero
     246:	0900                	addi	s0,sp,144
     248:	8200                	0x8200
     24a:	7e00                	flw	fs0,56(a2)
     24c:	0800                	addi	s0,sp,16
     24e:	1aff                	0x1aff
     250:	9f24                	0x9f24
     252:	02e8                	addi	a0,sp,332
     254:	0000                	unimp
     256:	03d0                	addi	a2,sp,452
     258:	0000                	unimp
     25a:	0001                	nop
     25c:	d062                	sw	s8,32(sp)
     25e:	18000003          	lb	zero,384(zero) # 180 <_STACK_SIZE-0xfe80>
     262:	0004                	0x4
     264:	0100                	addi	s0,sp,128
     266:	5c00                	lw	s0,56(s0)
     268:	0420                	addi	s0,sp,520
     26a:	0000                	unimp
     26c:	0460                	addi	s0,sp,524
     26e:	0000                	unimp
     270:	0001                	nop
     272:	605c                	flw	fa5,4(s0)
     274:	0004                	0x4
     276:	3c00                	fld	fs0,56(s0)
     278:	0005                	c.nop	1
     27a:	0100                	addi	s0,sp,128
     27c:	6200                	flw	fs0,0(a2)
     27e:	05cc                	addi	a1,sp,708
     280:	0000                	unimp
     282:	05d8                	addi	a4,sp,708
     284:	0000                	unimp
     286:	0001                	nop
     288:	005c                	addi	a5,sp,4
	...
     292:	0000                	unimp
     294:	7400                	flw	fs0,40(s0)
     296:	0000                	unimp
     298:	0100                	addi	s0,sp,128
     29a:	5d00                	lw	s0,56(a0)
     29c:	0168                	addi	a0,sp,140
     29e:	0000                	unimp
     2a0:	0000018f          	0x18f
     2a4:	0001                	nop
     2a6:	8f5d                	or	a4,a4,a5
     2a8:	0001                	nop
     2aa:	a800                	fsd	fs0,16(s0)
     2ac:	0001                	nop
     2ae:	0100                	addi	s0,sp,128
     2b0:	6300                	flw	fs0,0(a4)
     2b2:	02d0                	addi	a2,sp,324
     2b4:	0000                	unimp
     2b6:	02d8                	addi	a4,sp,324
     2b8:	0000                	unimp
     2ba:	0001                	nop
     2bc:	0003d063          	bgez	t2,2bc <_STACK_SIZE-0xfd44>
     2c0:	3c00                	fld	fs0,56(s0)
     2c2:	0004                	0x4
     2c4:	0100                	addi	s0,sp,128
     2c6:	5d00                	lw	s0,56(a0)
     2c8:	0440                	addi	s0,sp,516
     2ca:	0000                	unimp
     2cc:	05cc                	addi	a1,sp,708
     2ce:	0000                	unimp
     2d0:	0001                	nop
     2d2:	cc69                	beqz	s0,3ac <_STACK_SIZE-0xfc54>
     2d4:	0005                	c.nop	1
     2d6:	d800                	sw	s0,48(s0)
     2d8:	0005                	c.nop	1
     2da:	0100                	addi	s0,sp,128
     2dc:	5d00                	lw	s0,56(a0)
	...
     2ea:	0098                	addi	a4,sp,64
     2ec:	0000                	unimp
     2ee:	0001                	nop
     2f0:	985a                	add	a6,a6,s6
     2f2:	0000                	unimp
     2f4:	2000                	fld	fs0,0(s0)
     2f6:	0001                	nop
     2f8:	0100                	addi	s0,sp,128
     2fa:	6400                	flw	fs0,8(s0)
     2fc:	0168                	addi	a0,sp,140
     2fe:	0000                	unimp
     300:	018c                	addi	a1,sp,192
     302:	0000                	unimp
     304:	0001                	nop
     306:	8c5a                	mv	s8,s6
     308:	0001                	nop
     30a:	5400                	lw	s0,40(s0)
     30c:	0002                	c.slli64	zero
     30e:	0100                	addi	s0,sp,128
     310:	6400                	flw	fs0,8(s0)
     312:	02d0                	addi	a2,sp,324
     314:	0000                	unimp
     316:	03d0                	addi	a2,sp,452
     318:	0000                	unimp
     31a:	0001                	nop
     31c:	d064                	sw	s1,100(s0)
     31e:	5c000003          	lb	zero,1472(zero) # 5c0 <_STACK_SIZE-0xfa40>
     322:	0004                	0x4
     324:	0100                	addi	s0,sp,128
     326:	5a00                	lw	s0,48(a2)
     328:	045c                	addi	a5,sp,516
     32a:	0000                	unimp
     32c:	0460                	addi	s0,sp,524
     32e:	0000                	unimp
     330:	0001                	nop
     332:	00046067          	0x46067
     336:	b800                	fsd	fs0,48(s0)
     338:	0005                	c.nop	1
     33a:	0600                	addi	s0,sp,768
     33c:	8700                	0x8700
     33e:	7900                	flw	fs0,48(a0)
     340:	2400                	fld	fs0,8(s0)
     342:	cc9f 0005 d800      	0xd8000005cc9f
     348:	0005                	c.nop	1
     34a:	0100                	addi	s0,sp,128
     34c:	5a00                	lw	s0,48(a2)
	...
     35a:	0094                	addi	a3,sp,64
     35c:	0000                	unimp
     35e:	0001                	nop
     360:	0000945b          	0x945b
     364:	6000                	flw	fs0,0(s0)
     366:	0001                	nop
     368:	0100                	addi	s0,sp,128
     36a:	6800                	flw	fs0,16(s0)
     36c:	0168                	addi	a0,sp,140
     36e:	0000                	unimp
     370:	01f8                	addi	a4,sp,204
     372:	0000                	unimp
     374:	0001                	nop
     376:	d058                	sw	a4,36(s0)
     378:	0002                	c.slli64	zero
     37a:	f400                	fsw	fs0,40(s0)
     37c:	0002                	c.slli64	zero
     37e:	0100                	addi	s0,sp,128
     380:	5800                	lw	s0,48(s0)
     382:	02f8                	addi	a4,sp,332
     384:	0000                	unimp
     386:	03cc                	addi	a1,sp,452
     388:	0000                	unimp
     38a:	0001                	nop
     38c:	cc65                	beqz	s0,484 <_STACK_SIZE-0xfb7c>
     38e:	48000003          	lb	zero,1152(zero) # 480 <_STACK_SIZE-0xfb80>
     392:	0004                	0x4
     394:	0100                	addi	s0,sp,128
     396:	5800                	lw	s0,48(s0)
     398:	0460                	addi	s0,sp,524
     39a:	0000                	unimp
     39c:	0534                	addi	a3,sp,648
     39e:	0000                	unimp
     3a0:	0001                	nop
     3a2:	3465                	jal	fffffe4a <__stack+0x7fe864d6>
     3a4:	0005                	c.nop	1
     3a6:	d800                	sw	s0,48(s0)
     3a8:	0005                	c.nop	1
     3aa:	0100                	addi	s0,sp,128
     3ac:	5800                	lw	s0,48(s0)
	...
     3b6:	02ec                	addi	a1,sp,332
     3b8:	0000                	unimp
     3ba:	0328                	addi	a0,sp,392
     3bc:	0000                	unimp
     3be:	0001                	nop
     3c0:	00046063          	bltu	s0,zero,3c0 <_STACK_SIZE-0xfc40>
     3c4:	6300                	flw	fs0,0(a4)
     3c6:	0004                	0x4
     3c8:	0100                	addi	s0,sp,128
     3ca:	5a00                	lw	s0,48(a2)
     3cc:	00000463          	beqz	zero,3d4 <_STACK_SIZE-0xfc2c>
     3d0:	0480                	addi	s0,sp,576
     3d2:	0000                	unimp
     3d4:	0001                	nop
     3d6:	00000063          	beqz	zero,3d6 <_STACK_SIZE-0xfc2a>
     3da:	0000                	unimp
     3dc:	0000                	unimp
     3de:	6000                	flw	fs0,0(s0)
     3e0:	0001                	nop
     3e2:	6800                	flw	fs0,16(s0)
     3e4:	0001                	nop
     3e6:	0100                	addi	s0,sp,128
     3e8:	5f00                	lw	s0,56(a4)
     3ea:	0534                	addi	a3,sp,648
     3ec:	0000                	unimp
     3ee:	05cc                	addi	a1,sp,708
     3f0:	0000                	unimp
     3f2:	0001                	nop
     3f4:	005f 0000 0000      	0x5f
     3fa:	0000                	unimp
     3fc:	c800                	sw	s0,16(s0)
     3fe:	0001                	nop
     400:	cc00                	sw	s0,24(s0)
     402:	0001                	nop
     404:	0200                	addi	s0,sp,256
     406:	3100                	fld	fs0,32(a0)
     408:	cc9f 0001 9400      	0x94000001cc9f
     40e:	0002                	c.slli64	zero
     410:	0100                	addi	s0,sp,128
     412:	5900                	lw	s0,48(a0)
     414:	03cc                	addi	a1,sp,452
     416:	0000                	unimp
     418:	03d0                	addi	a2,sp,452
     41a:	0000                	unimp
     41c:	0001                	nop
     41e:	0059                	c.nop	22
     420:	0000                	unimp
     422:	0000                	unimp
     424:	0000                	unimp
     426:	e400                	fsw	fs0,8(s0)
     428:	0002                	c.slli64	zero
     42a:	f000                	fsw	fs0,32(s0)
     42c:	0002                	c.slli64	zero
     42e:	0100                	addi	s0,sp,128
     430:	5f00                	lw	s0,56(a4)
     432:	0434                	addi	a3,sp,520
     434:	0000                	unimp
     436:	044c                	addi	a1,sp,516
     438:	0000                	unimp
     43a:	0001                	nop
     43c:	0065                	c.nop	25
     43e:	0000                	unimp
     440:	0000                	unimp
     442:	0000                	unimp
     444:	8000                	0x8000
     446:	0000                	unimp
     448:	a700                	fsd	fs0,8(a4)
     44a:	0000                	unimp
     44c:	0100                	addi	s0,sp,128
     44e:	5f00                	lw	s0,56(a4)
     450:	01c0                	addi	s0,sp,196
     452:	0000                	unimp
     454:	01cc                	addi	a1,sp,196
     456:	0000                	unimp
     458:	0001                	nop
     45a:	e45e                	fsw	fs7,8(sp)
     45c:	0002                	c.slli64	zero
     45e:	0b00                	addi	s0,sp,400
     460:	01000003          	lb	zero,16(zero) # 10 <_STACK_SIZE-0xfff0>
     464:	5e00                	lw	s0,56(a2)
     466:	0408                	addi	a0,sp,512
     468:	0000                	unimp
     46a:	0420                	addi	s0,sp,520
     46c:	0000                	unimp
     46e:	0001                	nop
     470:	3459                	jal	fffffef6 <__stack+0x7fe86582>
     472:	0004                	0x4
     474:	c000                	sw	s0,0(s0)
     476:	0005                	c.nop	1
     478:	0100                	addi	s0,sp,128
     47a:	5900                	lw	s0,48(a0)
	...
     484:	0058                	addi	a4,sp,4
     486:	0000                	unimp
     488:	0084                	addi	s1,sp,64
     48a:	0000                	unimp
     48c:	0001                	nop
     48e:	845c                	0x845c
     490:	0000                	unimp
     492:	9000                	0x9000
     494:	0000                	unimp
     496:	0900                	addi	s0,sp,144
     498:	7c00                	flw	fs0,56(s0)
     49a:	7f00                	flw	fs0,56(a4)
     49c:	0800                	addi	s0,sp,16
     49e:	1aff                	0x1aff
     4a0:	9f24                	0x9f24
     4a2:	0090                	addi	a2,sp,64
     4a4:	0000                	unimp
     4a6:	0160                	addi	s0,sp,140
     4a8:	0000                	unimp
     4aa:	0001                	nop
     4ac:	6862                	flw	fa6,24(sp)
     4ae:	0001                	nop
     4b0:	7c00                	flw	fs0,56(s0)
     4b2:	0001                	nop
     4b4:	0100                	addi	s0,sp,128
     4b6:	5c00                	lw	s0,56(s0)
	...
     4c0:	0068                	addi	a0,sp,12
     4c2:	0000                	unimp
     4c4:	0078                	addi	a4,sp,12
     4c6:	0000                	unimp
     4c8:	0001                	nop
     4ca:	005e                	c.slli	zero,0x17
     4cc:	0000                	unimp
     4ce:	0000                	unimp
     4d0:	0000                	unimp
     4d2:	9c00                	0x9c00
     4d4:	0000                	unimp
     4d6:	6000                	flw	fs0,0(s0)
     4d8:	0001                	nop
     4da:	0100                	addi	s0,sp,128
     4dc:	6600                	flw	fs0,8(a2)
	...
     4e6:	00c0                	addi	s0,sp,68
     4e8:	0000                	unimp
     4ea:	0160                	addi	s0,sp,140
     4ec:	0000                	unimp
     4ee:	0001                	nop
     4f0:	0065                	c.nop	25
     4f2:	0000                	unimp
     4f4:	0000                	unimp
     4f6:	0000                	unimp
     4f8:	c400                	sw	s0,8(s0)
     4fa:	0000                	unimp
     4fc:	ec00                	fsw	fs0,24(s0)
     4fe:	0000                	unimp
     500:	0100                	addi	s0,sp,128
     502:	5800                	lw	s0,48(s0)
     504:	00ec                	addi	a1,sp,76
     506:	0000                	unimp
     508:	0160                	addi	s0,sp,140
     50a:	0000                	unimp
     50c:	0001                	nop
     50e:	00000063          	beqz	zero,50e <_STACK_SIZE-0xfaf2>
     512:	0000                	unimp
     514:	0000                	unimp
     516:	2400                	fld	fs0,8(s0)
     518:	0001                	nop
     51a:	4c00                	lw	s0,24(s0)
     51c:	0001                	nop
     51e:	0100                	addi	s0,sp,128
     520:	5800                	lw	s0,48(s0)
     522:	014c                	addi	a1,sp,132
     524:	0000                	unimp
     526:	0160                	addi	s0,sp,140
     528:	0000                	unimp
     52a:	0001                	nop
     52c:	005c                	addi	a5,sp,4
     52e:	0000                	unimp
     530:	0000                	unimp
     532:	0000                	unimp
     534:	c000                	sw	s0,0(s0)
     536:	0000                	unimp
     538:	d400                	sw	s0,40(s0)
     53a:	0000                	unimp
     53c:	0100                	addi	s0,sp,128
     53e:	5900                	lw	s0,48(a0)
     540:	00dc                	addi	a5,sp,68
     542:	0000                	unimp
     544:	00e8                	addi	a0,sp,76
     546:	0000                	unimp
     548:	0001                	nop
     54a:	e85e                	fsw	fs7,16(sp)
     54c:	0000                	unimp
     54e:	ec00                	fsw	fs0,24(s0)
     550:	0000                	unimp
     552:	0800                	addi	s0,sp,16
     554:	8400                	0x8400
     556:	4000                	lw	s0,0(s0)
     558:	7925                	lui	s2,0xfffe9
     55a:	2100                	fld	fs0,0(a0)
     55c:	ec9f 0000 0000      	0xec9f
     562:	0001                	nop
     564:	0100                	addi	s0,sp,128
     566:	5e00                	lw	s0,56(a2)
     568:	0100                	addi	s0,sp,128
     56a:	0000                	unimp
     56c:	0124                	addi	s1,sp,136
     56e:	0000                	unimp
     570:	0001                	nop
     572:	0058                	addi	a4,sp,4
     574:	0000                	unimp
     576:	0000                	unimp
     578:	0000                	unimp
     57a:	1000                	addi	s0,sp,32
     57c:	0001                	nop
     57e:	2c00                	fld	fs0,24(s0)
     580:	0001                	nop
     582:	0100                	addi	s0,sp,128
     584:	5900                	lw	s0,48(a0)
     586:	013c                	addi	a5,sp,136
     588:	0000                	unimp
     58a:	0148                	addi	a0,sp,132
     58c:	0000                	unimp
     58e:	0001                	nop
     590:	0064                	addi	s1,sp,12
     592:	0000                	unimp
     594:	0000                	unimp
     596:	0000                	unimp
     598:	d000                	sw	s0,32(s0)
     59a:	0000                	unimp
     59c:	0800                	addi	s0,sp,16
     59e:	0001                	nop
     5a0:	0100                	addi	s0,sp,128
     5a2:	5a00                	lw	s0,48(a2)
     5a4:	0138                	addi	a4,sp,136
     5a6:	0000                	unimp
     5a8:	0160                	addi	s0,sp,140
     5aa:	0000                	unimp
     5ac:	0001                	nop
     5ae:	005a                	c.slli	zero,0x16
     5b0:	0000                	unimp
     5b2:	0000                	unimp
     5b4:	0000                	unimp
     5b6:	9800                	0x9800
     5b8:	0005                	c.nop	1
     5ba:	c800                	sw	s0,16(s0)
     5bc:	0005                	c.nop	1
     5be:	0100                	addi	s0,sp,128
     5c0:	5d00                	lw	s0,56(a0)
	...
     5ca:	0598                	addi	a4,sp,704
     5cc:	0000                	unimp
     5ce:	05ac                	addi	a1,sp,712
     5d0:	0000                	unimp
     5d2:	0010                	0x10
     5d4:	0080                	addi	s0,sp,64
     5d6:	ff0a                	fsw	ft2,188(sp)
     5d8:	1aff                	0x1aff
     5da:	007e                	c.slli	zero,0x1f
     5dc:	ff0a                	fsw	ft2,188(sp)
     5de:	1aff                	0x1aff
     5e0:	2440                	fld	fs0,136(s0)
     5e2:	9f22                	add	t5,t5,s0
     5e4:	05ac                	addi	a1,sp,712
     5e6:	0000                	unimp
     5e8:	05b4                	addi	a3,sp,712
     5ea:	0000                	unimp
     5ec:	0015                	c.nop	5
     5ee:	0080                	addi	s0,sp,64
     5f0:	ff0a                	fsw	ft2,188(sp)
     5f2:	1aff                	0x1aff
     5f4:	0080                	addi	s0,sp,64
     5f6:	2540                	fld	fs0,136(a0)
     5f8:	0081                	addi	ra,ra,0
     5fa:	0a22                	slli	s4,s4,0x8
     5fc:	ffff                	0xffff
     5fe:	401a                	0x401a
     600:	2224                	fld	fs1,64(a2)
     602:	009f 0000 0000      	0x9f
     608:	0000                	unimp
     60a:	6000                	flw	fs0,0(s0)
     60c:	0004                	0x4
     60e:	dc00                	sw	s0,56(s0)
     610:	0004                	0x4
     612:	0100                	addi	s0,sp,128
     614:	5800                	lw	s0,48(s0)
     616:	04dc                	addi	a5,sp,580
     618:	0000                	unimp
     61a:	05cc                	addi	a1,sp,708
     61c:	0000                	unimp
     61e:	0005                	c.nop	1
     620:	0089                	addi	ra,ra,2
     622:	2540                	fld	fs0,136(a0)
     624:	009f 0000 0000      	0x9f
     62a:	0000                	unimp
     62c:	7c00                	flw	fs0,56(s0)
     62e:	0004                	0x4
     630:	cc00                	sw	s0,24(s0)
     632:	0005                	c.nop	1
     634:	0100                	addi	s0,sp,128
     636:	6600                	flw	fs0,8(a2)
	...
     640:	0480                	addi	s0,sp,576
     642:	0000                	unimp
     644:	0488                	addi	a0,sp,576
     646:	0000                	unimp
     648:	0001                	nop
     64a:	885a                	mv	a6,s6
     64c:	0004                	0x4
     64e:	8b00                	0x8b00
     650:	0004                	0x4
     652:	0100                	addi	s0,sp,128
     654:	5b00                	lw	s0,48(a4)
     656:	0000048b          	0x48b
     65a:	04a8                	addi	a0,sp,584
     65c:	0000                	unimp
     65e:	0001                	nop
     660:	0004a863          	0x4a863
     664:	cc00                	sw	s0,24(s0)
     666:	0005                	c.nop	1
     668:	0100                	addi	s0,sp,128
     66a:	6800                	flw	fs0,16(s0)
	...
     674:	04e0                	addi	s0,sp,588
     676:	0000                	unimp
     678:	04ec                	addi	a1,sp,588
     67a:	0000                	unimp
     67c:	0001                	nop
     67e:	ec5a                	fsw	fs6,24(sp)
     680:	0004                	0x4
     682:	f300                	fsw	fs0,32(a4)
     684:	0004                	0x4
     686:	0100                	addi	s0,sp,128
     688:	5b00                	lw	s0,48(a4)
     68a:	000004f3          	0x4f3
     68e:	0508                	addi	a0,sp,640
     690:	0000                	unimp
     692:	0001                	nop
     694:	00050863          	beqz	a0,6a4 <_STACK_SIZE-0xf95c>
     698:	4800                	lw	s0,16(s0)
     69a:	0005                	c.nop	1
     69c:	0100                	addi	s0,sp,128
     69e:	5c00                	lw	s0,56(s0)
	...
     6a8:	047c                	addi	a5,sp,524
     6aa:	0000                	unimp
     6ac:	0490                	addi	a2,sp,576
     6ae:	0000                	unimp
     6b0:	0001                	nop
     6b2:	9864                	0x9864
     6b4:	0004                	0x4
     6b6:	a400                	fsd	fs0,8(s0)
     6b8:	0004                	0x4
     6ba:	0100                	addi	s0,sp,128
     6bc:	5e00                	lw	s0,56(a2)
     6be:	04a4                	addi	s1,sp,584
     6c0:	0000                	unimp
     6c2:	04a8                	addi	a0,sp,584
     6c4:	0000                	unimp
     6c6:	0008                	0x8
     6c8:	0085                	addi	ra,ra,1
     6ca:	2540                	fld	fs0,136(a0)
     6cc:	0084                	addi	s1,sp,64
     6ce:	9f21                	0x9f21
     6d0:	04a8                	addi	a0,sp,584
     6d2:	0000                	unimp
     6d4:	04bc                	addi	a5,sp,584
     6d6:	0000                	unimp
     6d8:	0001                	nop
     6da:	bc5e                	fsd	fs7,56(sp)
     6dc:	0004                	0x4
     6de:	e000                	fsw	fs0,0(s0)
     6e0:	0004                	0x4
     6e2:	0100                	addi	s0,sp,128
     6e4:	6300                	flw	fs0,0(a4)
	...
     6ee:	04d0                	addi	a2,sp,580
     6f0:	0000                	unimp
     6f2:	04d4                	addi	a3,sp,580
     6f4:	0000                	unimp
     6f6:	0001                	nop
     6f8:	d45a                	sw	s6,40(sp)
     6fa:	0004                	0x4
     6fc:	e800                	fsw	fs0,16(s0)
     6fe:	0004                	0x4
     700:	0100                	addi	s0,sp,128
     702:	6400                	flw	fs0,8(s0)
     704:	04f8                	addi	a4,sp,588
     706:	0000                	unimp
     708:	0504                	addi	s1,sp,640
     70a:	0000                	unimp
     70c:	0001                	nop
     70e:	0458                	addi	a4,sp,516
     710:	0005                	c.nop	1
     712:	0800                	addi	s0,sp,16
     714:	0005                	c.nop	1
     716:	0a00                	addi	s0,sp,272
     718:	8500                	0x8500
     71a:	4000                	lw	s0,0(s0)
     71c:	4024                	lw	s1,64(s0)
     71e:	8425                	srai	s0,s0,0x9
     720:	2100                	fld	fs0,0(a0)
     722:	089f 0005 cc00      	0xcc000005089f
     728:	0005                	c.nop	1
     72a:	0100                	addi	s0,sp,128
     72c:	5800                	lw	s0,48(s0)
	...
     736:	048c                	addi	a1,sp,576
     738:	0000                	unimp
     73a:	04c4                	addi	s1,sp,580
     73c:	0000                	unimp
     73e:	0001                	nop
     740:	f45a                	fsw	fs6,40(sp)
     742:	0004                	0x4
     744:	4000                	lw	s0,0(s0)
     746:	0005                	c.nop	1
     748:	0100                	addi	s0,sp,128
     74a:	5a00                	lw	s0,48(a2)
	...
     754:	054c                	addi	a1,sp,644
     756:	0000                	unimp
     758:	0554                	addi	a3,sp,644
     75a:	0000                	unimp
     75c:	0001                	nop
     75e:	545a                	lw	s0,180(sp)
     760:	0005                	c.nop	1
     762:	b400                	fsd	fs0,40(s0)
     764:	0005                	c.nop	1
     766:	0100                	addi	s0,sp,128
     768:	6000                	flw	fs0,0(s0)
	...
     772:	055c                	addi	a5,sp,644
     774:	0000                	unimp
     776:	0564                	addi	s1,sp,652
     778:	0000                	unimp
     77a:	0001                	nop
     77c:	645a                	flw	fs0,148(sp)
     77e:	0005                	c.nop	1
     780:	8000                	0x8000
     782:	0005                	c.nop	1
     784:	0100                	addi	s0,sp,128
     786:	6100                	flw	fs0,0(a0)
     788:	0588                	addi	a0,sp,704
     78a:	0000                	unimp
     78c:	05ac                	addi	a1,sp,712
     78e:	0000                	unimp
     790:	0001                	nop
     792:	ac5e                	fsd	fs7,24(sp)
     794:	0005                	c.nop	1
     796:	b400                	fsd	fs0,40(s0)
     798:	0005                	c.nop	1
     79a:	0800                	addi	s0,sp,16
     79c:	8000                	0x8000
     79e:	4000                	lw	s0,0(s0)
     7a0:	8125                	srli	a0,a0,0x9
     7a2:	2200                	fld	fs0,0(a2)
     7a4:	009f 0000 0000      	0x9f
     7aa:	0000                	unimp
     7ac:	6c00                	flw	fs0,24(s0)
     7ae:	0005                	c.nop	1
     7b0:	cc00                	sw	s0,24(s0)
     7b2:	0005                	c.nop	1
     7b4:	0100                	addi	s0,sp,128
     7b6:	5600                	lw	s0,40(a2)
	...
     7c0:	0588                	addi	a0,sp,704
     7c2:	0000                	unimp
     7c4:	0590                	addi	a2,sp,704
     7c6:	0000                	unimp
     7c8:	0001                	nop
     7ca:	905a                	c.add	zero,s6
     7cc:	0005                	c.nop	1
     7ce:	9800                	0x9800
     7d0:	0005                	c.nop	1
     7d2:	0100                	addi	s0,sp,128
     7d4:	5d00                	lw	s0,56(a0)
	...
     7de:	0534                	addi	a3,sp,648
     7e0:	0000                	unimp
     7e2:	055c                	addi	a5,sp,644
     7e4:	0000                	unimp
     7e6:	0001                	nop
     7e8:	5c61                	li	s8,-8
     7ea:	0005                	c.nop	1
     7ec:	a800                	fsd	fs0,16(s0)
     7ee:	0005                	c.nop	1
     7f0:	0600                	addi	s0,sp,768
     7f2:	8c00                	0x8c00
     7f4:	7f7f                	0x7f7f
     7f6:	1a00                	addi	s0,sp,304
     7f8:	a89f 0005 c400      	0xc4000005a89f
     7fe:	0005                	c.nop	1
     800:	0600                	addi	s0,sp,768
     802:	7f00                	flw	fs0,56(a4)
     804:	7a00                	flw	fs0,48(a2)
     806:	1a00                	addi	s0,sp,304
     808:	c49f 0005 c800      	0xc8000005c49f
     80e:	0005                	c.nop	1
     810:	0600                	addi	s0,sp,768
     812:	8c00                	0x8c00
     814:	7f7f                	0x7f7f
     816:	1a00                	addi	s0,sp,304
     818:	c89f 0005 cc00      	0xcc000005c89f
     81e:	0005                	c.nop	1
     820:	0600                	addi	s0,sp,768
     822:	7f00                	flw	fs0,56(a4)
     824:	8c01                	sub	s0,s0,s0
     826:	1a7f                	0x1a7f
     828:	009f 0000 0000      	0x9f
     82e:	0000                	unimp
     830:	3800                	fld	fs0,48(s0)
     832:	0005                	c.nop	1
     834:	6c00                	flw	fs0,24(s0)
     836:	0005                	c.nop	1
     838:	0100                	addi	s0,sp,128
     83a:	5600                	lw	s0,40(a2)
	...
     844:	0538                	addi	a4,sp,648
     846:	0000                	unimp
     848:	05cc                	addi	a1,sp,708
     84a:	0000                	unimp
     84c:	0001                	nop
     84e:	006d                	c.nop	27
     850:	0000                	unimp
     852:	0000                	unimp
     854:	0000                	unimp
     856:	3c00                	fld	fs0,56(s0)
     858:	0005                	c.nop	1
     85a:	cc00                	sw	s0,24(s0)
     85c:	0005                	c.nop	1
     85e:	0100                	addi	s0,sp,128
     860:	6200                	flw	fs0,0(a2)
	...
     86a:	02e4                	addi	s1,sp,332
     86c:	0000                	unimp
     86e:	02e8                	addi	a0,sp,332
     870:	0000                	unimp
     872:	0009                	c.nop	2
     874:	0082                	c.slli64	ra
     876:	007e                	c.slli	zero,0x1f
     878:	ff08                	fsw	fa0,56(a4)
     87a:	241a                	fld	fs0,384(sp)
     87c:	e89f 0002 d000      	0xd0000002e89f
     882:	01000003          	lb	zero,16(zero) # 10 <_STACK_SIZE-0xfff0>
     886:	6200                	flw	fs0,0(a2)
	...
     890:	01a8                	addi	a0,sp,200
     892:	0000                	unimp
     894:	01cc                	addi	a1,sp,196
     896:	0000                	unimp
     898:	0001                	nop
     89a:	0002e463          	bltu	t0,zero,8a2 <_STACK_SIZE-0xf75e>
     89e:	ec00                	fsw	fs0,24(s0)
     8a0:	0002                	c.slli64	zero
     8a2:	0100                	addi	s0,sp,128
     8a4:	6300                	flw	fs0,0(a4)
	...
     8ae:	01d0                	addi	a2,sp,196
     8b0:	0000                	unimp
     8b2:	0294                	addi	a3,sp,320
     8b4:	0000                	unimp
     8b6:	0001                	nop
     8b8:	0065                	c.nop	25
     8ba:	0000                	unimp
     8bc:	0000                	unimp
     8be:	0000                	unimp
     8c0:	f400                	fsw	fs0,40(s0)
     8c2:	0001                	nop
     8c4:	9400                	0x9400
     8c6:	0002                	c.slli64	zero
     8c8:	0100                	addi	s0,sp,128
     8ca:	6600                	flw	fs0,8(a2)
	...
     8d4:	01f8                	addi	a4,sp,204
     8d6:	0000                	unimp
     8d8:	0220                	addi	s0,sp,264
     8da:	0000                	unimp
     8dc:	0001                	nop
     8de:	2058                	fld	fa4,128(s0)
     8e0:	0002                	c.slli64	zero
     8e2:	9400                	0x9400
     8e4:	0002                	c.slli64	zero
     8e6:	0100                	addi	s0,sp,128
     8e8:	6700                	flw	fs0,8(a4)
	...
     8f2:	0258                	addi	a4,sp,260
     8f4:	0000                	unimp
     8f6:	0280                	addi	s0,sp,320
     8f8:	0000                	unimp
     8fa:	0001                	nop
     8fc:	8058                	0x8058
     8fe:	0002                	c.slli64	zero
     900:	9400                	0x9400
     902:	0002                	c.slli64	zero
     904:	0100                	addi	s0,sp,128
     906:	5c00                	lw	s0,56(s0)
	...
     910:	01f4                	addi	a3,sp,204
     912:	0000                	unimp
     914:	0208                	addi	a0,sp,256
     916:	0000                	unimp
     918:	0001                	nop
     91a:	00021063          	bnez	tp,91a <_STACK_SIZE-0xf6e6>
     91e:	1c00                	addi	s0,sp,560
     920:	0002                	c.slli64	zero
     922:	0100                	addi	s0,sp,128
     924:	5e00                	lw	s0,56(a2)
     926:	021c                	addi	a5,sp,256
     928:	0000                	unimp
     92a:	0220                	addi	s0,sp,264
     92c:	0000                	unimp
     92e:	0008                	0x8
     930:	0084                	addi	s1,sp,64
     932:	2540                	fld	fs0,136(a0)
     934:	9f210083          	lb	ra,-1550(sp)
     938:	0220                	addi	s0,sp,264
     93a:	0000                	unimp
     93c:	0234                	addi	a3,sp,264
     93e:	0000                	unimp
     940:	0001                	nop
     942:	345e                	fld	fs0,496(sp)
     944:	0002                	c.slli64	zero
     946:	5800                	lw	s0,48(s0)
     948:	0002                	c.slli64	zero
     94a:	0100                	addi	s0,sp,128
     94c:	5800                	lw	s0,48(s0)
	...
     956:	0244                	addi	s1,sp,260
     958:	0000                	unimp
     95a:	024c                	addi	a1,sp,260
     95c:	0000                	unimp
     95e:	0001                	nop
     960:	4c5a                	lw	s8,148(sp)
     962:	0002                	c.slli64	zero
     964:	6000                	flw	fs0,0(s0)
     966:	0002                	c.slli64	zero
     968:	0100                	addi	s0,sp,128
     96a:	6300                	flw	fs0,0(a4)
     96c:	0270                	addi	a2,sp,268
     96e:	0000                	unimp
     970:	027c                	addi	a5,sp,268
     972:	0000                	unimp
     974:	0001                	nop
     976:	0064                	addi	s1,sp,12
     978:	0000                	unimp
     97a:	0000                	unimp
     97c:	0000                	unimp
     97e:	0400                	addi	s0,sp,512
     980:	0002                	c.slli64	zero
     982:	3c00                	fld	fs0,56(s0)
     984:	0002                	c.slli64	zero
     986:	0100                	addi	s0,sp,128
     988:	5a00                	lw	s0,48(a2)
     98a:	026c                	addi	a1,sp,268
     98c:	0000                	unimp
     98e:	0294                	addi	a3,sp,320
     990:	0000                	unimp
     992:	0001                	nop
     994:	005a                	c.slli	zero,0x16
     996:	0000                	unimp
     998:	0000                	unimp
     99a:	0000                	unimp
     99c:	0800                	addi	s0,sp,16
     99e:	84000003          	lb	zero,-1984(zero) # fffff840 <__stack+0x7fe85ecc>
     9a2:	01000003          	lb	zero,16(zero) # 10 <_STACK_SIZE-0xfff0>
     9a6:	5800                	lw	s0,48(s0)
     9a8:	0384                	addi	s1,sp,448
     9aa:	0000                	unimp
     9ac:	03d0                	addi	a2,sp,452
     9ae:	0000                	unimp
     9b0:	0005                	c.nop	1
     9b2:	0082                	c.slli64	ra
     9b4:	2540                	fld	fs0,136(a0)
     9b6:	009f 0000 0000      	0x9f
     9bc:	0000                	unimp
     9be:	2400                	fld	fs0,8(s0)
     9c0:	d0000003          	lb	zero,-768(zero) # fffffd00 <__stack+0x7fe8638c>
     9c4:	01000003          	lb	zero,16(zero) # 10 <_STACK_SIZE-0xfff0>
     9c8:	6600                	flw	fs0,8(a2)
	...
     9d2:	0328                	addi	a0,sp,392
     9d4:	0000                	unimp
     9d6:	0330                	addi	a2,sp,392
     9d8:	0000                	unimp
     9da:	0001                	nop
     9dc:	305a                	fld	ft0,432(sp)
     9de:	33000003          	lb	zero,816(zero) # 330 <_STACK_SIZE-0xfcd0>
     9e2:	01000003          	lb	zero,16(zero) # 10 <_STACK_SIZE-0xfff0>
     9e6:	5b00                	lw	s0,48(a4)
     9e8:	00000333          	add	t1,zero,zero
     9ec:	0350                	addi	a2,sp,388
     9ee:	0000                	unimp
     9f0:	0001                	nop
     9f2:	00035063          	bgez	t1,9f2 <_STACK_SIZE-0xf60e>
     9f6:	d000                	sw	s0,32(s0)
     9f8:	01000003          	lb	zero,16(zero) # 10 <_STACK_SIZE-0xfff0>
     9fc:	6700                	flw	fs0,8(a4)
	...
     a06:	0388                	addi	a0,sp,448
     a08:	0000                	unimp
     a0a:	0394                	addi	a3,sp,448
     a0c:	0000                	unimp
     a0e:	0001                	nop
     a10:	945a                	add	s0,s0,s6
     a12:	9b000003          	lb	zero,-1616(zero) # fffff9b0 <__stack+0x7fe8603c>
     a16:	01000003          	lb	zero,16(zero) # 10 <_STACK_SIZE-0xfff0>
     a1a:	5b00                	lw	s0,48(a4)
     a1c:	0000039b          	0x39b
     a20:	03b0                	addi	a2,sp,456
     a22:	0000                	unimp
     a24:	0001                	nop
     a26:	0003b063          	0x3b063
     a2a:	d000                	sw	s0,32(s0)
     a2c:	01000003          	lb	zero,16(zero) # 10 <_STACK_SIZE-0xfff0>
     a30:	5f00                	lw	s0,56(a4)
	...
     a3a:	0324                	addi	s1,sp,392
     a3c:	0000                	unimp
     a3e:	0338                	addi	a4,sp,392
     a40:	0000                	unimp
     a42:	0001                	nop
     a44:	4059                	c.li	zero,22
     a46:	4c000003          	lb	zero,1216(zero) # 4c0 <_STACK_SIZE-0xfb40>
     a4a:	01000003          	lb	zero,16(zero) # 10 <_STACK_SIZE-0xfff0>
     a4e:	5f00                	lw	s0,56(a4)
     a50:	034c                	addi	a1,sp,388
     a52:	0000                	unimp
     a54:	0350                	addi	a2,sp,388
     a56:	0000                	unimp
     a58:	0008                	0x8
     a5a:	0085                	addi	ra,ra,1
     a5c:	2540                	fld	fs0,136(a0)
     a5e:	0079                	c.nop	30
     a60:	9f21                	0x9f21
     a62:	0350                	addi	a2,sp,388
     a64:	0000                	unimp
     a66:	0364                	addi	s1,sp,396
     a68:	0000                	unimp
     a6a:	0001                	nop
     a6c:	645f 0003 8800      	0x88000003645f
     a72:	01000003          	lb	zero,16(zero) # 10 <_STACK_SIZE-0xfff0>
     a76:	6300                	flw	fs0,0(a4)
	...
     a80:	0378                	addi	a4,sp,396
     a82:	0000                	unimp
     a84:	0390                	addi	a2,sp,448
     a86:	0000                	unimp
     a88:	0001                	nop
     a8a:	a059                	j	b10 <_STACK_SIZE-0xf4f0>
     a8c:	ac000003          	lb	zero,-1344(zero) # fffffac0 <__stack+0x7fe8614c>
     a90:	01000003          	lb	zero,16(zero) # 10 <_STACK_SIZE-0xfff0>
     a94:	5800                	lw	s0,48(s0)
     a96:	03ac                	addi	a1,sp,456
     a98:	0000                	unimp
     a9a:	03b0                	addi	a2,sp,456
     a9c:	0000                	unimp
     a9e:	000a                	c.slli	zero,0x2
     aa0:	0085                	addi	ra,ra,1
     aa2:	2440                	fld	fs0,136(s0)
     aa4:	2540                	fld	fs0,136(a0)
     aa6:	0079                	c.nop	30
     aa8:	9f21                	0x9f21
     aaa:	03b0                	addi	a2,sp,456
     aac:	0000                	unimp
     aae:	03d0                	addi	a2,sp,452
     ab0:	0000                	unimp
     ab2:	0001                	nop
     ab4:	0058                	addi	a4,sp,4
     ab6:	0000                	unimp
     ab8:	0000                	unimp
     aba:	0000                	unimp
     abc:	3400                	fld	fs0,40(s0)
     abe:	6c000003          	lb	zero,1728(zero) # 6c0 <_STACK_SIZE-0xf940>
     ac2:	01000003          	lb	zero,16(zero) # 10 <_STACK_SIZE-0xfff0>
     ac6:	5a00                	lw	s0,48(a2)
     ac8:	039c                	addi	a5,sp,448
     aca:	0000                	unimp
     acc:	03d0                	addi	a2,sp,452
     ace:	0000                	unimp
     ad0:	0001                	nop
     ad2:	005a                	c.slli	zero,0x16
     ad4:	0000                	unimp
     ad6:	0000                	unimp
     ad8:	0000                	unimp
     ada:	d400                	sw	s0,40(s0)
     adc:	3c000003          	lb	zero,960(zero) # 3c0 <_STACK_SIZE-0xfc40>
     ae0:	0004                	0x4
     ae2:	0100                	addi	s0,sp,128
     ae4:	5d00                	lw	s0,56(a0)
	...
     aee:	03e8                	addi	a0,sp,460
     af0:	0000                	unimp
     af2:	0420                	addi	s0,sp,520
     af4:	0000                	unimp
     af6:	0001                	nop
     af8:	345e                	fld	fs0,496(sp)
     afa:	0004                	0x4
     afc:	6300                	flw	fs0,0(a4)
     afe:	0004                	0x4
     b00:	0100                	addi	s0,sp,128
     b02:	5e00                	lw	s0,56(a2)
	...
     b10:	00a0                	addi	s0,sp,72
     b12:	0000                	unimp
     b14:	0006                	c.slli	zero,0x1
     b16:	935a                	add	t1,t1,s6
     b18:	5b04                	lw	s1,48(a4)
     b1a:	00a00493          	li	s1,10
     b1e:	0000                	unimp
     b20:	0188                	addi	a0,sp,192
     b22:	0000                	unimp
     b24:	0006                	c.slli	zero,0x1
     b26:	0af503f3          	0xaf503f3
     b2a:	9f25                	0x9f25
     b2c:	0188                	addi	a0,sp,192
     b2e:	0000                	unimp
     b30:	01a8                	addi	a0,sp,200
     b32:	0000                	unimp
     b34:	0006                	c.slli	zero,0x1
     b36:	935a                	add	t1,t1,s6
     b38:	5b04                	lw	s1,48(a4)
     b3a:	01a80493          	addi	s1,a6,26
     b3e:	0000                	unimp
     b40:	02bc                	addi	a5,sp,328
     b42:	0000                	unimp
     b44:	0006                	c.slli	zero,0x1
     b46:	0af503f3          	0xaf503f3
     b4a:	9f25                	0x9f25
     b4c:	02bc                	addi	a5,sp,328
     b4e:	0000                	unimp
     b50:	02d0                	addi	a2,sp,324
     b52:	0000                	unimp
     b54:	0006                	c.slli	zero,0x1
     b56:	935a                	add	t1,t1,s6
     b58:	5b04                	lw	s1,48(a4)
     b5a:	02d00493          	li	s1,45
     b5e:	0000                	unimp
     b60:	031c                	addi	a5,sp,384
     b62:	0000                	unimp
     b64:	0006                	c.slli	zero,0x1
     b66:	0af503f3          	0xaf503f3
     b6a:	9f25                	0x9f25
     b6c:	031c                	addi	a5,sp,384
     b6e:	0000                	unimp
     b70:	0324                	addi	s1,sp,392
     b72:	0000                	unimp
     b74:	0006                	c.slli	zero,0x1
     b76:	935a                	add	t1,t1,s6
     b78:	5b04                	lw	s1,48(a4)
     b7a:	03240493          	addi	s1,s0,50
     b7e:	0000                	unimp
     b80:	04f0                	addi	a2,sp,588
     b82:	0000                	unimp
     b84:	0006                	c.slli	zero,0x1
     b86:	0af503f3          	0xaf503f3
     b8a:	9f25                	0x9f25
	...
     b98:	00a0                	addi	s0,sp,72
     b9a:	0000                	unimp
     b9c:	0006                	c.slli	zero,0x1
     b9e:	935c                	0x935c
     ba0:	5d04                	lw	s1,56(a0)
     ba2:	00a00493          	li	s1,10
     ba6:	0000                	unimp
     ba8:	0188                	addi	a0,sp,192
     baa:	0000                	unimp
     bac:	0006                	c.slli	zero,0x1
     bae:	0cf503f3          	0xcf503f3
     bb2:	9f25                	0x9f25
     bb4:	0188                	addi	a0,sp,192
     bb6:	0000                	unimp
     bb8:	000001ab          	0x1ab
     bbc:	0006                	c.slli	zero,0x1
     bbe:	935c                	0x935c
     bc0:	5d04                	lw	s1,56(a0)
     bc2:	01ab0493          	addi	s1,s6,26
     bc6:	0000                	unimp
     bc8:	02bc                	addi	a5,sp,328
     bca:	0000                	unimp
     bcc:	0006                	c.slli	zero,0x1
     bce:	0cf503f3          	0xcf503f3
     bd2:	9f25                	0x9f25
     bd4:	02bc                	addi	a5,sp,328
     bd6:	0000                	unimp
     bd8:	035f 0000 0006      	0x60000035f
     bde:	935c                	0x935c
     be0:	5d04                	lw	s1,56(a0)
     be2:	035f0493          	addi	s1,t5,53
     be6:	0000                	unimp
     be8:	04f0                	addi	a2,sp,588
     bea:	0000                	unimp
     bec:	0006                	c.slli	zero,0x1
     bee:	0cf503f3          	0xcf503f3
     bf2:	9f25                	0x9f25
	...
     bfc:	0318                	addi	a4,sp,384
     bfe:	0000                	unimp
     c00:	031c                	addi	a5,sp,384
     c02:	0000                	unimp
     c04:	0006                	c.slli	zero,0x1
     c06:	9358                	0x9358
     c08:	5904                	lw	s1,48(a0)
     c0a:	04ec0493          	addi	s1,s8,78
     c0e:	0000                	unimp
     c10:	04f0                	addi	a2,sp,588
     c12:	0000                	unimp
     c14:	0006                	c.slli	zero,0x1
     c16:	935a                	add	t1,t1,s6
     c18:	5b04                	lw	s1,48(a4)
     c1a:	00000493          	li	s1,0
     c1e:	0000                	unimp
     c20:	0000                	unimp
     c22:	0000                	unimp
     c24:	0038                	addi	a4,sp,8
     c26:	0000                	unimp
     c28:	0150                	addi	a2,sp,132
     c2a:	0000                	unimp
     c2c:	0006                	c.slli	zero,0x1
     c2e:	3df2                	fld	fs11,312(sp)
     c30:	0000000b          	0xb
     c34:	0188                	addi	a0,sp,192
     c36:	0000                	unimp
     c38:	04f0                	addi	a2,sp,588
     c3a:	0000                	unimp
     c3c:	0006                	c.slli	zero,0x1
     c3e:	3df2                	fld	fs11,312(sp)
     c40:	0000000b          	0xb
	...
     c4c:	0038                	addi	a4,sp,8
     c4e:	0000                	unimp
     c50:	00a0                	addi	s0,sp,72
     c52:	0000                	unimp
     c54:	0006                	c.slli	zero,0x1
     c56:	935c                	0x935c
     c58:	5d04                	lw	s1,56(a0)
     c5a:	01880493          	addi	s1,a6,24
     c5e:	0000                	unimp
     c60:	000001ab          	0x1ab
     c64:	0006                	c.slli	zero,0x1
     c66:	935c                	0x935c
     c68:	5d04                	lw	s1,56(a0)
     c6a:	01ab0493          	addi	s1,s6,26
     c6e:	0000                	unimp
     c70:	01b0                	addi	a2,sp,200
     c72:	0000                	unimp
     c74:	0006                	c.slli	zero,0x1
     c76:	9364                	0x9364
     c78:	6304                	flw	fs1,0(a4)
     c7a:	02bc0493          	addi	s1,s8,43
     c7e:	0000                	unimp
     c80:	0334                	addi	a3,sp,392
     c82:	0000                	unimp
     c84:	0006                	c.slli	zero,0x1
     c86:	935c                	0x935c
     c88:	5d04                	lw	s1,56(a0)
     c8a:	00000493          	li	s1,0
     c8e:	0000                	unimp
     c90:	0000                	unimp
     c92:	0000                	unimp
     c94:	0038                	addi	a4,sp,8
     c96:	0000                	unimp
     c98:	0090                	addi	a2,sp,64
     c9a:	0000                	unimp
     c9c:	0006                	c.slli	zero,0x1
     c9e:	935a                	add	t1,t1,s6
     ca0:	5b04                	lw	s1,48(a4)
     ca2:	00900493          	li	s1,9
     ca6:	0000                	unimp
     ca8:	009c                	addi	a5,sp,64
     caa:	0000                	unimp
     cac:	0006                	c.slli	zero,0x1
     cae:	935a                	add	t1,t1,s6
     cb0:	5904                	lw	s1,48(a0)
     cb2:	009c0493          	addi	s1,s8,9
     cb6:	0000                	unimp
     cb8:	00a0                	addi	s0,sp,72
     cba:	0000                	unimp
     cbc:	0006                	c.slli	zero,0x1
     cbe:	935a                	add	t1,t1,s6
     cc0:	6604                	flw	fs1,8(a2)
     cc2:	01880493          	addi	s1,a6,24
     cc6:	0000                	unimp
     cc8:	01d8                	addi	a4,sp,196
     cca:	0000                	unimp
     ccc:	0006                	c.slli	zero,0x1
     cce:	9358                	0x9358
     cd0:	5904                	lw	s1,48(a0)
     cd2:	01d80493          	addi	s1,a6,29
     cd6:	0000                	unimp
     cd8:	01fc                	addi	a5,sp,204
     cda:	0000                	unimp
     cdc:	0006                	c.slli	zero,0x1
     cde:	9358                	0x9358
     ce0:	6604                	flw	fs1,8(a2)
     ce2:	02a80493          	addi	s1,a6,42
     ce6:	0000                	unimp
     ce8:	0304                	addi	s1,sp,384
     cea:	0000                	unimp
     cec:	0006                	c.slli	zero,0x1
     cee:	9358                	0x9358
     cf0:	5904                	lw	s1,48(a0)
     cf2:	03040493          	addi	s1,s0,48
     cf6:	0000                	unimp
     cf8:	0310                	addi	a2,sp,384
     cfa:	0000                	unimp
     cfc:	0006                	c.slli	zero,0x1
     cfe:	9362                	add	t1,t1,s8
     d00:	5904                	lw	s1,48(a0)
     d02:	03100493          	li	s1,49
     d06:	0000                	unimp
     d08:	031c                	addi	a5,sp,384
     d0a:	0000                	unimp
     d0c:	0006                	c.slli	zero,0x1
     d0e:	9362                	add	t1,t1,s8
     d10:	6604                	flw	fs1,8(a2)
     d12:	031c0493          	addi	s1,s8,49
     d16:	0000                	unimp
     d18:	0348                	addi	a0,sp,388
     d1a:	0000                	unimp
     d1c:	0006                	c.slli	zero,0x1
     d1e:	9358                	0x9358
     d20:	5904                	lw	s1,48(a0)
     d22:	03480493          	addi	s1,a6,52
     d26:	0000                	unimp
     d28:	034c                	addi	a1,sp,388
     d2a:	0000                	unimp
     d2c:	0006                	c.slli	zero,0x1
     d2e:	9358                	0x9358
     d30:	6604                	flw	fs1,8(a2)
     d32:	00000493          	li	s1,0
     d36:	0000                	unimp
     d38:	0000                	unimp
     d3a:	0000                	unimp
     d3c:	0038                	addi	a4,sp,8
     d3e:	0000                	unimp
     d40:	0098                	addi	a4,sp,64
     d42:	0000                	unimp
     d44:	0001                	nop
     d46:	985c                	0x985c
     d48:	0000                	unimp
     d4a:	5000                	lw	s0,32(s0)
     d4c:	0001                	nop
     d4e:	0100                	addi	s0,sp,128
     d50:	6400                	flw	fs0,8(s0)
     d52:	0188                	addi	a0,sp,192
     d54:	0000                	unimp
     d56:	000001ab          	0x1ab
     d5a:	0001                	nop
     d5c:	ab5c                	fsd	fa5,144(a4)
     d5e:	0001                	nop
     d60:	bc00                	fsd	fs0,56(s0)
     d62:	0002                	c.slli64	zero
     d64:	0100                	addi	s0,sp,128
     d66:	6400                	flw	fs0,8(s0)
     d68:	02bc                	addi	a5,sp,328
     d6a:	0000                	unimp
     d6c:	035c                	addi	a5,sp,388
     d6e:	0000                	unimp
     d70:	0001                	nop
     d72:	5c5c                	lw	a5,60(s0)
     d74:	f0000003          	lb	zero,-256(zero) # ffffff00 <__stack+0x7fe8658c>
     d78:	0004                	0x4
     d7a:	0100                	addi	s0,sp,128
     d7c:	6900                	flw	fs0,16(a0)
	...
     d86:	0038                	addi	a4,sp,8
     d88:	0000                	unimp
     d8a:	00a0                	addi	s0,sp,72
     d8c:	0000                	unimp
     d8e:	0001                	nop
     d90:	885d                	andi	s0,s0,23
     d92:	0001                	nop
     d94:	ab00                	fsd	fs0,16(a4)
     d96:	0001                	nop
     d98:	0100                	addi	s0,sp,128
     d9a:	5d00                	lw	s0,56(a0)
     d9c:	000001ab          	0x1ab
     da0:	01c4                	addi	s1,sp,196
     da2:	0000                	unimp
     da4:	0001                	nop
     da6:	0002a863          	0x2a863
     daa:	b000                	fsd	fs0,32(s0)
     dac:	0002                	c.slli64	zero
     dae:	0100                	addi	s0,sp,128
     db0:	6300                	flw	fs0,0(a4)
     db2:	02bc                	addi	a5,sp,328
     db4:	0000                	unimp
     db6:	0334                	addi	a3,sp,392
     db8:	0000                	unimp
     dba:	0001                	nop
     dbc:	3c5d                	jal	872 <_STACK_SIZE-0xf78e>
     dbe:	f0000003          	lb	zero,-256(zero) # ffffff00 <__stack+0x7fe8658c>
     dc2:	0004                	0x4
     dc4:	0100                	addi	s0,sp,128
     dc6:	6800                	flw	fs0,16(s0)
	...
     dd0:	0040                	addi	s0,sp,4
     dd2:	0000                	unimp
     dd4:	00a0                	addi	s0,sp,72
     dd6:	0000                	unimp
     dd8:	0001                	nop
     dda:	a05a                	fsd	fs6,0(sp)
     ddc:	0000                	unimp
     dde:	1800                	addi	s0,sp,48
     de0:	0001                	nop
     de2:	0100                	addi	s0,sp,128
     de4:	5800                	lw	s0,48(s0)
     de6:	0148                	addi	a0,sp,132
     de8:	0000                	unimp
     dea:	0150                	addi	a2,sp,132
     dec:	0000                	unimp
     dee:	0001                	nop
     df0:	8858                	0x8858
     df2:	0001                	nop
     df4:	0400                	addi	s0,sp,512
     df6:	01000003          	lb	zero,16(zero) # 10 <_STACK_SIZE-0xfff0>
     dfa:	5800                	lw	s0,48(s0)
     dfc:	0304                	addi	s1,sp,384
     dfe:	0000                	unimp
     e00:	0310                	addi	a2,sp,384
     e02:	0000                	unimp
     e04:	0001                	nop
     e06:	1062                	c.slli	zero,0x38
     e08:	d4000003          	lb	zero,-704(zero) # fffffd40 <__stack+0x7fe863cc>
     e0c:	0004                	0x4
     e0e:	0100                	addi	s0,sp,128
     e10:	5800                	lw	s0,48(s0)
     e12:	04dc                	addi	a5,sp,580
     e14:	0000                	unimp
     e16:	04e4                	addi	s1,sp,588
     e18:	0000                	unimp
     e1a:	0001                	nop
     e1c:	005a                	c.slli	zero,0x16
     e1e:	0000                	unimp
     e20:	0000                	unimp
     e22:	0000                	unimp
     e24:	4400                	lw	s0,8(s0)
     e26:	0000                	unimp
     e28:	9000                	0x9000
     e2a:	0000                	unimp
     e2c:	0100                	addi	s0,sp,128
     e2e:	5b00                	lw	s0,48(a4)
     e30:	0090                	addi	a2,sp,64
     e32:	0000                	unimp
     e34:	00f8                	addi	a4,sp,76
     e36:	0000                	unimp
     e38:	0001                	nop
     e3a:	8859                	andi	s0,s0,22
     e3c:	0001                	nop
     e3e:	d800                	sw	s0,48(s0)
     e40:	0001                	nop
     e42:	0100                	addi	s0,sp,128
     e44:	5900                	lw	s0,48(a0)
     e46:	01d8                	addi	a4,sp,196
     e48:	0000                	unimp
     e4a:	02a4                	addi	s1,sp,328
     e4c:	0000                	unimp
     e4e:	0001                	nop
     e50:	a466                	fsd	fs9,8(sp)
     e52:	0002                	c.slli64	zero
     e54:	4800                	lw	s0,16(s0)
     e56:	01000003          	lb	zero,16(zero) # 10 <_STACK_SIZE-0xfff0>
     e5a:	5900                	lw	s0,48(a0)
     e5c:	0348                	addi	a0,sp,388
     e5e:	0000                	unimp
     e60:	034c                	addi	a1,sp,388
     e62:	0000                	unimp
     e64:	0001                	nop
     e66:	5c66                	lw	s8,120(sp)
     e68:	34000003          	lb	zero,832(zero) # 340 <_STACK_SIZE-0xfcc0>
     e6c:	0004                	0x4
     e6e:	0100                	addi	s0,sp,128
     e70:	5900                	lw	s0,48(a0)
     e72:	0434                	addi	a3,sp,520
     e74:	0000                	unimp
     e76:	04dc                	addi	a5,sp,580
     e78:	0000                	unimp
     e7a:	0001                	nop
     e7c:	dc5e                	sw	s7,56(sp)
     e7e:	0004                	0x4
     e80:	ec00                	fsw	fs0,24(s0)
     e82:	0004                	0x4
     e84:	0100                	addi	s0,sp,128
     e86:	5b00                	lw	s0,48(a4)
	...
     e90:	01ec                	addi	a1,sp,204
     e92:	0000                	unimp
     e94:	0254                	addi	a3,sp,260
     e96:	0000                	unimp
     e98:	0001                	nop
     e9a:	5c65                	li	s8,-7
     e9c:	5f000003          	lb	zero,1520(zero) # 5f0 <_STACK_SIZE-0xfa10>
     ea0:	01000003          	lb	zero,16(zero) # 10 <_STACK_SIZE-0xfff0>
     ea4:	5a00                	lw	s0,48(a2)
     ea6:	035f 0000 039c      	0x39c0000035f
     eac:	0000                	unimp
     eae:	0001                	nop
     eb0:	006a                	c.slli	zero,0x1a
	...
     eba:	10000003          	lb	zero,256(zero) # 100 <_STACK_SIZE-0xff00>
     ebe:	02000003          	lb	zero,32(zero) # 20 <_STACK_SIZE-0xffe0>
     ec2:	3100                	fld	fs0,32(a0)
     ec4:	009f 0000 0000      	0x9f
     eca:	0000                	unimp
     ecc:	1000                	addi	s0,sp,32
     ece:	1c000003          	lb	zero,448(zero) # 1c0 <_STACK_SIZE-0xfe40>
     ed2:	02000003          	lb	zero,32(zero) # 20 <_STACK_SIZE-0xffe0>
     ed6:	3000                	fld	fs0,32(s0)
     ed8:	cc9f 0004 f000      	0xf0000004cc9f
     ede:	0004                	0x4
     ee0:	0200                	addi	s0,sp,256
     ee2:	3000                	fld	fs0,32(s0)
     ee4:	009f 0000 0000      	0x9f
     eea:	0000                	unimp
     eec:	e400                	fsw	fs0,8(s0)
     eee:	0001                	nop
     ef0:	f400                	fsw	fs0,40(s0)
     ef2:	0001                	nop
     ef4:	0100                	addi	s0,sp,128
     ef6:	5f00                	lw	s0,56(a4)
     ef8:	0330                	addi	a2,sp,392
     efa:	0000                	unimp
     efc:	04f0                	addi	a2,sp,588
     efe:	0000                	unimp
     f00:	0001                	nop
     f02:	0065                	c.nop	25
     f04:	0000                	unimp
     f06:	0000                	unimp
     f08:	0000                	unimp
     f0a:	8800                	0x8800
     f0c:	0000                	unimp
     f0e:	5000                	lw	s0,32(s0)
     f10:	0001                	nop
     f12:	0100                	addi	s0,sp,128
     f14:	6300                	flw	fs0,0(a4)
     f16:	01e0                	addi	s0,sp,204
     f18:	0000                	unimp
     f1a:	02a8                	addi	a0,sp,328
     f1c:	0000                	unimp
     f1e:	0001                	nop
     f20:	0002f463          	bgeu	t0,zero,f28 <_STACK_SIZE-0xf0d8>
     f24:	1c00                	addi	s0,sp,560
     f26:	01000003          	lb	zero,16(zero) # 10 <_STACK_SIZE-0xfff0>
     f2a:	6400                	flw	fs0,8(s0)
     f2c:	0330                	addi	a2,sp,392
     f2e:	0000                	unimp
     f30:	04f0                	addi	a2,sp,588
     f32:	0000                	unimp
     f34:	0001                	nop
     f36:	0064                	addi	s1,sp,12
     f38:	0000                	unimp
     f3a:	0000                	unimp
     f3c:	0000                	unimp
     f3e:	5c00                	lw	s0,56(s0)
     f40:	0000                	unimp
     f42:	a000                	fsd	fs0,0(s0)
     f44:	0000                	unimp
     f46:	0100                	addi	s0,sp,128
     f48:	5c00                	lw	s0,56(s0)
     f4a:	0188                	addi	a0,sp,192
     f4c:	0000                	unimp
     f4e:	019c                	addi	a5,sp,192
     f50:	0000                	unimp
     f52:	0001                	nop
     f54:	005c                	addi	a5,sp,4
     f56:	0000                	unimp
     f58:	0000                	unimp
     f5a:	0000                	unimp
     f5c:	7000                	flw	fs0,32(s0)
     f5e:	0000                	unimp
     f60:	8800                	0x8800
     f62:	0000                	unimp
     f64:	0100                	addi	s0,sp,128
     f66:	6300                	flw	fs0,0(a4)
	...
     f70:	00a4                	addi	s1,sp,72
     f72:	0000                	unimp
     f74:	0150                	addi	a2,sp,132
     f76:	0000                	unimp
     f78:	0001                	nop
     f7a:	0065                	c.nop	25
     f7c:	0000                	unimp
     f7e:	0000                	unimp
     f80:	0000                	unimp
     f82:	c800                	sw	s0,16(s0)
     f84:	0000                	unimp
     f86:	5000                	lw	s0,32(s0)
     f88:	0001                	nop
     f8a:	0100                	addi	s0,sp,128
     f8c:	6600                	flw	fs0,8(a2)
	...
     f96:	00cc                	addi	a1,sp,68
     f98:	0000                	unimp
     f9a:	00d0                	addi	a2,sp,68
     f9c:	0000                	unimp
     f9e:	0001                	nop
     fa0:	d05a                	sw	s6,32(sp)
     fa2:	0000                	unimp
     fa4:	d300                	sw	s0,32(a4)
     fa6:	0000                	unimp
     fa8:	0100                	addi	s0,sp,128
     faa:	5b00                	lw	s0,48(a4)
	...
     fb4:	011c                	addi	a5,sp,128
     fb6:	0000                	unimp
     fb8:	0124                	addi	s1,sp,136
     fba:	0000                	unimp
     fbc:	0001                	nop
     fbe:	245a                	fld	fs0,400(sp)
     fc0:	0001                	nop
     fc2:	2b00                	fld	fs0,16(a4)
     fc4:	0001                	nop
     fc6:	0100                	addi	s0,sp,128
     fc8:	5b00                	lw	s0,48(a4)
	...
     fd2:	00c8                	addi	a0,sp,68
     fd4:	0000                	unimp
     fd6:	00d8                	addi	a4,sp,68
     fd8:	0000                	unimp
     fda:	0001                	nop
     fdc:	e062                	fsw	fs8,0(sp)
     fde:	0000                	unimp
     fe0:	f800                	fsw	fs0,48(s0)
     fe2:	0000                	unimp
     fe4:	0100                	addi	s0,sp,128
     fe6:	5f00                	lw	s0,56(a4)
     fe8:	00f8                	addi	a4,sp,76
     fea:	0000                	unimp
     fec:	0150                	addi	a2,sp,132
     fee:	0000                	unimp
     ff0:	0001                	nop
     ff2:	0059                	c.nop	22
     ff4:	0000                	unimp
     ff6:	0000                	unimp
     ff8:	0000                	unimp
     ffa:	0800                	addi	s0,sp,16
     ffc:	0001                	nop
     ffe:	1000                	addi	s0,sp,32
    1000:	0001                	nop
    1002:	0100                	addi	s0,sp,128
    1004:	5a00                	lw	s0,48(a2)
    1006:	0110                	addi	a2,sp,128
    1008:	0000                	unimp
    100a:	0120                	addi	s0,sp,136
    100c:	0000                	unimp
    100e:	0001                	nop
    1010:	3062                	fld	ft0,56(sp)
    1012:	0001                	nop
    1014:	5000                	lw	s0,32(s0)
    1016:	0001                	nop
    1018:	0100                	addi	s0,sp,128
    101a:	5800                	lw	s0,48(s0)
	...
    1024:	00d4                	addi	a3,sp,68
    1026:	0000                	unimp
    1028:	0100                	addi	s0,sp,128
    102a:	0000                	unimp
    102c:	0001                	nop
    102e:	2c5a                	fld	fs8,400(sp)
    1030:	0001                	nop
    1032:	4c00                	lw	s0,24(s0)
    1034:	0001                	nop
    1036:	0100                	addi	s0,sp,128
    1038:	5a00                	lw	s0,48(a2)
	...
    1042:	01b0                	addi	a2,sp,200
    1044:	0000                	unimp
    1046:	01e8                	addi	a0,sp,204
    1048:	0000                	unimp
    104a:	0001                	nop
    104c:	a864                	fsd	fs1,208(s0)
    104e:	0002                	c.slli64	zero
    1050:	bc00                	fsd	fs0,56(s0)
    1052:	0002                	c.slli64	zero
    1054:	0100                	addi	s0,sp,128
    1056:	6400                	flw	fs0,8(s0)
	...
    1060:	01c4                	addi	s1,sp,196
    1062:	0000                	unimp
    1064:	01e0                	addi	s0,sp,204
    1066:	0000                	unimp
    1068:	0001                	nop
    106a:	00000063          	beqz	zero,106a <_STACK_SIZE-0xef96>
    106e:	0000                	unimp
    1070:	0000                	unimp
    1072:	1000                	addi	s0,sp,32
    1074:	0002                	c.slli64	zero
    1076:	a400                	fsd	fs0,8(s0)
    1078:	0002                	c.slli64	zero
    107a:	0100                	addi	s0,sp,128
    107c:	5900                	lw	s0,48(a0)
    107e:	02a4                	addi	s1,sp,328
    1080:	0000                	unimp
    1082:	02a8                	addi	a0,sp,328
    1084:	0000                	unimp
    1086:	0005                	c.nop	1
    1088:	0084                	addi	s1,sp,64
    108a:	2540                	fld	fs0,136(a0)
    108c:	009f 0000 0000      	0x9f
    1092:	0000                	unimp
    1094:	2400                	fld	fs0,8(s0)
    1096:	0002                	c.slli64	zero
    1098:	a800                	fsd	fs0,16(s0)
    109a:	0002                	c.slli64	zero
    109c:	0100                	addi	s0,sp,128
    109e:	6700                	flw	fs0,8(a4)
	...
    10a8:	0228                	addi	a0,sp,264
    10aa:	0000                	unimp
    10ac:	022c                	addi	a1,sp,264
    10ae:	0000                	unimp
    10b0:	0001                	nop
    10b2:	2c5a                	fld	fs8,400(sp)
    10b4:	0002                	c.slli64	zero
    10b6:	2f00                	fld	fs0,24(a4)
    10b8:	0002                	c.slli64	zero
    10ba:	0100                	addi	s0,sp,128
    10bc:	5b00                	lw	s0,48(a4)
	...
    10c6:	0274                	addi	a3,sp,268
    10c8:	0000                	unimp
    10ca:	0278                	addi	a4,sp,268
    10cc:	0000                	unimp
    10ce:	0001                	nop
    10d0:	785a                	flw	fa6,180(sp)
    10d2:	0002                	c.slli64	zero
    10d4:	7b00                	flw	fs0,48(a4)
    10d6:	0002                	c.slli64	zero
    10d8:	0100                	addi	s0,sp,128
    10da:	5b00                	lw	s0,48(a4)
	...
    10e4:	0224                	addi	s1,sp,264
    10e6:	0000                	unimp
    10e8:	0234                	addi	a3,sp,264
    10ea:	0000                	unimp
    10ec:	0001                	nop
    10ee:	3c62                	fld	fs8,56(sp)
    10f0:	0002                	c.slli64	zero
    10f2:	5400                	lw	s0,40(s0)
    10f4:	0002                	c.slli64	zero
    10f6:	0100                	addi	s0,sp,128
    10f8:	5f00                	lw	s0,56(a4)
    10fa:	0254                	addi	a3,sp,260
    10fc:	0000                	unimp
    10fe:	02a8                	addi	a0,sp,328
    1100:	0000                	unimp
    1102:	0001                	nop
    1104:	0065                	c.nop	25
    1106:	0000                	unimp
    1108:	0000                	unimp
    110a:	0000                	unimp
    110c:	6400                	flw	fs0,8(s0)
    110e:	0002                	c.slli64	zero
    1110:	6c00                	flw	fs0,24(s0)
    1112:	0002                	c.slli64	zero
    1114:	0100                	addi	s0,sp,128
    1116:	5a00                	lw	s0,48(a2)
    1118:	026c                	addi	a1,sp,268
    111a:	0000                	unimp
    111c:	0284                	addi	s1,sp,320
    111e:	0000                	unimp
    1120:	0001                	nop
    1122:	8c62                	mv	s8,s8
    1124:	0002                	c.slli64	zero
    1126:	a400                	fsd	fs0,8(s0)
    1128:	0002                	c.slli64	zero
    112a:	0100                	addi	s0,sp,128
    112c:	5b00                	lw	s0,48(a4)
    112e:	02a4                	addi	s1,sp,328
    1130:	0000                	unimp
    1132:	02a8                	addi	a0,sp,328
    1134:	0000                	unimp
    1136:	0001                	nop
    1138:	0059                	c.nop	22
    113a:	0000                	unimp
    113c:	0000                	unimp
    113e:	0000                	unimp
    1140:	3000                	fld	fs0,32(s0)
    1142:	0002                	c.slli64	zero
    1144:	5c00                	lw	s0,56(s0)
    1146:	0002                	c.slli64	zero
    1148:	0100                	addi	s0,sp,128
    114a:	5a00                	lw	s0,48(a2)
    114c:	027c                	addi	a5,sp,268
    114e:	0000                	unimp
    1150:	02a8                	addi	a0,sp,328
    1152:	0000                	unimp
    1154:	0001                	nop
    1156:	005a                	c.slli	zero,0x16
    1158:	0000                	unimp
    115a:	0000                	unimp
    115c:	0000                	unimp
    115e:	c000                	sw	s0,0(s0)
    1160:	0002                	c.slli64	zero
    1162:	3400                	fld	fs0,40(s0)
    1164:	01000003          	lb	zero,16(zero) # 10 <_STACK_SIZE-0xfff0>
    1168:	5d00                	lw	s0,56(a0)
	...
    1172:	02d4                	addi	a3,sp,324
    1174:	0000                	unimp
    1176:	030c                	addi	a1,sp,384
    1178:	0000                	unimp
    117a:	0001                	nop
    117c:	305a                	fld	ft0,432(sp)
    117e:	54000003          	lb	zero,1344(zero) # 540 <_STACK_SIZE-0xfac0>
    1182:	01000003          	lb	zero,16(zero) # 10 <_STACK_SIZE-0xfff0>
    1186:	5a00                	lw	s0,48(a2)
	...
    1190:	0304                	addi	s1,sp,384
    1192:	0000                	unimp
    1194:	0310                	addi	a2,sp,384
    1196:	0000                	unimp
    1198:	0001                	nop
    119a:	0058                	addi	a4,sp,4
    119c:	0000                	unimp
    119e:	0000                	unimp
    11a0:	0000                	unimp
    11a2:	9400                	0x9400
    11a4:	0004                	0x4
    11a6:	d800                	sw	s0,48(s0)
    11a8:	0004                	0x4
    11aa:	0100                	addi	s0,sp,128
    11ac:	5b00                	lw	s0,48(a4)
	...
    11b6:	04ac                	addi	a1,sp,584
    11b8:	0000                	unimp
    11ba:	04c8                	addi	a0,sp,580
    11bc:	0000                	unimp
    11be:	0001                	nop
    11c0:	c85a                	sw	s6,16(sp)
    11c2:	0004                	0x4
    11c4:	cc00                	sw	s0,24(s0)
    11c6:	0004                	0x4
    11c8:	0100                	addi	s0,sp,128
    11ca:	5c00                	lw	s0,56(s0)
    11cc:	04cc                	addi	a1,sp,580
    11ce:	0000                	unimp
    11d0:	04d0                	addi	a2,sp,580
    11d2:	0000                	unimp
    11d4:	0001                	nop
    11d6:	005a                	c.slli	zero,0x16
    11d8:	0000                	unimp
    11da:	0000                	unimp
    11dc:	0000                	unimp
    11de:	8400                	0x8400
    11e0:	88000003          	lb	zero,-1920(zero) # fffff880 <__stack+0x7fe85f0c>
    11e4:	01000003          	lb	zero,16(zero) # 10 <_STACK_SIZE-0xfff0>
    11e8:	5a00                	lw	s0,48(a2)
    11ea:	0388                	addi	a0,sp,448
    11ec:	0000                	unimp
    11ee:	0000038b          	0x38b
    11f2:	0001                	nop
    11f4:	00038b5b          	0x38b5b
    11f8:	a800                	fsd	fs0,16(s0)
    11fa:	01000003          	lb	zero,16(zero) # 10 <_STACK_SIZE-0xfff0>
    11fe:	6200                	flw	fs0,0(a2)
    1200:	03a8                	addi	a0,sp,456
    1202:	0000                	unimp
    1204:	0420                	addi	s0,sp,520
    1206:	0000                	unimp
    1208:	0001                	nop
    120a:	006a                	c.slli	zero,0x1a
    120c:	0000                	unimp
    120e:	0000                	unimp
    1210:	0000                	unimp
    1212:	dc00                	sw	s0,56(s0)
    1214:	e4000003          	lb	zero,-448(zero) # fffffe40 <__stack+0x7fe864cc>
    1218:	01000003          	lb	zero,16(zero) # 10 <_STACK_SIZE-0xfff0>
    121c:	5a00                	lw	s0,48(a2)
    121e:	03e4                	addi	s1,sp,460
    1220:	0000                	unimp
    1222:	000003e7          	jalr	t2,zero # 0 <_STACK_SIZE-0x10000>
    1226:	0001                	nop
    1228:	0003e75b          	0x3e75b
    122c:	0800                	addi	s0,sp,16
    122e:	0004                	0x4
    1230:	0100                	addi	s0,sp,128
    1232:	6200                	flw	fs0,0(a2)
    1234:	0408                	addi	a0,sp,512
    1236:	0000                	unimp
    1238:	0428                	addi	a0,sp,520
    123a:	0000                	unimp
    123c:	0001                	nop
    123e:	005f 0000 0000      	0x5f
    1244:	0000                	unimp
    1246:	8000                	0x8000
    1248:	90000003          	lb	zero,-1792(zero) # fffff900 <__stack+0x7fe85f8c>
    124c:	01000003          	lb	zero,16(zero) # 10 <_STACK_SIZE-0xfff0>
    1250:	6300                	flw	fs0,0(a4)
    1252:	0398                	addi	a4,sp,448
    1254:	0000                	unimp
    1256:	03a4                	addi	s1,sp,456
    1258:	0000                	unimp
    125a:	0001                	nop
    125c:	a45e                	fsd	fs7,8(sp)
    125e:	a8000003          	lb	zero,-1408(zero) # fffffa80 <__stack+0x7fe8610c>
    1262:	08000003          	lb	zero,128(zero) # 80 <_STACK_SIZE-0xff80>
    1266:	7900                	flw	fs0,48(a0)
    1268:	4000                	lw	s0,0(s0)
    126a:	8325                	srli	a4,a4,0x9
    126c:	2100                	fld	fs0,0(a0)
    126e:	a89f 0003 bc00      	0xbc000003a89f
    1274:	01000003          	lb	zero,16(zero) # 10 <_STACK_SIZE-0xfff0>
    1278:	5e00                	lw	s0,56(a2)
    127a:	03bc                	addi	a5,sp,456
    127c:	0000                	unimp
    127e:	03dc                	addi	a5,sp,452
    1280:	0000                	unimp
    1282:	0001                	nop
    1284:	0062                	c.slli	zero,0x18
    1286:	0000                	unimp
    1288:	0000                	unimp
    128a:	0000                	unimp
    128c:	cc00                	sw	s0,24(s0)
    128e:	d4000003          	lb	zero,-704(zero) # fffffd40 <__stack+0x7fe863cc>
    1292:	01000003          	lb	zero,16(zero) # 10 <_STACK_SIZE-0xfff0>
    1296:	5a00                	lw	s0,48(a2)
    1298:	03d4                	addi	a3,sp,452
    129a:	0000                	unimp
    129c:	03f0                	addi	a2,sp,460
    129e:	0000                	unimp
    12a0:	0001                	nop
    12a2:	0003f863          	bgeu	t2,zero,12b2 <_STACK_SIZE-0xed4e>
    12a6:	0400                	addi	s0,sp,512
    12a8:	0004                	0x4
    12aa:	0100                	addi	s0,sp,128
    12ac:	5e00                	lw	s0,56(a2)
    12ae:	0404                	addi	s1,sp,512
    12b0:	0000                	unimp
    12b2:	0408                	addi	a0,sp,512
    12b4:	0000                	unimp
    12b6:	000a                	c.slli	zero,0x2
    12b8:	0079                	c.nop	30
    12ba:	2440                	fld	fs0,136(s0)
    12bc:	2540                	fld	fs0,136(a0)
    12be:	9f210083          	lb	ra,-1550(sp)
    12c2:	0408                	addi	a0,sp,512
    12c4:	0000                	unimp
    12c6:	04f0                	addi	a2,sp,588
    12c8:	0000                	unimp
    12ca:	0001                	nop
    12cc:	005e                	c.slli	zero,0x17
    12ce:	0000                	unimp
    12d0:	0000                	unimp
    12d2:	0000                	unimp
    12d4:	8c00                	0x8c00
    12d6:	c4000003          	lb	zero,-960(zero) # fffffc40 <__stack+0x7fe862cc>
    12da:	01000003          	lb	zero,16(zero) # 10 <_STACK_SIZE-0xfff0>
    12de:	5a00                	lw	s0,48(a2)
    12e0:	03e8                	addi	a0,sp,460
    12e2:	0000                	unimp
    12e4:	0440                	addi	s0,sp,516
    12e6:	0000                	unimp
    12e8:	0001                	nop
    12ea:	005a                	c.slli	zero,0x16
    12ec:	0000                	unimp
    12ee:	0000                	unimp
    12f0:	0000                	unimp
    12f2:	4c00                	lw	s0,24(s0)
    12f4:	0004                	0x4
    12f6:	5400                	lw	s0,40(s0)
    12f8:	0004                	0x4
    12fa:	0100                	addi	s0,sp,128
    12fc:	5a00                	lw	s0,48(a2)
    12fe:	0454                	addi	a3,sp,516
    1300:	0000                	unimp
    1302:	04f0                	addi	a2,sp,588
    1304:	0000                	unimp
    1306:	0001                	nop
    1308:	0060                	addi	s0,sp,12
    130a:	0000                	unimp
    130c:	0000                	unimp
    130e:	0000                	unimp
    1310:	5c00                	lw	s0,56(s0)
    1312:	0004                	0x4
    1314:	6400                	flw	fs0,8(s0)
    1316:	0004                	0x4
    1318:	0100                	addi	s0,sp,128
    131a:	5a00                	lw	s0,48(a2)
    131c:	0464                	addi	s1,sp,524
    131e:	0000                	unimp
    1320:	0478                	addi	a4,sp,524
    1322:	0000                	unimp
    1324:	0001                	nop
    1326:	7861                	lui	a6,0xffff8
    1328:	0004                	0x4
    132a:	8000                	0x8000
    132c:	0004                	0x4
    132e:	0800                	addi	s0,sp,16
    1330:	8000                	0x8000
    1332:	4000                	lw	s0,0(s0)
    1334:	8125                	srli	a0,a0,0x9
    1336:	2200                	fld	fs0,0(a2)
    1338:	849f 0004 a000      	0xa0000004849f
    133e:	0004                	0x4
    1340:	0100                	addi	s0,sp,128
    1342:	5f00                	lw	s0,56(a4)
    1344:	04a0                	addi	s0,sp,584
    1346:	0000                	unimp
    1348:	04f0                	addi	a2,sp,588
    134a:	0000                	unimp
    134c:	0008                	0x8
    134e:	0080                	addi	s0,sp,64
    1350:	2540                	fld	fs0,136(a0)
    1352:	0081                	addi	ra,ra,0
    1354:	9f22                	add	t5,t5,s0
	...
    135e:	0478                	addi	a4,sp,524
    1360:	0000                	unimp
    1362:	0498                	addi	a4,sp,576
    1364:	0000                	unimp
    1366:	0001                	nop
    1368:	005a                	c.slli	zero,0x16
    136a:	0000                	unimp
    136c:	0000                	unimp
    136e:	0000                	unimp
    1370:	3400                	fld	fs0,40(s0)
    1372:	0004                	0x4
    1374:	5c00                	lw	s0,56(s0)
    1376:	0004                	0x4
    1378:	0100                	addi	s0,sp,128
    137a:	6100                	flw	fs0,0(a0)
	...
    1384:	0438                	addi	a4,sp,520
    1386:	0000                	unimp
    1388:	047c                	addi	a5,sp,524
    138a:	0000                	unimp
    138c:	0001                	nop
    138e:	7c5f 0004 9c00      	0x9c0000047c5f
    1394:	0004                	0x4
    1396:	0600                	addi	s0,sp,768
    1398:	8d00                	0x8d00
    139a:	897f                	0x897f
    139c:	1a00                	addi	s0,sp,304
    139e:	9c9f 0004 a800      	0xa80000049c9f
    13a4:	0004                	0x4
    13a6:	0600                	addi	s0,sp,768
    13a8:	8900                	0x8900
    13aa:	7a00                	flw	fs0,48(a2)
    13ac:	1a00                	addi	s0,sp,304
    13ae:	a89f 0004 f000      	0xf0000004a89f
    13b4:	0004                	0x4
    13b6:	0600                	addi	s0,sp,768
    13b8:	8d00                	0x8d00
    13ba:	897f                	0x897f
    13bc:	1a00                	addi	s0,sp,304
    13be:	009f 0000 0000      	0x9f
    13c4:	0000                	unimp
    13c6:	bc00                	fsd	fs0,56(s0)
    13c8:	0004                	0x4
    13ca:	cc00                	sw	s0,24(s0)
    13cc:	0004                	0x4
    13ce:	0100                	addi	s0,sp,128
    13d0:	5c00                	lw	s0,56(s0)
	...
    13da:	04d0                	addi	a2,sp,580
    13dc:	0000                	unimp
    13de:	04e4                	addi	s1,sp,588
    13e0:	0000                	unimp
    13e2:	0001                	nop
    13e4:	005a                	c.slli	zero,0x16
    13e6:	0000                	unimp
    13e8:	0000                	unimp
    13ea:	0000                	unimp
	...

Disassembly of section .debug_aranges:

00000000 <.debug_aranges>:
   0:	001c                	0x1c
   2:	0000                	unimp
   4:	0002                	c.slli64	zero
   6:	0000                	unimp
   8:	0000                	unimp
   a:	0004                	0x4
   c:	0000                	unimp
   e:	0000                	unimp
  10:	95f8                	0x95f8
  12:	8000                	0x8000
  14:	05d8                	addi	a4,sp,708
	...
  1e:	0000                	unimp
  20:	001c                	0x1c
  22:	0000                	unimp
  24:	0002                	c.slli64	zero
  26:	09a6                	slli	s3,s3,0x9
  28:	0000                	unimp
  2a:	0004                	0x4
  2c:	0000                	unimp
  2e:	0000                	unimp
  30:	9bd0                	0x9bd0
  32:	8000                	0x8000
  34:	04f0                	addi	a2,sp,588
	...
  3e:	0000                	unimp
  40:	001c                	0x1c
  42:	0000                	unimp
  44:	0002                	c.slli64	zero
  46:	135c                	addi	a5,sp,420
  48:	0000                	unimp
  4a:	0004                	0x4
  4c:	0000                	unimp
  4e:	0000                	unimp
  50:	a0c0                	fsd	fs0,128(s1)
  52:	8000                	0x8000
  54:	0024                	addi	s1,sp,8
	...
  5e:	0000                	unimp
  60:	001c                	0x1c
  62:	0000                	unimp
  64:	0002                	c.slli64	zero
  66:	1382                	slli	t2,t2,0x20
  68:	0000                	unimp
  6a:	0004                	0x4
  6c:	0000                	unimp
  6e:	0000                	unimp
  70:	a0e4                	fsd	fs1,192(s1)
  72:	8000                	0x8000
  74:	00b4                	addi	a3,sp,72
	...
  7e:	0000                	unimp
  80:	0014                	0x14
  82:	0000                	unimp
  84:	0002                	c.slli64	zero
  86:	13a8                	addi	a0,sp,488
  88:	0000                	unimp
  8a:	0004                	0x4
	...

Disassembly of section .debug_ranges:

00000000 <.debug_ranges>:
	...
   8:	0038                	addi	a4,sp,8
   a:	0000                	unimp
   c:	0294                	addi	a3,sp,320
   e:	0000                	unimp
  10:	02d0                	addi	a2,sp,324
  12:	0000                	unimp
  14:	05c8                	addi	a0,sp,708
  16:	0000                	unimp
  18:	05cc                	addi	a1,sp,708
  1a:	0000                	unimp
  1c:	05d8                	addi	a4,sp,708
	...
  26:	0000                	unimp
  28:	0050                	addi	a2,sp,4
  2a:	0000                	unimp
  2c:	0058                	addi	a4,sp,4
  2e:	0000                	unimp
  30:	0058                	addi	a4,sp,4
  32:	0000                	unimp
  34:	0080                	addi	s0,sp,64
  36:	0000                	unimp
  38:	0168                	addi	a0,sp,140
  3a:	0000                	unimp
  3c:	0180                	addi	s0,sp,192
	...
  46:	0000                	unimp
  48:	0160                	addi	s0,sp,140
  4a:	0000                	unimp
  4c:	0168                	addi	a0,sp,140
  4e:	0000                	unimp
  50:	0434                	addi	a3,sp,520
  52:	0000                	unimp
  54:	05c8                	addi	a0,sp,708
	...
  5e:	0000                	unimp
  60:	0450                	addi	a2,sp,516
  62:	0000                	unimp
  64:	045c                	addi	a5,sp,516
  66:	0000                	unimp
  68:	0460                	addi	s0,sp,524
  6a:	0000                	unimp
  6c:	051c                	addi	a5,sp,640
  6e:	0000                	unimp
  70:	0520                	addi	s0,sp,648
  72:	0000                	unimp
  74:	0524                	addi	s1,sp,648
  76:	0000                	unimp
  78:	0530                	addi	a2,sp,648
  7a:	0000                	unimp
  7c:	0534                	addi	a3,sp,648
	...
  86:	0000                	unimp
  88:	051c                	addi	a5,sp,640
  8a:	0000                	unimp
  8c:	0520                	addi	s0,sp,648
  8e:	0000                	unimp
  90:	0524                	addi	s1,sp,648
  92:	0000                	unimp
  94:	0530                	addi	a2,sp,648
  96:	0000                	unimp
  98:	0534                	addi	a3,sp,648
  9a:	0000                	unimp
  9c:	0598                	addi	a4,sp,704
  9e:	0000                	unimp
  a0:	05a0                	addi	s0,sp,712
  a2:	0000                	unimp
  a4:	05b4                	addi	a3,sp,712
  a6:	0000                	unimp
  a8:	05b8                	addi	a4,sp,712
  aa:	0000                	unimp
  ac:	05bc                	addi	a5,sp,712
	...
  b6:	0000                	unimp
  b8:	056c                	addi	a1,sp,652
  ba:	0000                	unimp
  bc:	0578                	addi	a4,sp,652
  be:	0000                	unimp
  c0:	0584                	addi	s1,sp,704
  c2:	0000                	unimp
  c4:	0588                	addi	a0,sp,704
	...
  ce:	0000                	unimp
  d0:	0194                	addi	a3,sp,192
  d2:	0000                	unimp
  d4:	01c0                	addi	s0,sp,196
  d6:	0000                	unimp
  d8:	02d0                	addi	a2,sp,324
  da:	0000                	unimp
  dc:	02e4                	addi	s1,sp,332
	...
  e6:	0000                	unimp
  e8:	02f8                	addi	a4,sp,332
  ea:	0000                	unimp
  ec:	0304                	addi	s1,sp,384
  ee:	0000                	unimp
  f0:	0308                	addi	a0,sp,384
  f2:	0000                	unimp
  f4:	03d0                	addi	a2,sp,452
	...
  fe:	0000                	unimp
 100:	03d4                	addi	a3,sp,452
 102:	0000                	unimp
 104:	0408                	addi	a0,sp,512
 106:	0000                	unimp
 108:	0420                	addi	s0,sp,520
 10a:	0000                	unimp
 10c:	0434                	addi	a3,sp,520
	...
 116:	0000                	unimp
 118:	0038                	addi	a4,sp,8
 11a:	0000                	unimp
 11c:	0038                	addi	a4,sp,8
 11e:	0000                	unimp
 120:	003c                	addi	a5,sp,8
 122:	0000                	unimp
 124:	0150                	addi	a2,sp,132
 126:	0000                	unimp
 128:	0188                	addi	a0,sp,192
 12a:	0000                	unimp
 12c:	04f0                	addi	a2,sp,588
	...
 136:	0000                	unimp
 138:	005c                	addi	a5,sp,4
 13a:	0000                	unimp
 13c:	0088                	addi	a0,sp,64
 13e:	0000                	unimp
 140:	0188                	addi	a0,sp,192
 142:	0000                	unimp
 144:	019c                	addi	a5,sp,192
	...
 14e:	0000                	unimp
 150:	01b0                	addi	a2,sp,200
 152:	0000                	unimp
 154:	01d4                	addi	a3,sp,196
 156:	0000                	unimp
 158:	01d8                	addi	a4,sp,196
 15a:	0000                	unimp
 15c:	01e0                	addi	s0,sp,204
 15e:	0000                	unimp
 160:	02a8                	addi	a0,sp,328
 162:	0000                	unimp
 164:	02bc                	addi	a5,sp,328
	...
 16e:	0000                	unimp
 170:	01f4                	addi	a3,sp,204
 172:	0000                	unimp
 174:	01f8                	addi	a4,sp,204
 176:	0000                	unimp
 178:	01fc                	addi	a5,sp,204
 17a:	0000                	unimp
 17c:	020c                	addi	a1,sp,256
 17e:	0000                	unimp
 180:	0210                	addi	a2,sp,256
 182:	0000                	unimp
 184:	02a8                	addi	a0,sp,328
	...
 18e:	0000                	unimp
 190:	02c0                	addi	s0,sp,324
 192:	0000                	unimp
 194:	02f4                	addi	a3,sp,332
 196:	0000                	unimp
 198:	031c                	addi	a5,sp,384
 19a:	0000                	unimp
 19c:	0330                	addi	a2,sp,392
	...
 1a6:	0000                	unimp
 1a8:	0348                	addi	a0,sp,388
 1aa:	0000                	unimp
 1ac:	034c                	addi	a1,sp,388
 1ae:	0000                	unimp
 1b0:	0350                	addi	a2,sp,388
 1b2:	0000                	unimp
 1b4:	0358                	addi	a4,sp,388
 1b6:	0000                	unimp
 1b8:	035c                	addi	a5,sp,388
 1ba:	0000                	unimp
 1bc:	037c                	addi	a5,sp,396
 1be:	0000                	unimp
 1c0:	0380                	addi	s0,sp,448
 1c2:	0000                	unimp
 1c4:	0418                	addi	a4,sp,512
 1c6:	0000                	unimp
 1c8:	041c                	addi	a5,sp,512
 1ca:	0000                	unimp
 1cc:	0424                	addi	s1,sp,520
 1ce:	0000                	unimp
 1d0:	0430                	addi	a2,sp,520
 1d2:	0000                	unimp
 1d4:	0434                	addi	a3,sp,520
	...
 1de:	0000                	unimp
 1e0:	0418                	addi	a4,sp,512
 1e2:	0000                	unimp
 1e4:	041c                	addi	a5,sp,512
 1e6:	0000                	unimp
 1e8:	0424                	addi	s1,sp,520
 1ea:	0000                	unimp
 1ec:	0430                	addi	a2,sp,520
 1ee:	0000                	unimp
 1f0:	0434                	addi	a3,sp,520
 1f2:	0000                	unimp
 1f4:	04ac                	addi	a1,sp,584
	...

Disassembly of section .debug_line:

00000000 <.debug_line>:
       0:	077f                	0x77f
       2:	0000                	unimp
       4:	00490003          	lb	zero,4(s2) # fffe9004 <__stack+0x7fe6f690>
       8:	0000                	unimp
       a:	0101                	addi	sp,sp,0
       c:	000d0efb          	0xd0efb
      10:	0101                	addi	sp,sp,0
      12:	0101                	addi	sp,sp,0
      14:	0000                	unimp
      16:	0100                	addi	s0,sp,128
      18:	0000                	unimp
      1a:	2e01                	jal	32a <_STACK_SIZE-0xfcd6>
      1c:	2f2e                	fld	ft10,200(sp)
      1e:	2e2e                	fld	ft8,200(sp)
      20:	2f2e2e2f          	0x2f2e2e2f
      24:	2f2e                	fld	ft10,200(sp)
      26:	6972                	flw	fs2,28(sp)
      28:	2d766373          	csrrsi	t1,0x2d7,12
      2c:	2f636367          	0x2f636367
      30:	696c                	flw	fa1,84(a0)
      32:	6762                	flw	fa4,24(sp)
      34:	00006363          	bltu	zero,zero,3a <_STACK_SIZE-0xffc6>
      38:	696c                	flw	fa1,84(a0)
      3a:	6762                	flw	fa4,24(sp)
      3c:	2e326363          	bltu	tp,gp,322 <_STACK_SIZE-0xfcde>
      40:	00010063          	beqz	sp,40 <_STACK_SIZE-0xffc0>
      44:	6c00                	flw	fs0,24(s0)
      46:	6269                	lui	tp,0x1a
      48:	32636367          	0x32636367
      4c:	682e                	flw	fa6,200(sp)
      4e:	0100                	addi	s0,sp,128
      50:	0000                	unimp
      52:	0500                	addi	s0,sp,640
      54:	0001                	nop
      56:	0205                	addi	tp,tp,1
      58:	95f8                	0x95f8
      5a:	8000                	0x8000
      5c:	010aa603          	lw	a2,16(s5)
      60:	0305                	addi	t1,t1,1
      62:	00090103          	lb	sp,0(s2)
      66:	0100                	addi	s0,sp,128
      68:	097dd103          	lhu	sp,151(s11)
      6c:	0000                	unimp
      6e:	0301                	addi	t1,t1,0
      70:	0901                	addi	s2,s2,0
      72:	0000                	unimp
      74:	0301                	addi	t1,t1,0
      76:	0901                	addi	s2,s2,0
      78:	0000                	unimp
      7a:	0301                	addi	t1,t1,0
      7c:	0901                	addi	s2,s2,0
      7e:	0000                	unimp
      80:	0301                	addi	t1,t1,0
      82:	0901                	addi	s2,s2,0
      84:	0000                	unimp
      86:	0301                	addi	t1,t1,0
      88:	0901                	addi	s2,s2,0
      8a:	0000                	unimp
      8c:	0301                	addi	t1,t1,0
      8e:	0902                	c.slli64	s2
      90:	0000                	unimp
      92:	0301                	addi	t1,t1,0
      94:	0901                	addi	s2,s2,0
      96:	0000                	unimp
      98:	0301                	addi	t1,t1,0
      9a:	0901                	addi	s2,s2,0
      9c:	0000                	unimp
      9e:	0301                	addi	t1,t1,0
      a0:	0901                	addi	s2,s2,0
      a2:	0000                	unimp
      a4:	0301                	addi	t1,t1,0
      a6:	0925                	addi	s2,s2,9
      a8:	0000                	unimp
      aa:	0501                	addi	a0,a0,0
      ac:	0601                	addi	a2,a2,0
      ae:	0901ff03          	0x901ff03
      b2:	0000                	unimp
      b4:	0301                	addi	t1,t1,0
      b6:	0900                	addi	s0,sp,144
      b8:	0030                	addi	a2,sp,8
      ba:	0501                	addi	a0,a0,0
      bc:	0306                	slli	t1,t1,0x1
      be:	7e81                	lui	t4,0xfffe0
      c0:	0809                	addi	a6,a6,2
      c2:	0100                	addi	s0,sp,128
      c4:	0705                	addi	a4,a4,1
      c6:	0306                	slli	t1,t1,0x1
      c8:	0902                	c.slli64	s2
      ca:	0010                	0x10
      cc:	0501                	addi	a0,a0,0
      ce:	060a                	slli	a2,a2,0x2
      d0:	04090003          	lb	zero,64(s2)
      d4:	0100                	addi	s0,sp,128
      d6:	0405                	addi	s0,s0,1
      d8:	04090403          	lb	s0,64(s2)
      dc:	0100                	addi	s0,sp,128
      de:	0306                	slli	t1,t1,0x1
      e0:	0900                	addi	s0,sp,144
      e2:	0008                	0x8
      e4:	0301                	addi	t1,t1,0
      e6:	0900                	addi	s0,sp,144
      e8:	0000                	unimp
      ea:	0301                	addi	t1,t1,0
      ec:	0900                	addi	s0,sp,144
      ee:	0000                	unimp
      f0:	0301                	addi	t1,t1,0
      f2:	0900                	addi	s0,sp,144
      f4:	0000                	unimp
      f6:	0301                	addi	t1,t1,0
      f8:	0900                	addi	s0,sp,144
      fa:	0000                	unimp
      fc:	0301                	addi	t1,t1,0
      fe:	0900                	addi	s0,sp,144
     100:	0010                	0x10
     102:	0301                	addi	t1,t1,0
     104:	0900                	addi	s0,sp,144
     106:	0018                	0x18
     108:	0301                	addi	t1,t1,0
     10a:	0902                	c.slli64	s2
     10c:	0000                	unimp
     10e:	0501                	addi	a0,a0,0
     110:	00030607          	0x30607
     114:	0009                	c.nop	2
     116:	0100                	addi	s0,sp,128
     118:	0805                	addi	a6,a6,1
     11a:	0306                	slli	t1,t1,0x1
     11c:	0905                	addi	s2,s2,1
     11e:	0004                	0x4
     120:	0501                	addi	a0,a0,0
     122:	0611                	addi	a2,a2,4
     124:	00090103          	lb	sp,0(s2)
     128:	0100                	addi	s0,sp,128
     12a:	1e05                	addi	t3,t3,-31
     12c:	04090003          	lb	zero,64(s2)
     130:	0100                	addi	s0,sp,128
     132:	0b05                	addi	s6,s6,1
     134:	04097f03          	0x4097f03
     138:	0100                	addi	s0,sp,128
     13a:	0805                	addi	a6,a6,1
     13c:	0306                	slli	t1,t1,0x1
     13e:	0901                	addi	s2,s2,0
     140:	0004                	0x4
     142:	0501                	addi	a0,a0,0
     144:	0003060b          	0x3060b
     148:	0009                	c.nop	2
     14a:	0100                	addi	s0,sp,128
     14c:	0805                	addi	a6,a6,1
     14e:	0306                	slli	t1,t1,0x1
     150:	0901                	addi	s2,s2,0
     152:	0004                	0x4
     154:	0501                	addi	a0,a0,0
     156:	0003060b          	0x3060b
     15a:	0009                	c.nop	2
     15c:	0100                	addi	s0,sp,128
     15e:	0405                	addi	s0,s0,1
     160:	0306                	slli	t1,t1,0x1
     162:	00040903          	lb	s2,0(s0)
     166:	0301                	addi	t1,t1,0
     168:	0900                	addi	s0,sp,144
     16a:	0000                	unimp
     16c:	0301                	addi	t1,t1,0
     16e:	0900                	addi	s0,sp,144
     170:	0000                	unimp
     172:	0301                	addi	t1,t1,0
     174:	0900                	addi	s0,sp,144
     176:	0000                	unimp
     178:	0301                	addi	t1,t1,0
     17a:	0900                	addi	s0,sp,144
     17c:	0004                	0x4
     17e:	0301                	addi	t1,t1,0
     180:	0900                	addi	s0,sp,144
     182:	0024                	addi	s1,sp,8
     184:	0301                	addi	t1,t1,0
     186:	0900                	addi	s0,sp,144
     188:	0000                	unimp
     18a:	0301                	addi	t1,t1,0
     18c:	0900                	addi	s0,sp,144
     18e:	0004                	0x4
     190:	0301                	addi	t1,t1,0
     192:	0900                	addi	s0,sp,144
     194:	000c                	0xc
     196:	0301                	addi	t1,t1,0
     198:	0900                	addi	s0,sp,144
     19a:	000c                	0xc
     19c:	0301                	addi	t1,t1,0
     19e:	0900                	addi	s0,sp,144
     1a0:	0008                	0x8
     1a2:	0301                	addi	t1,t1,0
     1a4:	0900                	addi	s0,sp,144
     1a6:	0008                	0x8
     1a8:	0301                	addi	t1,t1,0
     1aa:	0900                	addi	s0,sp,144
     1ac:	0004                	0x4
     1ae:	0301                	addi	t1,t1,0
     1b0:	0900                	addi	s0,sp,144
     1b2:	0004                	0x4
     1b4:	0301                	addi	t1,t1,0
     1b6:	0900                	addi	s0,sp,144
     1b8:	0008                	0x8
     1ba:	0301                	addi	t1,t1,0
     1bc:	0900                	addi	s0,sp,144
     1be:	0004                	0x4
     1c0:	0301                	addi	t1,t1,0
     1c2:	0900                	addi	s0,sp,144
     1c4:	0010                	0x10
     1c6:	0301                	addi	t1,t1,0
     1c8:	0900                	addi	s0,sp,144
     1ca:	0014                	0x14
     1cc:	0301                	addi	t1,t1,0
     1ce:	0900                	addi	s0,sp,144
     1d0:	0014                	0x14
     1d2:	0301                	addi	t1,t1,0
     1d4:	0900                	addi	s0,sp,144
     1d6:	0004                	0x4
     1d8:	0301                	addi	t1,t1,0
     1da:	0900                	addi	s0,sp,144
     1dc:	0008                	0x8
     1de:	0301                	addi	t1,t1,0
     1e0:	0900                	addi	s0,sp,144
     1e2:	0008                	0x8
     1e4:	0301                	addi	t1,t1,0
     1e6:	0900                	addi	s0,sp,144
     1e8:	0004                	0x4
     1ea:	0301                	addi	t1,t1,0
     1ec:	0900                	addi	s0,sp,144
     1ee:	0004                	0x4
     1f0:	0301                	addi	t1,t1,0
     1f2:	0900                	addi	s0,sp,144
     1f4:	0004                	0x4
     1f6:	0301                	addi	t1,t1,0
     1f8:	0900                	addi	s0,sp,144
     1fa:	0000                	unimp
     1fc:	0301                	addi	t1,t1,0
     1fe:	0900                	addi	s0,sp,144
     200:	0008                	0x8
     202:	0301                	addi	t1,t1,0
     204:	0900                	addi	s0,sp,144
     206:	0000                	unimp
     208:	0301                	addi	t1,t1,0
     20a:	0901                	addi	s2,s2,0
     20c:	0000                	unimp
     20e:	0501                	addi	a0,a0,0
     210:	fe03060b          	0xfe03060b
     214:	0900                	addi	s0,sp,144
     216:	0000                	unimp
     218:	0501                	addi	a0,a0,0
     21a:	0304                	addi	s1,sp,384
     21c:	7ef5                	lui	t4,0xffffd
     21e:	0809                	addi	a6,a6,2
     220:	0100                	addi	s0,sp,128
     222:	0306                	slli	t1,t1,0x1
     224:	0915                	addi	s2,s2,5
     226:	0018                	0x18
     228:	0501                	addi	a0,a0,0
     22a:	00030607          	0x30607
     22e:	0009                	c.nop	2
     230:	0100                	addi	s0,sp,128
     232:	0605                	addi	a2,a2,1
     234:	0306                	slli	t1,t1,0x1
     236:	0901                	addi	s2,s2,0
     238:	0004                	0x4
     23a:	0501                	addi	a0,a0,0
     23c:	0609                	addi	a2,a2,2
     23e:	00090003          	lb	zero,0(s2)
     242:	0100                	addi	s0,sp,128
     244:	0405                	addi	s0,s0,1
     246:	0306                	slli	t1,t1,0x1
     248:	0902                	c.slli64	s2
     24a:	0010                	0x10
     24c:	0301                	addi	t1,t1,0
     24e:	0900                	addi	s0,sp,144
     250:	0000                	unimp
     252:	0301                	addi	t1,t1,0
     254:	0900                	addi	s0,sp,144
     256:	0000                	unimp
     258:	0301                	addi	t1,t1,0
     25a:	0900                	addi	s0,sp,144
     25c:	0000                	unimp
     25e:	0301                	addi	t1,t1,0
     260:	0900                	addi	s0,sp,144
     262:	0000                	unimp
     264:	0301                	addi	t1,t1,0
     266:	0900                	addi	s0,sp,144
     268:	0014                	0x14
     26a:	0301                	addi	t1,t1,0
     26c:	0900                	addi	s0,sp,144
     26e:	0018                	0x18
     270:	0301                	addi	t1,t1,0
     272:	0902                	c.slli64	s2
     274:	0000                	unimp
     276:	0501                	addi	a0,a0,0
     278:	00030607          	0x30607
     27c:	0009                	c.nop	2
     27e:	0100                	addi	s0,sp,128
     280:	0805                	addi	a6,a6,1
     282:	0306                	slli	t1,t1,0x1
     284:	0909                	addi	s2,s2,2
     286:	0004                	0x4
     288:	0501                	addi	a0,a0,0
     28a:	0003060b          	0x3060b
     28e:	0009                	c.nop	2
     290:	0100                	addi	s0,sp,128
     292:	0805                	addi	a6,a6,1
     294:	0306                	slli	t1,t1,0x1
     296:	0901                	addi	s2,s2,0
     298:	0004                	0x4
     29a:	0501                	addi	a0,a0,0
     29c:	0003060b          	0x3060b
     2a0:	0009                	c.nop	2
     2a2:	0100                	addi	s0,sp,128
     2a4:	0805                	addi	a6,a6,1
     2a6:	0306                	slli	t1,t1,0x1
     2a8:	090d                	addi	s2,s2,3
     2aa:	0004                	0x4
     2ac:	0501                	addi	a0,a0,0
     2ae:	0304                	addi	s1,sp,384
     2b0:	0905                	addi	s2,s2,1
     2b2:	0000                	unimp
     2b4:	0301                	addi	t1,t1,0
     2b6:	0900                	addi	s0,sp,144
     2b8:	0000                	unimp
     2ba:	0301                	addi	t1,t1,0
     2bc:	0900                	addi	s0,sp,144
     2be:	0000                	unimp
     2c0:	0301                	addi	t1,t1,0
     2c2:	0900                	addi	s0,sp,144
     2c4:	0000                	unimp
     2c6:	0301                	addi	t1,t1,0
     2c8:	0900                	addi	s0,sp,144
     2ca:	0004                	0x4
     2cc:	0301                	addi	t1,t1,0
     2ce:	0900                	addi	s0,sp,144
     2d0:	0024                	addi	s1,sp,8
     2d2:	0301                	addi	t1,t1,0
     2d4:	0900                	addi	s0,sp,144
     2d6:	0000                	unimp
     2d8:	0301                	addi	t1,t1,0
     2da:	0900                	addi	s0,sp,144
     2dc:	0004                	0x4
     2de:	0301                	addi	t1,t1,0
     2e0:	0900                	addi	s0,sp,144
     2e2:	000c                	0xc
     2e4:	0301                	addi	t1,t1,0
     2e6:	0900                	addi	s0,sp,144
     2e8:	000c                	0xc
     2ea:	0301                	addi	t1,t1,0
     2ec:	0900                	addi	s0,sp,144
     2ee:	0008                	0x8
     2f0:	0301                	addi	t1,t1,0
     2f2:	0900                	addi	s0,sp,144
     2f4:	0008                	0x8
     2f6:	0301                	addi	t1,t1,0
     2f8:	0900                	addi	s0,sp,144
     2fa:	0004                	0x4
     2fc:	0301                	addi	t1,t1,0
     2fe:	0900                	addi	s0,sp,144
     300:	0004                	0x4
     302:	0301                	addi	t1,t1,0
     304:	0900                	addi	s0,sp,144
     306:	0008                	0x8
     308:	0301                	addi	t1,t1,0
     30a:	0900                	addi	s0,sp,144
     30c:	0004                	0x4
     30e:	0301                	addi	t1,t1,0
     310:	0900                	addi	s0,sp,144
     312:	0010                	0x10
     314:	0301                	addi	t1,t1,0
     316:	0900                	addi	s0,sp,144
     318:	0014                	0x14
     31a:	0301                	addi	t1,t1,0
     31c:	0900                	addi	s0,sp,144
     31e:	0014                	0x14
     320:	0301                	addi	t1,t1,0
     322:	0900                	addi	s0,sp,144
     324:	0004                	0x4
     326:	0301                	addi	t1,t1,0
     328:	0900                	addi	s0,sp,144
     32a:	0008                	0x8
     32c:	0301                	addi	t1,t1,0
     32e:	0900                	addi	s0,sp,144
     330:	0008                	0x8
     332:	0301                	addi	t1,t1,0
     334:	0900                	addi	s0,sp,144
     336:	0004                	0x4
     338:	0301                	addi	t1,t1,0
     33a:	0900                	addi	s0,sp,144
     33c:	0004                	0x4
     33e:	0301                	addi	t1,t1,0
     340:	0900                	addi	s0,sp,144
     342:	0004                	0x4
     344:	0301                	addi	t1,t1,0
     346:	0900                	addi	s0,sp,144
     348:	0000                	unimp
     34a:	0301                	addi	t1,t1,0
     34c:	0900                	addi	s0,sp,144
     34e:	0008                	0x8
     350:	0501                	addi	a0,a0,0
     352:	00e30303          	lb	t1,14(t1)
     356:	0009                	c.nop	2
     358:	0100                	addi	s0,sp,128
     35a:	00090103          	lb	sp,0(s2)
     35e:	0100                	addi	s0,sp,128
     360:	0105                	addi	sp,sp,1
     362:	0306                	slli	t1,t1,0x1
     364:	00e1                	addi	ra,ra,24
     366:	0009                	c.nop	2
     368:	0100                	addi	s0,sp,128
     36a:	0405                	addi	s0,s0,1
     36c:	097e9d03          	lh	s10,151(t4) # ffffd097 <__stack+0x7fe83723>
     370:	003c                	addi	a5,sp,8
     372:	0501                	addi	a0,a0,0
     374:	0608                	addi	a0,sp,768
     376:	14091203          	lh	tp,320(s2)
     37a:	0100                	addi	s0,sp,128
     37c:	00090203          	lb	tp,0(s2)
     380:	0100                	addi	s0,sp,128
     382:	0b05                	addi	s6,s6,1
     384:	0306                	slli	t1,t1,0x1
     386:	0900                	addi	s0,sp,144
     388:	0000                	unimp
     38a:	0501                	addi	a0,a0,0
     38c:	0608                	addi	a0,sp,768
     38e:	04090103          	lb	sp,64(s2)
     392:	0100                	addi	s0,sp,128
     394:	0b05                	addi	s6,s6,1
     396:	0306                	slli	t1,t1,0x1
     398:	0900                	addi	s0,sp,144
     39a:	0000                	unimp
     39c:	0501                	addi	a0,a0,0
     39e:	0608                	addi	a0,sp,768
     3a0:	04090103          	lb	sp,64(s2)
     3a4:	0100                	addi	s0,sp,128
     3a6:	1e05                	addi	t3,t3,-31
     3a8:	0306                	slli	t1,t1,0x1
     3aa:	0900                	addi	s0,sp,144
     3ac:	0000                	unimp
     3ae:	0501                	addi	a0,a0,0
     3b0:	0311                	addi	t1,t1,4
     3b2:	0900                	addi	s0,sp,144
     3b4:	0004                	0x4
     3b6:	0501                	addi	a0,a0,0
     3b8:	0900030b          	0x900030b
     3bc:	0004                	0x4
     3be:	0501                	addi	a0,a0,0
     3c0:	0608                	addi	a0,sp,768
     3c2:	04090103          	lb	sp,64(s2)
     3c6:	0100                	addi	s0,sp,128
     3c8:	0306                	slli	t1,t1,0x1
     3ca:	0902                	c.slli64	s2
     3cc:	0000                	unimp
     3ce:	0501                	addi	a0,a0,0
     3d0:	097e030b          	0x97e030b
     3d4:	000c                	0xc
     3d6:	0501                	addi	a0,a0,0
     3d8:	0608                	addi	a0,sp,768
     3da:	04090203          	lb	tp,64(s2)
     3de:	0100                	addi	s0,sp,128
     3e0:	00090003          	lb	zero,0(s2)
     3e4:	0100                	addi	s0,sp,128
     3e6:	00090003          	lb	zero,0(s2)
     3ea:	0100                	addi	s0,sp,128
     3ec:	00090003          	lb	zero,0(s2)
     3f0:	0100                	addi	s0,sp,128
     3f2:	00090003          	lb	zero,0(s2)
     3f6:	0100                	addi	s0,sp,128
     3f8:	1c090003          	lb	zero,448(s2)
     3fc:	0100                	addi	s0,sp,128
     3fe:	00090003          	lb	zero,0(s2)
     402:	0100                	addi	s0,sp,128
     404:	04090003          	lb	zero,64(s2)
     408:	0100                	addi	s0,sp,128
     40a:	0c090003          	lb	zero,192(s2)
     40e:	0100                	addi	s0,sp,128
     410:	0c090003          	lb	zero,192(s2)
     414:	0100                	addi	s0,sp,128
     416:	08090003          	lb	zero,128(s2)
     41a:	0100                	addi	s0,sp,128
     41c:	08090003          	lb	zero,128(s2)
     420:	0100                	addi	s0,sp,128
     422:	04090003          	lb	zero,64(s2)
     426:	0100                	addi	s0,sp,128
     428:	04090003          	lb	zero,64(s2)
     42c:	0100                	addi	s0,sp,128
     42e:	08090003          	lb	zero,128(s2)
     432:	0100                	addi	s0,sp,128
     434:	04090003          	lb	zero,64(s2)
     438:	0100                	addi	s0,sp,128
     43a:	14090003          	lb	zero,320(s2)
     43e:	0100                	addi	s0,sp,128
     440:	10090003          	lb	zero,256(s2)
     444:	0100                	addi	s0,sp,128
     446:	14090003          	lb	zero,320(s2)
     44a:	0100                	addi	s0,sp,128
     44c:	04090003          	lb	zero,64(s2)
     450:	0100                	addi	s0,sp,128
     452:	08090003          	lb	zero,128(s2)
     456:	0100                	addi	s0,sp,128
     458:	08090003          	lb	zero,128(s2)
     45c:	0100                	addi	s0,sp,128
     45e:	04090003          	lb	zero,64(s2)
     462:	0100                	addi	s0,sp,128
     464:	04090003          	lb	zero,64(s2)
     468:	0100                	addi	s0,sp,128
     46a:	08090003          	lb	zero,128(s2)
     46e:	0100                	addi	s0,sp,128
     470:	08090003          	lb	zero,128(s2)
     474:	0100                	addi	s0,sp,128
     476:	04090003          	lb	zero,64(s2)
     47a:	0100                	addi	s0,sp,128
     47c:	0705                	addi	a4,a4,1
     47e:	04091503          	lh	a0,64(s2)
     482:	0100                	addi	s0,sp,128
     484:	0a05                	addi	s4,s4,1
     486:	0306                	slli	t1,t1,0x1
     488:	0900                	addi	s0,sp,144
     48a:	0000                	unimp
     48c:	0501                	addi	a0,a0,0
     48e:	0604                	addi	s1,sp,768
     490:	04091303          	lh	t1,64(s2)
     494:	0100                	addi	s0,sp,128
     496:	00090003          	lb	zero,0(s2)
     49a:	0100                	addi	s0,sp,128
     49c:	00090003          	lb	zero,0(s2)
     4a0:	0100                	addi	s0,sp,128
     4a2:	00090003          	lb	zero,0(s2)
     4a6:	0100                	addi	s0,sp,128
     4a8:	00090003          	lb	zero,0(s2)
     4ac:	0100                	addi	s0,sp,128
     4ae:	14090003          	lb	zero,320(s2)
     4b2:	0100                	addi	s0,sp,128
     4b4:	20090003          	lb	zero,512(s2)
     4b8:	0100                	addi	s0,sp,128
     4ba:	00090103          	lb	sp,0(s2)
     4be:	0100                	addi	s0,sp,128
     4c0:	0705                	addi	a4,a4,1
     4c2:	0306                	slli	t1,t1,0x1
     4c4:	0900                	addi	s0,sp,144
     4c6:	0000                	unimp
     4c8:	0501                	addi	a0,a0,0
     4ca:	0608                	addi	a0,sp,768
     4cc:	04090a03          	lb	s4,64(s2)
     4d0:	0100                	addi	s0,sp,128
     4d2:	0306                	slli	t1,t1,0x1
     4d4:	0902                	c.slli64	s2
     4d6:	0000                	unimp
     4d8:	0501                	addi	a0,a0,0
     4da:	097e030b          	0x97e030b
     4de:	0004                	0x4
     4e0:	0501                	addi	a0,a0,0
     4e2:	0314                	addi	a3,sp,384
     4e4:	0900                	addi	s0,sp,144
     4e6:	0004                	0x4
     4e8:	0501                	addi	a0,a0,0
     4ea:	0304                	addi	s1,sp,384
     4ec:	0975                	addi	s2,s2,29
     4ee:	000c                	0xc
     4f0:	0501                	addi	a0,a0,0
     4f2:	0608                	addi	a0,sp,768
     4f4:	14091e03          	lh	t3,320(s2)
     4f8:	0100                	addi	s0,sp,128
     4fa:	00090303          	lb	t1,0(s2)
     4fe:	0100                	addi	s0,sp,128
     500:	00090203          	lb	tp,0(s2)
     504:	0100                	addi	s0,sp,128
     506:	1e05                	addi	t3,t3,-31
     508:	0306                	slli	t1,t1,0x1
     50a:	0900                	addi	s0,sp,144
     50c:	0000                	unimp
     50e:	0501                	addi	a0,a0,0
     510:	0311                	addi	t1,t1,4
     512:	0900                	addi	s0,sp,144
     514:	0004                	0x4
     516:	0501                	addi	a0,a0,0
     518:	0900030b          	0x900030b
     51c:	0004                	0x4
     51e:	0501                	addi	a0,a0,0
     520:	0608                	addi	a0,sp,768
     522:	04090103          	lb	sp,64(s2)
     526:	0100                	addi	s0,sp,128
     528:	0b05                	addi	s6,s6,1
     52a:	0306                	slli	t1,t1,0x1
     52c:	0901                	addi	s2,s2,0
     52e:	0000                	unimp
     530:	0501                	addi	a0,a0,0
     532:	0311                	addi	t1,t1,4
     534:	0901                	addi	s2,s2,0
     536:	0004                	0x4
     538:	0501                	addi	a0,a0,0
     53a:	031e                	slli	t1,t1,0x7
     53c:	0900                	addi	s0,sp,144
     53e:	0004                	0x4
     540:	0501                	addi	a0,a0,0
     542:	0900030b          	0x900030b
     546:	0004                	0x4
     548:	0501                	addi	a0,a0,0
     54a:	0308                	addi	a0,sp,384
     54c:	00040903          	lb	s2,0(s0)
     550:	0501                	addi	a0,a0,0
     552:	097b030b          	0x97b030b
     556:	000c                	0xc
     558:	0501                	addi	a0,a0,0
     55a:	0608                	addi	a0,sp,768
     55c:	04090103          	lb	sp,64(s2)
     560:	0100                	addi	s0,sp,128
     562:	00090103          	lb	sp,0(s2)
     566:	0100                	addi	s0,sp,128
     568:	00090103          	lb	sp,0(s2)
     56c:	0100                	addi	s0,sp,128
     56e:	00090203          	lb	tp,0(s2)
     572:	0100                	addi	s0,sp,128
     574:	00090003          	lb	zero,0(s2)
     578:	0100                	addi	s0,sp,128
     57a:	00090003          	lb	zero,0(s2)
     57e:	0100                	addi	s0,sp,128
     580:	00090003          	lb	zero,0(s2)
     584:	0100                	addi	s0,sp,128
     586:	00090003          	lb	zero,0(s2)
     58a:	0100                	addi	s0,sp,128
     58c:	1c090003          	lb	zero,448(s2)
     590:	0100                	addi	s0,sp,128
     592:	00090003          	lb	zero,0(s2)
     596:	0100                	addi	s0,sp,128
     598:	04090003          	lb	zero,64(s2)
     59c:	0100                	addi	s0,sp,128
     59e:	0c090003          	lb	zero,192(s2)
     5a2:	0100                	addi	s0,sp,128
     5a4:	0c090003          	lb	zero,192(s2)
     5a8:	0100                	addi	s0,sp,128
     5aa:	08090003          	lb	zero,128(s2)
     5ae:	0100                	addi	s0,sp,128
     5b0:	08090003          	lb	zero,128(s2)
     5b4:	0100                	addi	s0,sp,128
     5b6:	04090003          	lb	zero,64(s2)
     5ba:	0100                	addi	s0,sp,128
     5bc:	04090003          	lb	zero,64(s2)
     5c0:	0100                	addi	s0,sp,128
     5c2:	08090003          	lb	zero,128(s2)
     5c6:	0100                	addi	s0,sp,128
     5c8:	04090003          	lb	zero,64(s2)
     5cc:	0100                	addi	s0,sp,128
     5ce:	14090003          	lb	zero,320(s2)
     5d2:	0100                	addi	s0,sp,128
     5d4:	10090003          	lb	zero,256(s2)
     5d8:	0100                	addi	s0,sp,128
     5da:	14090003          	lb	zero,320(s2)
     5de:	0100                	addi	s0,sp,128
     5e0:	04090003          	lb	zero,64(s2)
     5e4:	0100                	addi	s0,sp,128
     5e6:	08090003          	lb	zero,128(s2)
     5ea:	0100                	addi	s0,sp,128
     5ec:	08090003          	lb	zero,128(s2)
     5f0:	0100                	addi	s0,sp,128
     5f2:	04090003          	lb	zero,64(s2)
     5f6:	0100                	addi	s0,sp,128
     5f8:	04090003          	lb	zero,64(s2)
     5fc:	0100                	addi	s0,sp,128
     5fe:	08090003          	lb	zero,128(s2)
     602:	0100                	addi	s0,sp,128
     604:	0306                	slli	t1,t1,0x1
     606:	0901                	addi	s2,s2,0
     608:	0004                	0x4
     60a:	0301                	addi	t1,t1,0
     60c:	097f                	0x97f
     60e:	0004                	0x4
     610:	0301                	addi	t1,t1,0
     612:	0901                	addi	s2,s2,0
     614:	0004                	0x4
     616:	0301                	addi	t1,t1,0
     618:	097f                	0x97f
     61a:	000c                	0xc
     61c:	0601                	addi	a2,a2,0
     61e:	04090003          	lb	zero,64(s2)
     622:	0100                	addi	s0,sp,128
     624:	00090003          	lb	zero,0(s2)
     628:	0100                	addi	s0,sp,128
     62a:	00090003          	lb	zero,0(s2)
     62e:	0100                	addi	s0,sp,128
     630:	00090103          	lb	sp,0(s2)
     634:	0100                	addi	s0,sp,128
     636:	00090003          	lb	zero,0(s2)
     63a:	0100                	addi	s0,sp,128
     63c:	00090003          	lb	zero,0(s2)
     640:	0100                	addi	s0,sp,128
     642:	00090003          	lb	zero,0(s2)
     646:	0100                	addi	s0,sp,128
     648:	00090003          	lb	zero,0(s2)
     64c:	0100                	addi	s0,sp,128
     64e:	04090003          	lb	zero,64(s2)
     652:	0100                	addi	s0,sp,128
     654:	00090003          	lb	zero,0(s2)
     658:	0100                	addi	s0,sp,128
     65a:	04090003          	lb	zero,64(s2)
     65e:	0100                	addi	s0,sp,128
     660:	00090003          	lb	zero,0(s2)
     664:	0100                	addi	s0,sp,128
     666:	04090003          	lb	zero,64(s2)
     66a:	0100                	addi	s0,sp,128
     66c:	04090003          	lb	zero,64(s2)
     670:	0100                	addi	s0,sp,128
     672:	04090003          	lb	zero,64(s2)
     676:	0100                	addi	s0,sp,128
     678:	04090003          	lb	zero,64(s2)
     67c:	0100                	addi	s0,sp,128
     67e:	00090003          	lb	zero,0(s2)
     682:	0100                	addi	s0,sp,128
     684:	08090003          	lb	zero,128(s2)
     688:	0100                	addi	s0,sp,128
     68a:	00090003          	lb	zero,0(s2)
     68e:	0100                	addi	s0,sp,128
     690:	04090003          	lb	zero,64(s2)
     694:	0100                	addi	s0,sp,128
     696:	04090003          	lb	zero,64(s2)
     69a:	0100                	addi	s0,sp,128
     69c:	00090003          	lb	zero,0(s2)
     6a0:	0100                	addi	s0,sp,128
     6a2:	08090003          	lb	zero,128(s2)
     6a6:	0100                	addi	s0,sp,128
     6a8:	00090003          	lb	zero,0(s2)
     6ac:	0100                	addi	s0,sp,128
     6ae:	04090003          	lb	zero,64(s2)
     6b2:	0100                	addi	s0,sp,128
     6b4:	04090003          	lb	zero,64(s2)
     6b8:	0100                	addi	s0,sp,128
     6ba:	00090003          	lb	zero,0(s2)
     6be:	0100                	addi	s0,sp,128
     6c0:	08090003          	lb	zero,128(s2)
     6c4:	0100                	addi	s0,sp,128
     6c6:	00090003          	lb	zero,0(s2)
     6ca:	0100                	addi	s0,sp,128
     6cc:	04090003          	lb	zero,64(s2)
     6d0:	0100                	addi	s0,sp,128
     6d2:	10090003          	lb	zero,256(s2)
     6d6:	0100                	addi	s0,sp,128
     6d8:	00090003          	lb	zero,0(s2)
     6dc:	0100                	addi	s0,sp,128
     6de:	00090003          	lb	zero,0(s2)
     6e2:	0100                	addi	s0,sp,128
     6e4:	04090003          	lb	zero,64(s2)
     6e8:	0100                	addi	s0,sp,128
     6ea:	04090003          	lb	zero,64(s2)
     6ee:	0100                	addi	s0,sp,128
     6f0:	08090003          	lb	zero,128(s2)
     6f4:	0100                	addi	s0,sp,128
     6f6:	00090003          	lb	zero,0(s2)
     6fa:	0100                	addi	s0,sp,128
     6fc:	00090203          	lb	tp,0(s2)
     700:	0100                	addi	s0,sp,128
     702:	0b05                	addi	s6,s6,1
     704:	0306                	slli	t1,t1,0x1
     706:	0900                	addi	s0,sp,144
     708:	0000                	unimp
     70a:	0501                	addi	a0,a0,0
     70c:	0314                	addi	a3,sp,384
     70e:	0900                	addi	s0,sp,144
     710:	0004                	0x4
     712:	0501                	addi	a0,a0,0
     714:	0308                	addi	a0,sp,384
     716:	097e                	slli	s2,s2,0x1f
     718:	0004                	0x4
     71a:	0501                	addi	a0,a0,0
     71c:	097d030b          	0x97d030b
     720:	0014                	0x14
     722:	0501                	addi	a0,a0,0
     724:	0308                	addi	a0,sp,384
     726:	00040903          	lb	s2,0(s0)
     72a:	0501                	addi	a0,a0,0
     72c:	0908030b          	0x908030b
     730:	0004                	0x4
     732:	0501                	addi	a0,a0,0
     734:	0321                	addi	t1,t1,8
     736:	097a                	slli	s2,s2,0x1e
     738:	0004                	0x4
     73a:	0501                	addi	a0,a0,0
     73c:	0605                	addi	a2,a2,1
     73e:	04090203          	lb	tp,64(s2)
     742:	0100                	addi	s0,sp,128
     744:	0705                	addi	a4,a4,1
     746:	0306                	slli	t1,t1,0x1
     748:	0900                	addi	s0,sp,144
     74a:	0000                	unimp
     74c:	0501                	addi	a0,a0,0
     74e:	0605                	addi	a2,a2,1
     750:	04090103          	lb	sp,64(s2)
     754:	0100                	addi	s0,sp,128
     756:	00090003          	lb	zero,0(s2)
     75a:	0100                	addi	s0,sp,128
     75c:	00090003          	lb	zero,0(s2)
     760:	0100                	addi	s0,sp,128
     762:	00090003          	lb	zero,0(s2)
     766:	0100                	addi	s0,sp,128
     768:	00090003          	lb	zero,0(s2)
     76c:	0100                	addi	s0,sp,128
     76e:	0705                	addi	a4,a4,1
     770:	0306                	slli	t1,t1,0x1
     772:	00040943          	fmadd.s	fs2,fs0,ft0,ft0,rne
     776:	0301                	addi	t1,t1,0
     778:	097f                	0x97f
     77a:	0004                	0x4
     77c:	0901                	addi	s2,s2,0
     77e:	0008                	0x8
     780:	0100                	addi	s0,sp,128
     782:	c701                	beqz	a4,78a <_STACK_SIZE-0xf876>
     784:	03000007          	0x3000007
     788:	4900                	lw	s0,16(a0)
     78a:	0000                	unimp
     78c:	0100                	addi	s0,sp,128
     78e:	fb01                	bnez	a4,69e <_STACK_SIZE-0xf962>
     790:	0d0e                	slli	s10,s10,0x3
     792:	0100                	addi	s0,sp,128
     794:	0101                	addi	sp,sp,0
     796:	0001                	nop
     798:	0000                	unimp
     79a:	0001                	nop
     79c:	0100                	addi	s0,sp,128
     79e:	2e2e                	fld	ft8,200(sp)
     7a0:	2f2e2e2f          	0x2f2e2e2f
     7a4:	2e2e                	fld	ft8,200(sp)
     7a6:	722f2e2f          	0x722f2e2f
     7aa:	7369                	lui	t1,0xffffa
     7ac:	672d7663          	bgeu	s10,s2,e18 <_STACK_SIZE-0xf1e8>
     7b0:	6c2f6363          	bltu	t5,sp,e76 <_STACK_SIZE-0xf18a>
     7b4:	6269                	lui	tp,0x1a
     7b6:	00636367          	0x636367
     7ba:	6c00                	flw	fs0,24(s0)
     7bc:	6269                	lui	tp,0x1a
     7be:	32636367          	0x32636367
     7c2:	632e                	flw	ft6,200(sp)
     7c4:	0100                	addi	s0,sp,128
     7c6:	0000                	unimp
     7c8:	696c                	flw	fa1,84(a0)
     7ca:	6762                	flw	fa4,24(sp)
     7cc:	2e326363          	bltu	tp,gp,ab2 <_STACK_SIZE-0xf54e>
     7d0:	0068                	addi	a0,sp,12
     7d2:	0001                	nop
     7d4:	0000                	unimp
     7d6:	0105                	addi	sp,sp,1
     7d8:	0500                	addi	s0,sp,640
     7da:	d002                	sw	zero,32(sp)
     7dc:	0380009b          	0x380009b
     7e0:	0a9a                	slli	s5,s5,0x6
     7e2:	0601                	addi	a2,a2,0
     7e4:	34090003          	lb	zero,832(s2)
     7e8:	0100                	addi	s0,sp,128
     7ea:	0305                	addi	t1,t1,1
     7ec:	0306                	slli	t1,t1,0x1
     7ee:	0901                	addi	s2,s2,0
     7f0:	0004                	0x4
     7f2:	0301                	addi	t1,t1,0
     7f4:	0902                	c.slli64	s2
     7f6:	0000                	unimp
     7f8:	0301                	addi	t1,t1,0
     7fa:	00097ddb          	0x97ddb
     7fe:	0100                	addi	s0,sp,128
     800:	00090103          	lb	sp,0(s2)
     804:	0100                	addi	s0,sp,128
     806:	00090103          	lb	sp,0(s2)
     80a:	0100                	addi	s0,sp,128
     80c:	00090103          	lb	sp,0(s2)
     810:	0100                	addi	s0,sp,128
     812:	00090103          	lb	sp,0(s2)
     816:	0100                	addi	s0,sp,128
     818:	00090103          	lb	sp,0(s2)
     81c:	0100                	addi	s0,sp,128
     81e:	00090203          	lb	tp,0(s2)
     822:	0100                	addi	s0,sp,128
     824:	00090103          	lb	sp,0(s2)
     828:	0100                	addi	s0,sp,128
     82a:	00090103          	lb	sp,0(s2)
     82e:	0100                	addi	s0,sp,128
     830:	0105                	addi	sp,sp,1
     832:	0306                	slli	t1,t1,0x1
     834:	0299                	addi	t0,t0,6
     836:	0009                	c.nop	2
     838:	0100                	addi	s0,sp,128
     83a:	0605                	addi	a2,a2,1
     83c:	097de703          	0x97de703
     840:	0004                	0x4
     842:	0501                	addi	a0,a0,0
     844:	01030603          	lb	a2,16(t1) # ffffa010 <__stack+0x7fe8069c>
     848:	0409                	addi	s0,s0,2
     84a:	0100                	addi	s0,sp,128
     84c:	0605                	addi	a2,a2,1
     84e:	0306                	slli	t1,t1,0x1
     850:	0900                	addi	s0,sp,144
     852:	0000                	unimp
     854:	0501                	addi	a0,a0,0
     856:	25030603          	lb	a2,592(t1)
     85a:	0409                	addi	s0,s0,2
     85c:	0100                	addi	s0,sp,128
     85e:	0605                	addi	a2,a2,1
     860:	0306                	slli	t1,t1,0x1
     862:	0900                	addi	s0,sp,144
     864:	0000                	unimp
     866:	0501                	addi	a0,a0,0
     868:	02030607          	0x2030607
     86c:	1009                	c.nop	-30
     86e:	0100                	addi	s0,sp,128
     870:	0a05                	addi	s4,s4,1
     872:	0306                	slli	t1,t1,0x1
     874:	0900                	addi	s0,sp,144
     876:	0004                	0x4
     878:	0501                	addi	a0,a0,0
     87a:	0604                	addi	s1,sp,768
     87c:	04090403          	lb	s0,64(s2)
     880:	0100                	addi	s0,sp,128
     882:	00090003          	lb	zero,0(s2)
     886:	0100                	addi	s0,sp,128
     888:	00090003          	lb	zero,0(s2)
     88c:	0100                	addi	s0,sp,128
     88e:	00090003          	lb	zero,0(s2)
     892:	0100                	addi	s0,sp,128
     894:	00090003          	lb	zero,0(s2)
     898:	0100                	addi	s0,sp,128
     89a:	14090003          	lb	zero,320(s2)
     89e:	0100                	addi	s0,sp,128
     8a0:	18090003          	lb	zero,384(s2)
     8a4:	0100                	addi	s0,sp,128
     8a6:	00090203          	lb	tp,0(s2)
     8aa:	0100                	addi	s0,sp,128
     8ac:	0705                	addi	a4,a4,1
     8ae:	0306                	slli	t1,t1,0x1
     8b0:	0900                	addi	s0,sp,144
     8b2:	0000                	unimp
     8b4:	0501                	addi	a0,a0,0
     8b6:	0608                	addi	a0,sp,768
     8b8:	04090503          	lb	a0,64(s2)
     8bc:	0100                	addi	s0,sp,128
     8be:	1105                	addi	sp,sp,-31
     8c0:	0306                	slli	t1,t1,0x1
     8c2:	0901                	addi	s2,s2,0
     8c4:	0000                	unimp
     8c6:	0501                	addi	a0,a0,0
     8c8:	031e                	slli	t1,t1,0x7
     8ca:	0900                	addi	s0,sp,144
     8cc:	0004                	0x4
     8ce:	0501                	addi	a0,a0,0
     8d0:	097f030b          	0x97f030b
     8d4:	0004                	0x4
     8d6:	0501                	addi	a0,a0,0
     8d8:	0608                	addi	a0,sp,768
     8da:	04090103          	lb	sp,64(s2)
     8de:	0100                	addi	s0,sp,128
     8e0:	0b05                	addi	s6,s6,1
     8e2:	0306                	slli	t1,t1,0x1
     8e4:	0900                	addi	s0,sp,144
     8e6:	0000                	unimp
     8e8:	0501                	addi	a0,a0,0
     8ea:	0608                	addi	a0,sp,768
     8ec:	04090103          	lb	sp,64(s2)
     8f0:	0100                	addi	s0,sp,128
     8f2:	0b05                	addi	s6,s6,1
     8f4:	0306                	slli	t1,t1,0x1
     8f6:	0900                	addi	s0,sp,144
     8f8:	0000                	unimp
     8fa:	0501                	addi	a0,a0,0
     8fc:	0604                	addi	s1,sp,768
     8fe:	04090303          	lb	t1,64(s2)
     902:	0100                	addi	s0,sp,128
     904:	00090003          	lb	zero,0(s2)
     908:	0100                	addi	s0,sp,128
     90a:	00090003          	lb	zero,0(s2)
     90e:	0100                	addi	s0,sp,128
     910:	00090003          	lb	zero,0(s2)
     914:	0100                	addi	s0,sp,128
     916:	0805                	addi	a6,a6,1
     918:	00092503          	lw	a0,0(s2)
     91c:	0100                	addi	s0,sp,128
     91e:	0405                	addi	s0,s0,1
     920:	00090503          	lb	a0,0(s2)
     924:	0100                	addi	s0,sp,128
     926:	00090003          	lb	zero,0(s2)
     92a:	0100                	addi	s0,sp,128
     92c:	00090003          	lb	zero,0(s2)
     930:	0100                	addi	s0,sp,128
     932:	00090003          	lb	zero,0(s2)
     936:	0100                	addi	s0,sp,128
     938:	04090003          	lb	zero,64(s2)
     93c:	0100                	addi	s0,sp,128
     93e:	24090003          	lb	zero,576(s2)
     942:	0100                	addi	s0,sp,128
     944:	00090003          	lb	zero,0(s2)
     948:	0100                	addi	s0,sp,128
     94a:	04090003          	lb	zero,64(s2)
     94e:	0100                	addi	s0,sp,128
     950:	08090003          	lb	zero,128(s2)
     954:	0100                	addi	s0,sp,128
     956:	0c090003          	lb	zero,192(s2)
     95a:	0100                	addi	s0,sp,128
     95c:	04090003          	lb	zero,64(s2)
     960:	0100                	addi	s0,sp,128
     962:	04090003          	lb	zero,64(s2)
     966:	0100                	addi	s0,sp,128
     968:	04090003          	lb	zero,64(s2)
     96c:	0100                	addi	s0,sp,128
     96e:	04090003          	lb	zero,64(s2)
     972:	0100                	addi	s0,sp,128
     974:	04090003          	lb	zero,64(s2)
     978:	0100                	addi	s0,sp,128
     97a:	04090003          	lb	zero,64(s2)
     97e:	0100                	addi	s0,sp,128
     980:	10090003          	lb	zero,256(s2)
     984:	0100                	addi	s0,sp,128
     986:	14090003          	lb	zero,320(s2)
     98a:	0100                	addi	s0,sp,128
     98c:	10090003          	lb	zero,256(s2)
     990:	0100                	addi	s0,sp,128
     992:	04090003          	lb	zero,64(s2)
     996:	0100                	addi	s0,sp,128
     998:	04090003          	lb	zero,64(s2)
     99c:	0100                	addi	s0,sp,128
     99e:	04090003          	lb	zero,64(s2)
     9a2:	0100                	addi	s0,sp,128
     9a4:	04090003          	lb	zero,64(s2)
     9a8:	0100                	addi	s0,sp,128
     9aa:	04090003          	lb	zero,64(s2)
     9ae:	0100                	addi	s0,sp,128
     9b0:	04090003          	lb	zero,64(s2)
     9b4:	0100                	addi	s0,sp,128
     9b6:	04090003          	lb	zero,64(s2)
     9ba:	0100                	addi	s0,sp,128
     9bc:	00090003          	lb	zero,0(s2)
     9c0:	0100                	addi	s0,sp,128
     9c2:	00090003          	lb	zero,0(s2)
     9c6:	0100                	addi	s0,sp,128
     9c8:	0705                	addi	a4,a4,1
     9ca:	00090503          	lb	a0,0(s2)
     9ce:	0100                	addi	s0,sp,128
     9d0:	0405                	addi	s0,s0,1
     9d2:	00090203          	lb	tp,0(s2)
     9d6:	0100                	addi	s0,sp,128
     9d8:	1205                	addi	tp,tp,-31
     9da:	0306                	slli	t1,t1,0x1
     9dc:	0900                	addi	s0,sp,144
     9de:	0000                	unimp
     9e0:	0501                	addi	a0,a0,0
     9e2:	0604                	addi	s1,sp,768
     9e4:	04090103          	lb	sp,64(s2)
     9e8:	0100                	addi	s0,sp,128
     9ea:	00090103          	lb	sp,0(s2)
     9ee:	0100                	addi	s0,sp,128
     9f0:	0c05                	addi	s8,s8,1
     9f2:	0306                	slli	t1,t1,0x1
     9f4:	0900                	addi	s0,sp,144
     9f6:	0000                	unimp
     9f8:	0501                	addi	a0,a0,0
     9fa:	da030603          	lb	a2,-608(t1)
     9fe:	0900                	addi	s0,sp,144
     a00:	0004                	0x4
     a02:	0301                	addi	t1,t1,0
     a04:	0901                	addi	s2,s2,0
     a06:	0000                	unimp
     a08:	0301                	addi	t1,t1,0
     a0a:	00d8                	addi	a4,sp,68
     a0c:	0009                	c.nop	2
     a0e:	0100                	addi	s0,sp,128
     a10:	0105                	addi	sp,sp,1
     a12:	0306                	slli	t1,t1,0x1
     a14:	0901                	addi	s2,s2,0
     a16:	0000                	unimp
     a18:	0501                	addi	a0,a0,0
     a1a:	0304                	addi	s1,sp,384
     a1c:	7e8d                	lui	t4,0xfffe3
     a1e:	3809                	jal	230 <_STACK_SIZE-0xfdd0>
     a20:	0100                	addi	s0,sp,128
     a22:	0306                	slli	t1,t1,0x1
     a24:	0915                	addi	s2,s2,5
     a26:	0014                	0x14
     a28:	0501                	addi	a0,a0,0
     a2a:	00030607          	0x30607
     a2e:	0009                	c.nop	2
     a30:	0100                	addi	s0,sp,128
     a32:	0605                	addi	a2,a2,1
     a34:	0306                	slli	t1,t1,0x1
     a36:	0901                	addi	s2,s2,0
     a38:	0004                	0x4
     a3a:	0501                	addi	a0,a0,0
     a3c:	0609                	addi	a2,a2,2
     a3e:	00090003          	lb	zero,0(s2)
     a42:	0100                	addi	s0,sp,128
     a44:	0405                	addi	s0,s0,1
     a46:	0306                	slli	t1,t1,0x1
     a48:	0902                	c.slli64	s2
     a4a:	0010                	0x10
     a4c:	0301                	addi	t1,t1,0
     a4e:	0900                	addi	s0,sp,144
     a50:	0000                	unimp
     a52:	0301                	addi	t1,t1,0
     a54:	0900                	addi	s0,sp,144
     a56:	0000                	unimp
     a58:	0301                	addi	t1,t1,0
     a5a:	0900                	addi	s0,sp,144
     a5c:	0000                	unimp
     a5e:	0301                	addi	t1,t1,0
     a60:	0900                	addi	s0,sp,144
     a62:	0000                	unimp
     a64:	0301                	addi	t1,t1,0
     a66:	0900                	addi	s0,sp,144
     a68:	0014                	0x14
     a6a:	0501                	addi	a0,a0,0
     a6c:	0b03060b          	0xb03060b
     a70:	1009                	c.nop	-30
     a72:	0100                	addi	s0,sp,128
     a74:	0405                	addi	s0,s0,1
     a76:	04097503          	0x4097503
     a7a:	0100                	addi	s0,sp,128
     a7c:	0306                	slli	t1,t1,0x1
     a7e:	0900                	addi	s0,sp,144
     a80:	0008                	0x8
     a82:	0301                	addi	t1,t1,0
     a84:	0902                	c.slli64	s2
     a86:	0000                	unimp
     a88:	0501                	addi	a0,a0,0
     a8a:	00030607          	0x30607
     a8e:	0009                	c.nop	2
     a90:	0100                	addi	s0,sp,128
     a92:	0805                	addi	a6,a6,1
     a94:	0306                	slli	t1,t1,0x1
     a96:	0910                	addi	a2,sp,144
     a98:	0004                	0x4
     a9a:	0301                	addi	t1,t1,0
     a9c:	0902                	c.slli64	s2
     a9e:	0000                	unimp
     aa0:	0501                	addi	a0,a0,0
     aa2:	0003060b          	0x3060b
     aa6:	0009                	c.nop	2
     aa8:	0100                	addi	s0,sp,128
     aaa:	0805                	addi	a6,a6,1
     aac:	0306                	slli	t1,t1,0x1
     aae:	0901                	addi	s2,s2,0
     ab0:	0004                	0x4
     ab2:	0501                	addi	a0,a0,0
     ab4:	0003060b          	0x3060b
     ab8:	0009                	c.nop	2
     aba:	0100                	addi	s0,sp,128
     abc:	0805                	addi	a6,a6,1
     abe:	0306                	slli	t1,t1,0x1
     ac0:	0901                	addi	s2,s2,0
     ac2:	0004                	0x4
     ac4:	0501                	addi	a0,a0,0
     ac6:	0611                	addi	a2,a2,4
     ac8:	00090003          	lb	zero,0(s2)
     acc:	0100                	addi	s0,sp,128
     ace:	1e05                	addi	t3,t3,-31
     ad0:	04090003          	lb	zero,64(s2)
     ad4:	0100                	addi	s0,sp,128
     ad6:	0805                	addi	a6,a6,1
     ad8:	04090303          	lb	t1,64(s2)
     adc:	0100                	addi	s0,sp,128
     ade:	0b05                	addi	s6,s6,1
     ae0:	04097d03          	0x4097d03
     ae4:	0100                	addi	s0,sp,128
     ae6:	0805                	addi	a6,a6,1
     ae8:	0306                	slli	t1,t1,0x1
     aea:	0901                	addi	s2,s2,0
     aec:	0004                	0x4
     aee:	0601                	addi	a2,a2,0
     af0:	00090203          	lb	tp,0(s2)
     af4:	0100                	addi	s0,sp,128
     af6:	0b05                	addi	s6,s6,1
     af8:	10097e03          	0x10097e03
     afc:	0100                	addi	s0,sp,128
     afe:	0805                	addi	a6,a6,1
     b00:	0306                	slli	t1,t1,0x1
     b02:	0902                	c.slli64	s2
     b04:	0004                	0x4
     b06:	0301                	addi	t1,t1,0
     b08:	0900                	addi	s0,sp,144
     b0a:	0000                	unimp
     b0c:	0301                	addi	t1,t1,0
     b0e:	0900                	addi	s0,sp,144
     b10:	0000                	unimp
     b12:	0301                	addi	t1,t1,0
     b14:	0900                	addi	s0,sp,144
     b16:	0000                	unimp
     b18:	0301                	addi	t1,t1,0
     b1a:	0900                	addi	s0,sp,144
     b1c:	0000                	unimp
     b1e:	0301                	addi	t1,t1,0
     b20:	0900                	addi	s0,sp,144
     b22:	0014                	0x14
     b24:	0301                	addi	t1,t1,0
     b26:	0900                	addi	s0,sp,144
     b28:	0000                	unimp
     b2a:	0301                	addi	t1,t1,0
     b2c:	0900                	addi	s0,sp,144
     b2e:	0004                	0x4
     b30:	0301                	addi	t1,t1,0
     b32:	0900                	addi	s0,sp,144
     b34:	0008                	0x8
     b36:	0301                	addi	t1,t1,0
     b38:	0900                	addi	s0,sp,144
     b3a:	000c                	0xc
     b3c:	0301                	addi	t1,t1,0
     b3e:	0900                	addi	s0,sp,144
     b40:	0004                	0x4
     b42:	0301                	addi	t1,t1,0
     b44:	0900                	addi	s0,sp,144
     b46:	0004                	0x4
     b48:	0301                	addi	t1,t1,0
     b4a:	0900                	addi	s0,sp,144
     b4c:	0004                	0x4
     b4e:	0301                	addi	t1,t1,0
     b50:	0900                	addi	s0,sp,144
     b52:	0004                	0x4
     b54:	0301                	addi	t1,t1,0
     b56:	0900                	addi	s0,sp,144
     b58:	0004                	0x4
     b5a:	0301                	addi	t1,t1,0
     b5c:	0900                	addi	s0,sp,144
     b5e:	0004                	0x4
     b60:	0301                	addi	t1,t1,0
     b62:	0900                	addi	s0,sp,144
     b64:	0010                	0x10
     b66:	0301                	addi	t1,t1,0
     b68:	0900                	addi	s0,sp,144
     b6a:	0010                	0x10
     b6c:	0301                	addi	t1,t1,0
     b6e:	0900                	addi	s0,sp,144
     b70:	0008                	0x8
     b72:	0301                	addi	t1,t1,0
     b74:	0900                	addi	s0,sp,144
     b76:	0010                	0x10
     b78:	0301                	addi	t1,t1,0
     b7a:	0900                	addi	s0,sp,144
     b7c:	0004                	0x4
     b7e:	0301                	addi	t1,t1,0
     b80:	0900                	addi	s0,sp,144
     b82:	0004                	0x4
     b84:	0301                	addi	t1,t1,0
     b86:	0900                	addi	s0,sp,144
     b88:	0004                	0x4
     b8a:	0301                	addi	t1,t1,0
     b8c:	0900                	addi	s0,sp,144
     b8e:	0004                	0x4
     b90:	0301                	addi	t1,t1,0
     b92:	0900                	addi	s0,sp,144
     b94:	0004                	0x4
     b96:	0301                	addi	t1,t1,0
     b98:	0900                	addi	s0,sp,144
     b9a:	0004                	0x4
     b9c:	0301                	addi	t1,t1,0
     b9e:	0900                	addi	s0,sp,144
     ba0:	0000                	unimp
     ba2:	0501                	addi	a0,a0,0
     ba4:	0604                	addi	s1,sp,768
     ba6:	04096703          	0x4096703
     baa:	0100                	addi	s0,sp,128
     bac:	0705                	addi	a4,a4,1
     bae:	0306                	slli	t1,t1,0x1
     bb0:	092e                	slli	s2,s2,0xb
     bb2:	0014                	0x14
     bb4:	0501                	addi	a0,a0,0
     bb6:	060a                	slli	a2,a2,0x2
     bb8:	00090003          	lb	zero,0(s2)
     bbc:	0100                	addi	s0,sp,128
     bbe:	0405                	addi	s0,s0,1
     bc0:	0306                	slli	t1,t1,0x1
     bc2:	00040913          	mv	s2,s0
     bc6:	0301                	addi	t1,t1,0
     bc8:	0900                	addi	s0,sp,144
     bca:	0000                	unimp
     bcc:	0301                	addi	t1,t1,0
     bce:	0900                	addi	s0,sp,144
     bd0:	0000                	unimp
     bd2:	0301                	addi	t1,t1,0
     bd4:	0900                	addi	s0,sp,144
     bd6:	0000                	unimp
     bd8:	0301                	addi	t1,t1,0
     bda:	0900                	addi	s0,sp,144
     bdc:	0000                	unimp
     bde:	0301                	addi	t1,t1,0
     be0:	0900                	addi	s0,sp,144
     be2:	0014                	0x14
     be4:	0301                	addi	t1,t1,0
     be6:	0900                	addi	s0,sp,144
     be8:	0020                	addi	s0,sp,8
     bea:	0301                	addi	t1,t1,0
     bec:	0901                	addi	s2,s2,0
     bee:	0000                	unimp
     bf0:	0501                	addi	a0,a0,0
     bf2:	00030607          	0x30607
     bf6:	0009                	c.nop	2
     bf8:	0100                	addi	s0,sp,128
     bfa:	0805                	addi	a6,a6,1
     bfc:	0306                	slli	t1,t1,0x1
     bfe:	090a                	slli	s2,s2,0x2
     c00:	0004                	0x4
     c02:	0501                	addi	a0,a0,0
     c04:	0003060b          	0x3060b
     c08:	0009                	c.nop	2
     c0a:	0100                	addi	s0,sp,128
     c0c:	1405                	addi	s0,s0,-31
     c0e:	04090003          	lb	zero,64(s2)
     c12:	0100                	addi	s0,sp,128
     c14:	0505                	addi	a0,a0,1
     c16:	0306                	slli	t1,t1,0x1
     c18:	0902                	c.slli64	s2
     c1a:	0004                	0x4
     c1c:	0301                	addi	t1,t1,0
     c1e:	0901                	addi	s2,s2,0
     c20:	0000                	unimp
     c22:	0301                	addi	t1,t1,0
     c24:	0900                	addi	s0,sp,144
     c26:	0000                	unimp
     c28:	0301                	addi	t1,t1,0
     c2a:	0900                	addi	s0,sp,144
     c2c:	0000                	unimp
     c2e:	0301                	addi	t1,t1,0
     c30:	0900                	addi	s0,sp,144
     c32:	0004                	0x4
     c34:	0301                	addi	t1,t1,0
     c36:	0900                	addi	s0,sp,144
     c38:	000c                	0xc
     c3a:	0301                	addi	t1,t1,0
     c3c:	0900                	addi	s0,sp,144
     c3e:	0000                	unimp
     c40:	0501                	addi	a0,a0,0
     c42:	0308                	addi	a0,sp,384
     c44:	0905                	addi	s2,s2,1
     c46:	0000                	unimp
     c48:	0301                	addi	t1,t1,0
     c4a:	0902                	c.slli64	s2
     c4c:	0000                	unimp
     c4e:	0501                	addi	a0,a0,0
     c50:	0305                	addi	t1,t1,1
     c52:	0902                	c.slli64	s2
     c54:	0000                	unimp
     c56:	0301                	addi	t1,t1,0
     c58:	0901                	addi	s2,s2,0
     c5a:	0000                	unimp
     c5c:	0301                	addi	t1,t1,0
     c5e:	0901                	addi	s2,s2,0
     c60:	0000                	unimp
     c62:	0501                	addi	a0,a0,0
     c64:	060d                	addi	a2,a2,3
     c66:	00090003          	lb	zero,0(s2)
     c6a:	0100                	addi	s0,sp,128
     c6c:	0405                	addi	s0,s0,1
     c6e:	0c096703          	0xc096703
     c72:	0100                	addi	s0,sp,128
     c74:	0805                	addi	a6,a6,1
     c76:	0306                	slli	t1,t1,0x1
     c78:	091e                	slli	s2,s2,0x7
     c7a:	0014                	0x14
     c7c:	0301                	addi	t1,t1,0
     c7e:	00000903          	lb	s2,0(zero) # 0 <_STACK_SIZE-0x10000>
     c82:	0301                	addi	t1,t1,0
     c84:	0902                	c.slli64	s2
     c86:	0000                	unimp
     c88:	0501                	addi	a0,a0,0
     c8a:	0611                	addi	a2,a2,4
     c8c:	00090003          	lb	zero,0(s2)
     c90:	0100                	addi	s0,sp,128
     c92:	1e05                	addi	t3,t3,-31
     c94:	04090003          	lb	zero,64(s2)
     c98:	0100                	addi	s0,sp,128
     c9a:	0b05                	addi	s6,s6,1
     c9c:	04090003          	lb	zero,64(s2)
     ca0:	0100                	addi	s0,sp,128
     ca2:	0805                	addi	a6,a6,1
     ca4:	0306                	slli	t1,t1,0x1
     ca6:	0901                	addi	s2,s2,0
     ca8:	0004                	0x4
     caa:	0501                	addi	a0,a0,0
     cac:	0103060b          	0x103060b
     cb0:	0009                	c.nop	2
     cb2:	0100                	addi	s0,sp,128
     cb4:	1105                	addi	sp,sp,-31
     cb6:	04090103          	lb	sp,64(s2)
     cba:	0100                	addi	s0,sp,128
     cbc:	1e05                	addi	t3,t3,-31
     cbe:	04090003          	lb	zero,64(s2)
     cc2:	0100                	addi	s0,sp,128
     cc4:	0805                	addi	a6,a6,1
     cc6:	04090303          	lb	t1,64(s2)
     cca:	0100                	addi	s0,sp,128
     ccc:	0b05                	addi	s6,s6,1
     cce:	04097d03          	0x4097d03
     cd2:	0100                	addi	s0,sp,128
     cd4:	0805                	addi	a6,a6,1
     cd6:	04090303          	lb	t1,64(s2)
     cda:	0100                	addi	s0,sp,128
     cdc:	0b05                	addi	s6,s6,1
     cde:	08097b03          	0x8097b03
     ce2:	0100                	addi	s0,sp,128
     ce4:	0805                	addi	a6,a6,1
     ce6:	0306                	slli	t1,t1,0x1
     ce8:	0901                	addi	s2,s2,0
     cea:	0004                	0x4
     cec:	0301                	addi	t1,t1,0
     cee:	0901                	addi	s2,s2,0
     cf0:	0000                	unimp
     cf2:	0301                	addi	t1,t1,0
     cf4:	0901                	addi	s2,s2,0
     cf6:	0000                	unimp
     cf8:	0601                	addi	a2,a2,0
     cfa:	00090203          	lb	tp,0(s2)
     cfe:	0100                	addi	s0,sp,128
     d00:	0b05                	addi	s6,s6,1
     d02:	20097e03          	0x20097e03
     d06:	0100                	addi	s0,sp,128
     d08:	0805                	addi	a6,a6,1
     d0a:	0306                	slli	t1,t1,0x1
     d0c:	0902                	c.slli64	s2
     d0e:	0004                	0x4
     d10:	0301                	addi	t1,t1,0
     d12:	0900                	addi	s0,sp,144
     d14:	0000                	unimp
     d16:	0301                	addi	t1,t1,0
     d18:	0900                	addi	s0,sp,144
     d1a:	0000                	unimp
     d1c:	0301                	addi	t1,t1,0
     d1e:	0900                	addi	s0,sp,144
     d20:	0000                	unimp
     d22:	0301                	addi	t1,t1,0
     d24:	0900                	addi	s0,sp,144
     d26:	0000                	unimp
     d28:	0301                	addi	t1,t1,0
     d2a:	0900                	addi	s0,sp,144
     d2c:	0000                	unimp
     d2e:	0301                	addi	t1,t1,0
     d30:	0900                	addi	s0,sp,144
     d32:	0000                	unimp
     d34:	0301                	addi	t1,t1,0
     d36:	0900                	addi	s0,sp,144
     d38:	0004                	0x4
     d3a:	0301                	addi	t1,t1,0
     d3c:	0900                	addi	s0,sp,144
     d3e:	0008                	0x8
     d40:	0301                	addi	t1,t1,0
     d42:	0900                	addi	s0,sp,144
     d44:	000c                	0xc
     d46:	0301                	addi	t1,t1,0
     d48:	0900                	addi	s0,sp,144
     d4a:	0008                	0x8
     d4c:	0301                	addi	t1,t1,0
     d4e:	0900                	addi	s0,sp,144
     d50:	0008                	0x8
     d52:	0301                	addi	t1,t1,0
     d54:	0900                	addi	s0,sp,144
     d56:	0004                	0x4
     d58:	0301                	addi	t1,t1,0
     d5a:	0900                	addi	s0,sp,144
     d5c:	0004                	0x4
     d5e:	0301                	addi	t1,t1,0
     d60:	0900                	addi	s0,sp,144
     d62:	0008                	0x8
     d64:	0301                	addi	t1,t1,0
     d66:	0900                	addi	s0,sp,144
     d68:	0004                	0x4
     d6a:	0301                	addi	t1,t1,0
     d6c:	0900                	addi	s0,sp,144
     d6e:	0010                	0x10
     d70:	0301                	addi	t1,t1,0
     d72:	0900                	addi	s0,sp,144
     d74:	0010                	0x10
     d76:	0301                	addi	t1,t1,0
     d78:	0900                	addi	s0,sp,144
     d7a:	000c                	0xc
     d7c:	0301                	addi	t1,t1,0
     d7e:	0900                	addi	s0,sp,144
     d80:	0010                	0x10
     d82:	0301                	addi	t1,t1,0
     d84:	0900                	addi	s0,sp,144
     d86:	0008                	0x8
     d88:	0301                	addi	t1,t1,0
     d8a:	0900                	addi	s0,sp,144
     d8c:	0008                	0x8
     d8e:	0301                	addi	t1,t1,0
     d90:	0900                	addi	s0,sp,144
     d92:	0004                	0x4
     d94:	0301                	addi	t1,t1,0
     d96:	0900                	addi	s0,sp,144
     d98:	0004                	0x4
     d9a:	0301                	addi	t1,t1,0
     d9c:	0900                	addi	s0,sp,144
     d9e:	0008                	0x8
     da0:	0601                	addi	a2,a2,0
     da2:	00090103          	lb	sp,0(s2)
     da6:	0100                	addi	s0,sp,128
     da8:	04097f03          	0x4097f03
     dac:	0100                	addi	s0,sp,128
     dae:	08090103          	lb	sp,128(s2)
     db2:	0100                	addi	s0,sp,128
     db4:	0c097f03          	0xc097f03
     db8:	0100                	addi	s0,sp,128
     dba:	0306                	slli	t1,t1,0x1
     dbc:	0900                	addi	s0,sp,144
     dbe:	0004                	0x4
     dc0:	0301                	addi	t1,t1,0
     dc2:	0900                	addi	s0,sp,144
     dc4:	0000                	unimp
     dc6:	0301                	addi	t1,t1,0
     dc8:	0900                	addi	s0,sp,144
     dca:	0000                	unimp
     dcc:	0301                	addi	t1,t1,0
     dce:	0901                	addi	s2,s2,0
     dd0:	0000                	unimp
     dd2:	0301                	addi	t1,t1,0
     dd4:	0900                	addi	s0,sp,144
     dd6:	0000                	unimp
     dd8:	0301                	addi	t1,t1,0
     dda:	0900                	addi	s0,sp,144
     ddc:	0000                	unimp
     dde:	0301                	addi	t1,t1,0
     de0:	0900                	addi	s0,sp,144
     de2:	0000                	unimp
     de4:	0301                	addi	t1,t1,0
     de6:	0900                	addi	s0,sp,144
     de8:	0000                	unimp
     dea:	0301                	addi	t1,t1,0
     dec:	0900                	addi	s0,sp,144
     dee:	0004                	0x4
     df0:	0301                	addi	t1,t1,0
     df2:	0900                	addi	s0,sp,144
     df4:	0000                	unimp
     df6:	0301                	addi	t1,t1,0
     df8:	0900                	addi	s0,sp,144
     dfa:	0004                	0x4
     dfc:	0301                	addi	t1,t1,0
     dfe:	0900                	addi	s0,sp,144
     e00:	0000                	unimp
     e02:	0301                	addi	t1,t1,0
     e04:	0900                	addi	s0,sp,144
     e06:	0004                	0x4
     e08:	0301                	addi	t1,t1,0
     e0a:	0900                	addi	s0,sp,144
     e0c:	0004                	0x4
     e0e:	0301                	addi	t1,t1,0
     e10:	0900                	addi	s0,sp,144
     e12:	0004                	0x4
     e14:	0301                	addi	t1,t1,0
     e16:	0900                	addi	s0,sp,144
     e18:	0004                	0x4
     e1a:	0301                	addi	t1,t1,0
     e1c:	0900                	addi	s0,sp,144
     e1e:	0000                	unimp
     e20:	0301                	addi	t1,t1,0
     e22:	0900                	addi	s0,sp,144
     e24:	0008                	0x8
     e26:	0301                	addi	t1,t1,0
     e28:	0900                	addi	s0,sp,144
     e2a:	0000                	unimp
     e2c:	0301                	addi	t1,t1,0
     e2e:	0900                	addi	s0,sp,144
     e30:	0004                	0x4
     e32:	0301                	addi	t1,t1,0
     e34:	0900                	addi	s0,sp,144
     e36:	0004                	0x4
     e38:	0301                	addi	t1,t1,0
     e3a:	0900                	addi	s0,sp,144
     e3c:	0000                	unimp
     e3e:	0301                	addi	t1,t1,0
     e40:	0900                	addi	s0,sp,144
     e42:	0008                	0x8
     e44:	0301                	addi	t1,t1,0
     e46:	0900                	addi	s0,sp,144
     e48:	0000                	unimp
     e4a:	0301                	addi	t1,t1,0
     e4c:	0900                	addi	s0,sp,144
     e4e:	0004                	0x4
     e50:	0301                	addi	t1,t1,0
     e52:	0900                	addi	s0,sp,144
     e54:	0004                	0x4
     e56:	0301                	addi	t1,t1,0
     e58:	0900                	addi	s0,sp,144
     e5a:	0000                	unimp
     e5c:	0301                	addi	t1,t1,0
     e5e:	0900                	addi	s0,sp,144
     e60:	0008                	0x8
     e62:	0301                	addi	t1,t1,0
     e64:	0900                	addi	s0,sp,144
     e66:	0000                	unimp
     e68:	0301                	addi	t1,t1,0
     e6a:	0900                	addi	s0,sp,144
     e6c:	0004                	0x4
     e6e:	0301                	addi	t1,t1,0
     e70:	0900                	addi	s0,sp,144
     e72:	0000                	unimp
     e74:	0301                	addi	t1,t1,0
     e76:	0900                	addi	s0,sp,144
     e78:	0000                	unimp
     e7a:	0301                	addi	t1,t1,0
     e7c:	0900                	addi	s0,sp,144
     e7e:	000c                	0xc
     e80:	0301                	addi	t1,t1,0
     e82:	0900                	addi	s0,sp,144
     e84:	0004                	0x4
     e86:	0301                	addi	t1,t1,0
     e88:	0900                	addi	s0,sp,144
     e8a:	0004                	0x4
     e8c:	0301                	addi	t1,t1,0
     e8e:	0900                	addi	s0,sp,144
     e90:	0008                	0x8
     e92:	0301                	addi	t1,t1,0
     e94:	0900                	addi	s0,sp,144
     e96:	0018                	0x18
     e98:	0301                	addi	t1,t1,0
     e9a:	0902                	c.slli64	s2
     e9c:	0000                	unimp
     e9e:	0501                	addi	a0,a0,0
     ea0:	0003060b          	0x3060b
     ea4:	0009                	c.nop	2
     ea6:	0100                	addi	s0,sp,128
     ea8:	1405                	addi	s0,s0,-31
     eaa:	04090003          	lb	zero,64(s2)
     eae:	0100                	addi	s0,sp,128
     eb0:	2105                	jal	12d0 <_STACK_SIZE-0xed30>
     eb2:	04090003          	lb	zero,64(s2)
     eb6:	0100                	addi	s0,sp,128
     eb8:	0505                	addi	a0,a0,1
     eba:	0306                	slli	t1,t1,0x1
     ebc:	0902                	c.slli64	s2
     ebe:	0004                	0x4
     ec0:	0301                	addi	t1,t1,0
     ec2:	0901                	addi	s2,s2,0
     ec4:	0000                	unimp
     ec6:	0301                	addi	t1,t1,0
     ec8:	0900                	addi	s0,sp,144
     eca:	0000                	unimp
     ecc:	0301                	addi	t1,t1,0
     ece:	0900                	addi	s0,sp,144
     ed0:	0000                	unimp
     ed2:	0301                	addi	t1,t1,0
     ed4:	0900                	addi	s0,sp,144
     ed6:	0004                	0x4
     ed8:	0301                	addi	t1,t1,0
     eda:	0900                	addi	s0,sp,144
     edc:	000c                	0xc
     ede:	0301                	addi	t1,t1,0
     ee0:	0900                	addi	s0,sp,144
     ee2:	0004                	0x4
     ee4:	0501                	addi	a0,a0,0
     ee6:	0308                	addi	a0,sp,384
     ee8:	00000903          	lb	s2,0(zero) # 0 <_STACK_SIZE-0x10000>
     eec:	0301                	addi	t1,t1,0
     eee:	00000903          	lb	s2,0(zero) # 0 <_STACK_SIZE-0x10000>
     ef2:	0501                	addi	a0,a0,0
     ef4:	0305                	addi	t1,t1,1
     ef6:	0902                	c.slli64	s2
     ef8:	0000                	unimp
     efa:	0301                	addi	t1,t1,0
     efc:	0900                	addi	s0,sp,144
     efe:	0000                	unimp
     f00:	0301                	addi	t1,t1,0
     f02:	0900                	addi	s0,sp,144
     f04:	0000                	unimp
     f06:	0301                	addi	t1,t1,0
     f08:	0900                	addi	s0,sp,144
     f0a:	0004                	0x4
     f0c:	0301                	addi	t1,t1,0
     f0e:	0900                	addi	s0,sp,144
     f10:	000c                	0xc
     f12:	0301                	addi	t1,t1,0
     f14:	0900                	addi	s0,sp,144
     f16:	0000                	unimp
     f18:	0301                	addi	t1,t1,0
     f1a:	0901                	addi	s2,s2,0
     f1c:	0000                	unimp
     f1e:	0501                	addi	a0,a0,0
     f20:	0614                	addi	a3,sp,768
     f22:	00090003          	lb	zero,0(s2)
     f26:	0100                	addi	s0,sp,128
     f28:	2005                	jal	f48 <_STACK_SIZE-0xf0b8>
     f2a:	04090003          	lb	zero,64(s2)
     f2e:	0100                	addi	s0,sp,128
     f30:	0505                	addi	a0,a0,1
     f32:	0306                	slli	t1,t1,0x1
     f34:	0901                	addi	s2,s2,0
     f36:	0004                	0x4
     f38:	0301                	addi	t1,t1,0
     f3a:	0901                	addi	s2,s2,0
     f3c:	0000                	unimp
     f3e:	0501                	addi	a0,a0,0
     f40:	060d                	addi	a2,a2,3
     f42:	00090003          	lb	zero,0(s2)
     f46:	0100                	addi	s0,sp,128
     f48:	0c09                	addi	s8,s8,2
     f4a:	0000                	unimp
     f4c:	0101                	addi	sp,sp,0
     f4e:	008e                	slli	ra,ra,0x3
     f50:	0000                	unimp
     f52:	00480003          	lb	zero,4(a6) # ffff8004 <__stack+0x7fe7e690>
     f56:	0000                	unimp
     f58:	0101                	addi	sp,sp,0
     f5a:	000d0efb          	0xd0efb
     f5e:	0101                	addi	sp,sp,0
     f60:	0101                	addi	sp,sp,0
     f62:	0000                	unimp
     f64:	0100                	addi	s0,sp,128
     f66:	0000                	unimp
     f68:	2e01                	jal	1278 <_STACK_SIZE-0xed88>
     f6a:	2f2e                	fld	ft10,200(sp)
     f6c:	2e2e                	fld	ft8,200(sp)
     f6e:	2f2e2e2f          	0x2f2e2e2f
     f72:	2f2e                	fld	ft10,200(sp)
     f74:	6972                	flw	fs2,28(sp)
     f76:	2d766373          	csrrsi	t1,0x2d7,12
     f7a:	2f636367          	0x2f636367
     f7e:	696c                	flw	fa1,84(a0)
     f80:	6762                	flw	fa4,24(sp)
     f82:	632f6363          	bltu	t5,s2,15a8 <_STACK_SIZE-0xea58>
     f86:	69666e6f          	jal	t3,6761c <_STACK_SIZE+0x5761c>
     f8a:	69722f67          	0x69722f67
     f8e:	00766373          	csrrsi	t1,0x7,12
     f92:	6d00                	flw	fs0,24(a0)
     f94:	6c75                	lui	s8,0x1d
     f96:	6964                	flw	fs1,84(a0)
     f98:	00532e33          	slt	t3,t1,t0
     f9c:	0001                	nop
     f9e:	0000                	unimp
     fa0:	0500                	addi	s0,sp,640
     fa2:	c002                	sw	zero,0(sp)
     fa4:	00a0                	addi	s0,sp,72
     fa6:	0380                	addi	s0,sp,448
     fa8:	0124                	addi	s1,sp,136
     faa:	04090103          	lb	sp,64(s2)
     fae:	0100                	addi	s0,sp,128
     fb0:	04090203          	lb	tp,64(s2)
     fb4:	0100                	addi	s0,sp,128
     fb6:	04090103          	lb	sp,64(s2)
     fba:	0100                	addi	s0,sp,128
     fbc:	04090103          	lb	sp,64(s2)
     fc0:	0100                	addi	s0,sp,128
     fc2:	04090203          	lb	tp,64(s2)
     fc6:	0100                	addi	s0,sp,128
     fc8:	04090103          	lb	sp,64(s2)
     fcc:	0100                	addi	s0,sp,128
     fce:	04090103          	lb	sp,64(s2)
     fd2:	0100                	addi	s0,sp,128
     fd4:	04090103          	lb	sp,64(s2)
     fd8:	0100                	addi	s0,sp,128
     fda:	0409                	addi	s0,s0,2
     fdc:	0000                	unimp
     fde:	0101                	addi	sp,sp,0
     fe0:	0164                	addi	s1,sp,140
     fe2:	0000                	unimp
     fe4:	00450003          	lb	zero,4(a0)
     fe8:	0000                	unimp
     fea:	0101                	addi	sp,sp,0
     fec:	000d0efb          	0xd0efb
     ff0:	0101                	addi	sp,sp,0
     ff2:	0101                	addi	sp,sp,0
     ff4:	0000                	unimp
     ff6:	0100                	addi	s0,sp,128
     ff8:	0000                	unimp
     ffa:	2e01                	jal	130a <_STACK_SIZE-0xecf6>
     ffc:	2f2e                	fld	ft10,200(sp)
     ffe:	2e2e                	fld	ft8,200(sp)
    1000:	2f2e2e2f          	0x2f2e2e2f
    1004:	2f2e                	fld	ft10,200(sp)
    1006:	6972                	flw	fs2,28(sp)
    1008:	2d766373          	csrrsi	t1,0x2d7,12
    100c:	2f636367          	0x2f636367
    1010:	696c                	flw	fa1,84(a0)
    1012:	6762                	flw	fa4,24(sp)
    1014:	632f6363          	bltu	t5,s2,163a <_STACK_SIZE-0xe9c6>
    1018:	69666e6f          	jal	t3,676ae <_STACK_SIZE+0x576ae>
    101c:	69722f67          	0x69722f67
    1020:	00766373          	csrrsi	t1,0x7,12
    1024:	6400                	flw	fs0,8(s0)
    1026:	7669                	lui	a2,0xffffa
    1028:	532e                	lw	t1,232(sp)
    102a:	0100                	addi	s0,sp,128
    102c:	0000                	unimp
    102e:	0000                	unimp
    1030:	0205                	addi	tp,tp,1
    1032:	a0e4                	fsd	fs1,192(s1)
    1034:	8000                	0x8000
    1036:	0100c403          	lbu	s0,16(ra) # 938004cc <__stack+0x13686b58>
    103a:	04090103          	lb	sp,64(s2)
    103e:	0100                	addi	s0,sp,128
    1040:	04090403          	lb	s0,64(s2)
    1044:	0100                	addi	s0,sp,128
    1046:	04090103          	lb	sp,64(s2)
    104a:	0100                	addi	s0,sp,128
    104c:	04090103          	lb	sp,64(s2)
    1050:	0100                	addi	s0,sp,128
    1052:	04090103          	lb	sp,64(s2)
    1056:	0100                	addi	s0,sp,128
    1058:	04090103          	lb	sp,64(s2)
    105c:	0100                	addi	s0,sp,128
    105e:	04090103          	lb	sp,64(s2)
    1062:	0100                	addi	s0,sp,128
    1064:	04090203          	lb	tp,64(s2)
    1068:	0100                	addi	s0,sp,128
    106a:	04090103          	lb	sp,64(s2)
    106e:	0100                	addi	s0,sp,128
    1070:	04090103          	lb	sp,64(s2)
    1074:	0100                	addi	s0,sp,128
    1076:	04090103          	lb	sp,64(s2)
    107a:	0100                	addi	s0,sp,128
    107c:	04090203          	lb	tp,64(s2)
    1080:	0100                	addi	s0,sp,128
    1082:	04090203          	lb	tp,64(s2)
    1086:	0100                	addi	s0,sp,128
    1088:	04090103          	lb	sp,64(s2)
    108c:	0100                	addi	s0,sp,128
    108e:	04090103          	lb	sp,64(s2)
    1092:	0100                	addi	s0,sp,128
    1094:	04090203          	lb	tp,64(s2)
    1098:	0100                	addi	s0,sp,128
    109a:	04090103          	lb	sp,64(s2)
    109e:	0100                	addi	s0,sp,128
    10a0:	04090103          	lb	sp,64(s2)
    10a4:	0100                	addi	s0,sp,128
    10a6:	04090203          	lb	tp,64(s2)
    10aa:	0100                	addi	s0,sp,128
    10ac:	04090503          	lb	a0,64(s2)
    10b0:	0100                	addi	s0,sp,128
    10b2:	04090103          	lb	sp,64(s2)
    10b6:	0100                	addi	s0,sp,128
    10b8:	04090103          	lb	sp,64(s2)
    10bc:	0100                	addi	s0,sp,128
    10be:	04090103          	lb	sp,64(s2)
    10c2:	0100                	addi	s0,sp,128
    10c4:	04090503          	lb	a0,64(s2)
    10c8:	0100                	addi	s0,sp,128
    10ca:	04090203          	lb	tp,64(s2)
    10ce:	0100                	addi	s0,sp,128
    10d0:	04090203          	lb	tp,64(s2)
    10d4:	0100                	addi	s0,sp,128
    10d6:	04090103          	lb	sp,64(s2)
    10da:	0100                	addi	s0,sp,128
    10dc:	04090203          	lb	tp,64(s2)
    10e0:	0100                	addi	s0,sp,128
    10e2:	04090203          	lb	tp,64(s2)
    10e6:	0100                	addi	s0,sp,128
    10e8:	04090103          	lb	sp,64(s2)
    10ec:	0100                	addi	s0,sp,128
    10ee:	04090103          	lb	sp,64(s2)
    10f2:	0100                	addi	s0,sp,128
    10f4:	04090103          	lb	sp,64(s2)
    10f8:	0100                	addi	s0,sp,128
    10fa:	04090403          	lb	s0,64(s2)
    10fe:	0100                	addi	s0,sp,128
    1100:	04090103          	lb	sp,64(s2)
    1104:	0100                	addi	s0,sp,128
    1106:	04090103          	lb	sp,64(s2)
    110a:	0100                	addi	s0,sp,128
    110c:	04090203          	lb	tp,64(s2)
    1110:	0100                	addi	s0,sp,128
    1112:	04090103          	lb	sp,64(s2)
    1116:	0100                	addi	s0,sp,128
    1118:	04090103          	lb	sp,64(s2)
    111c:	0100                	addi	s0,sp,128
    111e:	04090203          	lb	tp,64(s2)
    1122:	0100                	addi	s0,sp,128
    1124:	04090103          	lb	sp,64(s2)
    1128:	0100                	addi	s0,sp,128
    112a:	04090203          	lb	tp,64(s2)
    112e:	0100                	addi	s0,sp,128
    1130:	04090103          	lb	sp,64(s2)
    1134:	0100                	addi	s0,sp,128
    1136:	04090103          	lb	sp,64(s2)
    113a:	0100                	addi	s0,sp,128
    113c:	04090103          	lb	sp,64(s2)
    1140:	0100                	addi	s0,sp,128
    1142:	0409                	addi	s0,s0,2
    1144:	0000                	unimp
    1146:	0101                	addi	sp,sp,0
    1148:	0000004f          	fnmadd.s	ft0,ft0,ft0,ft0,rne
    114c:	00490003          	lb	zero,4(s2)
    1150:	0000                	unimp
    1152:	0101                	addi	sp,sp,0
    1154:	000d0efb          	0xd0efb
    1158:	0101                	addi	sp,sp,0
    115a:	0101                	addi	sp,sp,0
    115c:	0000                	unimp
    115e:	0100                	addi	s0,sp,128
    1160:	0000                	unimp
    1162:	2e01                	jal	1472 <_STACK_SIZE-0xeb8e>
    1164:	2f2e                	fld	ft10,200(sp)
    1166:	2e2e                	fld	ft8,200(sp)
    1168:	2f2e2e2f          	0x2f2e2e2f
    116c:	2f2e                	fld	ft10,200(sp)
    116e:	6972                	flw	fs2,28(sp)
    1170:	2d766373          	csrrsi	t1,0x2d7,12
    1174:	2f636367          	0x2f636367
    1178:	696c                	flw	fa1,84(a0)
    117a:	6762                	flw	fa4,24(sp)
    117c:	00006363          	bltu	zero,zero,1182 <_STACK_SIZE-0xee7e>
    1180:	696c                	flw	fa1,84(a0)
    1182:	6762                	flw	fa4,24(sp)
    1184:	2e326363          	bltu	tp,gp,146a <_STACK_SIZE-0xeb96>
    1188:	0068                	addi	a0,sp,12
    118a:	0001                	nop
    118c:	6c00                	flw	fs0,24(s0)
    118e:	6269                	lui	tp,0x1a
    1190:	32636367          	0x32636367
    1194:	632e                	flw	ft6,200(sp)
    1196:	0100                	addi	s0,sp,128
    1198:	0000                	unimp
	...

Disassembly of section .debug_str:

00000000 <.debug_str>:
   0:	5744                	lw	s1,44(a4)
   2:	6e75                	lui	t3,0x1d
   4:	6f69                	lui	t5,0x1a
   6:	006e                	c.slli	zero,0x1b
   8:	5f5f 6475 7669      	0x766964755f5f
   e:	6964                	flw	fs1,84(a0)
  10:	6f630033          	0x6f630033
  14:	706d                	c.lui	zero,0xffffb
  16:	656c                	flw	fa1,76(a0)
  18:	2078                	fld	fa4,192(s0)
  1a:	6c66                	flw	fs8,88(sp)
  1c:	0074616f          	jal	sp,46822 <_STACK_SIZE+0x36822>
  20:	5f5f 756d 736c      	0x736c756d5f5f
  26:	3369                	jal	fffffdb0 <__stack+0x7fe8643c>
  28:	7300                	flw	fs0,32(a4)
  2a:	6f68                	flw	fa0,92(a4)
  2c:	7472                	flw	fs0,60(sp)
  2e:	6920                	flw	fs0,80(a0)
  30:	746e                	flw	fs0,248(sp)
  32:	5f00                	lw	s0,56(a4)
  34:	645f 0030 5f5f      	0x5f5f0030645f
  3a:	6876                	flw	fa6,92(sp)
  3c:	5f00                	lw	s0,56(a4)
  3e:	6f5f 3070 5f00      	0x5f0030706f5f
  44:	6f5f 3170 5f00      	0x5f0031706f5f
  4a:	755f 6964 7376      	0x73766964755f
  50:	3369                	jal	fffffdda <__stack+0x7fe86466>
  52:	6c00                	flw	fs0,24(s0)
  54:	20676e6f          	jal	t3,7625a <_STACK_SIZE+0x6625a>
  58:	6f6c                	flw	fa1,92(a4)
  5a:	676e                	flw	fa4,216(sp)
  5c:	6920                	flw	fs0,80(a0)
  5e:	746e                	flw	fs0,248(sp)
  60:	6c00                	flw	fs0,24(s0)
  62:	20676e6f          	jal	t3,76268 <_STACK_SIZE+0x66268>
  66:	6f6c                	flw	fa1,92(a4)
  68:	676e                	flw	fa4,216(sp)
  6a:	7520                	flw	fs0,104(a0)
  6c:	736e                	flw	ft6,248(sp)
  6e:	6769                	lui	a4,0x1a
  70:	656e                	flw	fa0,216(sp)
  72:	2064                	fld	fs1,192(s0)
  74:	6e69                	lui	t3,0x1a
  76:	0074                	addi	a3,sp,12
  78:	6968                	flw	fa0,84(a0)
  7a:	5f006867          	0x5f006867
  7e:	635f 7a6c 745f      	0x745f7a6c635f
  84:	6261                	lui	tp,0x18
  86:	7500                	flw	fs0,40(a0)
  88:	736e                	flw	ft6,248(sp)
  8a:	6769                	lui	a4,0x1a
  8c:	656e                	flw	fa0,216(sp)
  8e:	2064                	fld	fs1,192(s0)
  90:	72616863          	bltu	sp,t1,7c0 <_STACK_SIZE-0xf840>
  94:	5f00                	lw	s0,56(a4)
  96:	785f 0030 5f5f      	0x5f5f0030785f
  9c:	3178                	fld	fa4,224(a0)
  9e:	5f00                	lw	s0,56(a4)
  a0:	785f 0032 5f5f      	0x5f5f0032785f
  a6:	3378                	fld	fa4,224(a4)
  a8:	5500                	lw	s0,40(a0)
  aa:	4951                	li	s2,20
  ac:	7974                	flw	fa3,116(a0)
  ae:	6570                	flw	fa2,76(a0)
  b0:	4400                	lw	s0,8(s0)
  b2:	72747357          	0x72747357
  b6:	6375                	lui	t1,0x1d
  b8:	0074                	addi	a3,sp,12
  ba:	726f6873          	csrrsi	a6,0x726,30
  be:	2074                	fld	fa3,192(s0)
  c0:	6e75                	lui	t3,0x1d
  c2:	6e676973          	csrrsi	s2,0x6e6,14
  c6:	6465                	lui	s0,0x19
  c8:	6920                	flw	fs0,80(a0)
  ca:	746e                	flw	fs0,248(sp)
  cc:	5500                	lw	s0,40(a0)
  ce:	4944                	lw	s1,20(a0)
  d0:	7974                	flw	fa3,116(a0)
  d2:	6570                	flw	fa2,76(a0)
  d4:	2e00                	fld	fs0,24(a2)
  d6:	2f2e                	fld	ft10,200(sp)
  d8:	2e2e                	fld	ft8,200(sp)
  da:	2f2e2e2f          	0x2f2e2e2f
  de:	2f2e                	fld	ft10,200(sp)
  e0:	6972                	flw	fs2,28(sp)
  e2:	2d766373          	csrrsi	t1,0x2d7,12
  e6:	2f636367          	0x2f636367
  ea:	696c                	flw	fa1,84(a0)
  ec:	6762                	flw	fa4,24(sp)
  ee:	6c2f6363          	bltu	t5,sp,7b4 <_STACK_SIZE-0xf84c>
  f2:	6269                	lui	tp,0x1a
  f4:	32636367          	0x32636367
  f8:	632e                	flw	ft6,200(sp)
  fa:	5f00                	lw	s0,56(a4)
  fc:	715f 0030 5f5f      	0x5f5f0030715f
 102:	3171                	jal	fffffd8e <__stack+0x7fe8641a>
 104:	5f00                	lw	s0,56(a4)
 106:	645f 0031 5f5f      	0x5f5f0031645f
 10c:	6d75                	lui	s10,0x1d
 10e:	6973646f          	jal	s0,36fa4 <_STACK_SIZE+0x26fa4>
 112:	682f0033          	0x682f0033
 116:	2f656d6f          	jal	s10,5640c <_STACK_SIZE+0x4640c>
 11a:	6c6c6173          	csrrsi	sp,0x6c6,24
 11e:	7261                	lui	tp,0xffff8
 120:	6f6f742f          	0x6f6f742f
 124:	736c                	flw	fa1,100(a4)
 126:	7369722f          	0x7369722f
 12a:	672d7663          	bgeu	s10,s2,796 <_STACK_SIZE-0xf86a>
 12e:	756e                	flw	fa0,248(sp)
 130:	742d                	lui	s0,0xfffeb
 132:	636c6f6f          	jal	t5,c6768 <_STACK_SIZE+0xb6768>
 136:	6168                	flw	fa0,68(a0)
 138:	6e69                	lui	t3,0x1a
 13a:	6975622f          	0x6975622f
 13e:	646c                	flw	fa1,76(s0)
 140:	672d                	lui	a4,0xb
 142:	6e2d6363          	bltu	s10,sp,828 <_STACK_SIZE-0xf7d8>
 146:	7765                	lui	a4,0xffff9
 148:	696c                	flw	fa1,84(a0)
 14a:	2d62                	fld	fs10,24(sp)
 14c:	67617473          	csrrci	s0,0x676,2
 150:	3265                	jal	fffffaf8 <__stack+0x7fe86184>
 152:	7369722f          	0x7369722f
 156:	32337663          	bgeu	t1,gp,482 <_STACK_SIZE-0xfb7e>
 15a:	752d                	lui	a0,0xfffeb
 15c:	6b6e                	flw	fs6,216(sp)
 15e:	6f6e                	flw	ft10,216(sp)
 160:	652d6e77          	0x652d6e77
 164:	666c                	flw	fa1,76(a2)
 166:	62696c2f          	0x62696c2f
 16a:	00636367          	0x636367
 16e:	706d6f63          	bltu	s10,t1,88c <_STACK_SIZE-0xf774>
 172:	656c                	flw	fa1,76(a0)
 174:	2078                	fld	fa4,192(s0)
 176:	6f64                	flw	fs1,92(a4)
 178:	6275                	lui	tp,0x1d
 17a:	656c                	flw	fa1,76(a0)
 17c:	5f00                	lw	s0,56(a4)
 17e:	765f 006c 5f5f      	0x5f5f006c765f
 184:	6475                	lui	s0,0x1d
 186:	7669                	lui	a2,0xffffa
 188:	6f6d                	lui	t5,0x1b
 18a:	6464                	flw	fs1,76(s0)
 18c:	3469                	jal	fffffc16 <__stack+0x7fe862a2>
 18e:	6300                	flw	fs0,0(a4)
 190:	6c706d6f          	jal	s10,7056 <_STACK_SIZE-0x8faa>
 194:	7865                	lui	a6,0xffff9
 196:	6c20                	flw	fs0,88(s0)
 198:	20676e6f          	jal	t3,7639e <_STACK_SIZE+0x6639e>
 19c:	6f64                	flw	fs1,92(a4)
 19e:	6275                	lui	tp,0x1d
 1a0:	656c                	flw	fa1,76(a0)
 1a2:	5500                	lw	s0,40(a0)
 1a4:	79744953          	0x79744953
 1a8:	6570                	flw	fa2,76(a0)
 1aa:	5f00                	lw	s0,56(a4)
 1ac:	785f 0072 5f5f      	0x5f5f0072785f
 1b2:	3072                	fld	ft0,312(sp)
 1b4:	5f00                	lw	s0,56(a4)
 1b6:	725f 0031 5f5f      	0x5f5f0031725f
 1bc:	6875                	lui	a6,0x1d
 1be:	5f00                	lw	s0,56(a4)
 1c0:	755f 006c 4e47      	0x4e47006c755f
 1c6:	2055                	jal	26a <_STACK_SIZE-0xfd96>
 1c8:	20373143          	fmadd.s	ft2,fa4,ft3,ft4,rup
 1cc:	3031                	jal	fffff9d8 <__stack+0x7fe86064>
 1ce:	322e                	fld	ft4,232(sp)
 1d0:	302e                	fld	ft0,232(sp)
 1d2:	2d20                	fld	fs0,88(a0)
 1d4:	636d                	lui	t1,0x1b
 1d6:	6f6d                	lui	t5,0x1b
 1d8:	6564                	flw	fs1,76(a0)
 1da:	3d6c                	fld	fa1,248(a0)
 1dc:	656d                	lui	a0,0x1b
 1de:	6c64                	flw	fs1,92(s0)
 1e0:	2d20776f          	jal	a4,74b2 <_STACK_SIZE-0x8b4e>
 1e4:	636d                	lui	t1,0x1b
 1e6:	6f6d                	lui	t5,0x1b
 1e8:	6564                	flw	fs1,76(a0)
 1ea:	3d6c                	fld	fa1,248(a0)
 1ec:	656d                	lui	a0,0x1b
 1ee:	6c64                	flw	fs1,92(s0)
 1f0:	2d20776f          	jal	a4,74c2 <_STACK_SIZE-0x8b3e>
 1f4:	746d                	lui	s0,0xffffb
 1f6:	6e75                	lui	t3,0x1d
 1f8:	3d65                	jal	b0 <_STACK_SIZE-0xff50>
 1fa:	6f72                	flw	ft10,28(sp)
 1fc:	74656b63          	bltu	a0,t1,952 <_STACK_SIZE-0xf6ae>
 200:	2d20                	fld	fs0,88(a0)
 202:	616d                	addi	sp,sp,240
 204:	6372                	flw	ft6,28(sp)
 206:	3d68                	fld	fa0,248(a0)
 208:	7672                	flw	fa2,60(sp)
 20a:	20693233          	0x20693233
 20e:	6d2d                	lui	s10,0xb
 210:	6261                	lui	tp,0x18
 212:	3d69                	jal	ac <_STACK_SIZE-0xff54>
 214:	6c69                	lui	s8,0x1a
 216:	3370                	fld	fa2,224(a4)
 218:	2032                	fld	ft0,264(sp)
 21a:	6d2d                	lui	s10,0xb
 21c:	7261                	lui	tp,0xffff8
 21e:	723d6863          	bltu	s10,gp,94e <_STACK_SIZE-0xf6b2>
 222:	3376                	fld	ft6,376(sp)
 224:	6932                	flw	fs2,12(sp)
 226:	2d20                	fld	fs0,88(a0)
 228:	4f2d2067          	0x4f2d2067
 22c:	4f2d2073          	csrs	0x4f2,s10
 230:	2032                	fld	ft0,264(sp)
 232:	4f2d                	li	t5,11
 234:	662d2073          	csrs	0x662,s10
 238:	7562                	flw	fa0,56(sp)
 23a:	6c69                	lui	s8,0x1a
 23c:	6964                	flw	fs1,84(a0)
 23e:	676e                	flw	fa4,216(sp)
 240:	6c2d                	lui	s8,0xb
 242:	6269                	lui	tp,0x1a
 244:	20636367          	0x20636367
 248:	662d                	lui	a2,0xb
 24a:	6f6e                	flw	ft10,216(sp)
 24c:	732d                	lui	t1,0xfffeb
 24e:	6174                	flw	fa3,68(a0)
 250:	702d6b63          	bltu	s10,sp,966 <_STACK_SIZE-0xf69a>
 254:	6f72                	flw	ft10,28(sp)
 256:	6574                	flw	fa3,76(a0)
 258:	726f7463          	bgeu	t5,t1,980 <_STACK_SIZE-0xf680>
 25c:	2d20                	fld	fs0,88(a0)
 25e:	6566                	flw	fa0,88(sp)
 260:	6378                	flw	fa4,68(a4)
 262:	7065                	c.lui	zero,0xffff9
 264:	6974                	flw	fa3,84(a0)
 266:	20736e6f          	jal	t3,36c6c <_STACK_SIZE+0x26c6c>
 26a:	662d                	lui	a2,0xb
 26c:	6f6e                	flw	ft10,216(sp)
 26e:	2d6e                	fld	fs10,216(sp)
 270:	6c6c6163          	bltu	s8,t1,932 <_STACK_SIZE-0xf6ce>
 274:	652d                	lui	a0,0xb
 276:	6378                	flw	fa4,68(a4)
 278:	7065                	c.lui	zero,0xffff9
 27a:	6974                	flw	fa3,84(a0)
 27c:	20736e6f          	jal	t3,36c82 <_STACK_SIZE+0x26c82>
 280:	662d                	lui	a2,0xb
 282:	6976                	flw	fs2,92(sp)
 284:	69626973          	csrrsi	s2,0x696,4
 288:	696c                	flw	fa1,84(a0)
 28a:	7974                	flw	fa3,116(a0)
 28c:	683d                	lui	a6,0xf
 28e:	6469                	lui	s0,0x1a
 290:	6564                	flw	fs1,76(a0)
 292:	006e                	c.slli	zero,0x1b
 294:	5f5f 6d75 646f      	0x646f6d755f5f
 29a:	6964                	flw	fs1,84(a0)
 29c:	2e2e0033          	0x2e2e0033
 2a0:	2f2e2e2f          	0x2f2e2e2f
 2a4:	2e2e                	fld	ft8,200(sp)
 2a6:	722f2e2f          	0x722f2e2f
 2aa:	7369                	lui	t1,0xffffa
 2ac:	672d7663          	bgeu	s10,s2,918 <_STACK_SIZE-0xf6e8>
 2b0:	6c2f6363          	bltu	t5,sp,976 <_STACK_SIZE-0xf68a>
 2b4:	6269                	lui	tp,0x1a
 2b6:	2f636367          	0x2f636367
 2ba:	666e6f63          	bltu	t3,t1,938 <_STACK_SIZE-0xf6c8>
 2be:	6769                	lui	a4,0x1a
 2c0:	7369722f          	0x7369722f
 2c4:	6d2f7663          	bgeu	t5,s2,990 <_STACK_SIZE-0xf670>
 2c8:	6c75                	lui	s8,0x1d
 2ca:	6964                	flw	fs1,84(a0)
 2cc:	00532e33          	slt	t3,t1,t0
 2d0:	20554e47          	fmsub.s	ft8,fa0,ft5,ft4,rmm
 2d4:	5341                	li	t1,-16
 2d6:	3220                	fld	fs0,96(a2)
 2d8:	332e                	fld	ft6,232(sp)
 2da:	0035                	c.nop	13
 2dc:	2e2e                	fld	ft8,200(sp)
 2de:	2f2e2e2f          	0x2f2e2e2f
 2e2:	2e2e                	fld	ft8,200(sp)
 2e4:	722f2e2f          	0x722f2e2f
 2e8:	7369                	lui	t1,0xffffa
 2ea:	672d7663          	bgeu	s10,s2,956 <_STACK_SIZE-0xf6aa>
 2ee:	6c2f6363          	bltu	t5,sp,9b4 <_STACK_SIZE-0xf64c>
 2f2:	6269                	lui	tp,0x1a
 2f4:	2f636367          	0x2f636367
 2f8:	666e6f63          	bltu	t3,t1,976 <_STACK_SIZE-0xf68a>
 2fc:	6769                	lui	a4,0x1a
 2fe:	7369722f          	0x7369722f
 302:	642f7663          	bgeu	t5,sp,94e <_STACK_SIZE-0xf6b2>
 306:	7669                	lui	a2,0xffffa
 308:	532e                	lw	t1,232(sp)
 30a:	4700                	lw	s0,8(a4)
 30c:	554e                	lw	a0,240(sp)
 30e:	4320                	lw	s0,64(a4)
 310:	3731                	jal	21c <_STACK_SIZE-0xfde4>
 312:	3120                	fld	fs0,96(a0)
 314:	2e30                	fld	fa2,88(a2)
 316:	2e32                	fld	ft8,264(sp)
 318:	2030                	fld	fa2,64(s0)
 31a:	6d2d                	lui	s10,0xb
 31c:	646f6d63          	bltu	t5,t1,976 <_STACK_SIZE-0xf68a>
 320:	6c65                	lui	s8,0x19
 322:	6d3d                	lui	s10,0xf
 324:	6465                	lui	s0,0x19
 326:	6f6c                	flw	fa1,92(a4)
 328:	6d2d2077          	0x6d2d2077
 32c:	646f6d63          	bltu	t5,t1,986 <_STACK_SIZE-0xf67a>
 330:	6c65                	lui	s8,0x19
 332:	6d3d                	lui	s10,0xf
 334:	6465                	lui	s0,0x19
 336:	6f6c                	flw	fa1,92(a4)
 338:	6d2d2077          	0x6d2d2077
 33c:	7574                	flw	fa3,108(a0)
 33e:	656e                	flw	fa0,216(sp)
 340:	723d                	lui	tp,0xfffef
 342:	656b636f          	jal	t1,b6998 <_STACK_SIZE+0xa6998>
 346:	2074                	fld	fa3,192(s0)
 348:	6d2d                	lui	s10,0xb
 34a:	7261                	lui	tp,0xffff8
 34c:	723d6863          	bltu	s10,gp,a7c <_STACK_SIZE-0xf584>
 350:	3376                	fld	ft6,376(sp)
 352:	6932                	flw	fs2,12(sp)
 354:	2d20                	fld	fs0,88(a0)
 356:	616d                	addi	sp,sp,240
 358:	6962                	flw	fs2,24(sp)
 35a:	693d                	lui	s2,0xf
 35c:	706c                	flw	fa1,100(s0)
 35e:	2d203233          	0x2d203233
 362:	616d                	addi	sp,sp,240
 364:	6372                	flw	ft6,28(sp)
 366:	3d68                	fld	fa0,248(a0)
 368:	7672                	flw	fa2,60(sp)
 36a:	20693233          	0x20693233
 36e:	672d                	lui	a4,0xb
 370:	2d20                	fld	fs0,88(a0)
 372:	2d20734f          	0x2d20734f
 376:	2d20324f          	0x2d20324f
 37a:	2d20734f          	0x2d20734f
 37e:	6266                	flw	ft4,88(sp)
 380:	6975                	lui	s2,0x1d
 382:	646c                	flw	fa1,76(s0)
 384:	6e69                	lui	t3,0x1a
 386:	696c2d67          	0x696c2d67
 38a:	6762                	flw	fa4,24(sp)
 38c:	2d206363          	bltu	zero,s2,652 <_STACK_SIZE-0xf9ae>
 390:	6e66                	flw	ft8,88(sp)
 392:	74732d6f          	jal	s10,332d8 <_STACK_SIZE+0x232d8>
 396:	6361                	lui	t1,0x18
 398:	72702d6b          	0x72702d6b
 39c:	6365746f          	jal	s0,579d2 <_STACK_SIZE+0x479d2>
 3a0:	6f74                	flw	fa3,92(a4)
 3a2:	2072                	fld	ft0,280(sp)
 3a4:	662d                	lui	a2,0xb
 3a6:	6976                	flw	fs2,92(sp)
 3a8:	69626973          	csrrsi	s2,0x696,4
 3ac:	696c                	flw	fa1,84(a0)
 3ae:	7974                	flw	fa3,116(a0)
 3b0:	683d                	lui	a6,0xf
 3b2:	6469                	lui	s0,0x1a
 3b4:	6564                	flw	fs1,76(a0)
 3b6:	006e                	c.slli	zero,0x1b
