
aha-mont64.elf:     Dateiformat elf32-littleriscv


Disassembly of section .text.init:

80000000 <initSection>:
80000000:	000070b3          	and	x1,x0,x0
80000004:	00007133          	and	x2,x0,x0
80000008:	000071b3          	and	x3,x0,x0
8000000c:	00007233          	and	x4,x0,x0
80000010:	000072b3          	and	x5,x0,x0
80000014:	00007333          	and	x6,x0,x0
80000018:	000073b3          	and	x7,x0,x0
8000001c:	00007433          	and	x8,x0,x0
80000020:	000074b3          	and	x9,x0,x0
80000024:	00007533          	and	x10,x0,x0
80000028:	000075b3          	and	x11,x0,x0
8000002c:	00007633          	and	x12,x0,x0
80000030:	000076b3          	and	x13,x0,x0
80000034:	00007733          	and	x14,x0,x0
80000038:	000077b3          	and	x15,x0,x0
8000003c:	00007833          	and	x16,x0,x0
80000040:	000078b3          	and	x17,x0,x0
80000044:	00007933          	and	x18,x0,x0
80000048:	000079b3          	and	x19,x0,x0
8000004c:	00007a33          	and	x20,x0,x0
80000050:	00007ab3          	and	x21,x0,x0
80000054:	00007b33          	and	x22,x0,x0
80000058:	00007bb3          	and	x23,x0,x0
8000005c:	00007c33          	and	x24,x0,x0
80000060:	00007cb3          	and	x25,x0,x0
80000064:	00007d33          	and	x26,x0,x0
80000068:	00007db3          	and	x27,x0,x0
8000006c:	00007e33          	and	x28,x0,x0
80000070:	00007eb3          	and	x29,x0,x0
80000074:	00007f33          	and	x30,x0,x0
80000078:	00007fb3          	and	x31,x0,x0
8000007c:	00002117          	auipc	x2,0x2
80000080:	03410113          	addi	x2,x2,52 # 800020b0 <stack_end>
80000084:	7a4020ef          	jal	x1,80002828 <main>

80000088 <sys_end>:
80000088:	05d00893          	addi	x17,x0,93
8000008c:	00000513          	addi	x10,x0,0
80000090:	002012b7          	lui	x5,0x201
80000094:	f1402873          	csrrs	x16,mhartid,x0
80000098:	0102a023          	sw	x16,0(x5) # 201000 <SYSCALL_ADDR>
8000009c:	0112a023          	sw	x17,0(x5)
800000a0:	fe9ff06f          	jal	x0,80000088 <sys_end>
800000a4:	00000013          	addi	x0,x0,0
800000a8:	00000013          	addi	x0,x0,0
800000ac:	00000013          	addi	x0,x0,0

800000b0 <stack_begin>:
	...

800020b0 <stack_end>:
800020b0:	0000                	c.unimp
	...

Disassembly of section .text:

800020b4 <mulul64>:
800020b4:	fd010113          	addi	x2,x2,-48
800020b8:	01312e23          	sw	x19,28(x2)
800020bc:	01412c23          	sw	x20,24(x2)
800020c0:	00058993          	addi	x19,x11,0
800020c4:	00068a13          	addi	x20,x13,0
800020c8:	00000593          	addi	x11,x0,0
800020cc:	00000693          	addi	x13,x0,0
800020d0:	02112623          	sw	x1,44(x2)
800020d4:	02812423          	sw	x8,40(x2)
800020d8:	02912223          	sw	x9,36(x2)
800020dc:	03212023          	sw	x18,32(x2)
800020e0:	01512a23          	sw	x21,20(x2)
800020e4:	01612823          	sw	x22,16(x2)
800020e8:	01712623          	sw	x23,12(x2)
800020ec:	00078b13          	addi	x22,x15,0
800020f0:	00070a93          	addi	x21,x14,0
800020f4:	00050493          	addi	x9,x10,0
800020f8:	00060413          	addi	x8,x12,0
800020fc:	69c000ef          	jal	x1,80002798 <__muldi3>
80002100:	00050b93          	addi	x23,x10,0
80002104:	00040613          	addi	x12,x8,0
80002108:	00058913          	addi	x18,x11,0
8000210c:	00000693          	addi	x13,x0,0
80002110:	00098513          	addi	x10,x19,0
80002114:	00000593          	addi	x11,x0,0
80002118:	680000ef          	jal	x1,80002798 <__muldi3>
8000211c:	01250933          	add	x18,x10,x18
80002120:	00a93433          	sltu	x8,x18,x10
80002124:	00b40433          	add	x8,x8,x11
80002128:	000a0613          	addi	x12,x20,0
8000212c:	00000693          	addi	x13,x0,0
80002130:	00048513          	addi	x10,x9,0
80002134:	00000593          	addi	x11,x0,0
80002138:	660000ef          	jal	x1,80002798 <__muldi3>
8000213c:	01250933          	add	x18,x10,x18
80002140:	00a934b3          	sltu	x9,x18,x10
80002144:	00b484b3          	add	x9,x9,x11
80002148:	017b2023          	sw	x23,0(x22)
8000214c:	012b2223          	sw	x18,4(x22)
80002150:	000a0613          	addi	x12,x20,0
80002154:	00098513          	addi	x10,x19,0
80002158:	00000693          	addi	x13,x0,0
8000215c:	00000593          	addi	x11,x0,0
80002160:	638000ef          	jal	x1,80002798 <__muldi3>
80002164:	008507b3          	add	x15,x10,x8
80002168:	00a7b533          	sltu	x10,x15,x10
8000216c:	00b505b3          	add	x11,x10,x11
80002170:	00978533          	add	x10,x15,x9
80002174:	02c12083          	lw	x1,44(x2)
80002178:	02812403          	lw	x8,40(x2)
8000217c:	00f537b3          	sltu	x15,x10,x15
80002180:	00b787b3          	add	x15,x15,x11
80002184:	00aaa023          	sw	x10,0(x21)
80002188:	00faa223          	sw	x15,4(x21)
8000218c:	02412483          	lw	x9,36(x2)
80002190:	02012903          	lw	x18,32(x2)
80002194:	01c12983          	lw	x19,28(x2)
80002198:	01812a03          	lw	x20,24(x2)
8000219c:	01412a83          	lw	x21,20(x2)
800021a0:	01012b03          	lw	x22,16(x2)
800021a4:	00c12b83          	lw	x23,12(x2)
800021a8:	03010113          	addi	x2,x2,48
800021ac:	00008067          	jalr	x0,0(x1)

800021b0 <modul64>:
800021b0:	00000e13          	addi	x28,x0,0
800021b4:	04000e93          	addi	x29,x0,64
800021b8:	41f5d893          	srai	x17,x11,0x1f
800021bc:	01f55313          	srli	x6,x10,0x1f
800021c0:	00159813          	slli	x16,x11,0x1
800021c4:	00151513          	slli	x10,x10,0x1
800021c8:	01f6d593          	srli	x11,x13,0x1f
800021cc:	01036833          	or	x16,x6,x16
800021d0:	01f65f13          	srli	x30,x12,0x1f
800021d4:	00a5e533          	or	x10,x11,x10
800021d8:	00169313          	slli	x6,x13,0x1
800021dc:	006f6333          	or	x6,x30,x6
800021e0:	00a8ef33          	or	x30,x17,x10
800021e4:	0108e8b3          	or	x17,x17,x16
800021e8:	00080593          	addi	x11,x16,0
800021ec:	00161613          	slli	x12,x12,0x1
800021f0:	00030693          	addi	x13,x6,0
800021f4:	02f8e863          	bltu	x17,x15,80002224 <modul64+0x74>
800021f8:	01179463          	bne	x15,x17,80002200 <modul64+0x50>
800021fc:	02ef6463          	bltu	x30,x14,80002224 <modul64+0x74>
80002200:	40e506b3          	sub	x13,x10,x14
80002204:	00d535b3          	sltu	x11,x10,x13
80002208:	40f80833          	sub	x16,x16,x15
8000220c:	40b805b3          	sub	x11,x16,x11
80002210:	00160813          	addi	x16,x12,1
80002214:	00068513          	addi	x10,x13,0
80002218:	00c836b3          	sltu	x13,x16,x12
8000221c:	006686b3          	add	x13,x13,x6
80002220:	00080613          	addi	x12,x16,0
80002224:	001e0e13          	addi	x28,x28,1
80002228:	f9de18e3          	bne	x28,x29,800021b8 <modul64+0x8>
8000222c:	00008067          	jalr	x0,0(x1)

80002230 <montmul>:
80002230:	fc010113          	addi	x2,x2,-64
80002234:	02812c23          	sw	x8,56(x2)
80002238:	02912a23          	sw	x9,52(x2)
8000223c:	00078413          	addi	x8,x15,0
80002240:	00070493          	addi	x9,x14,0
80002244:	00810793          	addi	x15,x2,8
80002248:	00010713          	addi	x14,x2,0
8000224c:	02112e23          	sw	x1,60(x2)
80002250:	03212823          	sw	x18,48(x2)
80002254:	03312623          	sw	x19,44(x2)
80002258:	00088913          	addi	x18,x17,0
8000225c:	00080993          	addi	x19,x16,0
80002260:	e55ff0ef          	jal	x1,800020b4 <mulul64>
80002264:	00812603          	lw	x12,8(x2)
80002268:	00c12683          	lw	x13,12(x2)
8000226c:	00098513          	addi	x10,x19,0
80002270:	00090593          	addi	x11,x18,0
80002274:	524000ef          	jal	x1,80002798 <__muldi3>
80002278:	01810793          	addi	x15,x2,24
8000227c:	01010713          	addi	x14,x2,16
80002280:	00048613          	addi	x12,x9,0
80002284:	00040693          	addi	x13,x8,0
80002288:	e2dff0ef          	jal	x1,800020b4 <mulul64>
8000228c:	00812e03          	lw	x28,8(x2)
80002290:	01812703          	lw	x14,24(x2)
80002294:	00c12683          	lw	x13,12(x2)
80002298:	01c12603          	lw	x12,28(x2)
8000229c:	00ee0733          	add	x14,x28,x14
800022a0:	01c737b3          	sltu	x15,x14,x28
800022a4:	00c68633          	add	x12,x13,x12
800022a8:	01012883          	lw	x17,16(x2)
800022ac:	00c787b3          	add	x15,x15,x12
800022b0:	00012603          	lw	x12,0(x2)
800022b4:	00412303          	lw	x6,4(x2)
800022b8:	01412583          	lw	x11,20(x2)
800022bc:	011608b3          	add	x17,x12,x17
800022c0:	00c8b533          	sltu	x10,x17,x12
800022c4:	00b305b3          	add	x11,x6,x11
800022c8:	00b50533          	add	x10,x10,x11
800022cc:	00d7ea63          	bltu	x15,x13,800022e0 <montmul+0xb0>
800022d0:	00088593          	addi	x11,x17,0
800022d4:	00050813          	addi	x16,x10,0
800022d8:	00f69a63          	bne	x13,x15,800022ec <montmul+0xbc>
800022dc:	01c77863          	bgeu	x14,x28,800022ec <montmul+0xbc>
800022e0:	00188593          	addi	x11,x17,1
800022e4:	0115b833          	sltu	x16,x11,x17
800022e8:	00a80833          	add	x16,x16,x10
800022ec:	010348b3          	xor	x17,x6,x16
800022f0:	00b64533          	xor	x10,x12,x11
800022f4:	01156533          	or	x10,x10,x17
800022f8:	00153513          	sltiu	x10,x10,1
800022fc:	00100893          	addi	x17,x0,1
80002300:	00d7e863          	bltu	x15,x13,80002310 <montmul+0xe0>
80002304:	00f69463          	bne	x13,x15,8000230c <montmul+0xdc>
80002308:	01c76463          	bltu	x14,x28,80002310 <montmul+0xe0>
8000230c:	00000893          	addi	x17,x0,0
80002310:	01157533          	and	x10,x10,x17
80002314:	00100793          	addi	x15,x0,1
80002318:	00686863          	bltu	x16,x6,80002328 <montmul+0xf8>
8000231c:	01031463          	bne	x6,x16,80002324 <montmul+0xf4>
80002320:	00c5e463          	bltu	x11,x12,80002328 <montmul+0xf8>
80002324:	00000793          	addi	x15,x0,0
80002328:	00100713          	addi	x14,x0,1
8000232c:	00886663          	bltu	x16,x8,80002338 <montmul+0x108>
80002330:	01041663          	bne	x8,x16,8000233c <montmul+0x10c>
80002334:	0095f463          	bgeu	x11,x9,8000233c <montmul+0x10c>
80002338:	00000713          	addi	x14,x0,0
8000233c:	00e7e7b3          	or	x15,x15,x14
80002340:	00f56533          	or	x10,x10,x15
80002344:	0ff57513          	andi	x10,x10,255
80002348:	40a008b3          	sub	x17,x0,x10
8000234c:	03c12083          	lw	x1,60(x2)
80002350:	0098f733          	and	x14,x17,x9
80002354:	0088f7b3          	and	x15,x17,x8
80002358:	03812403          	lw	x8,56(x2)
8000235c:	40e58533          	sub	x10,x11,x14
80002360:	00a5b5b3          	sltu	x11,x11,x10
80002364:	40f807b3          	sub	x15,x16,x15
80002368:	03412483          	lw	x9,52(x2)
8000236c:	03012903          	lw	x18,48(x2)
80002370:	02c12983          	lw	x19,44(x2)
80002374:	40b785b3          	sub	x11,x15,x11
80002378:	04010113          	addi	x2,x2,64
8000237c:	00008067          	jalr	x0,0(x1)

80002380 <xbinGCD>:
80002380:	00050f13          	addi	x30,x10,0
80002384:	00058f93          	addi	x31,x11,0
80002388:	00000313          	addi	x6,x0,0
8000238c:	00000393          	addi	x7,x0,0
80002390:	00100813          	addi	x16,x0,1
80002394:	00000893          	addi	x17,x0,0
80002398:	01ff6e33          	or	x28,x30,x31
8000239c:	000e1c63          	bne	x28,x0,800023b4 <xbinGCD+0x34>
800023a0:	01072023          	sw	x16,0(x14)
800023a4:	01172223          	sw	x17,4(x14)
800023a8:	0067a023          	sw	x6,0(x15)
800023ac:	0077a223          	sw	x7,4(x15)
800023b0:	00008067          	jalr	x0,0(x1)
800023b4:	01ff9e13          	slli	x28,x31,0x1f
800023b8:	001f5f13          	srli	x30,x30,0x1
800023bc:	01ee6f33          	or	x30,x28,x30
800023c0:	0013de13          	srli	x28,x7,0x1
800023c4:	01f39293          	slli	x5,x7,0x1f
800023c8:	00135e93          	srli	x29,x6,0x1
800023cc:	000e0393          	addi	x7,x28,0
800023d0:	00187e13          	andi	x28,x16,1
800023d4:	001fdf93          	srli	x31,x31,0x1
800023d8:	01d2e333          	or	x6,x5,x29
800023dc:	000e1e63          	bne	x28,x0,800023f8 <xbinGCD+0x78>
800023e0:	01f89293          	slli	x5,x17,0x1f
800023e4:	00185e93          	srli	x29,x16,0x1
800023e8:	0018de13          	srli	x28,x17,0x1
800023ec:	01d2e833          	or	x16,x5,x29
800023f0:	000e0893          	addi	x17,x28,0
800023f4:	fa5ff06f          	jal	x0,80002398 <xbinGCD+0x18>
800023f8:	00d8ceb3          	xor	x29,x17,x13
800023fc:	00c84e33          	xor	x28,x16,x12
80002400:	01fe9293          	slli	x5,x29,0x1f
80002404:	001e5e13          	srli	x28,x28,0x1
80002408:	01c2ee33          	or	x28,x5,x28
8000240c:	00c872b3          	and	x5,x16,x12
80002410:	005e02b3          	add	x5,x28,x5
80002414:	00d8f833          	and	x16,x17,x13
80002418:	001ede93          	srli	x29,x29,0x1
8000241c:	01c2be33          	sltu	x28,x5,x28
80002420:	010e8eb3          	add	x29,x29,x16
80002424:	01de08b3          	add	x17,x28,x29
80002428:	00a30e33          	add	x28,x6,x10
8000242c:	00028813          	addi	x16,x5,0
80002430:	00b38eb3          	add	x29,x7,x11
80002434:	006e32b3          	sltu	x5,x28,x6
80002438:	01d283b3          	add	x7,x5,x29
8000243c:	000e0313          	addi	x6,x28,0
80002440:	f59ff06f          	jal	x0,80002398 <xbinGCD+0x18>

80002444 <benchmark_body>:
80002444:	f8010113          	addi	x2,x2,-128
80002448:	07212823          	sw	x18,112(x2)
8000244c:	07312623          	sw	x19,108(x2)
80002450:	05a12823          	sw	x26,80(x2)
80002454:	05b12623          	sw	x27,76(x2)
80002458:	00a12223          	sw	x10,4(x2)
8000245c:	06112e23          	sw	x1,124(x2)
80002460:	06812c23          	sw	x8,120(x2)
80002464:	06912a23          	sw	x9,116(x2)
80002468:	07412423          	sw	x20,104(x2)
8000246c:	07512223          	sw	x21,100(x2)
80002470:	07612023          	sw	x22,96(x2)
80002474:	05712e23          	sw	x23,92(x2)
80002478:	05812c23          	sw	x24,88(x2)
8000247c:	05912a23          	sw	x25,84(x2)
80002480:	00000513          	addi	x10,x0,0
80002484:	00000913          	addi	x18,x0,0
80002488:	800039b7          	lui	x19,0x80003
8000248c:	80003d37          	lui	x26,0x80003
80002490:	80003db7          	lui	x27,0x80003
80002494:	00412783          	lw	x15,4(x2)
80002498:	04f94063          	blt	x18,x15,800024d8 <benchmark_body+0x94>
8000249c:	07c12083          	lw	x1,124(x2)
800024a0:	07812403          	lw	x8,120(x2)
800024a4:	07412483          	lw	x9,116(x2)
800024a8:	07012903          	lw	x18,112(x2)
800024ac:	06c12983          	lw	x19,108(x2)
800024b0:	06812a03          	lw	x20,104(x2)
800024b4:	06412a83          	lw	x21,100(x2)
800024b8:	06012b03          	lw	x22,96(x2)
800024bc:	05c12b83          	lw	x23,92(x2)
800024c0:	05812c03          	lw	x24,88(x2)
800024c4:	05412c83          	lw	x25,84(x2)
800024c8:	05012d03          	lw	x26,80(x2)
800024cc:	04c12d83          	lw	x27,76(x2)
800024d0:	08010113          	addi	x2,x2,128
800024d4:	00008067          	jalr	x0,0(x1)
800024d8:	890dab03          	lw	x22,-1904(x27) # 80002890 <_end+0xfffffff0>
800024dc:	894dab83          	lw	x23,-1900(x27)
800024e0:	888d2a03          	lw	x20,-1912(x26) # 80002888 <_end+0xffffffe8>
800024e4:	88cd2a83          	lw	x21,-1908(x26)
800024e8:	000b0513          	addi	x10,x22,0
800024ec:	000b8593          	addi	x11,x23,0
800024f0:	01810793          	addi	x15,x2,24
800024f4:	01010713          	addi	x14,x2,16
800024f8:	000a0613          	addi	x12,x20,0
800024fc:	000a8693          	addi	x13,x21,0
80002500:	8809a403          	lw	x8,-1920(x19) # 80002880 <_end+0xffffffe0>
80002504:	8849a483          	lw	x9,-1916(x19)
80002508:	badff0ef          	jal	x1,800020b4 <mulul64>
8000250c:	01812603          	lw	x12,24(x2)
80002510:	01c12683          	lw	x13,28(x2)
80002514:	01012503          	lw	x10,16(x2)
80002518:	01412583          	lw	x11,20(x2)
8000251c:	00040713          	addi	x14,x8,0
80002520:	00048793          	addi	x15,x9,0
80002524:	c8dff0ef          	jal	x1,800021b0 <modul64>
80002528:	00050613          	addi	x12,x10,0
8000252c:	00058693          	addi	x13,x11,0
80002530:	01810793          	addi	x15,x2,24
80002534:	01010713          	addi	x14,x2,16
80002538:	b7dff0ef          	jal	x1,800020b4 <mulul64>
8000253c:	01812603          	lw	x12,24(x2)
80002540:	01c12683          	lw	x13,28(x2)
80002544:	01012503          	lw	x10,16(x2)
80002548:	01412583          	lw	x11,20(x2)
8000254c:	00040713          	addi	x14,x8,0
80002550:	00048793          	addi	x15,x9,0
80002554:	c5dff0ef          	jal	x1,800021b0 <modul64>
80002558:	00050613          	addi	x12,x10,0
8000255c:	00058693          	addi	x13,x11,0
80002560:	01810793          	addi	x15,x2,24
80002564:	01010713          	addi	x14,x2,16
80002568:	b4dff0ef          	jal	x1,800020b4 <mulul64>
8000256c:	01812603          	lw	x12,24(x2)
80002570:	01c12683          	lw	x13,28(x2)
80002574:	01012503          	lw	x10,16(x2)
80002578:	01412583          	lw	x11,20(x2)
8000257c:	00040713          	addi	x14,x8,0
80002580:	00048793          	addi	x15,x9,0
80002584:	c2dff0ef          	jal	x1,800021b0 <modul64>
80002588:	00a12623          	sw	x10,12(x2)
8000258c:	00b12423          	sw	x11,8(x2)
80002590:	03810793          	addi	x15,x2,56
80002594:	03010713          	addi	x14,x2,48
80002598:	00040613          	addi	x12,x8,0
8000259c:	00048693          	addi	x13,x9,0
800025a0:	00000513          	addi	x10,x0,0
800025a4:	800005b7          	lui	x11,0x80000
800025a8:	dd9ff0ef          	jal	x1,80002380 <xbinGCD>
800025ac:	03012703          	lw	x14,48(x2)
800025b0:	03412783          	lw	x15,52(x2)
800025b4:	00040713          	addi	x14,x8,0
800025b8:	00048793          	addi	x15,x9,0
800025bc:	00000613          	addi	x12,x0,0
800025c0:	00000693          	addi	x13,x0,0
800025c4:	000b0513          	addi	x10,x22,0
800025c8:	000b8593          	addi	x11,x23,0
800025cc:	be5ff0ef          	jal	x1,800021b0 <modul64>
800025d0:	00050b93          	addi	x23,x10,0
800025d4:	00058b13          	addi	x22,x11,0 # 80000000 <_end+0xffffd760>
800025d8:	00040713          	addi	x14,x8,0
800025dc:	00048793          	addi	x15,x9,0
800025e0:	00000613          	addi	x12,x0,0
800025e4:	00000693          	addi	x13,x0,0
800025e8:	000a0513          	addi	x10,x20,0
800025ec:	000a8593          	addi	x11,x21,0
800025f0:	bc1ff0ef          	jal	x1,800021b0 <modul64>
800025f4:	03812c03          	lw	x24,56(x2)
800025f8:	03c12c83          	lw	x25,60(x2)
800025fc:	03812803          	lw	x16,56(x2)
80002600:	03c12883          	lw	x17,60(x2)
80002604:	00050613          	addi	x12,x10,0
80002608:	00058693          	addi	x13,x11,0
8000260c:	00040713          	addi	x14,x8,0
80002610:	00048793          	addi	x15,x9,0
80002614:	000b8513          	addi	x10,x23,0
80002618:	000b0593          	addi	x11,x22,0
8000261c:	c15ff0ef          	jal	x1,80002230 <montmul>
80002620:	03812803          	lw	x16,56(x2)
80002624:	03c12883          	lw	x17,60(x2)
80002628:	00050613          	addi	x12,x10,0
8000262c:	00058693          	addi	x13,x11,0
80002630:	00040713          	addi	x14,x8,0
80002634:	00048793          	addi	x15,x9,0
80002638:	bf9ff0ef          	jal	x1,80002230 <montmul>
8000263c:	03812803          	lw	x16,56(x2)
80002640:	03c12883          	lw	x17,60(x2)
80002644:	00050613          	addi	x12,x10,0
80002648:	00058693          	addi	x13,x11,0
8000264c:	00040713          	addi	x14,x8,0
80002650:	00048793          	addi	x15,x9,0
80002654:	bddff0ef          	jal	x1,80002230 <montmul>
80002658:	03012603          	lw	x12,48(x2)
8000265c:	03412683          	lw	x13,52(x2)
80002660:	02810793          	addi	x15,x2,40
80002664:	02010713          	addi	x14,x2,32
80002668:	a4dff0ef          	jal	x1,800020b4 <mulul64>
8000266c:	02812603          	lw	x12,40(x2)
80002670:	02c12683          	lw	x13,44(x2)
80002674:	02012503          	lw	x10,32(x2)
80002678:	02412583          	lw	x11,36(x2)
8000267c:	00040713          	addi	x14,x8,0
80002680:	00048793          	addi	x15,x9,0
80002684:	b2dff0ef          	jal	x1,800021b0 <modul64>
80002688:	00c12e83          	lw	x29,12(x2)
8000268c:	00812e03          	lw	x28,8(x2)
80002690:	04ae9063          	bne	x29,x10,800026d0 <benchmark_body+0x28c>
80002694:	02be1e63          	bne	x28,x11,800026d0 <benchmark_body+0x28c>
80002698:	00040613          	addi	x12,x8,0
8000269c:	00048693          	addi	x13,x9,0
800026a0:	000c0513          	addi	x10,x24,0
800026a4:	000c8593          	addi	x11,x25,0
800026a8:	0f0000ef          	jal	x1,80002798 <__muldi3>
800026ac:	40a007b3          	sub	x15,x0,x10
800026b0:	40b005b3          	sub	x11,x0,x11
800026b4:	00a03533          	sltu	x10,x0,x10
800026b8:	40a585b3          	sub	x11,x11,x10
800026bc:	0017c513          	xori	x10,x15,1
800026c0:	00b56533          	or	x10,x10,x11
800026c4:	00a03533          	sltu	x10,x0,x10
800026c8:	00190913          	addi	x18,x18,1
800026cc:	dc9ff06f          	jal	x0,80002494 <benchmark_body+0x50>
800026d0:	00100513          	addi	x10,x0,1
800026d4:	ff5ff06f          	jal	x0,800026c8 <benchmark_body+0x284>

800026d8 <warm_caches>:
800026d8:	d6dff06f          	jal	x0,80002444 <benchmark_body>

800026dc <benchmark>:
800026dc:	1a700513          	addi	x10,x0,423
800026e0:	d65ff06f          	jal	x0,80002444 <benchmark_body>

800026e4 <initialise_benchmark>:
800026e4:	80003737          	lui	x14,0x80003
800026e8:	86872603          	lw	x12,-1944(x14) # 80002868 <_end+0xffffffc8>
800026ec:	86c72683          	lw	x13,-1940(x14)
800026f0:	800037b7          	lui	x15,0x80003
800026f4:	80003737          	lui	x14,0x80003
800026f8:	88c7a023          	sw	x12,-1920(x15) # 80002880 <_end+0xffffffe0>
800026fc:	88d7a223          	sw	x13,-1916(x15)
80002700:	87072603          	lw	x12,-1936(x14) # 80002870 <_end+0xffffffd0>
80002704:	87472683          	lw	x13,-1932(x14)
80002708:	800037b7          	lui	x15,0x80003
8000270c:	80003737          	lui	x14,0x80003
80002710:	88c7a423          	sw	x12,-1912(x15) # 80002888 <_end+0xffffffe8>
80002714:	88d7a623          	sw	x13,-1908(x15)
80002718:	87872603          	lw	x12,-1928(x14) # 80002878 <_end+0xffffffd8>
8000271c:	87c72683          	lw	x13,-1924(x14)
80002720:	800037b7          	lui	x15,0x80003
80002724:	88c7a823          	sw	x12,-1904(x15) # 80002890 <_end+0xfffffff0>
80002728:	88d7aa23          	sw	x13,-1900(x15)
8000272c:	00008067          	jalr	x0,0(x1)

80002730 <verify_benchmark>:
80002730:	00153513          	sltiu	x10,x10,1
80002734:	00008067          	jalr	x0,0(x1)

80002738 <initialise_board>:
80002738:	00000513          	addi	x10,x0,0
8000273c:	00008067          	jalr	x0,0(x1)

80002740 <start_trigger>:
80002740:	00000513          	addi	x10,x0,0
80002744:	deadc2b7          	lui	x5,0xdeadc
80002748:	eef28293          	addi	x5,x5,-273 # deadbeef <_end+0x5ead964f>
8000274c:	00008067          	jalr	x0,0(x1)

80002750 <stop_trigger>:
80002750:	beefe2b7          	lui	x5,0xbeefe
80002754:	ead28293          	addi	x5,x5,-339 # beefdead <_end+0x3eefb60d>
80002758:	05d00893          	addi	x17,x0,93
8000275c:	00000513          	addi	x10,x0,0
80002760:	020102b7          	lui	x5,0x2010
80002764:	f1402873          	csrrs	x16,mhartid,x0
80002768:	0102a023          	sw	x16,0(x5) # 2010000 <SYSCALL_ADDR+0x1e0f000>
8000276c:	0112a023          	sw	x17,0(x5)
80002770:	00008067          	jalr	x0,0(x1)

80002774 <__mulsi3>:
80002774:	00050613          	addi	x12,x10,0
80002778:	00000513          	addi	x10,x0,0
8000277c:	0015f693          	andi	x13,x11,1
80002780:	00068463          	beq	x13,x0,80002788 <__mulsi3+0x14>
80002784:	00c50533          	add	x10,x10,x12
80002788:	0015d593          	srli	x11,x11,0x1
8000278c:	00161613          	slli	x12,x12,0x1
80002790:	fe0596e3          	bne	x11,x0,8000277c <__mulsi3+0x8>
80002794:	00008067          	jalr	x0,0(x1)

80002798 <__muldi3>:
80002798:	00050313          	addi	x6,x10,0
8000279c:	ff010113          	addi	x2,x2,-16
800027a0:	00060513          	addi	x10,x12,0
800027a4:	00068893          	addi	x17,x13,0
800027a8:	00112623          	sw	x1,12(x2)
800027ac:	00030613          	addi	x12,x6,0
800027b0:	00050693          	addi	x13,x10,0
800027b4:	00000713          	addi	x14,x0,0
800027b8:	00000793          	addi	x15,x0,0
800027bc:	00000813          	addi	x16,x0,0
800027c0:	0016fe13          	andi	x28,x13,1
800027c4:	00171e93          	slli	x29,x14,0x1
800027c8:	000e0c63          	beq	x28,x0,800027e0 <__muldi3+0x48>
800027cc:	01060e33          	add	x28,x12,x16
800027d0:	010e3833          	sltu	x16,x28,x16
800027d4:	00e787b3          	add	x15,x15,x14
800027d8:	00f807b3          	add	x15,x16,x15
800027dc:	000e0813          	addi	x16,x28,0
800027e0:	01f65713          	srli	x14,x12,0x1f
800027e4:	0016d693          	srli	x13,x13,0x1
800027e8:	00eee733          	or	x14,x29,x14
800027ec:	00161613          	slli	x12,x12,0x1
800027f0:	fc0698e3          	bne	x13,x0,800027c0 <__muldi3+0x28>
800027f4:	00058663          	beq	x11,x0,80002800 <__muldi3+0x68>
800027f8:	f7dff0ef          	jal	x1,80002774 <__mulsi3>
800027fc:	00a787b3          	add	x15,x15,x10
80002800:	00088a63          	beq	x17,x0,80002814 <__muldi3+0x7c>
80002804:	00030513          	addi	x10,x6,0
80002808:	00088593          	addi	x11,x17,0
8000280c:	f69ff0ef          	jal	x1,80002774 <__mulsi3>
80002810:	00f507b3          	add	x15,x10,x15
80002814:	00c12083          	lw	x1,12(x2)
80002818:	00080513          	addi	x10,x16,0
8000281c:	00078593          	addi	x11,x15,0
80002820:	01010113          	addi	x2,x2,16
80002824:	00008067          	jalr	x0,0(x1)

Disassembly of section .text.startup:

80002828 <main>:
80002828:	fe010113          	addi	x2,x2,-32
8000282c:	00112e23          	sw	x1,28(x2)
80002830:	f09ff0ef          	jal	x1,80002738 <initialise_board>
80002834:	eb1ff0ef          	jal	x1,800026e4 <initialise_benchmark>
80002838:	00100513          	addi	x10,x0,1
8000283c:	e9dff0ef          	jal	x1,800026d8 <warm_caches>
80002840:	f01ff0ef          	jal	x1,80002740 <start_trigger>
80002844:	e99ff0ef          	jal	x1,800026dc <benchmark>
80002848:	00a12623          	sw	x10,12(x2)
8000284c:	f05ff0ef          	jal	x1,80002750 <stop_trigger>
80002850:	00c12503          	lw	x10,12(x2)
80002854:	eddff0ef          	jal	x1,80002730 <verify_benchmark>
80002858:	01c12083          	lw	x1,28(x2)
8000285c:	00153513          	sltiu	x10,x10,1
80002860:	02010113          	addi	x2,x2,32
80002864:	00008067          	jalr	x0,0(x1)

Disassembly of section .srodata.cst8:

80002868 <.srodata.cst8>:
80002868:	f89f 3928 4927      	0x49273928f89f
8000286e:	fae8                	c.fsw	f10,116(x13)
80002870:	b9330573          	0xb9330573
80002874:	14736def          	jal	x27,800391ba <_end+0x3691a>
80002878:	87237fef          	jal	x31,7ff398ea <SYSCALL_ADDR+0x7fd388ea>
8000287c:	3721                	c.jal	80002784 <__mulsi3+0x10>
8000287e:	0549                	c.addi	x10,18

Disassembly of section .sbss:

80002880 <in_m>:
	...

80002888 <in_b>:
	...

80002890 <in_a>:
	...

Disassembly of section .comment:

00000000 <.comment>:
   0:	3a434347          	fmsub.d	f6,f6,f4,f7,rmm
   4:	2820                	c.fld	f8,80(x8)
   6:	39336367          	0x39336367
   a:	3131                	c.jal	fffffc16 <_end+0x7fffd376>
   c:	3665                	c.jal	fffffbb4 <_end+0x7fffd314>
   e:	3234                	c.fld	f13,96(x12)
  10:	6635                	c.lui	x12,0xd
  12:	2029                	c.jal	1c <SYSCALL_ADDR-0x200fe4>
  14:	3031                	c.jal	fffff820 <_end+0x7fffcf80>
  16:	322e                	c.fldsp	f4,232(x2)
  18:	302e                	c.fldsp	f0,232(x2)
	...

Disassembly of section .riscv.attributes:

00000000 <.riscv.attributes>:
   0:	1f41                	c.addi	x30,-16
   2:	0000                	c.unimp
   4:	7200                	c.flw	f8,32(x12)
   6:	7369                	c.lui	x6,0xffffa
   8:	01007663          	bgeu	x0,x16,14 <SYSCALL_ADDR-0x200fec>
   c:	0015                	c.addi	x0,5
   e:	0000                	c.unimp
  10:	1004                	c.addi4spn	x9,x2,32
  12:	7205                	c.lui	x4,0xfffe1
  14:	3376                	c.fldsp	f6,376(x2)
  16:	6932                	c.flwsp	f18,12(x2)
  18:	7032                	c.flwsp	f0,44(x2)
  1a:	0030                	c.addi4spn	x12,x2,8
  1c:	0108                	c.addi4spn	x10,x2,128
  1e:	0b0a                	c.slli	x22,0x2

Disassembly of section .debug_line:

00000000 <.debug_line>:
   0:	0094                	c.addi4spn	x13,x2,64
   2:	0000                	c.unimp
   4:	004e0003          	lb	x0,4(x28)
   8:	0000                	c.unimp
   a:	0101                	c.addi	x2,0
   c:	000d0efb          	0xd0efb
  10:	0101                	c.addi	x2,0
  12:	0101                	c.addi	x2,0
  14:	0000                	c.unimp
  16:	0100                	c.addi4spn	x8,x2,128
  18:	0000                	c.unimp
  1a:	2e01                	c.jal	32a <SYSCALL_ADDR-0x200cd6>
  1c:	2f2e                	c.fldsp	f30,200(x2)
  1e:	2e2e                	c.fldsp	f28,200(x2)
  20:	2f2e2e2f          	0x2f2e2e2f
  24:	2e2e                	c.fldsp	f28,200(x2)
  26:	2f2e2e2f          	0x2f2e2e2f
  2a:	2f2e                	c.fldsp	f30,200(x2)
  2c:	6972                	c.flwsp	f18,28(x2)
  2e:	2d766373          	csrrsi	x6,0x2d7,12
  32:	2f636367          	0x2f636367
  36:	696c                	c.flw	f11,84(x10)
  38:	6762                	c.flwsp	f14,24(x2)
  3a:	632f6363          	bltu	x30,x18,660 <SYSCALL_ADDR-0x2009a0>
  3e:	69666e6f          	jal	x28,666d4 <SYSCALL_ADDR-0x19a92c>
  42:	69722f67          	0x69722f67
  46:	00766373          	csrrsi	x6,0x7,12
  4a:	6d00                	c.flw	f8,24(x10)
  4c:	6c75                	c.lui	x24,0x1d
  4e:	6964                	c.flw	f9,84(x10)
  50:	00532e33          	slt	x28,x6,x5
  54:	0001                	c.addi	x0,0
  56:	0000                	c.unimp
  58:	0500                	c.addi4spn	x8,x2,640
  5a:	7402                	c.flwsp	f8,32(x2)
  5c:	03800027          	0x3800027
  60:	0124                	c.addi4spn	x9,x2,136
  62:	04090103          	lb	x2,64(x18)
  66:	0100                	c.addi4spn	x8,x2,128
  68:	04090203          	lb	x4,64(x18)
  6c:	0100                	c.addi4spn	x8,x2,128
  6e:	04090103          	lb	x2,64(x18)
  72:	0100                	c.addi4spn	x8,x2,128
  74:	04090103          	lb	x2,64(x18)
  78:	0100                	c.addi4spn	x8,x2,128
  7a:	04090203          	lb	x4,64(x18)
  7e:	0100                	c.addi4spn	x8,x2,128
  80:	04090103          	lb	x2,64(x18)
  84:	0100                	c.addi4spn	x8,x2,128
  86:	04090103          	lb	x2,64(x18)
  8a:	0100                	c.addi4spn	x8,x2,128
  8c:	04090103          	lb	x2,64(x18)
  90:	0100                	c.addi4spn	x8,x2,128
  92:	0409                	c.addi	x8,2
  94:	0000                	c.unimp
  96:	0101                	c.addi	x2,0
  98:	0272                	c.slli	x4,0x1c
  9a:	0000                	c.unimp
  9c:	007d0003          	lb	x0,7(x26)
  a0:	0000                	c.unimp
  a2:	0101                	c.addi	x2,0
  a4:	000d0efb          	0xd0efb
  a8:	0101                	c.addi	x2,0
  aa:	0101                	c.addi	x2,0
  ac:	0000                	c.unimp
  ae:	0100                	c.addi4spn	x8,x2,128
  b0:	0000                	c.unimp
  b2:	2e01                	c.jal	3c2 <SYSCALL_ADDR-0x200c3e>
  b4:	2f2e                	c.fldsp	f30,200(x2)
  b6:	2e2e                	c.fldsp	f28,200(x2)
  b8:	2f2e2e2f          	0x2f2e2e2f
  bc:	2e2e                	c.fldsp	f28,200(x2)
  be:	2f2e2e2f          	0x2f2e2e2f
  c2:	2f2e                	c.fldsp	f30,200(x2)
  c4:	6972                	c.flwsp	f18,28(x2)
  c6:	2d766373          	csrrsi	x6,0x2d7,12
  ca:	2f636367          	0x2f636367
  ce:	696c                	c.flw	f11,84(x10)
  d0:	6762                	c.flwsp	f14,24(x2)
  d2:	632f6363          	bltu	x30,x18,6f8 <SYSCALL_ADDR-0x200908>
  d6:	69666e6f          	jal	x28,6676c <SYSCALL_ADDR-0x19a894>
  da:	69722f67          	0x69722f67
  de:	00766373          	csrrsi	x6,0x7,12
  e2:	2e2e                	c.fldsp	f28,200(x2)
  e4:	2f2e2e2f          	0x2f2e2e2f
  e8:	2e2e                	c.fldsp	f28,200(x2)
  ea:	2f2e2e2f          	0x2f2e2e2f
  ee:	2e2e                	c.fldsp	f28,200(x2)
  f0:	722f2e2f          	0x722f2e2f
  f4:	7369                	c.lui	x6,0xffffa
  f6:	672d7663          	bgeu	x26,x18,762 <SYSCALL_ADDR-0x20089e>
  fa:	6c2f6363          	bltu	x30,x2,7c0 <SYSCALL_ADDR-0x200840>
  fe:	6269                	c.lui	x4,0x1a
 100:	00636367          	0x636367
 104:	6d00                	c.flw	f8,24(x10)
 106:	6c75                	c.lui	x24,0x1d
 108:	6974                	c.flw	f13,84(x10)
 10a:	00632e33          	slt	x28,x6,x6
 10e:	0001                	c.addi	x0,0
 110:	6c00                	c.flw	f8,24(x8)
 112:	6269                	c.lui	x4,0x1a
 114:	32636367          	0x32636367
 118:	682e                	c.flwsp	f16,200(x2)
 11a:	0200                	c.addi4spn	x8,x2,256
 11c:	0000                	c.unimp
 11e:	0500                	c.addi4spn	x8,x2,640
 120:	0001                	c.addi	x0,0
 122:	0205                	c.addi	x4,1
 124:	2798                	c.fld	f14,8(x15)
 126:	8000                	0x8000
 128:	05012903          	lw	x18,80(x2)
 12c:	09010303          	lb	x6,144(x2)
 130:	0000                	c.unimp
 132:	0301                	c.addi	x6,0
 134:	0901                	c.addi	x18,0
 136:	0000                	c.unimp
 138:	0301                	c.addi	x6,0
 13a:	0901                	c.addi	x18,0
 13c:	0000                	c.unimp
 13e:	0301                	c.addi	x6,0
 140:	0901                	c.addi	x18,0
 142:	0000                	c.unimp
 144:	0501                	c.addi	x10,0
 146:	0601                	c.addi	x12,0
 148:	00097c03          	0x97c03
 14c:	0100                	c.addi4spn	x8,x2,128
 14e:	0a05                	c.addi	x20,1
 150:	14090403          	lb	x8,320(x18)
 154:	0100                	c.addi4spn	x8,x2,128
 156:	0305                	c.addi	x6,1
 158:	0306                	c.slli	x6,0x1
 15a:	0901                	c.addi	x18,0
 15c:	0004                	0x4
 15e:	0301                	c.addi	x6,0
 160:	0901                	c.addi	x18,0
 162:	0000                	c.unimp
 164:	0301                	c.addi	x6,0
 166:	0901                	c.addi	x18,0
 168:	0000                	c.unimp
 16a:	0301                	c.addi	x6,0
 16c:	0901                	c.addi	x18,0
 16e:	0000                	c.unimp
 170:	0301                	c.addi	x6,0
 172:	0901                	c.addi	x18,0
 174:	0000                	c.unimp
 176:	0301                	c.addi	x6,0
 178:	0901                	c.addi	x18,0
 17a:	0000                	c.unimp
 17c:	0501                	c.addi	x10,0
 17e:	060a                	c.slli	x12,0x2
 180:	00097b03          	0x97b03
 184:	0100                	c.addi4spn	x8,x2,128
 186:	04090503          	lb	x10,64(x18)
 18a:	0100                	c.addi4spn	x8,x2,128
 18c:	04097f03          	0x4097f03
 190:	0100                	c.addi4spn	x8,x2,128
 192:	04097e03          	0x4097e03
 196:	0100                	c.addi4spn	x8,x2,128
 198:	0305                	c.addi	x6,1
 19a:	0306                	c.slli	x6,0x1
 19c:	0904                	c.addi4spn	x9,x2,144
 19e:	0004                	0x4
 1a0:	0301                	c.addi	x6,0
 1a2:	0901                	c.addi	x18,0
 1a4:	0000                	c.unimp
 1a6:	0301                	c.addi	x6,0
 1a8:	0904                	c.addi4spn	x9,x2,144
 1aa:	0000                	c.unimp
 1ac:	0501                	c.addi	x10,0
 1ae:	09020307          	0x9020307
 1b2:	0000                	c.unimp
 1b4:	0301                	c.addi	x6,0
 1b6:	0901                	c.addi	x18,0
 1b8:	0000                	c.unimp
 1ba:	0501                	c.addi	x10,0
 1bc:	0611                	c.addi	x12,4
 1be:	00090203          	lb	x4,0(x18)
 1c2:	0100                	c.addi4spn	x8,x2,128
 1c4:	1405                	c.addi	x8,-31
 1c6:	04097e03          	0x4097e03
 1ca:	0100                	c.addi4spn	x8,x2,128
 1cc:	0705                	c.addi	x14,1
 1ce:	0306                	c.slli	x6,0x1
 1d0:	0901                	c.addi	x18,0
 1d2:	0004                	0x4
 1d4:	0301                	c.addi	x6,0
 1d6:	0901                	c.addi	x18,0
 1d8:	0000                	c.unimp
 1da:	0501                	c.addi	x10,0
 1dc:	060a                	c.slli	x12,0x2
 1de:	00090003          	lb	x0,0(x18)
 1e2:	0100                	c.addi4spn	x8,x2,128
 1e4:	1105                	c.addi	x2,-31
 1e6:	04097d03          	0x4097d03
 1ea:	0100                	c.addi4spn	x8,x2,128
 1ec:	0405                	c.addi	x8,1
 1ee:	0306                	c.slli	x6,0x1
 1f0:	0905                	c.addi	x18,1
 1f2:	0004                	0x4
 1f4:	0301                	c.addi	x6,0
 1f6:	0901                	c.addi	x18,0
 1f8:	0000                	c.unimp
 1fa:	0301                	c.addi	x6,0
 1fc:	0901                	c.addi	x18,0
 1fe:	0000                	c.unimp
 200:	0501                	c.addi	x10,0
 202:	0616                	c.slli	x12,0x5
 204:	00097e03          	0x97e03
 208:	0100                	c.addi4spn	x8,x2,128
 20a:	1205                	c.addi	x4,-31
 20c:	04097d03          	0x4097d03
 210:	0100                	c.addi4spn	x8,x2,128
 212:	0b05                	c.addi	x22,1
 214:	04090503          	lb	x10,64(x18)
 218:	0100                	c.addi4spn	x8,x2,128
 21a:	0a05                	c.addi	x20,1
 21c:	04097f03          	0x4097f03
 220:	0100                	c.addi4spn	x8,x2,128
 222:	0705                	c.addi	x14,1
 224:	0306                	c.slli	x6,0x1
 226:	00040903          	lb	x18,0(x8)
 22a:	0501                	c.addi	x10,0
 22c:	0611                	c.addi	x12,4
 22e:	00090003          	lb	x0,0(x18)
 232:	0100                	c.addi4spn	x8,x2,128
 234:	0705                	c.addi	x14,1
 236:	0306                	c.slli	x6,0x1
 238:	0901                	c.addi	x18,0
 23a:	0004                	0x4
 23c:	0501                	c.addi	x10,0
 23e:	060d                	c.addi	x12,3
 240:	00090003          	lb	x0,0(x18)
 244:	0100                	c.addi4spn	x8,x2,128
 246:	0705                	c.addi	x14,1
 248:	0306                	c.slli	x6,0x1
 24a:	0901                	c.addi	x18,0
 24c:	0004                	0x4
 24e:	0301                	c.addi	x6,0
 250:	0901                	c.addi	x18,0
 252:	0000                	c.unimp
 254:	0501                	c.addi	x10,0
 256:	0612                	c.slli	x12,0x4
 258:	00090003          	lb	x0,0(x18)
 25c:	0100                	c.addi4spn	x8,x2,128
 25e:	0905                	c.addi	x18,1
 260:	0306                	c.slli	x6,0x1
 262:	0902                	c.slli64	x18
 264:	0008                	0x8
 266:	0501                	c.addi	x10,0
 268:	00030603          	lb	x12,0(x6) # ffffa000 <_end+0x7fff7760>
 26c:	0009                	c.addi	x0,2
 26e:	0100                	c.addi4spn	x8,x2,128
 270:	0306                	c.slli	x6,0x1
 272:	0902                	c.slli64	x18
 274:	0004                	0x4
 276:	0301                	c.addi	x6,0
 278:	0901                	c.addi	x18,0
 27a:	0000                	c.unimp
 27c:	0301                	c.addi	x6,0
 27e:	0902                	c.slli64	x18
 280:	0000                	c.unimp
 282:	0501                	c.addi	x10,0
 284:	0606                	c.slli	x12,0x1
 286:	00090003          	lb	x0,0(x18)
 28a:	0100                	c.addi4spn	x8,x2,128
 28c:	0505                	c.addi	x10,1
 28e:	0306                	c.slli	x6,0x1
 290:	0901                	c.addi	x18,0
 292:	0004                	0x4
 294:	0501                	c.addi	x10,0
 296:	0900031b          	0x900031b
 29a:	0000                	c.unimp
 29c:	0301                	c.addi	x6,0
 29e:	0900                	c.addi4spn	x8,x2,144
 2a0:	0000                	c.unimp
 2a2:	0301                	c.addi	x6,0
 2a4:	0900                	c.addi4spn	x8,x2,144
 2a6:	0000                	c.unimp
 2a8:	0301                	c.addi	x6,0
 2aa:	0900                	c.addi4spn	x8,x2,144
 2ac:	0004                	0x4
 2ae:	0501                	c.addi	x10,0
 2b0:	0619                	c.addi	x12,6
 2b2:	00090003          	lb	x0,0(x18)
 2b6:	0100                	c.addi4spn	x8,x2,128
 2b8:	0305                	c.addi	x6,1
 2ba:	0306                	c.slli	x6,0x1
 2bc:	0902                	c.slli64	x18
 2be:	0004                	0x4
 2c0:	0501                	c.addi	x10,0
 2c2:	0606                	c.slli	x12,0x1
 2c4:	00090003          	lb	x0,0(x18)
 2c8:	0100                	c.addi4spn	x8,x2,128
 2ca:	0505                	c.addi	x10,1
 2cc:	0306                	c.slli	x6,0x1
 2ce:	0901                	c.addi	x18,0
 2d0:	0004                	0x4
 2d2:	0501                	c.addi	x10,0
 2d4:	0311                	c.addi	x6,4
 2d6:	0900                	c.addi4spn	x8,x2,144
 2d8:	0000                	c.unimp
 2da:	0301                	c.addi	x6,0
 2dc:	0900                	c.addi4spn	x8,x2,144
 2de:	0004                	0x4
 2e0:	0301                	c.addi	x6,0
 2e2:	0900                	c.addi4spn	x8,x2,144
 2e4:	0004                	0x4
 2e6:	0301                	c.addi	x6,0
 2e8:	0900                	c.addi4spn	x8,x2,144
 2ea:	0004                	0x4
 2ec:	0501                	c.addi	x10,0
 2ee:	060e                	c.slli	x12,0x3
 2f0:	00090003          	lb	x0,0(x18)
 2f4:	0100                	c.addi4spn	x8,x2,128
 2f6:	0305                	c.addi	x6,1
 2f8:	0306                	c.slli	x6,0x1
 2fa:	0902                	c.slli64	x18
 2fc:	0004                	0x4
 2fe:	0501                	c.addi	x10,0
 300:	0601                	c.addi	x12,0
 302:	00090103          	lb	x2,0(x18)
 306:	0100                	c.addi4spn	x8,x2,128
 308:	1409                	c.addi	x8,-30
 30a:	0000                	c.unimp
 30c:	0101                	c.addi	x2,0

Disassembly of section .debug_info:

00000000 <.debug_info>:
   0:	0022                	c.slli	x0,0x8
   2:	0000                	c.unimp
   4:	0002                	c.slli64	x0
   6:	0000                	c.unimp
   8:	0000                	c.unimp
   a:	0104                	c.addi4spn	x9,x2,128
   c:	0000                	c.unimp
   e:	0000                	c.unimp
  10:	2774                	c.fld	f13,200(x14)
  12:	8000                	0x8000
  14:	2798                	c.fld	f14,8(x15)
  16:	8000                	0x8000
  18:	0000                	c.unimp
  1a:	0000                	c.unimp
  1c:	0038                	c.addi4spn	x14,x2,8
  1e:	0000                	c.unimp
  20:	009e                	c.slli	x1,0x7
  22:	0000                	c.unimp
  24:	8001                	c.srli64	x8
  26:	0000024b          	fnmsub.s	f4,f0,f0,f0,rne
  2a:	0004                	0x4
  2c:	0014                	0x14
  2e:	0000                	c.unimp
  30:	0104                	c.addi4spn	x9,x2,128
  32:	0000019b          	0x19b
  36:	520c                	c.lw	x11,32(x12)
  38:	0002                	c.slli64	x0
  3a:	3800                	c.fld	f8,48(x8)
  3c:	0000                	c.unimp
  3e:	9800                	0x9800
  40:	90800027          	0x90800027
  44:	0000                	c.unimp
  46:	9800                	0x9800
  48:	0000                	c.unimp
  4a:	0200                	c.addi4spn	x8,x2,256
  4c:	0708                	c.addi4spn	x10,x2,896
  4e:	0115                	c.addi	x2,5
  50:	0000                	c.unimp
  52:	69050403          	lb	x8,1680(x10)
  56:	746e                	c.flwsp	f8,248(x2)
  58:	0200                	c.addi4spn	x8,x2,256
  5a:	0704                	c.addi4spn	x9,x2,896
  5c:	011f 0000 0802      	0x8020000011f
  62:	7405                	c.lui	x8,0xfffe1
  64:	0001                	c.addi	x0,0
  66:	0200                	c.addi4spn	x8,x2,256
  68:	0410                	c.addi4spn	x12,x2,512
  6a:	00000153          	fadd.s	f2,f0,f0,rne
  6e:	0102                	c.slli64	x2
  70:	0006                	c.slli	x0,0x1
  72:	0001                	c.addi	x0,0
  74:	0200                	c.addi4spn	x8,x2,256
  76:	0801                	c.addi	x16,0
  78:	00fe                	c.slli	x1,0x1f
  7a:	0000                	c.unimp
  7c:	0202                	c.slli64	x4
  7e:	8205                	c.srli	x12,0x1
  80:	0001                	c.addi	x0,0
  82:	0200                	c.addi4spn	x8,x2,256
  84:	0702                	c.slli64	x14
  86:	012c                	c.addi4spn	x11,x2,136
  88:	0000                	c.unimp
  8a:	0402                	c.slli64	x8
  8c:	7905                	c.lui	x18,0xfffe1
  8e:	0001                	c.addi	x0,0
  90:	0200                	c.addi4spn	x8,x2,256
  92:	0704                	c.addi4spn	x9,x2,896
  94:	011a                	c.slli	x2,0x6
  96:	0000                	c.unimp
  98:	0102                	c.slli64	x2
  9a:	0708                	c.addi4spn	x10,x2,896
  9c:	0001                	c.addi	x0,0
  9e:	0400                	c.addi4spn	x8,x2,512
  a0:	00ed                	c.addi	x1,27
  a2:	0000                	c.unimp
  a4:	8002                	0x8002
  a6:	00002c0f          	0x2c0f
  aa:	0400                	c.addi4spn	x8,x2,512
  ac:	00ec                	c.addi4spn	x11,x2,76
  ae:	0000                	c.unimp
  b0:	8102                	c.jr	x2
  b2:	3316                	c.fldsp	f6,352(x2)
  b4:	0000                	c.unimp
  b6:	0400                	c.addi4spn	x8,x2,512
  b8:	00df 0000 8402      	0x8402000000df
  be:	00003a0f          	0x3a0f
  c2:	0200                	c.addi4spn	x8,x2,256
  c4:	0404                	c.addi4spn	x9,x2,512
  c6:	016e                	c.slli	x2,0x1b
  c8:	0000                	c.unimp
  ca:	0802                	c.slli64	x16
  cc:	00016603          	0x16603
  d0:	0200                	c.addi4spn	x8,x2,256
  d2:	0408                	c.addi4spn	x10,x2,512
  d4:	0158                	c.addi4spn	x14,x2,132
  d6:	0000                	c.unimp
  d8:	1002                	c.slli	x0,0x20
  da:	00018c03          	lb	x24,0(x3)
  de:	0200                	c.addi4spn	x8,x2,256
  e0:	0320                	c.addi4spn	x8,x2,392
  e2:	0000014b          	fnmsub.s	f2,f0,f0,f0,rne
  e6:	aa05                	c.j	216 <SYSCALL_ADDR-0x200dea>
  e8:	0000                	c.unimp
  ea:	0800                	c.addi4spn	x8,x2,16
  ec:	ed02                	c.fswsp	f0,152(x2)
  ee:	0a01                	c.addi	x20,0
  f0:	000000eb          	0xeb
  f4:	6c06                	c.flwsp	f24,64(x2)
  f6:	0200776f          	jal	x14,7116 <SYSCALL_ADDR-0x1f9eea>
  fa:	01ed                	c.addi	x3,27
  fc:	791a                	c.flwsp	f18,164(x2)
  fe:	0000                	c.unimp
 100:	0000                	c.unimp
 102:	00016107          	0x16107
 106:	0200                	c.addi4spn	x8,x2,256
 108:	01ed                	c.addi	x3,27
 10a:	791f 0000 0400      	0x4000000791f
 110:	0800                	c.addi4spn	x8,x2,16
 112:	0208                	c.addi4spn	x10,x2,256
 114:	01f4                	c.addi4spn	x13,x2,204
 116:	0d09                	c.addi	x26,2
 118:	0001                	c.addi	x0,0
 11a:	0900                	c.addi4spn	x8,x2,144
 11c:	f6020073          	0xf6020073
 120:	1301                	c.addi	x6,-32
 122:	00c0                	c.addi4spn	x8,x2,68
 124:	0000                	c.unimp
 126:	6c09                	c.lui	x24,0x2
 128:	006c                	c.addi4spn	x11,x2,12
 12a:	f702                	c.fswsp	f0,172(x2)
 12c:	0a01                	c.addi	x20,0
 12e:	0091                	c.addi	x1,4
 130:	0000                	c.unimp
 132:	0a00                	c.addi4spn	x8,x2,272
 134:	00be                	c.slli	x1,0xf
 136:	0000                	c.unimp
 138:	f802                	c.fswsp	f0,48(x2)
 13a:	0301                	c.addi	x6,0
 13c:	000000eb          	0xeb
 140:	00010d0b          	0x10d0b
 144:	0c00                	c.addi4spn	x8,x2,528
 146:	010c                	c.addi4spn	x11,x2,128
 148:	0000                	c.unimp
 14a:	2901                	c.jal	55a <SYSCALL_ADDR-0x200aa6>
 14c:	9101                	c.srli	x10,0x20
 14e:	0000                	c.unimp
 150:	9800                	0x9800
 152:	90800027          	0x90800027
 156:	0000                	c.unimp
 158:	0100                	c.addi4spn	x8,x2,128
 15a:	0d9c                	c.addi4spn	x15,x2,720
 15c:	0075                	c.addi	x0,29
 15e:	2901                	c.jal	56e <SYSCALL_ADDR-0x200a92>
 160:	9112                	c.add	x2,x4
 162:	0000                	c.unimp
 164:	0000                	c.unimp
 166:	0000                	c.unimp
 168:	0d00                	c.addi4spn	x8,x2,656
 16a:	0076                	c.slli	x0,0x1d
 16c:	2901                	c.jal	57c <SYSCALL_ADDR-0x200a84>
 16e:	911c                	0x911c
 170:	0000                	c.unimp
 172:	2800                	c.fld	f8,16(x8)
 174:	0000                	c.unimp
 176:	0e00                	c.addi4spn	x8,x2,784
 178:	7575                	c.lui	x10,0xffffd
 17a:	0100                	c.addi4spn	x8,x2,128
 17c:	011a112b          	0x11a112b
 180:	0000                	c.unimp
 182:	760e                	c.flwsp	f12,224(x2)
 184:	0076                	c.slli	x0,0x1d
 186:	2c01                	c.jal	396 <SYSCALL_ADDR-0x200c6a>
 188:	1a11                	c.addi	x20,-28
 18a:	0001                	c.addi	x0,0
 18c:	0e00                	c.addi4spn	x8,x2,784
 18e:	2d010077          	0x2d010077
 192:	00010d0b          	0x10d0b
 196:	0f00                	c.addi4spn	x8,x2,912
 198:	0000013f 850a2e01 	0x850a2e010000013f
 1a0:	0000                	c.unimp
 1a2:	5000                	c.lw	x8,32(x8)
 1a4:	0000                	c.unimp
 1a6:	0f00                	c.addi4spn	x8,x2,912
 1a8:	0145                	c.addi	x2,17
 1aa:	0000                	c.unimp
 1ac:	2f01                	c.jal	8bc <SYSCALL_ADDR-0x200744>
 1ae:	850a                	c.mv	x10,x2
 1b0:	0000                	c.unimp
 1b2:	6e00                	c.flw	f8,24(x12)
 1b4:	0000                	c.unimp
 1b6:	1000                	c.addi4spn	x8,x2,32
 1b8:	00f4                	c.addi4spn	x13,x2,76
 1ba:	0000                	c.unimp
 1bc:	3001                	c.jal	fffff9bc <_end+0x7fffd11c>
 1be:	850a                	c.mv	x10,x2
 1c0:	0000                	c.unimp
 1c2:	0100                	c.addi4spn	x8,x2,128
 1c4:	0f5e                	c.slli	x30,0x17
 1c6:	024c                	c.addi4spn	x11,x2,260
 1c8:	0000                	c.unimp
 1ca:	3101                	c.jal	fffffdca <_end+0x7fffd52a>
 1cc:	850a                	c.mv	x10,x2
 1ce:	0000                	c.unimp
 1d0:	8c00                	0x8c00
 1d2:	0000                	c.unimp
 1d4:	0f00                	c.addi4spn	x8,x2,912
 1d6:	0248                	c.addi4spn	x10,x2,260
 1d8:	0000                	c.unimp
 1da:	3201                	c.jal	fffffada <_end+0x7fffd23a>
 1dc:	850a                	c.mv	x10,x2
 1de:	0000                	c.unimp
 1e0:	c100                	c.sw	x8,0(x10)
 1e2:	0000                	c.unimp
 1e4:	0f00                	c.addi4spn	x8,x2,912
 1e6:	015f 0000 3301      	0x33010000015f
 1ec:	850a                	c.mv	x10,x2
 1ee:	0000                	c.unimp
 1f0:	e400                	c.fsw	f8,8(x8)
 1f2:	0000                	c.unimp
 1f4:	0f00                	c.addi4spn	x8,x2,912
 1f6:	000000b3          	add	x1,x0,x0
 1fa:	3401                	c.jal	fffffbfa <_end+0x7fffd35a>
 1fc:	850a                	c.mv	x10,x2
 1fe:	0000                	c.unimp
 200:	0e00                	c.addi4spn	x8,x2,784
 202:	0001                	c.addi	x0,0
 204:	1000                	c.addi4spn	x8,x2,32
 206:	00d2                	c.slli	x1,0x14
 208:	0000                	c.unimp
 20a:	3501                	c.jal	a <SYSCALL_ADDR-0x200ff6>
 20c:	850a                	c.mv	x10,x2
 20e:	0000                	c.unimp
 210:	0100                	c.addi4spn	x8,x2,128
 212:	0f6d                	c.addi	x30,27
 214:	00e6                	c.slli	x1,0x19
 216:	0000                	c.unimp
 218:	3601                	c.jal	fffffd18 <_end+0x7fffd478>
 21a:	850a                	c.mv	x10,x2
 21c:	0000                	c.unimp
 21e:	5300                	c.lw	x8,32(x14)
 220:	0001                	c.addi	x0,0
 222:	1100                	c.addi4spn	x8,x2,160
 224:	27f8                	c.fld	f14,200(x15)
 226:	8000                	0x8000
 228:	0004                	0x4
 22a:	0000                	c.unimp
 22c:	00000227          	0x227
 230:	c610                	c.sw	x12,8(x12)
 232:	0000                	c.unimp
 234:	0100                	c.addi4spn	x8,x2,128
 236:	1b50                	c.addi4spn	x12,x2,436
 238:	0085                	c.addi	x1,1
 23a:	0000                	c.unimp
 23c:	5a01                	c.li	x20,-32
 23e:	cc10                	c.sw	x12,24(x8)
 240:	0000                	c.unimp
 242:	0100                	c.addi4spn	x8,x2,128
 244:	1b50                	c.addi4spn	x12,x2,436
 246:	0085                	c.addi	x1,1
 248:	0000                	c.unimp
 24a:	5b01                	c.li	x22,-32
 24c:	1200                	c.addi4spn	x8,x2,288
 24e:	2804                	c.fld	f9,16(x8)
 250:	8000                	0x8000
 252:	000c                	0xc
 254:	0000                	c.unimp
 256:	c610                	c.sw	x12,8(x12)
 258:	0000                	c.unimp
 25a:	0100                	c.addi4spn	x8,x2,128
 25c:	00851153          	fadd.s	f2,f10,f8,rtz
 260:	0000                	c.unimp
 262:	5a01                	c.li	x20,-32
 264:	cc10                	c.sw	x12,24(x8)
 266:	0000                	c.unimp
 268:	0100                	c.addi4spn	x8,x2,128
 26a:	00851153          	fadd.s	f2,f10,f8,rtz
 26e:	0000                	c.unimp
 270:	5b01                	c.li	x22,-32
 272:	0000                	c.unimp
	...

Disassembly of section .debug_abbrev:

00000000 <.debug_abbrev>:
   0:	1101                	c.addi	x2,-32
   2:	1000                	c.addi4spn	x8,x2,32
   4:	1106                	c.slli	x2,0x21
   6:	1201                	c.addi	x4,-32
   8:	0301                	c.addi	x6,0
   a:	1b0e                	c.slli	x22,0x23
   c:	250e                	c.fldsp	f10,192(x2)
   e:	130e                	c.slli	x6,0x23
  10:	0005                	c.addi	x0,1
  12:	0000                	c.unimp
  14:	1101                	c.addi	x2,-32
  16:	2501                	c.jal	616 <SYSCALL_ADDR-0x2009ea>
  18:	130e                	c.slli	x6,0x23
  1a:	1b0e030b          	0x1b0e030b
  1e:	110e                	c.slli	x2,0x23
  20:	1201                	c.addi	x4,-32
  22:	1006                	c.slli	x0,0x21
  24:	02000017          	auipc	x0,0x2000
  28:	0024                	c.addi4spn	x9,x2,8
  2a:	0b3e0b0b          	0xb3e0b0b
  2e:	00000e03          	lb	x28,0(x0) # 0 <SYSCALL_ADDR-0x201000>
  32:	0b002403          	lw	x8,176(x0) # b0 <SYSCALL_ADDR-0x200f50>
  36:	030b3e0b          	0x30b3e0b
  3a:	0008                	0x8
  3c:	0400                	c.addi4spn	x8,x2,512
  3e:	0016                	c.slli	x0,0x5
  40:	0b3a0e03          	lb	x28,179(x20)
  44:	0b390b3b          	0xb390b3b
  48:	1349                	c.addi	x6,-14
  4a:	0000                	c.unimp
  4c:	1305                	c.addi	x6,-31
  4e:	0301                	c.addi	x6,0
  50:	0b0e                	c.slli	x22,0x3
  52:	3b0b3a0b          	0x3b0b3a0b
  56:	3905                	c.jal	fffffc86 <_end+0x7fffd3e6>
  58:	0013010b          	0x13010b
  5c:	0600                	c.addi4spn	x8,x2,768
  5e:	000d                	c.addi	x0,3
  60:	0b3a0803          	lb	x16,179(x20)
  64:	0b39053b          	0xb39053b
  68:	1349                	c.addi	x6,-14
  6a:	0b38                	c.addi4spn	x14,x2,408
  6c:	0000                	c.unimp
  6e:	03000d07          	0x3000d07
  72:	3a0e                	c.fldsp	f20,224(x2)
  74:	39053b0b          	0x39053b0b
  78:	3813490b          	0x3813490b
  7c:	0800000b          	0x800000b
  80:	0b0b0117          	auipc	x2,0xb0b0
  84:	0b3a                	c.slli	x22,0xe
  86:	0b39053b          	0xb39053b
  8a:	1301                	c.addi	x6,-32
  8c:	0000                	c.unimp
  8e:	0d09                	c.addi	x26,2
  90:	0300                	c.addi4spn	x8,x2,384
  92:	3a08                	c.fld	f10,48(x12)
  94:	39053b0b          	0x39053b0b
  98:	0013490b          	0x13490b
  9c:	0a00                	c.addi4spn	x8,x2,272
  9e:	0016                	c.slli	x0,0x5
  a0:	0b3a0e03          	lb	x28,179(x20)
  a4:	0b39053b          	0xb39053b
  a8:	1349                	c.addi	x6,-14
  aa:	0000                	c.unimp
  ac:	4900260b          	0x4900260b
  b0:	0c000013          	addi	x0,x0,192
  b4:	012e                	c.slli	x2,0xb
  b6:	0e03193f 0b3b0b3a 	0xb3b0b3a0e03193f
  be:	0b39                	c.addi	x22,14
  c0:	13491927          	0x13491927
  c4:	0111                	c.addi	x2,4
  c6:	0612                	c.slli	x12,0x4
  c8:	1840                	c.addi4spn	x8,x2,52
  ca:	00194297          	auipc	x5,0x194
  ce:	0d00                	c.addi4spn	x8,x2,656
  d0:	0005                	c.addi	x0,1
  d2:	0b3a0803          	lb	x16,179(x20)
  d6:	0b390b3b          	0xb390b3b
  da:	1349                	c.addi	x6,-14
  dc:	1702                	c.slli	x14,0x20
  de:	0000                	c.unimp
  e0:	340e                	c.fldsp	f8,224(x2)
  e2:	0300                	c.addi4spn	x8,x2,384
  e4:	3a08                	c.fld	f10,48(x12)
  e6:	390b3b0b          	0x390b3b0b
  ea:	0013490b          	0x13490b
  ee:	0f00                	c.addi4spn	x8,x2,912
  f0:	0034                	c.addi4spn	x13,x2,8
  f2:	0b3a0e03          	lb	x28,179(x20)
  f6:	0b390b3b          	0xb390b3b
  fa:	1349                	c.addi	x6,-14
  fc:	1702                	c.slli	x14,0x20
  fe:	0000                	c.unimp
 100:	3410                	c.fld	f12,40(x8)
 102:	0300                	c.addi4spn	x8,x2,384
 104:	3a0e                	c.fldsp	f20,224(x2)
 106:	390b3b0b          	0x390b3b0b
 10a:	0213490b          	0x213490b
 10e:	0018                	0x18
 110:	1100                	c.addi4spn	x8,x2,160
 112:	0111010b          	0x111010b
 116:	0612                	c.slli	x12,0x4
 118:	1301                	c.addi	x6,-32
 11a:	0000                	c.unimp
 11c:	0b12                	c.slli	x22,0x4
 11e:	1101                	c.addi	x2,-32
 120:	1201                	c.addi	x4,-32
 122:	0006                	c.slli	x0,0x1
	...

Disassembly of section .debug_aranges:

00000000 <.debug_aranges>:
   0:	001c                	0x1c
   2:	0000                	c.unimp
   4:	0002                	c.slli64	x0
   6:	0000                	c.unimp
   8:	0000                	c.unimp
   a:	0004                	0x4
   c:	0000                	c.unimp
   e:	0000                	c.unimp
  10:	2774                	c.fld	f13,200(x14)
  12:	8000                	0x8000
  14:	0024                	c.addi4spn	x9,x2,8
	...
  1e:	0000                	c.unimp
  20:	001c                	0x1c
  22:	0000                	c.unimp
  24:	0002                	c.slli64	x0
  26:	0026                	c.slli	x0,0x9
  28:	0000                	c.unimp
  2a:	0004                	0x4
  2c:	0000                	c.unimp
  2e:	0000                	c.unimp
  30:	2798                	c.fld	f14,8(x15)
  32:	8000                	0x8000
  34:	0090                	c.addi4spn	x12,x2,64
	...

Disassembly of section .debug_str:

00000000 <.debug_str>:
   0:	2e2e                	c.fldsp	f28,200(x2)
   2:	2f2e2e2f          	0x2f2e2e2f
   6:	2e2e                	c.fldsp	f28,200(x2)
   8:	2f2e2e2f          	0x2f2e2e2f
   c:	2e2e                	c.fldsp	f28,200(x2)
   e:	722f2e2f          	0x722f2e2f
  12:	7369                	c.lui	x6,0xffffa
  14:	672d7663          	bgeu	x26,x18,680 <SYSCALL_ADDR-0x200980>
  18:	6c2f6363          	bltu	x30,x2,6de <SYSCALL_ADDR-0x200922>
  1c:	6269                	c.lui	x4,0x1a
  1e:	2f636367          	0x2f636367
  22:	666e6f63          	bltu	x28,x6,6a0 <SYSCALL_ADDR-0x200960>
  26:	6769                	c.lui	x14,0x1a
  28:	7369722f          	0x7369722f
  2c:	6d2f7663          	bgeu	x30,x18,6f8 <SYSCALL_ADDR-0x200908>
  30:	6c75                	c.lui	x24,0x1d
  32:	6964                	c.flw	f9,84(x10)
  34:	00532e33          	slt	x28,x6,x5
  38:	6d6f682f          	0x6d6f682f
  3c:	2f65                	c.jal	7f4 <SYSCALL_ADDR-0x20080c>
  3e:	6c6c6173          	csrrsi	x2,0x6c6,24
  42:	7261                	c.lui	x4,0xffff8
  44:	6f6f742f          	0x6f6f742f
  48:	736c                	c.flw	f11,100(x14)
  4a:	7369722f          	0x7369722f
  4e:	672d7663          	bgeu	x26,x18,6ba <SYSCALL_ADDR-0x200946>
  52:	756e                	c.flwsp	f10,248(x2)
  54:	742d                	c.lui	x8,0xfffeb
  56:	636c6f6f          	jal	x30,c668c <SYSCALL_ADDR-0x13a974>
  5a:	6168                	c.flw	f10,68(x10)
  5c:	6e69                	c.lui	x28,0x1a
  5e:	6975622f          	0x6975622f
  62:	646c                	c.flw	f11,76(x8)
  64:	672d                	c.lui	x14,0xb
  66:	6e2d6363          	bltu	x26,x2,74c <SYSCALL_ADDR-0x2008b4>
  6a:	7765                	c.lui	x14,0xffff9
  6c:	696c                	c.flw	f11,84(x10)
  6e:	2d62                	c.fldsp	f26,24(x2)
  70:	67617473          	csrrci	x8,0x676,2
  74:	3265                	c.jal	fffffa1c <_end+0x7fffd17c>
  76:	7369722f          	0x7369722f
  7a:	34367663          	bgeu	x12,x3,3c6 <SYSCALL_ADDR-0x200c3a>
  7e:	752d                	c.lui	x10,0xfffeb
  80:	6b6e                	c.flwsp	f22,216(x2)
  82:	6f6e                	c.flwsp	f30,216(x2)
  84:	652d6e77          	0x652d6e77
  88:	666c                	c.flw	f11,76(x12)
  8a:	3376722f          	0x3376722f
  8e:	6932                	c.flwsp	f18,12(x2)
  90:	706c692f          	0x706c692f
  94:	6c2f3233          	0x6c2f3233
  98:	6269                	c.lui	x4,0x1a
  9a:	00636367          	0x636367
  9e:	20554e47          	fmsub.s	f28,f10,f5,f4,rmm
  a2:	5341                	c.li	x6,-16
  a4:	3220                	c.fld	f8,96(x12)
  a6:	332e                	c.fldsp	f6,232(x2)
  a8:	0035                	c.addi	x0,13
  aa:	5744                	c.lw	x9,44(x14)
  ac:	75727473          	csrrci	x8,0x757,4
  b0:	77007463          	bgeu	x0,x16,818 <SYSCALL_ADDR-0x2007e8>
  b4:	685f 6769 5f68      	0x5f686769685f
  ba:	6d74                	c.flw	f13,92(x10)
  bc:	0070                	c.addi4spn	x12,x2,12
  be:	5744                	c.lw	x9,44(x14)
  c0:	6e75                	c.lui	x28,0x1d
  c2:	6f69                	c.lui	x30,0x1a
  c4:	006e                	c.slli	x0,0x1b
  c6:	5f5f 706f 0030      	0x30706f5f5f
  cc:	5f5f 706f 0031      	0x31706f5f5f
  d2:	69685f77          	0x69685f77
  d6:	745f6867          	0x745f6867
  da:	706d                	c.lui	x0,0xffffb
  dc:	7832                	c.flwsp	f16,44(x2)
  de:	4400                	c.lw	x8,8(x8)
  e0:	7449                	c.lui	x8,0xffff2
  e2:	7079                	c.lui	x0,0xffffe
  e4:	0065                	c.addi	x0,25
  e6:	72726163          	bltu	x4,x7,808 <SYSCALL_ADDR-0x2007f8>
  ea:	0079                	c.addi	x0,30
  ec:	5355                	c.li	x6,-11
  ee:	7449                	c.lui	x8,0xffff2
  f0:	7079                	c.lui	x0,0xffffe
  f2:	0065                	c.addi	x0,25
  f4:	5f75                	c.li	x30,-3
  f6:	6f6c                	c.flw	f11,92(x14)
  f8:	736d5f77          	0x736d5f77
  fc:	0062                	c.slli	x0,0x18
  fe:	6e75                	c.lui	x28,0x1d
 100:	6e676973          	csrrsi	x18,0x6e6,14
 104:	6465                	c.lui	x8,0x19
 106:	6320                	c.flw	f8,64(x14)
 108:	6168                	c.flw	f10,68(x10)
 10a:	0072                	c.slli	x0,0x1c
 10c:	5f5f 756d 646c      	0x646c756d5f5f
 112:	3369                	c.jal	fffffe9c <_end+0x7fffd5fc>
 114:	6c00                	c.flw	f8,24(x8)
 116:	20676e6f          	jal	x28,7631c <SYSCALL_ADDR-0x18ace4>
 11a:	6f6c                	c.flw	f11,92(x14)
 11c:	676e                	c.flwsp	f14,216(x2)
 11e:	7520                	c.flw	f8,104(x10)
 120:	736e                	c.flwsp	f6,248(x2)
 122:	6769                	c.lui	x14,0x1a
 124:	656e                	c.flwsp	f10,216(x2)
 126:	2064                	c.fld	f9,192(x8)
 128:	6e69                	c.lui	x28,0x1a
 12a:	0074                	c.addi4spn	x13,x2,12
 12c:	726f6873          	csrrsi	x16,0x726,30
 130:	2074                	c.fld	f13,192(x8)
 132:	6e75                	c.lui	x28,0x1d
 134:	6e676973          	csrrsi	x18,0x6e6,14
 138:	6465                	c.lui	x8,0x19
 13a:	6920                	c.flw	f8,80(x10)
 13c:	746e                	c.flwsp	f8,248(x2)
 13e:	7500                	c.flw	f8,40(x10)
 140:	6c5f 776f 7600      	0x7600776f6c5f
 146:	6c5f 776f 6300      	0x6300776f6c5f
 14c:	6c706d6f          	jal	x26,7012 <SYSCALL_ADDR-0x1f9fee>
 150:	7865                	c.lui	x16,0xffff9
 152:	6c20                	c.flw	f8,88(x8)
 154:	20676e6f          	jal	x28,7635a <SYSCALL_ADDR-0x18aca6>
 158:	6f64                	c.flw	f9,92(x14)
 15a:	6275                	c.lui	x4,0x1d
 15c:	656c                	c.flw	f11,76(x10)
 15e:	7700                	c.flw	f8,40(x14)
 160:	685f 6769 0068      	0x686769685f
 166:	706d6f63          	bltu	x26,x6,884 <SYSCALL_ADDR-0x20077c>
 16a:	656c                	c.flw	f11,76(x10)
 16c:	2078                	c.fld	f14,192(x8)
 16e:	6c66                	c.flwsp	f24,88(x2)
 170:	0074616f          	jal	x2,46976 <SYSCALL_ADDR-0x1ba68a>
 174:	6f6c                	c.flw	f11,92(x14)
 176:	676e                	c.flwsp	f14,216(x2)
 178:	6c20                	c.flw	f8,88(x8)
 17a:	20676e6f          	jal	x28,76380 <SYSCALL_ADDR-0x18ac80>
 17e:	6e69                	c.lui	x28,0x1a
 180:	0074                	c.addi4spn	x13,x2,12
 182:	726f6873          	csrrsi	x16,0x726,30
 186:	2074                	c.fld	f13,192(x8)
 188:	6e69                	c.lui	x28,0x1a
 18a:	0074                	c.addi4spn	x13,x2,12
 18c:	706d6f63          	bltu	x26,x6,8aa <SYSCALL_ADDR-0x200756>
 190:	656c                	c.flw	f11,76(x10)
 192:	2078                	c.fld	f14,192(x8)
 194:	6f64                	c.flw	f9,92(x14)
 196:	6275                	c.lui	x4,0x1d
 198:	656c                	c.flw	f11,76(x10)
 19a:	4700                	c.lw	x8,8(x14)
 19c:	554e                	c.lwsp	x10,240(x2)
 19e:	4320                	c.lw	x8,64(x14)
 1a0:	3731                	c.jal	ac <SYSCALL_ADDR-0x200f54>
 1a2:	3120                	c.fld	f8,96(x10)
 1a4:	2e30                	c.fld	f12,88(x12)
 1a6:	2e32                	c.fldsp	f28,264(x2)
 1a8:	2030                	c.fld	f12,64(x8)
 1aa:	6d2d                	c.lui	x26,0xb
 1ac:	646f6d63          	bltu	x30,x6,806 <SYSCALL_ADDR-0x2007fa>
 1b0:	6c65                	c.lui	x24,0x19
 1b2:	6d3d                	c.lui	x26,0xf
 1b4:	6465                	c.lui	x8,0x19
 1b6:	6f6c                	c.flw	f11,92(x14)
 1b8:	6d2d2077          	0x6d2d2077
 1bc:	7261                	c.lui	x4,0xffff8
 1be:	723d6863          	bltu	x26,x3,8ee <SYSCALL_ADDR-0x200712>
 1c2:	3376                	c.fldsp	f6,376(x2)
 1c4:	6932                	c.flwsp	f18,12(x2)
 1c6:	2d20                	c.fld	f8,88(x10)
 1c8:	616d                	c.addi16sp	x2,240
 1ca:	6962                	c.flwsp	f18,24(x2)
 1cc:	693d                	c.lui	x18,0xf
 1ce:	706c                	c.flw	f11,100(x8)
 1d0:	2d203233          	0x2d203233
 1d4:	636d                	c.lui	x6,0x1b
 1d6:	6f6d                	c.lui	x30,0x1b
 1d8:	6564                	c.flw	f9,76(x10)
 1da:	3d6c                	c.fld	f11,248(x10)
 1dc:	656d                	c.lui	x10,0x1b
 1de:	6c64                	c.flw	f9,92(x8)
 1e0:	2d20776f          	jal	x14,74b2 <SYSCALL_ADDR-0x1f9b4e>
 1e4:	746d                	c.lui	x8,0xffffb
 1e6:	6e75                	c.lui	x28,0x1d
 1e8:	3d65                	c.jal	a0 <SYSCALL_ADDR-0x200f60>
 1ea:	6f72                	c.flwsp	f30,28(x2)
 1ec:	74656b63          	bltu	x10,x6,942 <SYSCALL_ADDR-0x2006be>
 1f0:	2d20                	c.fld	f8,88(x10)
 1f2:	616d                	c.addi16sp	x2,240
 1f4:	6372                	c.flwsp	f6,28(x2)
 1f6:	3d68                	c.fld	f10,248(x10)
 1f8:	7672                	c.flwsp	f12,60(x2)
 1fa:	20693233          	0x20693233
 1fe:	672d                	c.lui	x14,0xb
 200:	2d20                	c.fld	f8,88(x10)
 202:	2d20734f          	0x2d20734f
 206:	2d20324f          	0x2d20324f
 20a:	2d20734f          	0x2d20734f
 20e:	6266                	c.flwsp	f4,88(x2)
 210:	6975                	c.lui	x18,0x1d
 212:	646c                	c.flw	f11,76(x8)
 214:	6e69                	c.lui	x28,0x1a
 216:	696c2d67          	0x696c2d67
 21a:	6762                	c.flwsp	f14,24(x2)
 21c:	2d206363          	bltu	x0,x18,4e2 <SYSCALL_ADDR-0x200b1e>
 220:	6e66                	c.flwsp	f28,88(x2)
 222:	74732d6f          	jal	x26,33168 <SYSCALL_ADDR-0x1cde98>
 226:	6361                	c.lui	x6,0x18
 228:	72702d6b          	0x72702d6b
 22c:	6365746f          	jal	x8,57862 <SYSCALL_ADDR-0x1a979e>
 230:	6f74                	c.flw	f13,92(x14)
 232:	2072                	c.fldsp	f0,280(x2)
 234:	662d                	c.lui	x12,0xb
 236:	6976                	c.flwsp	f18,92(x2)
 238:	69626973          	csrrsi	x18,0x696,4
 23c:	696c                	c.flw	f11,84(x10)
 23e:	7974                	c.flw	f13,116(x10)
 240:	683d                	c.lui	x16,0xf
 242:	6469                	c.lui	x8,0x1a
 244:	6564                	c.flw	f9,76(x10)
 246:	006e                	c.slli	x0,0x1b
 248:	656e                	c.flwsp	f10,216(x2)
 24a:	5f775f77          	0x5f775f77
 24e:	6f6c                	c.flw	f11,92(x14)
 250:	2e2e0077          	0x2e2e0077
 254:	2f2e2e2f          	0x2f2e2e2f
 258:	2e2e                	c.fldsp	f28,200(x2)
 25a:	2f2e2e2f          	0x2f2e2e2f
 25e:	2e2e                	c.fldsp	f28,200(x2)
 260:	722f2e2f          	0x722f2e2f
 264:	7369                	c.lui	x6,0xffffa
 266:	672d7663          	bgeu	x26,x18,8d2 <SYSCALL_ADDR-0x20072e>
 26a:	6c2f6363          	bltu	x30,x2,930 <SYSCALL_ADDR-0x2006d0>
 26e:	6269                	c.lui	x4,0x1a
 270:	2f636367          	0x2f636367
 274:	666e6f63          	bltu	x28,x6,8f2 <SYSCALL_ADDR-0x20070e>
 278:	6769                	c.lui	x14,0x1a
 27a:	7369722f          	0x7369722f
 27e:	6d2f7663          	bgeu	x30,x18,94a <SYSCALL_ADDR-0x2006b6>
 282:	6c75                	c.lui	x24,0x1d
 284:	6974                	c.flw	f13,84(x10)
 286:	00632e33          	slt	x28,x6,x6

Disassembly of section .debug_loc:

00000000 <.debug_loc>:
   0:	0000                	c.unimp
   2:	0000                	c.unimp
   4:	000c                	0xc
   6:	0000                	c.unimp
   8:	0006                	c.slli	x0,0x1
   a:	935a                	c.add	x6,x22
   c:	5b04                	c.lw	x9,48(x14)
   e:	000c0493          	addi	x9,x24,0 # 1d000 <SYSCALL_ADDR-0x1e4000>
  12:	0000                	c.unimp
  14:	0090                	c.addi4spn	x12,x2,64
  16:	0000                	c.unimp
  18:	0006                	c.slli	x0,0x1
  1a:	0af503f3          	0xaf503f3
  1e:	9f25                	0x9f25
	...
  2c:	0018                	0x18
  2e:	0000                	c.unimp
  30:	0006                	c.slli	x0,0x1
  32:	935c                	0x935c
  34:	5d04                	c.lw	x9,56(x10)
  36:	00180493          	addi	x9,x16,1 # f001 <SYSCALL_ADDR-0x1f1fff>
  3a:	0000                	c.unimp
  3c:	0090                	c.addi4spn	x12,x2,64
  3e:	0000                	c.unimp
  40:	0006                	c.slli	x0,0x1
  42:	0cf503f3          	0xcf503f3
  46:	9f25                	0x9f25
	...
  50:	0018                	0x18
  52:	0000                	c.unimp
  54:	0028                	c.addi4spn	x10,x2,8
  56:	0000                	c.unimp
  58:	0001                	c.addi	x0,0
  5a:	2856                	c.fldsp	f16,336(x2)
  5c:	0000                	c.unimp
  5e:	5800                	c.lw	x8,48(x8)
  60:	0000                	c.unimp
  62:	0100                	c.addi4spn	x8,x2,128
  64:	5c00                	c.lw	x8,56(x8)
	...
  6e:	0018                	0x18
  70:	0000                	c.unimp
  72:	0028                	c.addi4spn	x10,x2,8
  74:	0000                	c.unimp
  76:	0001                	c.addi	x0,0
  78:	285a                	c.fldsp	f16,400(x2)
  7a:	0000                	c.unimp
  7c:	6400                	c.flw	f8,8(x8)
  7e:	0000                	c.unimp
  80:	0100                	c.addi4spn	x8,x2,128
  82:	5d00                	c.lw	x8,56(x10)
	...
  8c:	0018                	0x18
  8e:	0000                	c.unimp
  90:	0028                	c.addi4spn	x10,x2,8
  92:	0000                	c.unimp
  94:	0002                	c.slli64	x0
  96:	9f30                	0x9f30
  98:	0028                	c.addi4spn	x10,x2,8
  9a:	0000                	c.unimp
  9c:	0038                	c.addi4spn	x14,x2,8
  9e:	0000                	c.unimp
  a0:	0001                	c.addi	x0,0
  a2:	3860                	c.fld	f8,240(x8)
  a4:	0000                	c.unimp
  a6:	4800                	c.lw	x8,16(x8)
  a8:	0000                	c.unimp
  aa:	0100                	c.addi4spn	x8,x2,128
  ac:	6c00                	c.flw	f8,24(x8)
  ae:	0048                	c.addi4spn	x10,x2,4
  b0:	0000                	c.unimp
  b2:	0090                	c.addi4spn	x12,x2,64
  b4:	0000                	c.unimp
  b6:	0001                	c.addi	x0,0
  b8:	0060                	c.addi4spn	x8,x2,12
  ba:	0000                	c.unimp
  bc:	0000                	c.unimp
  be:	0000                	c.unimp
  c0:	2800                	c.fld	f8,16(x8)
  c2:	0000                	c.unimp
  c4:	3800                	c.fld	f8,48(x8)
  c6:	0000                	c.unimp
  c8:	0600                	c.addi4spn	x8,x2,768
  ca:	7c00                	c.flw	f8,56(x8)
  cc:	8000                	0x8000
  ce:	2200                	c.fld	f8,0(x12)
  d0:	389f 0000 4800      	0x48000000389f
  d6:	0000                	c.unimp
  d8:	0100                	c.addi4spn	x8,x2,128
  da:	6c00                	c.flw	f8,24(x8)
	...
  e4:	0018                	0x18
  e6:	0000                	c.unimp
  e8:	0028                	c.addi4spn	x10,x2,8
  ea:	0000                	c.unimp
  ec:	0002                	c.slli64	x0
  ee:	9f30                	0x9f30
  f0:	0028                	c.addi4spn	x10,x2,8
  f2:	0000                	c.unimp
  f4:	0040                	c.addi4spn	x8,x2,4
  f6:	0000                	c.unimp
  f8:	0001                	c.addi	x0,0
  fa:	445f 0000 6800      	0x68000000445f
 100:	0000                	c.unimp
 102:	0100                	c.addi4spn	x8,x2,128
 104:	5f00                	c.lw	x8,56(x14)
	...
 10e:	0018                	0x18
 110:	0000                	c.unimp
 112:	0028                	c.addi4spn	x10,x2,8
 114:	0000                	c.unimp
 116:	0002                	c.slli64	x0
 118:	9f30                	0x9f30
 11a:	0028                	c.addi4spn	x10,x2,8
 11c:	0000                	c.unimp
 11e:	0030                	c.addi4spn	x12,x2,8
 120:	0000                	c.unimp
 122:	0001                	c.addi	x0,0
 124:	305e                	c.fldsp	f0,496(x2)
 126:	0000                	c.unimp
 128:	4000                	c.lw	x8,0(x8)
 12a:	0000                	c.unimp
 12c:	0600                	c.addi4spn	x8,x2,768
 12e:	7f00                	c.flw	f8,56(x14)
 130:	7e00                	c.flw	f8,56(x12)
 132:	2200                	c.fld	f8,0(x12)
 134:	409f 0000 4400      	0x44000000409f
 13a:	0000                	c.unimp
 13c:	0100                	c.addi4spn	x8,x2,128
 13e:	5f00                	c.lw	x8,56(x14)
 140:	0058                	c.addi4spn	x14,x2,4
 142:	0000                	c.unimp
 144:	0090                	c.addi4spn	x12,x2,64
 146:	0000                	c.unimp
 148:	0001                	c.addi	x0,0
 14a:	005e                	c.slli	x0,0x17
 14c:	0000                	c.unimp
 14e:	0000                	c.unimp
 150:	0000                	c.unimp
 152:	3800                	c.fld	f8,48(x8)
 154:	0000                	c.unimp
 156:	3c00                	c.fld	f8,56(x8)
 158:	0000                	c.unimp
 15a:	1100                	c.addi4spn	x8,x2,160
 15c:	8000                	0x8000
 15e:	4000                	c.lw	x8,0(x8)
 160:	8c22244b          	0x8c22244b
 164:	4000                	c.lw	x8,0(x8)
 166:	2b22244b          	fnmsub.d	f8,f4,f18,f5,rdn
 16a:	ff08                	c.fsw	f10,56(x14)
 16c:	9f1a                	c.add	x30,x6
	...

Disassembly of section .debug_frame:

00000000 <.debug_frame>:
   0:	000c                	0xc
   2:	0000                	c.unimp
   4:	ffff                	0xffff
   6:	ffff                	0xffff
   8:	7c010003          	lb	x0,1984(x2) # b0b0840 <SYSCALL_ADDR+0xaeaf840>
   c:	0d01                	c.addi	x26,0
   e:	0002                	c.slli64	x0
  10:	0018                	0x18
  12:	0000                	c.unimp
  14:	0000                	c.unimp
  16:	0000                	c.unimp
  18:	2798                	c.fld	f14,8(x15)
  1a:	8000                	0x8000
  1c:	0090                	c.addi4spn	x12,x2,64
  1e:	0000                	c.unimp
  20:	0e48                	c.addi4spn	x10,x2,788
  22:	4c10                	c.lw	x12,24(x8)
  24:	0181                	c.addi	x3,0
  26:	6c02                	c.flwsp	f24,0(x2)
  28:	4cc1                	c.li	x25,16
  2a:	000e                	c.slli	x0,0x3
