
edn.elf:     Dateiformat elf32-littleriscv


Disassembly of section .text.init:

80000000 <initSection>:
80000000:	000070b3          	and	x1,x0,x0
80000004:	00007133          	and	x2,x0,x0
80000008:	000071b3          	and	x3,x0,x0
8000000c:	00007233          	and	x4,x0,x0
80000010:	000072b3          	and	x5,x0,x0
80000014:	00007333          	and	x6,x0,x0
80000018:	000073b3          	and	x7,x0,x0
8000001c:	00007433          	and	x8,x0,x0
80000020:	000074b3          	and	x9,x0,x0
80000024:	00007533          	and	x10,x0,x0
80000028:	000075b3          	and	x11,x0,x0
8000002c:	00007633          	and	x12,x0,x0
80000030:	000076b3          	and	x13,x0,x0
80000034:	00007733          	and	x14,x0,x0
80000038:	000077b3          	and	x15,x0,x0
8000003c:	00007833          	and	x16,x0,x0
80000040:	000078b3          	and	x17,x0,x0
80000044:	00007933          	and	x18,x0,x0
80000048:	000079b3          	and	x19,x0,x0
8000004c:	00007a33          	and	x20,x0,x0
80000050:	00007ab3          	and	x21,x0,x0
80000054:	00007b33          	and	x22,x0,x0
80000058:	00007bb3          	and	x23,x0,x0
8000005c:	00007c33          	and	x24,x0,x0
80000060:	00007cb3          	and	x25,x0,x0
80000064:	00007d33          	and	x26,x0,x0
80000068:	00007db3          	and	x27,x0,x0
8000006c:	00007e33          	and	x28,x0,x0
80000070:	00007eb3          	and	x29,x0,x0
80000074:	00007f33          	and	x30,x0,x0
80000078:	00007fb3          	and	x31,x0,x0
8000007c:	00002117          	auipc	x2,0x2
80000080:	03410113          	addi	x2,x2,52 # 800020b0 <stack_end>
80000084:	361020ef          	jal	x1,80002be4 <main>

80000088 <sys_end>:
80000088:	05d00893          	addi	x17,x0,93
8000008c:	00000513          	addi	x10,x0,0
80000090:	002012b7          	lui	x5,0x201
80000094:	f1402873          	csrrs	x16,mhartid,x0
80000098:	0102a023          	sw	x16,0(x5) # 201000 <SYSCALL_ADDR>
8000009c:	0112a023          	sw	x17,0(x5)
800000a0:	fe9ff06f          	jal	x0,80000088 <sys_end>
800000a4:	00000013          	addi	x0,x0,0
800000a8:	00000013          	addi	x0,x0,0
800000ac:	00000013          	addi	x0,x0,0

800000b0 <stack_begin>:
	...

800020b0 <stack_end>:
800020b0:	0000                	c.unimp
	...

Disassembly of section .text:

800020b4 <vec_mpy1>:
800020b4:	fe010113          	addi	x2,x2,-32
800020b8:	00812c23          	sw	x8,24(x2)
800020bc:	00912a23          	sw	x9,20(x2)
800020c0:	01212823          	sw	x18,16(x2)
800020c4:	01312623          	sw	x19,12(x2)
800020c8:	01512223          	sw	x21,4(x2)
800020cc:	00112e23          	sw	x1,28(x2)
800020d0:	01412423          	sw	x20,8(x2)
800020d4:	00050993          	addi	x19,x10,0
800020d8:	00058913          	addi	x18,x11,0
800020dc:	00060493          	addi	x9,x12,0
800020e0:	00000413          	addi	x8,x0,0
800020e4:	12c00a93          	addi	x21,x0,300
800020e8:	008907b3          	add	x15,x18,x8
800020ec:	00079503          	lh	x10,0(x15)
800020f0:	00048593          	addi	x11,x9,0
800020f4:	00898a33          	add	x20,x19,x8
800020f8:	2c9000ef          	jal	x1,80002bc0 <__mulsi3>
800020fc:	40f55793          	srai	x15,x10,0xf
80002100:	000a5503          	lhu	x10,0(x20)
80002104:	00240413          	addi	x8,x8,2
80002108:	00a787b3          	add	x15,x15,x10
8000210c:	00fa1023          	sh	x15,0(x20)
80002110:	fd541ce3          	bne	x8,x21,800020e8 <vec_mpy1+0x34>
80002114:	01c12083          	lw	x1,28(x2)
80002118:	01812403          	lw	x8,24(x2)
8000211c:	01412483          	lw	x9,20(x2)
80002120:	01012903          	lw	x18,16(x2)
80002124:	00c12983          	lw	x19,12(x2)
80002128:	00812a03          	lw	x20,8(x2)
8000212c:	00412a83          	lw	x21,4(x2)
80002130:	02010113          	addi	x2,x2,32
80002134:	00008067          	jalr	x0,0(x1)

80002138 <mac>:
80002138:	fd010113          	addi	x2,x2,-48
8000213c:	01312e23          	sw	x19,28(x2)
80002140:	0006a983          	lw	x19,0(x13)
80002144:	02812423          	sw	x8,40(x2)
80002148:	02912223          	sw	x9,36(x2)
8000214c:	03212023          	sw	x18,32(x2)
80002150:	01412c23          	sw	x20,24(x2)
80002154:	01512a23          	sw	x21,20(x2)
80002158:	01612823          	sw	x22,16(x2)
8000215c:	02112623          	sw	x1,44(x2)
80002160:	00050a13          	addi	x20,x10,0
80002164:	00058a93          	addi	x21,x11,0
80002168:	00068913          	addi	x18,x13,0
8000216c:	00060413          	addi	x8,x12,0
80002170:	00000493          	addi	x9,x0,0
80002174:	12c00b13          	addi	x22,x0,300
80002178:	009a87b3          	add	x15,x21,x9
8000217c:	00079583          	lh	x11,0(x15)
80002180:	009a07b3          	add	x15,x20,x9
80002184:	00079503          	lh	x10,0(x15)
80002188:	00b12623          	sw	x11,12(x2)
8000218c:	00248493          	addi	x9,x9,2
80002190:	231000ef          	jal	x1,80002bc0 <__mulsi3>
80002194:	00c12583          	lw	x11,12(x2)
80002198:	00a989b3          	add	x19,x19,x10
8000219c:	00058513          	addi	x10,x11,0
800021a0:	221000ef          	jal	x1,80002bc0 <__mulsi3>
800021a4:	00a40433          	add	x8,x8,x10
800021a8:	fd6498e3          	bne	x9,x22,80002178 <mac+0x40>
800021ac:	02c12083          	lw	x1,44(x2)
800021b0:	00040513          	addi	x10,x8,0
800021b4:	02812403          	lw	x8,40(x2)
800021b8:	01392023          	sw	x19,0(x18)
800021bc:	02412483          	lw	x9,36(x2)
800021c0:	02012903          	lw	x18,32(x2)
800021c4:	01c12983          	lw	x19,28(x2)
800021c8:	01812a03          	lw	x20,24(x2)
800021cc:	01412a83          	lw	x21,20(x2)
800021d0:	01012b03          	lw	x22,16(x2)
800021d4:	03010113          	addi	x2,x2,48
800021d8:	00008067          	jalr	x0,0(x1)

800021dc <fir>:
800021dc:	fd010113          	addi	x2,x2,-48
800021e0:	03212023          	sw	x18,32(x2)
800021e4:	01412c23          	sw	x20,24(x2)
800021e8:	01512a23          	sw	x21,20(x2)
800021ec:	01612823          	sw	x22,16(x2)
800021f0:	01712623          	sw	x23,12(x2)
800021f4:	01812423          	sw	x24,8(x2)
800021f8:	02112623          	sw	x1,44(x2)
800021fc:	02812423          	sw	x8,40(x2)
80002200:	02912223          	sw	x9,36(x2)
80002204:	01312e23          	sw	x19,28(x2)
80002208:	00050a13          	addi	x20,x10,0
8000220c:	00058a93          	addi	x21,x11,0
80002210:	00060b13          	addi	x22,x12,0
80002214:	00000913          	addi	x18,x0,0
80002218:	06400b93          	addi	x23,x0,100
8000221c:	03200c13          	addi	x24,x0,50
80002220:	00191993          	slli	x19,x18,0x1
80002224:	013a09b3          	add	x19,x20,x19
80002228:	00000493          	addi	x9,x0,0
8000222c:	00000413          	addi	x8,x0,0
80002230:	009987b3          	add	x15,x19,x9
80002234:	009a8733          	add	x14,x21,x9
80002238:	00071583          	lh	x11,0(x14)
8000223c:	00079503          	lh	x10,0(x15)
80002240:	00248493          	addi	x9,x9,2
80002244:	17d000ef          	jal	x1,80002bc0 <__mulsi3>
80002248:	00a40433          	add	x8,x8,x10
8000224c:	ff7492e3          	bne	x9,x23,80002230 <fir+0x54>
80002250:	00291793          	slli	x15,x18,0x2
80002254:	00fb07b3          	add	x15,x22,x15
80002258:	40f45413          	srai	x8,x8,0xf
8000225c:	0087a023          	sw	x8,0(x15)
80002260:	00190913          	addi	x18,x18,1
80002264:	fb891ee3          	bne	x18,x24,80002220 <fir+0x44>
80002268:	02c12083          	lw	x1,44(x2)
8000226c:	02812403          	lw	x8,40(x2)
80002270:	02412483          	lw	x9,36(x2)
80002274:	02012903          	lw	x18,32(x2)
80002278:	01c12983          	lw	x19,28(x2)
8000227c:	01812a03          	lw	x20,24(x2)
80002280:	01412a83          	lw	x21,20(x2)
80002284:	01012b03          	lw	x22,16(x2)
80002288:	00c12b83          	lw	x23,12(x2)
8000228c:	00812c03          	lw	x24,8(x2)
80002290:	03010113          	addi	x2,x2,48
80002294:	00008067          	jalr	x0,0(x1)

80002298 <fir_no_red_ld>:
80002298:	fb010113          	addi	x2,x2,-80
8000229c:	05212023          	sw	x18,64(x2)
800022a0:	03312e23          	sw	x19,60(x2)
800022a4:	03512a23          	sw	x21,52(x2)
800022a8:	03712623          	sw	x23,44(x2)
800022ac:	01b12e23          	sw	x27,28(x2)
800022b0:	04112623          	sw	x1,76(x2)
800022b4:	04812423          	sw	x8,72(x2)
800022b8:	04912223          	sw	x9,68(x2)
800022bc:	03412c23          	sw	x20,56(x2)
800022c0:	03612823          	sw	x22,48(x2)
800022c4:	03812423          	sw	x24,40(x2)
800022c8:	03912223          	sw	x25,36(x2)
800022cc:	03a12023          	sw	x26,32(x2)
800022d0:	00058a93          	addi	x21,x11,0
800022d4:	00050993          	addi	x19,x10,0
800022d8:	00060913          	addi	x18,x12,0
800022dc:	00000b93          	addi	x23,x0,0
800022e0:	04058793          	addi	x15,x11,64
800022e4:	06400d93          	addi	x27,x0,100
800022e8:	00099c03          	lh	x24,0(x19)
800022ec:	000a8a13          	addi	x20,x21,0
800022f0:	00098b13          	addi	x22,x19,0
800022f4:	00000413          	addi	x8,x0,0
800022f8:	00000493          	addi	x9,x0,0
800022fc:	000a1d03          	lh	x26,0(x20)
80002300:	000c0513          	addi	x10,x24,0
80002304:	00f12623          	sw	x15,12(x2)
80002308:	000d0593          	addi	x11,x26,0
8000230c:	0b5000ef          	jal	x1,80002bc0 <__mulsi3>
80002310:	002b1c83          	lh	x25,2(x22)
80002314:	009504b3          	add	x9,x10,x9
80002318:	000d0513          	addi	x10,x26,0
8000231c:	000c8593          	addi	x11,x25,0
80002320:	0a1000ef          	jal	x1,80002bc0 <__mulsi3>
80002324:	002a1583          	lh	x11,2(x20)
80002328:	00850433          	add	x8,x10,x8
8000232c:	000c8513          	addi	x10,x25,0
80002330:	004b1c03          	lh	x24,4(x22)
80002334:	00b12423          	sw	x11,8(x2)
80002338:	089000ef          	jal	x1,80002bc0 <__mulsi3>
8000233c:	00812583          	lw	x11,8(x2)
80002340:	009504b3          	add	x9,x10,x9
80002344:	000c0513          	addi	x10,x24,0
80002348:	079000ef          	jal	x1,80002bc0 <__mulsi3>
8000234c:	00c12783          	lw	x15,12(x2)
80002350:	004a0a13          	addi	x20,x20,4
80002354:	00850433          	add	x8,x10,x8
80002358:	004b0b13          	addi	x22,x22,4
8000235c:	fb4790e3          	bne	x15,x20,800022fc <fir_no_red_ld+0x64>
80002360:	40f4d493          	srai	x9,x9,0xf
80002364:	40f45413          	srai	x8,x8,0xf
80002368:	00992023          	sw	x9,0(x18)
8000236c:	00892223          	sw	x8,4(x18)
80002370:	002b8b93          	addi	x23,x23,2
80002374:	00498993          	addi	x19,x19,4
80002378:	00890913          	addi	x18,x18,8
8000237c:	f7bb96e3          	bne	x23,x27,800022e8 <fir_no_red_ld+0x50>
80002380:	04c12083          	lw	x1,76(x2)
80002384:	04812403          	lw	x8,72(x2)
80002388:	04412483          	lw	x9,68(x2)
8000238c:	04012903          	lw	x18,64(x2)
80002390:	03c12983          	lw	x19,60(x2)
80002394:	03812a03          	lw	x20,56(x2)
80002398:	03412a83          	lw	x21,52(x2)
8000239c:	03012b03          	lw	x22,48(x2)
800023a0:	02c12b83          	lw	x23,44(x2)
800023a4:	02812c03          	lw	x24,40(x2)
800023a8:	02412c83          	lw	x25,36(x2)
800023ac:	02012d03          	lw	x26,32(x2)
800023b0:	01c12d83          	lw	x27,28(x2)
800023b4:	05010113          	addi	x2,x2,80
800023b8:	00008067          	jalr	x0,0(x1)

800023bc <latsynth>:
800023bc:	fd010113          	addi	x2,x2,-48
800023c0:	02812423          	sw	x8,40(x2)
800023c4:	00161413          	slli	x8,x12,0x1
800023c8:	ffe40413          	addi	x8,x8,-2
800023cc:	008507b3          	add	x15,x10,x8
800023d0:	00858733          	add	x14,x11,x8
800023d4:	01312e23          	sw	x19,28(x2)
800023d8:	01412c23          	sw	x20,24(x2)
800023dc:	00050993          	addi	x19,x10,0
800023e0:	00058a13          	addi	x20,x11,0
800023e4:	00079503          	lh	x10,0(x15)
800023e8:	00071583          	lh	x11,0(x14)
800023ec:	02912223          	sw	x9,36(x2)
800023f0:	03212023          	sw	x18,32(x2)
800023f4:	00068493          	addi	x9,x13,0
800023f8:	00060913          	addi	x18,x12,0
800023fc:	02112623          	sw	x1,44(x2)
80002400:	01512a23          	sw	x21,20(x2)
80002404:	00240413          	addi	x8,x8,2
80002408:	7b8000ef          	jal	x1,80002bc0 <__mulsi3>
8000240c:	40a484b3          	sub	x9,x9,x10
80002410:	ffe90913          	addi	x18,x18,-2
80002414:	00898433          	add	x8,x19,x8
80002418:	ffe40413          	addi	x8,x8,-2
8000241c:	02095a63          	bge	x18,x0,80002450 <latsynth+0x94>
80002420:	02c12083          	lw	x1,44(x2)
80002424:	02812403          	lw	x8,40(x2)
80002428:	4104d793          	srai	x15,x9,0x10
8000242c:	00f99023          	sh	x15,0(x19)
80002430:	02012903          	lw	x18,32(x2)
80002434:	01c12983          	lw	x19,28(x2)
80002438:	01812a03          	lw	x20,24(x2)
8000243c:	01412a83          	lw	x21,20(x2)
80002440:	00048513          	addi	x10,x9,0
80002444:	02412483          	lw	x9,36(x2)
80002448:	03010113          	addi	x2,x2,48
8000244c:	00008067          	jalr	x0,0(x1)
80002450:	00191793          	slli	x15,x18,0x1
80002454:	00fa07b3          	add	x15,x20,x15
80002458:	ffe41a83          	lh	x21,-2(x8)
8000245c:	00079583          	lh	x11,0(x15)
80002460:	fff90913          	addi	x18,x18,-1
80002464:	000a8513          	addi	x10,x21,0
80002468:	00b12623          	sw	x11,12(x2)
8000246c:	754000ef          	jal	x1,80002bc0 <__mulsi3>
80002470:	00c12583          	lw	x11,12(x2)
80002474:	40a484b3          	sub	x9,x9,x10
80002478:	4104d513          	srai	x10,x9,0x10
8000247c:	744000ef          	jal	x1,80002bc0 <__mulsi3>
80002480:	41055513          	srai	x10,x10,0x10
80002484:	01550533          	add	x10,x10,x21
80002488:	00a41023          	sh	x10,0(x8)
8000248c:	f8dff06f          	jal	x0,80002418 <latsynth+0x5c>

80002490 <iir1>:
80002490:	fd010113          	addi	x2,x2,-48
80002494:	02812423          	sw	x8,40(x2)
80002498:	00059403          	lh	x8,0(x11)
8000249c:	02912223          	sw	x9,36(x2)
800024a0:	01312e23          	sw	x19,28(x2)
800024a4:	01412c23          	sw	x20,24(x2)
800024a8:	01712623          	sw	x23,12(x2)
800024ac:	02112623          	sw	x1,44(x2)
800024b0:	03212023          	sw	x18,32(x2)
800024b4:	01512a23          	sw	x21,20(x2)
800024b8:	01612823          	sw	x22,16(x2)
800024bc:	00050493          	addi	x9,x10,0
800024c0:	00060a13          	addi	x20,x12,0
800024c4:	00068993          	addi	x19,x13,0
800024c8:	19050b93          	addi	x23,x10,400
800024cc:	0009ab03          	lw	x22,0(x19)
800024d0:	00449503          	lh	x10,4(x9)
800024d4:	0049aa83          	lw	x21,4(x19)
800024d8:	000b0593          	addi	x11,x22,0
800024dc:	6e4000ef          	jal	x1,80002bc0 <__mulsi3>
800024e0:	00050913          	addi	x18,x10,0
800024e4:	00649503          	lh	x10,6(x9)
800024e8:	000a8593          	addi	x11,x21,0
800024ec:	00848493          	addi	x9,x9,8
800024f0:	6d0000ef          	jal	x1,80002bc0 <__mulsi3>
800024f4:	00a90933          	add	x18,x18,x10
800024f8:	ff849503          	lh	x10,-8(x9)
800024fc:	000b0593          	addi	x11,x22,0
80002500:	40f95913          	srai	x18,x18,0xf
80002504:	6bc000ef          	jal	x1,80002bc0 <__mulsi3>
80002508:	00890933          	add	x18,x18,x8
8000250c:	00050413          	addi	x8,x10,0
80002510:	ffa49503          	lh	x10,-6(x9)
80002514:	000a8593          	addi	x11,x21,0
80002518:	00898993          	addi	x19,x19,8
8000251c:	6a4000ef          	jal	x1,80002bc0 <__mulsi3>
80002520:	00a40433          	add	x8,x8,x10
80002524:	40f45413          	srai	x8,x8,0xf
80002528:	ff69ae23          	sw	x22,-4(x19)
8000252c:	ff29ac23          	sw	x18,-8(x19)
80002530:	01240433          	add	x8,x8,x18
80002534:	f9749ce3          	bne	x9,x23,800024cc <iir1+0x3c>
80002538:	008a2023          	sw	x8,0(x20)
8000253c:	02c12083          	lw	x1,44(x2)
80002540:	02812403          	lw	x8,40(x2)
80002544:	02412483          	lw	x9,36(x2)
80002548:	02012903          	lw	x18,32(x2)
8000254c:	01c12983          	lw	x19,28(x2)
80002550:	01812a03          	lw	x20,24(x2)
80002554:	01412a83          	lw	x21,20(x2)
80002558:	01012b03          	lw	x22,16(x2)
8000255c:	00c12b83          	lw	x23,12(x2)
80002560:	03010113          	addi	x2,x2,48
80002564:	00008067          	jalr	x0,0(x1)

80002568 <codebook>:
80002568:	00070513          	addi	x10,x14,0
8000256c:	00008067          	jalr	x0,0(x1)

80002570 <jpegdct>:
80002570:	f5010113          	addi	x2,x2,-176
80002574:	0a812423          	sw	x8,168(x2)
80002578:	09712623          	sw	x23,140(x2)
8000257c:	09912223          	sw	x25,132(x2)
80002580:	07b12e23          	sw	x27,124(x2)
80002584:	0a112623          	sw	x1,172(x2)
80002588:	0a912223          	sw	x9,164(x2)
8000258c:	0b212023          	sw	x18,160(x2)
80002590:	09312e23          	sw	x19,156(x2)
80002594:	09412c23          	sw	x20,152(x2)
80002598:	09512a23          	sw	x21,148(x2)
8000259c:	09612823          	sw	x22,144(x2)
800025a0:	09812423          	sw	x24,136(x2)
800025a4:	09a12023          	sw	x26,128(x2)
800025a8:	00050c93          	addi	x25,x10,0
800025ac:	00058413          	addi	x8,x11,0
800025b0:	00000d93          	addi	x27,x0,0
800025b4:	00200793          	addi	x15,x0,2
800025b8:	00600693          	addi	x13,x0,6
800025bc:	00a00613          	addi	x12,x0,10
800025c0:	00e00813          	addi	x16,x0,14
800025c4:	00c00893          	addi	x17,x0,12
800025c8:	00400313          	addi	x6,x0,4
800025cc:	00800e13          	addi	x28,x0,8
800025d0:	00000b93          	addi	x23,x0,0
800025d4:	08000713          	addi	x14,x0,128
800025d8:	010d8593          	addi	x11,x27,16
800025dc:	00b12023          	sw	x11,0(x2)
800025e0:	ffed8593          	addi	x11,x27,-2
800025e4:	000c8993          	addi	x19,x25,0
800025e8:	00800c13          	addi	x24,x0,8
800025ec:	00b12223          	sw	x11,4(x2)
800025f0:	00db8b13          	addi	x22,x23,13
800025f4:	2e80006f          	jal	x0,800028dc <jpegdct+0x36c>
800025f8:	000f9f03          	lh	x30,0(x31)
800025fc:	00059283          	lh	x5,0(x11)
80002600:	ffc50513          	addi	x10,x10,-4
80002604:	00ff8fb3          	add	x31,x31,x15
80002608:	005f03b3          	add	x7,x30,x5
8000260c:	007ea023          	sw	x7,0(x29)
80002610:	405f0f33          	sub	x30,x30,x5
80002614:	03e52023          	sw	x30,32(x10)
80002618:	00412f03          	lw	x30,4(x2)
8000261c:	004e8e93          	addi	x29,x29,4
80002620:	01e585b3          	add	x11,x11,x30
80002624:	03010f13          	addi	x30,x2,48
80002628:	fcaf18e3          	bne	x30,x10,800025f8 <jpegdct+0x88>
8000262c:	04c12583          	lw	x11,76(x2)
80002630:	04012a03          	lw	x20,64(x2)
80002634:	04412903          	lw	x18,68(x2)
80002638:	02e12e23          	sw	x14,60(x2)
8000263c:	00ba0533          	add	x10,x20,x11
80002640:	40ba0a33          	sub	x20,x20,x11
80002644:	04812583          	lw	x11,72(x2)
80002648:	03012c23          	sw	x16,56(x2)
8000264c:	03c12423          	sw	x28,40(x2)
80002650:	00b90eb3          	add	x29,x18,x11
80002654:	40b90933          	sub	x18,x18,x11
80002658:	01d505b3          	add	x11,x10,x29
8000265c:	4175d5b3          	sra	x11,x11,x23
80002660:	41d50533          	sub	x10,x10,x29
80002664:	00b99023          	sh	x11,0(x19)
80002668:	41755533          	sra	x10,x10,x23
8000266c:	01c985b3          	add	x11,x19,x28
80002670:	00a59023          	sh	x10,0(x11)
80002674:	01441583          	lh	x11,20(x8)
80002678:	01490533          	add	x10,x18,x20
8000267c:	01051513          	slli	x10,x10,0x10
80002680:	41055513          	srai	x10,x10,0x10
80002684:	02d12823          	sw	x13,48(x2)
80002688:	02c12a23          	sw	x12,52(x2)
8000268c:	02f12623          	sw	x15,44(x2)
80002690:	01112623          	sw	x17,12(x2)
80002694:	00612823          	sw	x6,16(x2)
80002698:	528000ef          	jal	x1,80002bc0 <__mulsi3>
8000269c:	01012303          	lw	x6,16(x2)
800026a0:	01051493          	slli	x9,x10,0x10
800026a4:	01241503          	lh	x10,18(x8)
800026a8:	000a0593          	addi	x11,x20,0
800026ac:	00698ab3          	add	x21,x19,x6
800026b0:	02612223          	sw	x6,36(x2)
800026b4:	50c000ef          	jal	x1,80002bc0 <__mulsi3>
800026b8:	0104d493          	srli	x9,x9,0x10
800026bc:	41655533          	sra	x10,x10,x22
800026c0:	00a48533          	add	x10,x9,x10
800026c4:	00aa9023          	sh	x10,0(x21)
800026c8:	00c12883          	lw	x17,12(x2)
800026cc:	01641503          	lh	x10,22(x8)
800026d0:	00090593          	addi	x11,x18,0
800026d4:	01198a33          	add	x20,x19,x17
800026d8:	03112023          	sw	x17,32(x2)
800026dc:	4e4000ef          	jal	x1,80002bc0 <__mulsi3>
800026e0:	05012383          	lw	x7,80(x2)
800026e4:	05c12d03          	lw	x26,92(x2)
800026e8:	41655533          	sra	x10,x10,x22
800026ec:	01039293          	slli	x5,x7,0x10
800026f0:	00a484b3          	add	x9,x9,x10
800026f4:	010d1e93          	slli	x29,x26,0x10
800026f8:	010ede93          	srli	x29,x29,0x10
800026fc:	0102d293          	srli	x5,x5,0x10
80002700:	009a1023          	sh	x9,0(x20)
80002704:	01d28533          	add	x10,x5,x29
80002708:	00441583          	lh	x11,4(x8)
8000270c:	01051513          	slli	x10,x10,0x10
80002710:	41055513          	srai	x10,x10,0x10
80002714:	01d12c23          	sw	x29,24(x2)
80002718:	00512823          	sw	x5,16(x2)
8000271c:	00712e23          	sw	x7,28(x2)
80002720:	4a0000ef          	jal	x1,80002bc0 <__mulsi3>
80002724:	05412483          	lw	x9,84(x2)
80002728:	05812903          	lw	x18,88(x2)
8000272c:	00041583          	lh	x11,0(x8)
80002730:	01049f93          	slli	x31,x9,0x10
80002734:	01091f13          	slli	x30,x18,0x10
80002738:	010f5f13          	srli	x30,x30,0x10
8000273c:	010fdf93          	srli	x31,x31,0x10
80002740:	00050a13          	addi	x20,x10,0
80002744:	04a12023          	sw	x10,64(x2)
80002748:	01ef8533          	add	x10,x31,x30
8000274c:	01051513          	slli	x10,x10,0x10
80002750:	41055513          	srai	x10,x10,0x10
80002754:	01e12a23          	sw	x30,20(x2)
80002758:	01f12623          	sw	x31,12(x2)
8000275c:	464000ef          	jal	x1,80002bc0 <__mulsi3>
80002760:	01c12383          	lw	x7,28(x2)
80002764:	009d0d33          	add	x26,x26,x9
80002768:	01041583          	lh	x11,16(x8)
8000276c:	01238933          	add	x18,x7,x18
80002770:	00050a93          	addi	x21,x10,0
80002774:	04a12223          	sw	x10,68(x2)
80002778:	01a90533          	add	x10,x18,x26
8000277c:	01051513          	slli	x10,x10,0x10
80002780:	41055513          	srai	x10,x10,0x10
80002784:	43c000ef          	jal	x1,80002bc0 <__mulsi3>
80002788:	00050493          	addi	x9,x10,0
8000278c:	00241503          	lh	x10,2(x8)
80002790:	01091593          	slli	x11,x18,0x10
80002794:	4105d593          	srai	x11,x11,0x10
80002798:	428000ef          	jal	x1,80002bc0 <__mulsi3>
8000279c:	00950933          	add	x18,x10,x9
800027a0:	00641503          	lh	x10,6(x8)
800027a4:	010d1593          	slli	x11,x26,0x10
800027a8:	4105d593          	srai	x11,x11,0x10
800027ac:	05212423          	sw	x18,72(x2)
800027b0:	410000ef          	jal	x1,80002bc0 <__mulsi3>
800027b4:	01012283          	lw	x5,16(x2)
800027b8:	00845583          	lhu	x11,8(x8)
800027bc:	009504b3          	add	x9,x10,x9
800027c0:	010a1a13          	slli	x20,x20,0x10
800027c4:	00028513          	addi	x10,x5,0
800027c8:	04912623          	sw	x9,76(x2)
800027cc:	010a5a13          	srli	x20,x20,0x10
800027d0:	3f0000ef          	jal	x1,80002bc0 <__mulsi3>
800027d4:	01091913          	slli	x18,x18,0x10
800027d8:	00aa05b3          	add	x11,x20,x10
800027dc:	01095913          	srli	x18,x18,0x10
800027e0:	00b905b3          	add	x11,x18,x11
800027e4:	00812783          	lw	x15,8(x2)
800027e8:	01059593          	slli	x11,x11,0x10
800027ec:	4105d593          	srai	x11,x11,0x10
800027f0:	4165d5b3          	sra	x11,x11,x22
800027f4:	00b79023          	sh	x11,0(x15)
800027f8:	03412603          	lw	x12,52(x2)
800027fc:	00c12f83          	lw	x31,12(x2)
80002800:	00c45583          	lhu	x11,12(x8)
80002804:	010a9a93          	slli	x21,x21,0x10
80002808:	000f8513          	addi	x10,x31,0
8000280c:	00c98d33          	add	x26,x19,x12
80002810:	00c12823          	sw	x12,16(x2)
80002814:	010ada93          	srli	x21,x21,0x10
80002818:	3a8000ef          	jal	x1,80002bc0 <__mulsi3>
8000281c:	01049493          	slli	x9,x9,0x10
80002820:	00aa85b3          	add	x11,x21,x10
80002824:	0104d493          	srli	x9,x9,0x10
80002828:	00b485b3          	add	x11,x9,x11
8000282c:	01059593          	slli	x11,x11,0x10
80002830:	4105d593          	srai	x11,x11,0x10
80002834:	4165d5b3          	sra	x11,x11,x22
80002838:	01412f03          	lw	x30,20(x2)
8000283c:	00bd1023          	sh	x11,0(x26)
80002840:	03012683          	lw	x13,48(x2)
80002844:	00a45583          	lhu	x11,10(x8)
80002848:	000f0513          	addi	x10,x30,0
8000284c:	00d98d33          	add	x26,x19,x13
80002850:	00d12623          	sw	x13,12(x2)
80002854:	36c000ef          	jal	x1,80002bc0 <__mulsi3>
80002858:	00aa8ab3          	add	x21,x21,x10
8000285c:	01590933          	add	x18,x18,x21
80002860:	01091913          	slli	x18,x18,0x10
80002864:	41095913          	srai	x18,x18,0x10
80002868:	41695933          	sra	x18,x18,x22
8000286c:	012d1023          	sh	x18,0(x26)
80002870:	01812e83          	lw	x29,24(x2)
80002874:	02c12783          	lw	x15,44(x2)
80002878:	00e45583          	lhu	x11,14(x8)
8000287c:	000e8513          	addi	x10,x29,0
80002880:	00f98933          	add	x18,x19,x15
80002884:	00f12423          	sw	x15,8(x2)
80002888:	338000ef          	jal	x1,80002bc0 <__mulsi3>
8000288c:	00aa0a33          	add	x20,x20,x10
80002890:	014484b3          	add	x9,x9,x20
80002894:	01049493          	slli	x9,x9,0x10
80002898:	00012783          	lw	x15,0(x2)
8000289c:	4104d493          	srai	x9,x9,0x10
800028a0:	fffc0c13          	addi	x24,x24,-1
800028a4:	4164d4b3          	sra	x9,x9,x22
800028a8:	010c1c13          	slli	x24,x24,0x10
800028ac:	00991023          	sh	x9,0(x18)
800028b0:	010c5c13          	srli	x24,x24,0x10
800028b4:	00f989b3          	add	x19,x19,x15
800028b8:	00c12683          	lw	x13,12(x2)
800028bc:	00812783          	lw	x15,8(x2)
800028c0:	01012603          	lw	x12,16(x2)
800028c4:	02012883          	lw	x17,32(x2)
800028c8:	02412303          	lw	x6,36(x2)
800028cc:	02812e03          	lw	x28,40(x2)
800028d0:	03812803          	lw	x16,56(x2)
800028d4:	03c12703          	lw	x14,60(x2)
800028d8:	000c0e63          	beq	x24,x0,800028f4 <jpegdct+0x384>
800028dc:	013805b3          	add	x11,x16,x19
800028e0:	04010e93          	addi	x29,x2,64
800028e4:	00098f93          	addi	x31,x19,0
800028e8:	000e8513          	addi	x10,x29,0
800028ec:	00b12423          	sw	x11,8(x2)
800028f0:	d09ff06f          	jal	x0,800025f8 <jpegdct+0x88>
800028f4:	f8070593          	addi	x11,x14,-128
800028f8:	00bc8cb3          	add	x25,x25,x11
800028fc:	f9070713          	addi	x14,x14,-112
80002900:	fa000593          	addi	x11,x0,-96
80002904:	003b8b93          	addi	x23,x23,3
80002908:	038e0e13          	addi	x28,x28,56
8000290c:	01c30313          	addi	x6,x6,28
80002910:	05488893          	addi	x17,x17,84
80002914:	06280813          	addi	x16,x16,98
80002918:	04660613          	addi	x12,x12,70
8000291c:	02a68693          	addi	x13,x13,42
80002920:	00e78793          	addi	x15,x15,14
80002924:	ff2d8d93          	addi	x27,x27,-14
80002928:	cab718e3          	bne	x14,x11,800025d8 <jpegdct+0x68>
8000292c:	0ac12083          	lw	x1,172(x2)
80002930:	0a812403          	lw	x8,168(x2)
80002934:	0a412483          	lw	x9,164(x2)
80002938:	0a012903          	lw	x18,160(x2)
8000293c:	09c12983          	lw	x19,156(x2)
80002940:	09812a03          	lw	x20,152(x2)
80002944:	09412a83          	lw	x21,148(x2)
80002948:	09012b03          	lw	x22,144(x2)
8000294c:	08c12b83          	lw	x23,140(x2)
80002950:	08812c03          	lw	x24,136(x2)
80002954:	08412c83          	lw	x25,132(x2)
80002958:	08012d03          	lw	x26,128(x2)
8000295c:	07c12d83          	lw	x27,124(x2)
80002960:	0b010113          	addi	x2,x2,176
80002964:	00008067          	jalr	x0,0(x1)

80002968 <benchmark_body>:
80002968:	cb010113          	addi	x2,x2,-848
8000296c:	34812423          	sw	x8,840(x2)
80002970:	35212023          	sw	x18,832(x2)
80002974:	80003437          	lui	x8,0x80003
80002978:	80003937          	lui	x18,0x80003
8000297c:	dc490913          	addi	x18,x18,-572 # 80002dc4 <_end+0xfffff374>
80002980:	40440413          	addi	x8,x8,1028 # 80003404 <_end+0xfffff9b4>
80002984:	34912223          	sw	x9,836(x2)
80002988:	33512a23          	sw	x21,820(x2)
8000298c:	33612823          	sw	x22,816(x2)
80002990:	33712623          	sw	x23,812(x2)
80002994:	33812423          	sw	x24,808(x2)
80002998:	33912223          	sw	x25,804(x2)
8000299c:	34112623          	sw	x1,844(x2)
800029a0:	33312e23          	sw	x19,828(x2)
800029a4:	33412c23          	sw	x20,824(x2)
800029a8:	00050a93          	addi	x21,x10,0
800029ac:	00000b13          	addi	x22,x0,0
800029b0:	19090b93          	addi	x23,x18,400
800029b4:	19040493          	addi	x9,x8,400
800029b8:	80004c37          	lui	x24,0x80004
800029bc:	80004cb7          	lui	x25,0x80004
800029c0:	035b4e63          	blt	x22,x21,800029fc <benchmark_body+0x94>
800029c4:	34c12083          	lw	x1,844(x2)
800029c8:	34812403          	lw	x8,840(x2)
800029cc:	34412483          	lw	x9,836(x2)
800029d0:	34012903          	lw	x18,832(x2)
800029d4:	33c12983          	lw	x19,828(x2)
800029d8:	33812a03          	lw	x20,824(x2)
800029dc:	33412a83          	lw	x21,820(x2)
800029e0:	33012b03          	lw	x22,816(x2)
800029e4:	32c12b83          	lw	x23,812(x2)
800029e8:	32812c03          	lw	x24,808(x2)
800029ec:	32412c83          	lw	x25,804(x2)
800029f0:	00000513          	addi	x10,x0,0
800029f4:	35010113          	addi	x2,x2,848
800029f8:	00008067          	jalr	x0,0(x1)
800029fc:	19000613          	addi	x12,x0,400
80002a00:	00090593          	addi	x11,x18,0
80002a04:	00010513          	addi	x10,x2,0
80002a08:	294000ef          	jal	x1,80002c9c <memcpy>
80002a0c:	19000613          	addi	x12,x0,400
80002a10:	000b8593          	addi	x11,x23,0
80002a14:	19010513          	addi	x10,x2,400
80002a18:	284000ef          	jal	x1,80002c9c <memcpy>
80002a1c:	00000793          	addi	x15,x0,0
80002a20:	19000713          	addi	x14,x0,400
80002a24:	00f10633          	add	x12,x2,x15
80002a28:	00065603          	lhu	x12,0(x12)
80002a2c:	00f406b3          	add	x13,x8,x15
80002a30:	00c69023          	sh	x12,0(x13)
80002a34:	19010613          	addi	x12,x2,400
80002a38:	00f60633          	add	x12,x12,x15
80002a3c:	00065603          	lhu	x12,0(x12)
80002a40:	00f486b3          	add	x13,x9,x15
80002a44:	00278793          	addi	x15,x15,2
80002a48:	00c69023          	sh	x12,0(x13)
80002a4c:	fce79ce3          	bne	x15,x14,80002a24 <benchmark_body+0xbc>
80002a50:	00300613          	addi	x12,x0,3
80002a54:	00048593          	addi	x11,x9,0
80002a58:	00040513          	addi	x10,x8,0
80002a5c:	e58ff0ef          	jal	x1,800020b4 <vec_mpy1>
80002a60:	32040a13          	addi	x20,x8,800
80002a64:	000a0693          	addi	x13,x20,0
80002a68:	00300613          	addi	x12,x0,3
80002a6c:	00048593          	addi	x11,x9,0
80002a70:	00040513          	addi	x10,x8,0
80002a74:	ec4ff0ef          	jal	x1,80002138 <mac>
80002a78:	a4ac1623          	sh	x10,-1460(x24) # 80003a4c <_end+0xfffffffc>
80002a7c:	000a0613          	addi	x12,x20,0
80002a80:	00048593          	addi	x11,x9,0
80002a84:	00040513          	addi	x10,x8,0
80002a88:	f54ff0ef          	jal	x1,800021dc <fir>
80002a8c:	000a0613          	addi	x12,x20,0
80002a90:	00048593          	addi	x11,x9,0
80002a94:	00040513          	addi	x10,x8,0
80002a98:	801ff0ef          	jal	x1,80002298 <fir_no_red_ld>
80002a9c:	0000b6b7          	lui	x13,0xb
80002aa0:	aaa68693          	addi	x13,x13,-1366 # aaaa <SYSCALL_ADDR-0x1f6556>
80002aa4:	06400613          	addi	x12,x0,100
80002aa8:	00048593          	addi	x11,x9,0
80002aac:	00040513          	addi	x10,x8,0
80002ab0:	90dff0ef          	jal	x1,800023bc <latsynth>
80002ab4:	00050993          	addi	x19,x10,0
80002ab8:	a4aca423          	sw	x10,-1464(x25) # 80003a48 <_end+0xfffffff8>
80002abc:	000a0693          	addi	x13,x20,0
80002ac0:	4b040613          	addi	x12,x8,1200
80002ac4:	00048593          	addi	x11,x9,0
80002ac8:	00040513          	addi	x10,x8,0
80002acc:	9c5ff0ef          	jal	x1,80002490 <iir1>
80002ad0:	800047b7          	lui	x15,0x80004
80002ad4:	00048593          	addi	x11,x9,0
80002ad8:	00040513          	addi	x10,x8,0
80002adc:	a537a223          	sw	x19,-1468(x15) # 80003a44 <_end+0xfffffff4>
80002ae0:	001b0b13          	addi	x22,x22,1
80002ae4:	a8dff0ef          	jal	x1,80002570 <jpegdct>
80002ae8:	ed9ff06f          	jal	x0,800029c0 <benchmark_body+0x58>

80002aec <initialise_benchmark>:
80002aec:	00008067          	jalr	x0,0(x1)

80002af0 <warm_caches>:
80002af0:	e79ff06f          	jal	x0,80002968 <benchmark_body>

80002af4 <benchmark>:
80002af4:	05700513          	addi	x10,x0,87
80002af8:	e71ff06f          	jal	x0,80002968 <benchmark_body>

80002afc <verify_benchmark>:
80002afc:	cd010113          	addi	x2,x2,-816
80002b00:	800035b7          	lui	x11,0x80003
80002b04:	32000613          	addi	x12,x0,800
80002b08:	0e458593          	addi	x11,x11,228 # 800030e4 <_end+0xfffff694>
80002b0c:	00010513          	addi	x10,x2,0
80002b10:	32112623          	sw	x1,812(x2)
80002b14:	188000ef          	jal	x1,80002c9c <memcpy>
80002b18:	80003537          	lui	x10,0x80003
80002b1c:	32000613          	addi	x12,x0,800
80002b20:	00010593          	addi	x11,x2,0
80002b24:	72450513          	addi	x10,x10,1828 # 80003724 <_end+0xfffffcd4>
80002b28:	0fc000ef          	jal	x1,80002c24 <memcmp>
80002b2c:	04051863          	bne	x10,x0,80002b7c <verify_benchmark+0x80>
80002b30:	800047b7          	lui	x15,0x80004
80002b34:	a4c79703          	lh	x14,-1460(x15) # 80003a4c <_end+0xfffffffc>
80002b38:	000037b7          	lui	x15,0x3
80002b3c:	80378793          	addi	x15,x15,-2045 # 2803 <SYSCALL_ADDR-0x1fe7fd>
80002b40:	02f71863          	bne	x14,x15,80002b70 <verify_benchmark+0x74>
80002b44:	800047b7          	lui	x15,0x80004
80002b48:	a487a703          	lw	x14,-1464(x15) # 80003a48 <_end+0xfffffff8>
80002b4c:	e5a967b7          	lui	x15,0xe5a96
80002b50:	9ea78793          	addi	x15,x15,-1558 # e5a959ea <_end+0x65a91f9a>
80002b54:	00f71e63          	bne	x14,x15,80002b70 <verify_benchmark+0x74>
80002b58:	800047b7          	lui	x15,0x80004
80002b5c:	a447a503          	lw	x10,-1468(x15) # 80003a44 <_end+0xfffffff4>
80002b60:	1a56a7b7          	lui	x15,0x1a56a
80002b64:	61678793          	addi	x15,x15,1558 # 1a56a616 <SYSCALL_ADDR+0x1a369616>
80002b68:	00f50533          	add	x10,x10,x15
80002b6c:	00153513          	sltiu	x10,x10,1
80002b70:	32c12083          	lw	x1,812(x2)
80002b74:	33010113          	addi	x2,x2,816
80002b78:	00008067          	jalr	x0,0(x1)
80002b7c:	00000513          	addi	x10,x0,0
80002b80:	ff1ff06f          	jal	x0,80002b70 <verify_benchmark+0x74>

80002b84 <initialise_board>:
80002b84:	00000513          	addi	x10,x0,0
80002b88:	00008067          	jalr	x0,0(x1)

80002b8c <start_trigger>:
80002b8c:	00000513          	addi	x10,x0,0
80002b90:	deadc2b7          	lui	x5,0xdeadc
80002b94:	eef28293          	addi	x5,x5,-273 # deadbeef <_end+0x5ead849f>
80002b98:	00008067          	jalr	x0,0(x1)

80002b9c <stop_trigger>:
80002b9c:	beefe2b7          	lui	x5,0xbeefe
80002ba0:	ead28293          	addi	x5,x5,-339 # beefdead <_end+0x3eefa45d>
80002ba4:	05d00893          	addi	x17,x0,93
80002ba8:	00000513          	addi	x10,x0,0
80002bac:	020102b7          	lui	x5,0x2010
80002bb0:	f1402873          	csrrs	x16,mhartid,x0
80002bb4:	0102a023          	sw	x16,0(x5) # 2010000 <SYSCALL_ADDR+0x1e0f000>
80002bb8:	0112a023          	sw	x17,0(x5)
80002bbc:	00008067          	jalr	x0,0(x1)

80002bc0 <__mulsi3>:
80002bc0:	00050613          	addi	x12,x10,0
80002bc4:	00000513          	addi	x10,x0,0
80002bc8:	0015f693          	andi	x13,x11,1
80002bcc:	00068463          	beq	x13,x0,80002bd4 <__mulsi3+0x14>
80002bd0:	00c50533          	add	x10,x10,x12
80002bd4:	0015d593          	srli	x11,x11,0x1
80002bd8:	00161613          	slli	x12,x12,0x1
80002bdc:	fe0596e3          	bne	x11,x0,80002bc8 <__mulsi3+0x8>
80002be0:	00008067          	jalr	x0,0(x1)

Disassembly of section .text.startup:

80002be4 <main>:
80002be4:	fe010113          	addi	x2,x2,-32
80002be8:	00112e23          	sw	x1,28(x2)
80002bec:	f99ff0ef          	jal	x1,80002b84 <initialise_board>
80002bf0:	efdff0ef          	jal	x1,80002aec <initialise_benchmark>
80002bf4:	00100513          	addi	x10,x0,1
80002bf8:	ef9ff0ef          	jal	x1,80002af0 <warm_caches>
80002bfc:	f91ff0ef          	jal	x1,80002b8c <start_trigger>
80002c00:	ef5ff0ef          	jal	x1,80002af4 <benchmark>
80002c04:	00a12623          	sw	x10,12(x2)
80002c08:	f95ff0ef          	jal	x1,80002b9c <stop_trigger>
80002c0c:	00c12503          	lw	x10,12(x2)
80002c10:	eedff0ef          	jal	x1,80002afc <verify_benchmark>
80002c14:	01c12083          	lw	x1,28(x2)
80002c18:	00153513          	sltiu	x10,x10,1
80002c1c:	02010113          	addi	x2,x2,32
80002c20:	00008067          	jalr	x0,0(x1)

Disassembly of section .text.memcmp:

80002c24 <memcmp>:
80002c24:	00300793          	addi	x15,x0,3
80002c28:	02c7f863          	bgeu	x15,x12,80002c58 <memcmp+0x34>
80002c2c:	00b567b3          	or	x15,x10,x11
80002c30:	0037f793          	andi	x15,x15,3
80002c34:	00300693          	addi	x13,x0,3
80002c38:	04079e63          	bne	x15,x0,80002c94 <memcmp+0x70>
80002c3c:	00052703          	lw	x14,0(x10)
80002c40:	0005a783          	lw	x15,0(x11)
80002c44:	04f71863          	bne	x14,x15,80002c94 <memcmp+0x70>
80002c48:	ffc60613          	addi	x12,x12,-4
80002c4c:	00450513          	addi	x10,x10,4
80002c50:	00458593          	addi	x11,x11,4
80002c54:	fec6e4e3          	bltu	x13,x12,80002c3c <memcmp+0x18>
80002c58:	fff60693          	addi	x13,x12,-1
80002c5c:	02060863          	beq	x12,x0,80002c8c <memcmp+0x68>
80002c60:	00168693          	addi	x13,x13,1
80002c64:	00d506b3          	add	x13,x10,x13
80002c68:	0080006f          	jal	x0,80002c70 <memcmp+0x4c>
80002c6c:	02d50063          	beq	x10,x13,80002c8c <memcmp+0x68>
80002c70:	00054783          	lbu	x15,0(x10)
80002c74:	0005c703          	lbu	x14,0(x11)
80002c78:	00150513          	addi	x10,x10,1
80002c7c:	00158593          	addi	x11,x11,1
80002c80:	fee786e3          	beq	x15,x14,80002c6c <memcmp+0x48>
80002c84:	40e78533          	sub	x10,x15,x14
80002c88:	00008067          	jalr	x0,0(x1)
80002c8c:	00000513          	addi	x10,x0,0
80002c90:	00008067          	jalr	x0,0(x1)
80002c94:	fff60693          	addi	x13,x12,-1
80002c98:	fc9ff06f          	jal	x0,80002c60 <memcmp+0x3c>

Disassembly of section .text.memcpy:

80002c9c <memcpy>:
80002c9c:	00a5c7b3          	xor	x15,x11,x10
80002ca0:	0037f793          	andi	x15,x15,3
80002ca4:	00c508b3          	add	x17,x10,x12
80002ca8:	06079663          	bne	x15,x0,80002d14 <memcpy+0x78>
80002cac:	00300793          	addi	x15,x0,3
80002cb0:	06c7f263          	bgeu	x15,x12,80002d14 <memcpy+0x78>
80002cb4:	00357793          	andi	x15,x10,3
80002cb8:	00050713          	addi	x14,x10,0
80002cbc:	0c079a63          	bne	x15,x0,80002d90 <memcpy+0xf4>
80002cc0:	ffc8f613          	andi	x12,x17,-4
80002cc4:	40e606b3          	sub	x13,x12,x14
80002cc8:	02000793          	addi	x15,x0,32
80002ccc:	02000293          	addi	x5,x0,32
80002cd0:	06d7c263          	blt	x15,x13,80002d34 <memcpy+0x98>
80002cd4:	00058693          	addi	x13,x11,0
80002cd8:	00070793          	addi	x15,x14,0
80002cdc:	02c77863          	bgeu	x14,x12,80002d0c <memcpy+0x70>
80002ce0:	0006a803          	lw	x16,0(x13)
80002ce4:	00478793          	addi	x15,x15,4
80002ce8:	00468693          	addi	x13,x13,4
80002cec:	ff07ae23          	sw	x16,-4(x15)
80002cf0:	fec7e8e3          	bltu	x15,x12,80002ce0 <memcpy+0x44>
80002cf4:	fff60793          	addi	x15,x12,-1
80002cf8:	40e787b3          	sub	x15,x15,x14
80002cfc:	ffc7f793          	andi	x15,x15,-4
80002d00:	00478793          	addi	x15,x15,4
80002d04:	00f70733          	add	x14,x14,x15
80002d08:	00f585b3          	add	x11,x11,x15
80002d0c:	01176863          	bltu	x14,x17,80002d1c <memcpy+0x80>
80002d10:	00008067          	jalr	x0,0(x1)
80002d14:	00050713          	addi	x14,x10,0
80002d18:	ff157ce3          	bgeu	x10,x17,80002d10 <memcpy+0x74>
80002d1c:	0005c783          	lbu	x15,0(x11)
80002d20:	00170713          	addi	x14,x14,1
80002d24:	00158593          	addi	x11,x11,1
80002d28:	fef70fa3          	sb	x15,-1(x14)
80002d2c:	ff1768e3          	bltu	x14,x17,80002d1c <memcpy+0x80>
80002d30:	00008067          	jalr	x0,0(x1)
80002d34:	0045a683          	lw	x13,4(x11)
80002d38:	01c5a783          	lw	x15,28(x11)
80002d3c:	0005af83          	lw	x31,0(x11)
80002d40:	0085af03          	lw	x30,8(x11)
80002d44:	00c5ae83          	lw	x29,12(x11)
80002d48:	0105ae03          	lw	x28,16(x11)
80002d4c:	0145a303          	lw	x6,20(x11)
80002d50:	0185a803          	lw	x16,24(x11)
80002d54:	00d72223          	sw	x13,4(x14)
80002d58:	0205a683          	lw	x13,32(x11)
80002d5c:	01f72023          	sw	x31,0(x14)
80002d60:	01e72423          	sw	x30,8(x14)
80002d64:	01d72623          	sw	x29,12(x14)
80002d68:	01c72823          	sw	x28,16(x14)
80002d6c:	00672a23          	sw	x6,20(x14)
80002d70:	01072c23          	sw	x16,24(x14)
80002d74:	00f72e23          	sw	x15,28(x14)
80002d78:	02470713          	addi	x14,x14,36
80002d7c:	40e607b3          	sub	x15,x12,x14
80002d80:	fed72e23          	sw	x13,-4(x14)
80002d84:	02458593          	addi	x11,x11,36
80002d88:	faf2c6e3          	blt	x5,x15,80002d34 <memcpy+0x98>
80002d8c:	f49ff06f          	jal	x0,80002cd4 <memcpy+0x38>
80002d90:	0005c683          	lbu	x13,0(x11)
80002d94:	00170713          	addi	x14,x14,1
80002d98:	00377793          	andi	x15,x14,3
80002d9c:	fed70fa3          	sb	x13,-1(x14)
80002da0:	00158593          	addi	x11,x11,1
80002da4:	f0078ee3          	beq	x15,x0,80002cc0 <memcpy+0x24>
80002da8:	0005c683          	lbu	x13,0(x11)
80002dac:	00170713          	addi	x14,x14,1
80002db0:	00377793          	andi	x15,x14,3
80002db4:	fed70fa3          	sb	x13,-1(x14)
80002db8:	00158593          	addi	x11,x11,1
80002dbc:	fc079ae3          	bne	x15,x0,80002d90 <memcpy+0xf4>
80002dc0:	f01ff06f          	jal	x0,80002cc0 <memcpy+0x24>

Disassembly of section .rodata:

80002dc4 <.rodata>:
80002dc4:	0000                	c.unimp
80002dc6:	07ff                	0x7ff
80002dc8:	0c00                	c.addi4spn	x8,x2,528
80002dca:	0800                	c.addi4spn	x8,x2,16
80002dcc:	0200                	c.addi4spn	x8,x2,256
80002dce:	f800                	c.fsw	f8,48(x8)
80002dd0:	f300                	c.fsw	f8,32(x14)
80002dd2:	0400                	c.addi4spn	x8,x2,512
80002dd4:	0000                	c.unimp
80002dd6:	07ff                	0x7ff
80002dd8:	0c00                	c.addi4spn	x8,x2,528
80002dda:	0800                	c.addi4spn	x8,x2,16
80002ddc:	0200                	c.addi4spn	x8,x2,256
80002dde:	f800                	c.fsw	f8,48(x8)
80002de0:	f300                	c.fsw	f8,32(x14)
80002de2:	0400                	c.addi4spn	x8,x2,512
80002de4:	0000                	c.unimp
80002de6:	07ff                	0x7ff
80002de8:	0c00                	c.addi4spn	x8,x2,528
80002dea:	0800                	c.addi4spn	x8,x2,16
80002dec:	0200                	c.addi4spn	x8,x2,256
80002dee:	f800                	c.fsw	f8,48(x8)
80002df0:	f300                	c.fsw	f8,32(x14)
80002df2:	0400                	c.addi4spn	x8,x2,512
80002df4:	0000                	c.unimp
80002df6:	07ff                	0x7ff
80002df8:	0c00                	c.addi4spn	x8,x2,528
80002dfa:	0800                	c.addi4spn	x8,x2,16
80002dfc:	0200                	c.addi4spn	x8,x2,256
80002dfe:	f800                	c.fsw	f8,48(x8)
80002e00:	f300                	c.fsw	f8,32(x14)
80002e02:	0400                	c.addi4spn	x8,x2,512
80002e04:	0000                	c.unimp
80002e06:	07ff                	0x7ff
80002e08:	0c00                	c.addi4spn	x8,x2,528
80002e0a:	0800                	c.addi4spn	x8,x2,16
80002e0c:	0200                	c.addi4spn	x8,x2,256
80002e0e:	f800                	c.fsw	f8,48(x8)
80002e10:	f300                	c.fsw	f8,32(x14)
80002e12:	0400                	c.addi4spn	x8,x2,512
80002e14:	0000                	c.unimp
80002e16:	07ff                	0x7ff
80002e18:	0c00                	c.addi4spn	x8,x2,528
80002e1a:	0800                	c.addi4spn	x8,x2,16
80002e1c:	0200                	c.addi4spn	x8,x2,256
80002e1e:	f800                	c.fsw	f8,48(x8)
80002e20:	f300                	c.fsw	f8,32(x14)
80002e22:	0400                	c.addi4spn	x8,x2,512
80002e24:	0000                	c.unimp
80002e26:	07ff                	0x7ff
80002e28:	0c00                	c.addi4spn	x8,x2,528
80002e2a:	0800                	c.addi4spn	x8,x2,16
80002e2c:	0200                	c.addi4spn	x8,x2,256
80002e2e:	f800                	c.fsw	f8,48(x8)
80002e30:	f300                	c.fsw	f8,32(x14)
80002e32:	0400                	c.addi4spn	x8,x2,512
80002e34:	0000                	c.unimp
80002e36:	07ff                	0x7ff
80002e38:	0c00                	c.addi4spn	x8,x2,528
80002e3a:	0800                	c.addi4spn	x8,x2,16
80002e3c:	0200                	c.addi4spn	x8,x2,256
80002e3e:	f800                	c.fsw	f8,48(x8)
80002e40:	f300                	c.fsw	f8,32(x14)
80002e42:	0400                	c.addi4spn	x8,x2,512
80002e44:	0000                	c.unimp
80002e46:	07ff                	0x7ff
80002e48:	0c00                	c.addi4spn	x8,x2,528
80002e4a:	0800                	c.addi4spn	x8,x2,16
80002e4c:	0200                	c.addi4spn	x8,x2,256
80002e4e:	f800                	c.fsw	f8,48(x8)
80002e50:	f300                	c.fsw	f8,32(x14)
80002e52:	0400                	c.addi4spn	x8,x2,512
80002e54:	0000                	c.unimp
80002e56:	07ff                	0x7ff
80002e58:	0c00                	c.addi4spn	x8,x2,528
80002e5a:	0800                	c.addi4spn	x8,x2,16
80002e5c:	0200                	c.addi4spn	x8,x2,256
80002e5e:	f800                	c.fsw	f8,48(x8)
80002e60:	f300                	c.fsw	f8,32(x14)
80002e62:	0400                	c.addi4spn	x8,x2,512
80002e64:	0000                	c.unimp
80002e66:	07ff                	0x7ff
80002e68:	0c00                	c.addi4spn	x8,x2,528
80002e6a:	0800                	c.addi4spn	x8,x2,16
80002e6c:	0200                	c.addi4spn	x8,x2,256
80002e6e:	f800                	c.fsw	f8,48(x8)
80002e70:	f300                	c.fsw	f8,32(x14)
80002e72:	0400                	c.addi4spn	x8,x2,512
80002e74:	0000                	c.unimp
80002e76:	07ff                	0x7ff
80002e78:	0c00                	c.addi4spn	x8,x2,528
80002e7a:	0800                	c.addi4spn	x8,x2,16
80002e7c:	0200                	c.addi4spn	x8,x2,256
80002e7e:	f800                	c.fsw	f8,48(x8)
80002e80:	f300                	c.fsw	f8,32(x14)
80002e82:	0400                	c.addi4spn	x8,x2,512
80002e84:	0000                	c.unimp
80002e86:	07ff                	0x7ff
80002e88:	0c00                	c.addi4spn	x8,x2,528
80002e8a:	0800                	c.addi4spn	x8,x2,16
80002e8c:	0200                	c.addi4spn	x8,x2,256
80002e8e:	f800                	c.fsw	f8,48(x8)
80002e90:	f300                	c.fsw	f8,32(x14)
80002e92:	0400                	c.addi4spn	x8,x2,512
80002e94:	0000                	c.unimp
80002e96:	07ff                	0x7ff
80002e98:	0c00                	c.addi4spn	x8,x2,528
80002e9a:	0800                	c.addi4spn	x8,x2,16
80002e9c:	0200                	c.addi4spn	x8,x2,256
80002e9e:	f800                	c.fsw	f8,48(x8)
80002ea0:	f300                	c.fsw	f8,32(x14)
80002ea2:	0400                	c.addi4spn	x8,x2,512
80002ea4:	0000                	c.unimp
80002ea6:	07ff                	0x7ff
80002ea8:	0c00                	c.addi4spn	x8,x2,528
80002eaa:	0800                	c.addi4spn	x8,x2,16
80002eac:	0200                	c.addi4spn	x8,x2,256
80002eae:	f800                	c.fsw	f8,48(x8)
80002eb0:	f300                	c.fsw	f8,32(x14)
80002eb2:	0400                	c.addi4spn	x8,x2,512
80002eb4:	0000                	c.unimp
80002eb6:	07ff                	0x7ff
80002eb8:	0c00                	c.addi4spn	x8,x2,528
80002eba:	0800                	c.addi4spn	x8,x2,16
80002ebc:	0200                	c.addi4spn	x8,x2,256
80002ebe:	f800                	c.fsw	f8,48(x8)
80002ec0:	f300                	c.fsw	f8,32(x14)
80002ec2:	0400                	c.addi4spn	x8,x2,512
80002ec4:	0000                	c.unimp
80002ec6:	07ff                	0x7ff
80002ec8:	0c00                	c.addi4spn	x8,x2,528
80002eca:	0800                	c.addi4spn	x8,x2,16
80002ecc:	0200                	c.addi4spn	x8,x2,256
80002ece:	f800                	c.fsw	f8,48(x8)
80002ed0:	f300                	c.fsw	f8,32(x14)
80002ed2:	0400                	c.addi4spn	x8,x2,512
80002ed4:	0000                	c.unimp
80002ed6:	07ff                	0x7ff
80002ed8:	0c00                	c.addi4spn	x8,x2,528
80002eda:	0800                	c.addi4spn	x8,x2,16
80002edc:	0200                	c.addi4spn	x8,x2,256
80002ede:	f800                	c.fsw	f8,48(x8)
80002ee0:	f300                	c.fsw	f8,32(x14)
80002ee2:	0400                	c.addi4spn	x8,x2,512
80002ee4:	0000                	c.unimp
80002ee6:	07ff                	0x7ff
80002ee8:	0c00                	c.addi4spn	x8,x2,528
80002eea:	0800                	c.addi4spn	x8,x2,16
80002eec:	0200                	c.addi4spn	x8,x2,256
80002eee:	f800                	c.fsw	f8,48(x8)
80002ef0:	f300                	c.fsw	f8,32(x14)
80002ef2:	0400                	c.addi4spn	x8,x2,512
80002ef4:	0000                	c.unimp
80002ef6:	07ff                	0x7ff
80002ef8:	0c00                	c.addi4spn	x8,x2,528
80002efa:	0800                	c.addi4spn	x8,x2,16
80002efc:	0200                	c.addi4spn	x8,x2,256
80002efe:	f800                	c.fsw	f8,48(x8)
80002f00:	f300                	c.fsw	f8,32(x14)
80002f02:	0400                	c.addi4spn	x8,x2,512
80002f04:	0000                	c.unimp
80002f06:	07ff                	0x7ff
80002f08:	0c00                	c.addi4spn	x8,x2,528
80002f0a:	0800                	c.addi4spn	x8,x2,16
80002f0c:	0200                	c.addi4spn	x8,x2,256
80002f0e:	f800                	c.fsw	f8,48(x8)
80002f10:	f300                	c.fsw	f8,32(x14)
80002f12:	0400                	c.addi4spn	x8,x2,512
80002f14:	0000                	c.unimp
80002f16:	07ff                	0x7ff
80002f18:	0c00                	c.addi4spn	x8,x2,528
80002f1a:	0800                	c.addi4spn	x8,x2,16
80002f1c:	0200                	c.addi4spn	x8,x2,256
80002f1e:	f800                	c.fsw	f8,48(x8)
80002f20:	f300                	c.fsw	f8,32(x14)
80002f22:	0400                	c.addi4spn	x8,x2,512
80002f24:	0000                	c.unimp
80002f26:	07ff                	0x7ff
80002f28:	0c00                	c.addi4spn	x8,x2,528
80002f2a:	0800                	c.addi4spn	x8,x2,16
80002f2c:	0200                	c.addi4spn	x8,x2,256
80002f2e:	f800                	c.fsw	f8,48(x8)
80002f30:	f300                	c.fsw	f8,32(x14)
80002f32:	0400                	c.addi4spn	x8,x2,512
80002f34:	0000                	c.unimp
80002f36:	07ff                	0x7ff
80002f38:	0c00                	c.addi4spn	x8,x2,528
80002f3a:	0800                	c.addi4spn	x8,x2,16
80002f3c:	0200                	c.addi4spn	x8,x2,256
80002f3e:	f800                	c.fsw	f8,48(x8)
80002f40:	f300                	c.fsw	f8,32(x14)
80002f42:	0400                	c.addi4spn	x8,x2,512
80002f44:	0000                	c.unimp
80002f46:	07ff                	0x7ff
80002f48:	0c00                	c.addi4spn	x8,x2,528
80002f4a:	0800                	c.addi4spn	x8,x2,16
80002f4c:	0200                	c.addi4spn	x8,x2,256
80002f4e:	f800                	c.fsw	f8,48(x8)
80002f50:	f300                	c.fsw	f8,32(x14)
80002f52:	0400                	c.addi4spn	x8,x2,512
80002f54:	0c60                	c.addi4spn	x8,x2,540
80002f56:	0c40                	c.addi4spn	x8,x2,532
80002f58:	0c20                	c.addi4spn	x8,x2,536
80002f5a:	0c00                	c.addi4spn	x8,x2,528
80002f5c:	f600                	c.fsw	f8,40(x12)
80002f5e:	f400                	c.fsw	f8,40(x8)
80002f60:	f200                	c.fsw	f8,32(x12)
80002f62:	f000                	c.fsw	f8,32(x8)
80002f64:	0c60                	c.addi4spn	x8,x2,540
80002f66:	0c40                	c.addi4spn	x8,x2,532
80002f68:	0c20                	c.addi4spn	x8,x2,536
80002f6a:	0c00                	c.addi4spn	x8,x2,528
80002f6c:	f600                	c.fsw	f8,40(x12)
80002f6e:	f400                	c.fsw	f8,40(x8)
80002f70:	f200                	c.fsw	f8,32(x12)
80002f72:	f000                	c.fsw	f8,32(x8)
80002f74:	0c60                	c.addi4spn	x8,x2,540
80002f76:	0c40                	c.addi4spn	x8,x2,532
80002f78:	0c20                	c.addi4spn	x8,x2,536
80002f7a:	0c00                	c.addi4spn	x8,x2,528
80002f7c:	f600                	c.fsw	f8,40(x12)
80002f7e:	f400                	c.fsw	f8,40(x8)
80002f80:	f200                	c.fsw	f8,32(x12)
80002f82:	f000                	c.fsw	f8,32(x8)
80002f84:	0c60                	c.addi4spn	x8,x2,540
80002f86:	0c40                	c.addi4spn	x8,x2,532
80002f88:	0c20                	c.addi4spn	x8,x2,536
80002f8a:	0c00                	c.addi4spn	x8,x2,528
80002f8c:	f600                	c.fsw	f8,40(x12)
80002f8e:	f400                	c.fsw	f8,40(x8)
80002f90:	f200                	c.fsw	f8,32(x12)
80002f92:	f000                	c.fsw	f8,32(x8)
80002f94:	0c60                	c.addi4spn	x8,x2,540
80002f96:	0c40                	c.addi4spn	x8,x2,532
80002f98:	0c20                	c.addi4spn	x8,x2,536
80002f9a:	0c00                	c.addi4spn	x8,x2,528
80002f9c:	f600                	c.fsw	f8,40(x12)
80002f9e:	f400                	c.fsw	f8,40(x8)
80002fa0:	f200                	c.fsw	f8,32(x12)
80002fa2:	f000                	c.fsw	f8,32(x8)
80002fa4:	0c60                	c.addi4spn	x8,x2,540
80002fa6:	0c40                	c.addi4spn	x8,x2,532
80002fa8:	0c20                	c.addi4spn	x8,x2,536
80002faa:	0c00                	c.addi4spn	x8,x2,528
80002fac:	f600                	c.fsw	f8,40(x12)
80002fae:	f400                	c.fsw	f8,40(x8)
80002fb0:	f200                	c.fsw	f8,32(x12)
80002fb2:	f000                	c.fsw	f8,32(x8)
80002fb4:	0c60                	c.addi4spn	x8,x2,540
80002fb6:	0c40                	c.addi4spn	x8,x2,532
80002fb8:	0c20                	c.addi4spn	x8,x2,536
80002fba:	0c00                	c.addi4spn	x8,x2,528
80002fbc:	f600                	c.fsw	f8,40(x12)
80002fbe:	f400                	c.fsw	f8,40(x8)
80002fc0:	f200                	c.fsw	f8,32(x12)
80002fc2:	f000                	c.fsw	f8,32(x8)
80002fc4:	0c60                	c.addi4spn	x8,x2,540
80002fc6:	0c40                	c.addi4spn	x8,x2,532
80002fc8:	0c20                	c.addi4spn	x8,x2,536
80002fca:	0c00                	c.addi4spn	x8,x2,528
80002fcc:	f600                	c.fsw	f8,40(x12)
80002fce:	f400                	c.fsw	f8,40(x8)
80002fd0:	f200                	c.fsw	f8,32(x12)
80002fd2:	f000                	c.fsw	f8,32(x8)
80002fd4:	0c60                	c.addi4spn	x8,x2,540
80002fd6:	0c40                	c.addi4spn	x8,x2,532
80002fd8:	0c20                	c.addi4spn	x8,x2,536
80002fda:	0c00                	c.addi4spn	x8,x2,528
80002fdc:	f600                	c.fsw	f8,40(x12)
80002fde:	f400                	c.fsw	f8,40(x8)
80002fe0:	f200                	c.fsw	f8,32(x12)
80002fe2:	f000                	c.fsw	f8,32(x8)
80002fe4:	0c60                	c.addi4spn	x8,x2,540
80002fe6:	0c40                	c.addi4spn	x8,x2,532
80002fe8:	0c20                	c.addi4spn	x8,x2,536
80002fea:	0c00                	c.addi4spn	x8,x2,528
80002fec:	f600                	c.fsw	f8,40(x12)
80002fee:	f400                	c.fsw	f8,40(x8)
80002ff0:	f200                	c.fsw	f8,32(x12)
80002ff2:	f000                	c.fsw	f8,32(x8)
80002ff4:	0c60                	c.addi4spn	x8,x2,540
80002ff6:	0c40                	c.addi4spn	x8,x2,532
80002ff8:	0c20                	c.addi4spn	x8,x2,536
80002ffa:	0c00                	c.addi4spn	x8,x2,528
80002ffc:	f600                	c.fsw	f8,40(x12)
80002ffe:	f400                	c.fsw	f8,40(x8)
80003000:	f200                	c.fsw	f8,32(x12)
80003002:	f000                	c.fsw	f8,32(x8)
80003004:	0c60                	c.addi4spn	x8,x2,540
80003006:	0c40                	c.addi4spn	x8,x2,532
80003008:	0c20                	c.addi4spn	x8,x2,536
8000300a:	0c00                	c.addi4spn	x8,x2,528
8000300c:	f600                	c.fsw	f8,40(x12)
8000300e:	f400                	c.fsw	f8,40(x8)
80003010:	f200                	c.fsw	f8,32(x12)
80003012:	f000                	c.fsw	f8,32(x8)
80003014:	0c60                	c.addi4spn	x8,x2,540
80003016:	0c40                	c.addi4spn	x8,x2,532
80003018:	0c20                	c.addi4spn	x8,x2,536
8000301a:	0c00                	c.addi4spn	x8,x2,528
8000301c:	f600                	c.fsw	f8,40(x12)
8000301e:	f400                	c.fsw	f8,40(x8)
80003020:	f200                	c.fsw	f8,32(x12)
80003022:	f000                	c.fsw	f8,32(x8)
80003024:	0c60                	c.addi4spn	x8,x2,540
80003026:	0c40                	c.addi4spn	x8,x2,532
80003028:	0c20                	c.addi4spn	x8,x2,536
8000302a:	0c00                	c.addi4spn	x8,x2,528
8000302c:	f600                	c.fsw	f8,40(x12)
8000302e:	f400                	c.fsw	f8,40(x8)
80003030:	f200                	c.fsw	f8,32(x12)
80003032:	f000                	c.fsw	f8,32(x8)
80003034:	0c60                	c.addi4spn	x8,x2,540
80003036:	0c40                	c.addi4spn	x8,x2,532
80003038:	0c20                	c.addi4spn	x8,x2,536
8000303a:	0c00                	c.addi4spn	x8,x2,528
8000303c:	f600                	c.fsw	f8,40(x12)
8000303e:	f400                	c.fsw	f8,40(x8)
80003040:	f200                	c.fsw	f8,32(x12)
80003042:	f000                	c.fsw	f8,32(x8)
80003044:	0c60                	c.addi4spn	x8,x2,540
80003046:	0c40                	c.addi4spn	x8,x2,532
80003048:	0c20                	c.addi4spn	x8,x2,536
8000304a:	0c00                	c.addi4spn	x8,x2,528
8000304c:	f600                	c.fsw	f8,40(x12)
8000304e:	f400                	c.fsw	f8,40(x8)
80003050:	f200                	c.fsw	f8,32(x12)
80003052:	f000                	c.fsw	f8,32(x8)
80003054:	0c60                	c.addi4spn	x8,x2,540
80003056:	0c40                	c.addi4spn	x8,x2,532
80003058:	0c20                	c.addi4spn	x8,x2,536
8000305a:	0c00                	c.addi4spn	x8,x2,528
8000305c:	f600                	c.fsw	f8,40(x12)
8000305e:	f400                	c.fsw	f8,40(x8)
80003060:	f200                	c.fsw	f8,32(x12)
80003062:	f000                	c.fsw	f8,32(x8)
80003064:	0c60                	c.addi4spn	x8,x2,540
80003066:	0c40                	c.addi4spn	x8,x2,532
80003068:	0c20                	c.addi4spn	x8,x2,536
8000306a:	0c00                	c.addi4spn	x8,x2,528
8000306c:	f600                	c.fsw	f8,40(x12)
8000306e:	f400                	c.fsw	f8,40(x8)
80003070:	f200                	c.fsw	f8,32(x12)
80003072:	f000                	c.fsw	f8,32(x8)
80003074:	0c60                	c.addi4spn	x8,x2,540
80003076:	0c40                	c.addi4spn	x8,x2,532
80003078:	0c20                	c.addi4spn	x8,x2,536
8000307a:	0c00                	c.addi4spn	x8,x2,528
8000307c:	f600                	c.fsw	f8,40(x12)
8000307e:	f400                	c.fsw	f8,40(x8)
80003080:	f200                	c.fsw	f8,32(x12)
80003082:	f000                	c.fsw	f8,32(x8)
80003084:	0c60                	c.addi4spn	x8,x2,540
80003086:	0c40                	c.addi4spn	x8,x2,532
80003088:	0c20                	c.addi4spn	x8,x2,536
8000308a:	0c00                	c.addi4spn	x8,x2,528
8000308c:	f600                	c.fsw	f8,40(x12)
8000308e:	f400                	c.fsw	f8,40(x8)
80003090:	f200                	c.fsw	f8,32(x12)
80003092:	f000                	c.fsw	f8,32(x8)
80003094:	0c60                	c.addi4spn	x8,x2,540
80003096:	0c40                	c.addi4spn	x8,x2,532
80003098:	0c20                	c.addi4spn	x8,x2,536
8000309a:	0c00                	c.addi4spn	x8,x2,528
8000309c:	f600                	c.fsw	f8,40(x12)
8000309e:	f400                	c.fsw	f8,40(x8)
800030a0:	f200                	c.fsw	f8,32(x12)
800030a2:	f000                	c.fsw	f8,32(x8)
800030a4:	0c60                	c.addi4spn	x8,x2,540
800030a6:	0c40                	c.addi4spn	x8,x2,532
800030a8:	0c20                	c.addi4spn	x8,x2,536
800030aa:	0c00                	c.addi4spn	x8,x2,528
800030ac:	f600                	c.fsw	f8,40(x12)
800030ae:	f400                	c.fsw	f8,40(x8)
800030b0:	f200                	c.fsw	f8,32(x12)
800030b2:	f000                	c.fsw	f8,32(x8)
800030b4:	0c60                	c.addi4spn	x8,x2,540
800030b6:	0c40                	c.addi4spn	x8,x2,532
800030b8:	0c20                	c.addi4spn	x8,x2,536
800030ba:	0c00                	c.addi4spn	x8,x2,528
800030bc:	f600                	c.fsw	f8,40(x12)
800030be:	f400                	c.fsw	f8,40(x8)
800030c0:	f200                	c.fsw	f8,32(x12)
800030c2:	f000                	c.fsw	f8,32(x8)
800030c4:	0c60                	c.addi4spn	x8,x2,540
800030c6:	0c40                	c.addi4spn	x8,x2,532
800030c8:	0c20                	c.addi4spn	x8,x2,536
800030ca:	0c00                	c.addi4spn	x8,x2,528
800030cc:	f600                	c.fsw	f8,40(x12)
800030ce:	f400                	c.fsw	f8,40(x8)
800030d0:	f200                	c.fsw	f8,32(x12)
800030d2:	f000                	c.fsw	f8,32(x8)
800030d4:	0c60                	c.addi4spn	x8,x2,540
800030d6:	0c40                	c.addi4spn	x8,x2,532
800030d8:	0c20                	c.addi4spn	x8,x2,536
800030da:	0c00                	c.addi4spn	x8,x2,528
800030dc:	f600                	c.fsw	f8,40(x12)
800030de:	f400                	c.fsw	f8,40(x8)
800030e0:	f200                	c.fsw	f8,32(x12)
800030e2:	f000                	c.fsw	f8,32(x8)
800030e4:	0eb0                	c.addi4spn	x12,x2,856
800030e6:	0000                	c.unimp
800030e8:	10ad                	c.addi	x1,-21
800030ea:	0000                	c.unimp
800030ec:	0c36                	c.slli	x24,0xd
800030ee:	0000                	c.unimp
800030f0:	0406                	c.slli	x8,0x1
800030f2:	0000                	c.unimp
800030f4:	0995                	c.addi	x19,5
800030f6:	0000                	c.unimp
800030f8:	ffffee07          	0xffffee07
800030fc:	07bd                	c.addi	x15,15
800030fe:	0000                	c.unimp
80003100:	fbe0                	c.fsw	f8,116(x15)
80003102:	ffff                	0xffff
80003104:	0a3d                	c.addi	x20,15
80003106:	0000                	c.unimp
80003108:	10ad                	c.addi	x1,-21
8000310a:	0000                	c.unimp
8000310c:	0bf2                	c.slli	x23,0x1c
8000310e:	0000                	c.unimp
80003110:	0406                	c.slli	x8,0x1
80003112:	0000                	c.unimp
80003114:	094a                	c.slli	x18,0x12
80003116:	0000                	c.unimp
80003118:	ffffee07          	0xffffee07
8000311c:	076e                	c.slli	x14,0x1b
8000311e:	0000                	c.unimp
80003120:	fbe0                	c.fsw	f8,116(x15)
80003122:	ffff                	0xffff
80003124:	09f4                	c.addi4spn	x13,x2,220
80003126:	0000                	c.unimp
80003128:	10ad                	c.addi	x1,-21
8000312a:	0000                	c.unimp
8000312c:	0bac                	c.addi4spn	x11,x2,472
8000312e:	0000                	c.unimp
80003130:	0406                	c.slli	x8,0x1
80003132:	0000                	c.unimp
80003134:	08fc                	c.addi4spn	x15,x2,92
80003136:	0000                	c.unimp
80003138:	ffffee07          	0xffffee07
8000313c:	071e                	c.slli	x14,0x7
8000313e:	0000                	c.unimp
80003140:	fbe0                	c.fsw	f8,116(x15)
80003142:	ffff                	0xffff
80003144:	09aa                	c.slli	x19,0xa
80003146:	0000                	c.unimp
80003148:	10ad                	c.addi	x1,-21
8000314a:	0000                	c.unimp
8000314c:	0b65                	c.addi	x22,25
8000314e:	0000                	c.unimp
80003150:	0406                	c.slli	x8,0x1
80003152:	0000                	c.unimp
80003154:	08ac                	c.addi4spn	x11,x2,88
80003156:	0000                	c.unimp
80003158:	ffffee07          	0xffffee07
8000315c:	06ca                	c.slli	x13,0x12
8000315e:	0000                	c.unimp
80003160:	fbe0                	c.fsw	f8,116(x15)
80003162:	ffff                	0xffff
80003164:	095e                	c.slli	x18,0x17
80003166:	0000                	c.unimp
80003168:	10ad                	c.addi	x1,-21
8000316a:	0000                	c.unimp
8000316c:	0b1c                	c.addi4spn	x15,x2,400
8000316e:	0000                	c.unimp
80003170:	0406                	c.slli	x8,0x1
80003172:	0000                	c.unimp
80003174:	085c                	c.addi4spn	x15,x2,20
80003176:	0000                	c.unimp
80003178:	ffffee07          	0xffffee07
8000317c:	00000677          	0x677
80003180:	fbe0                	c.fsw	f8,116(x15)
80003182:	ffff                	0xffff
80003184:	0911                	c.addi	x18,4
80003186:	0000                	c.unimp
80003188:	10ad                	c.addi	x1,-21
8000318a:	0000                	c.unimp
8000318c:	0ad2                	c.slli	x21,0x14
8000318e:	0000                	c.unimp
80003190:	0406                	c.slli	x8,0x1
80003192:	0000                	c.unimp
80003194:	080a                	c.slli	x16,0x2
80003196:	0000                	c.unimp
80003198:	ffffee07          	0xffffee07
8000319c:	0621                	c.addi	x12,8
8000319e:	0000                	c.unimp
800031a0:	fbe0                	c.fsw	f8,116(x15)
800031a2:	ffff                	0xffff
800031a4:	08c2                	c.slli	x17,0x10
800031a6:	0000                	c.unimp
800031a8:	10ad                	c.addi	x1,-21
800031aa:	0000                	c.unimp
800031ac:	0868                	c.addi4spn	x10,x2,28
800031ae:	0000                	c.unimp
800031b0:	0406                	c.slli	x8,0x1
800031b2:	0000                	c.unimp
800031b4:	00000693          	addi	x13,x0,0
800031b8:	ffffee07          	0xffffee07
800031bc:	0000065b          	0x65b
800031c0:	fbe0                	c.fsw	f8,116(x15)
800031c2:	ffff                	0xffff
800031c4:	07ee                	c.slli	x15,0x1b
800031c6:	0000                	c.unimp
800031c8:	10ad                	c.addi	x1,-21
800031ca:	0000                	c.unimp
800031cc:	0820                	c.addi4spn	x8,x2,24
800031ce:	0000                	c.unimp
800031d0:	0406                	c.slli	x8,0x1
800031d2:	0000                	c.unimp
800031d4:	0000064b          	fnmsub.s	f12,f0,f0,f0,rne
800031d8:	ffffee07          	0xffffee07
800031dc:	00000613          	addi	x12,x0,0
800031e0:	fbe0                	c.fsw	f8,116(x15)
800031e2:	ffff                	0xffff
800031e4:	07a6                	c.slli	x15,0x9
800031e6:	0000                	c.unimp
800031e8:	10ad                	c.addi	x1,-21
800031ea:	0000                	c.unimp
800031ec:	07d8                	c.addi4spn	x14,x2,964
800031ee:	0000                	c.unimp
800031f0:	0406                	c.slli	x8,0x1
800031f2:	0000                	c.unimp
800031f4:	00000603          	lb	x12,0(x0) # 0 <SYSCALL_ADDR-0x201000>
800031f8:	ffffee07          	0xffffee07
800031fc:	000005cb          	fnmsub.s	f11,f0,f0,f0,rne
80003200:	fbe0                	c.fsw	f8,116(x15)
80003202:	ffff                	0xffff
80003204:	075e                	c.slli	x14,0x17
80003206:	0000                	c.unimp
80003208:	10ad                	c.addi	x1,-21
8000320a:	0000                	c.unimp
8000320c:	0000078f          	0x78f
80003210:	0406                	c.slli	x8,0x1
80003212:	0000                	c.unimp
80003214:	05ba                	c.slli	x11,0xe
80003216:	0000                	c.unimp
80003218:	ffffee07          	0xffffee07
8000321c:	0582                	c.slli64	x11
8000321e:	0000                	c.unimp
80003220:	fbe0                	c.fsw	f8,116(x15)
80003222:	ffff                	0xffff
80003224:	0715                	c.addi	x14,5
80003226:	0000                	c.unimp
80003228:	10ad                	c.addi	x1,-21
8000322a:	0000                	c.unimp
8000322c:	0746                	c.slli	x14,0x11
8000322e:	0000                	c.unimp
80003230:	0406                	c.slli	x8,0x1
80003232:	0000                	c.unimp
80003234:	0571                	c.addi	x10,28
80003236:	0000                	c.unimp
80003238:	ffffee07          	0xffffee07
8000323c:	0539                	c.addi	x10,14
8000323e:	0000                	c.unimp
80003240:	fbe0                	c.fsw	f8,116(x15)
80003242:	ffff                	0xffff
80003244:	06cc                	c.addi4spn	x11,x2,836
80003246:	0000                	c.unimp
80003248:	10ad                	c.addi	x1,-21
8000324a:	0000                	c.unimp
8000324c:	06fd                	c.addi	x13,31
8000324e:	0000                	c.unimp
80003250:	0406                	c.slli	x8,0x1
80003252:	0000                	c.unimp
80003254:	0528                	c.addi4spn	x10,x2,648
80003256:	0000                	c.unimp
80003258:	ffffee07          	0xffffee07
8000325c:	04f0                	c.addi4spn	x12,x2,588
8000325e:	0000                	c.unimp
80003260:	fbe0                	c.fsw	f8,116(x15)
80003262:	ffff                	0xffff
80003264:	00000683          	lb	x13,0(x0) # 0 <SYSCALL_ADDR-0x201000>
80003268:	10ad                	c.addi	x1,-21
8000326a:	0000                	c.unimp
8000326c:	06b4                	c.addi4spn	x13,x2,840
8000326e:	0000                	c.unimp
80003270:	0406                	c.slli	x8,0x1
80003272:	0000                	c.unimp
80003274:	07b0                	c.addi4spn	x12,x2,968
	...

Disassembly of section .bss:

80003404 <a>:
	...

80003594 <b>:
	...

80003724 <output>:
	...

Disassembly of section .sbss:

80003a44 <e>:
80003a44:	0000                	c.unimp
	...

80003a48 <d>:
80003a48:	0000                	c.unimp
	...

80003a4c <c>:
80003a4c:	0000                	c.unimp
	...

Disassembly of section .comment:

00000000 <.comment>:
   0:	3a434347          	fmsub.d	f6,f6,f4,f7,rmm
   4:	2820                	c.fld	f8,80(x8)
   6:	39336367          	0x39336367
   a:	3131                	c.jal	fffffc16 <_end+0x7fffc1c6>
   c:	3665                	c.jal	fffffbb4 <_end+0x7fffc164>
   e:	3234                	c.fld	f13,96(x12)
  10:	6635                	c.lui	x12,0xd
  12:	2029                	c.jal	1c <SYSCALL_ADDR-0x200fe4>
  14:	3031                	c.jal	fffff820 <_end+0x7fffbdd0>
  16:	322e                	c.fldsp	f4,232(x2)
  18:	302e                	c.fldsp	f0,232(x2)
  1a:	4700                	c.lw	x8,8(x14)
  1c:	203a4343          	fmadd.s	f6,f20,f3,f4,rmm
  20:	4728                	c.lw	x10,72(x14)
  22:	554e                	c.lwsp	x10,240(x2)
  24:	2029                	c.jal	2e <SYSCALL_ADDR-0x200fd2>
  26:	3031                	c.jal	fffff832 <_end+0x7fffbde2>
  28:	322e                	c.fldsp	f4,232(x2)
  2a:	302e                	c.fldsp	f0,232(x2)
	...

Disassembly of section .riscv.attributes:

00000000 <.riscv.attributes>:
   0:	1f41                	c.addi	x30,-16
   2:	0000                	c.unimp
   4:	7200                	c.flw	f8,32(x12)
   6:	7369                	c.lui	x6,0xffffa
   8:	01007663          	bgeu	x0,x16,14 <SYSCALL_ADDR-0x200fec>
   c:	0015                	c.addi	x0,5
   e:	0000                	c.unimp
  10:	1004                	c.addi4spn	x9,x2,32
  12:	7205                	c.lui	x4,0xfffe1
  14:	3376                	c.fldsp	f6,376(x2)
  16:	6932                	c.flwsp	f18,12(x2)
  18:	7032                	c.flwsp	f0,44(x2)
  1a:	0030                	c.addi4spn	x12,x2,8
  1c:	0108                	c.addi4spn	x10,x2,128
  1e:	0b0a                	c.slli	x22,0x2

Disassembly of section .debug_line:

00000000 <.debug_line>:
   0:	0094                	c.addi4spn	x13,x2,64
   2:	0000                	c.unimp
   4:	004e0003          	lb	x0,4(x28)
   8:	0000                	c.unimp
   a:	0101                	c.addi	x2,0
   c:	000d0efb          	0xd0efb
  10:	0101                	c.addi	x2,0
  12:	0101                	c.addi	x2,0
  14:	0000                	c.unimp
  16:	0100                	c.addi4spn	x8,x2,128
  18:	0000                	c.unimp
  1a:	2e01                	c.jal	32a <SYSCALL_ADDR-0x200cd6>
  1c:	2f2e                	c.fldsp	f30,200(x2)
  1e:	2e2e                	c.fldsp	f28,200(x2)
  20:	2f2e2e2f          	0x2f2e2e2f
  24:	2e2e                	c.fldsp	f28,200(x2)
  26:	2f2e2e2f          	0x2f2e2e2f
  2a:	2f2e                	c.fldsp	f30,200(x2)
  2c:	6972                	c.flwsp	f18,28(x2)
  2e:	2d766373          	csrrsi	x6,0x2d7,12
  32:	2f636367          	0x2f636367
  36:	696c                	c.flw	f11,84(x10)
  38:	6762                	c.flwsp	f14,24(x2)
  3a:	632f6363          	bltu	x30,x18,660 <SYSCALL_ADDR-0x2009a0>
  3e:	69666e6f          	jal	x28,666d4 <SYSCALL_ADDR-0x19a92c>
  42:	69722f67          	0x69722f67
  46:	00766373          	csrrsi	x6,0x7,12
  4a:	6d00                	c.flw	f8,24(x10)
  4c:	6c75                	c.lui	x24,0x1d
  4e:	6964                	c.flw	f9,84(x10)
  50:	00532e33          	slt	x28,x6,x5
  54:	0001                	c.addi	x0,0
  56:	0000                	c.unimp
  58:	0500                	c.addi4spn	x8,x2,640
  5a:	c002                	c.swsp	x0,0(x2)
  5c:	0380002b          	0x380002b
  60:	0124                	c.addi4spn	x9,x2,136
  62:	04090103          	lb	x2,64(x18)
  66:	0100                	c.addi4spn	x8,x2,128
  68:	04090203          	lb	x4,64(x18)
  6c:	0100                	c.addi4spn	x8,x2,128
  6e:	04090103          	lb	x2,64(x18)
  72:	0100                	c.addi4spn	x8,x2,128
  74:	04090103          	lb	x2,64(x18)
  78:	0100                	c.addi4spn	x8,x2,128
  7a:	04090203          	lb	x4,64(x18)
  7e:	0100                	c.addi4spn	x8,x2,128
  80:	04090103          	lb	x2,64(x18)
  84:	0100                	c.addi4spn	x8,x2,128
  86:	04090103          	lb	x2,64(x18)
  8a:	0100                	c.addi4spn	x8,x2,128
  8c:	04090103          	lb	x2,64(x18)
  90:	0100                	c.addi4spn	x8,x2,128
  92:	0409                	c.addi	x8,2
  94:	0000                	c.unimp
  96:	0101                	c.addi	x2,0

Disassembly of section .debug_info:

00000000 <.debug_info>:
   0:	0022                	c.slli	x0,0x8
   2:	0000                	c.unimp
   4:	0002                	c.slli64	x0
   6:	0000                	c.unimp
   8:	0000                	c.unimp
   a:	0104                	c.addi4spn	x9,x2,128
   c:	0000                	c.unimp
   e:	0000                	c.unimp
  10:	2bc0                	c.fld	f8,144(x15)
  12:	8000                	0x8000
  14:	2be4                	c.fld	f9,208(x15)
  16:	8000                	0x8000
  18:	0000                	c.unimp
  1a:	0000                	c.unimp
  1c:	0038                	c.addi4spn	x14,x2,8
  1e:	0000                	c.unimp
  20:	009e                	c.slli	x1,0x7
  22:	0000                	c.unimp
  24:	8001                	c.srli64	x8

Disassembly of section .debug_abbrev:

00000000 <.debug_abbrev>:
   0:	1101                	c.addi	x2,-32
   2:	1000                	c.addi4spn	x8,x2,32
   4:	1106                	c.slli	x2,0x21
   6:	1201                	c.addi	x4,-32
   8:	0301                	c.addi	x6,0
   a:	1b0e                	c.slli	x22,0x23
   c:	250e                	c.fldsp	f10,192(x2)
   e:	130e                	c.slli	x6,0x23
  10:	0005                	c.addi	x0,1
	...

Disassembly of section .debug_aranges:

00000000 <.debug_aranges>:
   0:	001c                	0x1c
   2:	0000                	c.unimp
   4:	0002                	c.slli64	x0
   6:	0000                	c.unimp
   8:	0000                	c.unimp
   a:	0004                	0x4
   c:	0000                	c.unimp
   e:	0000                	c.unimp
  10:	2bc0                	c.fld	f8,144(x15)
  12:	8000                	0x8000
  14:	0024                	c.addi4spn	x9,x2,8
	...

Disassembly of section .debug_str:

00000000 <.debug_str>:
   0:	2e2e                	c.fldsp	f28,200(x2)
   2:	2f2e2e2f          	0x2f2e2e2f
   6:	2e2e                	c.fldsp	f28,200(x2)
   8:	2f2e2e2f          	0x2f2e2e2f
   c:	2e2e                	c.fldsp	f28,200(x2)
   e:	722f2e2f          	0x722f2e2f
  12:	7369                	c.lui	x6,0xffffa
  14:	672d7663          	bgeu	x26,x18,680 <SYSCALL_ADDR-0x200980>
  18:	6c2f6363          	bltu	x30,x2,6de <SYSCALL_ADDR-0x200922>
  1c:	6269                	c.lui	x4,0x1a
  1e:	2f636367          	0x2f636367
  22:	666e6f63          	bltu	x28,x6,6a0 <SYSCALL_ADDR-0x200960>
  26:	6769                	c.lui	x14,0x1a
  28:	7369722f          	0x7369722f
  2c:	6d2f7663          	bgeu	x30,x18,6f8 <SYSCALL_ADDR-0x200908>
  30:	6c75                	c.lui	x24,0x1d
  32:	6964                	c.flw	f9,84(x10)
  34:	00532e33          	slt	x28,x6,x5
  38:	6d6f682f          	0x6d6f682f
  3c:	2f65                	c.jal	7f4 <SYSCALL_ADDR-0x20080c>
  3e:	6c6c6173          	csrrsi	x2,0x6c6,24
  42:	7261                	c.lui	x4,0xffff8
  44:	6f6f742f          	0x6f6f742f
  48:	736c                	c.flw	f11,100(x14)
  4a:	7369722f          	0x7369722f
  4e:	672d7663          	bgeu	x26,x18,6ba <SYSCALL_ADDR-0x200946>
  52:	756e                	c.flwsp	f10,248(x2)
  54:	742d                	c.lui	x8,0xfffeb
  56:	636c6f6f          	jal	x30,c668c <SYSCALL_ADDR-0x13a974>
  5a:	6168                	c.flw	f10,68(x10)
  5c:	6e69                	c.lui	x28,0x1a
  5e:	6975622f          	0x6975622f
  62:	646c                	c.flw	f11,76(x8)
  64:	672d                	c.lui	x14,0xb
  66:	6e2d6363          	bltu	x26,x2,74c <SYSCALL_ADDR-0x2008b4>
  6a:	7765                	c.lui	x14,0xffff9
  6c:	696c                	c.flw	f11,84(x10)
  6e:	2d62                	c.fldsp	f26,24(x2)
  70:	67617473          	csrrci	x8,0x676,2
  74:	3265                	c.jal	fffffa1c <_end+0x7fffbfcc>
  76:	7369722f          	0x7369722f
  7a:	34367663          	bgeu	x12,x3,3c6 <SYSCALL_ADDR-0x200c3a>
  7e:	752d                	c.lui	x10,0xfffeb
  80:	6b6e                	c.flwsp	f22,216(x2)
  82:	6f6e                	c.flwsp	f30,216(x2)
  84:	652d6e77          	0x652d6e77
  88:	666c                	c.flw	f11,76(x12)
  8a:	3376722f          	0x3376722f
  8e:	6932                	c.flwsp	f18,12(x2)
  90:	706c692f          	0x706c692f
  94:	6c2f3233          	0x6c2f3233
  98:	6269                	c.lui	x4,0x1a
  9a:	00636367          	0x636367
  9e:	20554e47          	fmsub.s	f28,f10,f5,f4,rmm
  a2:	5341                	c.li	x6,-16
  a4:	3220                	c.fld	f8,96(x12)
  a6:	332e                	c.fldsp	f6,232(x2)
  a8:	0035                	c.addi	x0,13
