
matmult-int.elf:     Dateiformat elf32-littleriscv


Disassembly of section .text.init:

80000000 <initSection>:
80000000:	000070b3          	and	x1,x0,x0
80000004:	00007133          	and	x2,x0,x0
80000008:	000071b3          	and	x3,x0,x0
8000000c:	00007233          	and	x4,x0,x0
80000010:	000072b3          	and	x5,x0,x0
80000014:	00007333          	and	x6,x0,x0
80000018:	000073b3          	and	x7,x0,x0
8000001c:	00007433          	and	x8,x0,x0
80000020:	000074b3          	and	x9,x0,x0
80000024:	00007533          	and	x10,x0,x0
80000028:	000075b3          	and	x11,x0,x0
8000002c:	00007633          	and	x12,x0,x0
80000030:	000076b3          	and	x13,x0,x0
80000034:	00007733          	and	x14,x0,x0
80000038:	000077b3          	and	x15,x0,x0
8000003c:	00007833          	and	x16,x0,x0
80000040:	000078b3          	and	x17,x0,x0
80000044:	00007933          	and	x18,x0,x0
80000048:	000079b3          	and	x19,x0,x0
8000004c:	00007a33          	and	x20,x0,x0
80000050:	00007ab3          	and	x21,x0,x0
80000054:	00007b33          	and	x22,x0,x0
80000058:	00007bb3          	and	x23,x0,x0
8000005c:	00007c33          	and	x24,x0,x0
80000060:	00007cb3          	and	x25,x0,x0
80000064:	00007d33          	and	x26,x0,x0
80000068:	00007db3          	and	x27,x0,x0
8000006c:	00007e33          	and	x28,x0,x0
80000070:	00007eb3          	and	x29,x0,x0
80000074:	00007f33          	and	x30,x0,x0
80000078:	00007fb3          	and	x31,x0,x0
8000007c:	00002117          	auipc	x2,0x2
80000080:	03410113          	addi	x2,x2,52 # 800020b0 <stack_end>
80000084:	434020ef          	jal	x1,800024b8 <main>

80000088 <sys_end>:
80000088:	05d00893          	addi	x17,x0,93
8000008c:	00000513          	addi	x10,x0,0
80000090:	002012b7          	lui	x5,0x201
80000094:	f1402873          	csrrs	x16,mhartid,x0
80000098:	0102a023          	sw	x16,0(x5) # 201000 <SYSCALL_ADDR>
8000009c:	0112a023          	sw	x17,0(x5)
800000a0:	fe9ff06f          	jal	x0,80000088 <sys_end>
800000a4:	00000013          	addi	x0,x0,0
800000a8:	00000013          	addi	x0,x0,0
800000ac:	00000013          	addi	x0,x0,0

800000b0 <stack_begin>:
	...

800020b0 <stack_end>:
800020b0:	0000                	c.unimp
	...

Disassembly of section .text:

800020b4 <values_match>:
800020b4:	40b50533          	sub	x10,x10,x11
800020b8:	00153513          	sltiu	x10,x10,1
800020bc:	00008067          	jalr	x0,0(x1)

800020c0 <InitSeed>:
800020c0:	800057b7          	lui	x15,0x80005
800020c4:	c007ac23          	sw	x0,-1000(x15) # 80004c18 <_end+0xfffffff8>
800020c8:	00008067          	jalr	x0,0(x1)

800020cc <RandomInteger>:
800020cc:	ff010113          	addi	x2,x2,-16
800020d0:	00812423          	sw	x8,8(x2)
800020d4:	80005437          	lui	x8,0x80005
800020d8:	c1842783          	lw	x15,-1000(x8) # 80004c18 <_end+0xfffffff8>
800020dc:	000025b7          	lui	x11,0x2
800020e0:	f9f58593          	addi	x11,x11,-97 # 1f9f <SYSCALL_ADDR-0x1ff061>
800020e4:	00579513          	slli	x10,x15,0x5
800020e8:	00f50533          	add	x10,x10,x15
800020ec:	00251513          	slli	x10,x10,0x2
800020f0:	00f50533          	add	x10,x10,x15
800020f4:	05150513          	addi	x10,x10,81
800020f8:	00112623          	sw	x1,12(x2)
800020fc:	38c000ef          	jal	x1,80002488 <__modsi3>
80002100:	00c12083          	lw	x1,12(x2)
80002104:	c0a42c23          	sw	x10,-1000(x8)
80002108:	00812403          	lw	x8,8(x2)
8000210c:	01010113          	addi	x2,x2,16
80002110:	00008067          	jalr	x0,0(x1)

80002114 <Multiply>:
80002114:	fc010113          	addi	x2,x2,-64
80002118:	02812c23          	sw	x8,56(x2)
8000211c:	03312623          	sw	x19,44(x2)
80002120:	03512223          	sw	x21,36(x2)
80002124:	03612023          	sw	x22,32(x2)
80002128:	01912a23          	sw	x25,20(x2)
8000212c:	01a12823          	sw	x26,16(x2)
80002130:	01b12623          	sw	x27,12(x2)
80002134:	02112e23          	sw	x1,60(x2)
80002138:	02912a23          	sw	x9,52(x2)
8000213c:	03212823          	sw	x18,48(x2)
80002140:	03412423          	sw	x20,40(x2)
80002144:	01712e23          	sw	x23,28(x2)
80002148:	01812c23          	sw	x24,24(x2)
8000214c:	00050993          	addi	x19,x10,0
80002150:	00058b13          	addi	x22,x11,0
80002154:	00060a93          	addi	x21,x12,0
80002158:	00000413          	addi	x8,x0,0
8000215c:	05050c93          	addi	x25,x10,80
80002160:	05000d13          	addi	x26,x0,80
80002164:	64000d93          	addi	x27,x0,1600
80002168:	008a84b3          	add	x9,x21,x8
8000216c:	00000913          	addi	x18,x0,0
80002170:	008c8c33          	add	x24,x25,x8
80002174:	0004a023          	sw	x0,0(x9)
80002178:	01340a33          	add	x20,x8,x19
8000217c:	012b0bb3          	add	x23,x22,x18
80002180:	000ba583          	lw	x11,0(x23)
80002184:	000a2503          	lw	x10,0(x20)
80002188:	004a0a13          	addi	x20,x20,4
8000218c:	050b8b93          	addi	x23,x23,80
80002190:	250000ef          	jal	x1,800023e0 <__mulsi3>
80002194:	0004a783          	lw	x15,0(x9)
80002198:	00a787b3          	add	x15,x15,x10
8000219c:	00f4a023          	sw	x15,0(x9)
800021a0:	ff8a10e3          	bne	x20,x24,80002180 <Multiply+0x6c>
800021a4:	00490913          	addi	x18,x18,4
800021a8:	00448493          	addi	x9,x9,4
800021ac:	fda914e3          	bne	x18,x26,80002174 <Multiply+0x60>
800021b0:	05040413          	addi	x8,x8,80
800021b4:	fbb41ae3          	bne	x8,x27,80002168 <Multiply+0x54>
800021b8:	03c12083          	lw	x1,60(x2)
800021bc:	03812403          	lw	x8,56(x2)
800021c0:	03412483          	lw	x9,52(x2)
800021c4:	03012903          	lw	x18,48(x2)
800021c8:	02c12983          	lw	x19,44(x2)
800021cc:	02812a03          	lw	x20,40(x2)
800021d0:	02412a83          	lw	x21,36(x2)
800021d4:	02012b03          	lw	x22,32(x2)
800021d8:	01c12b83          	lw	x23,28(x2)
800021dc:	01812c03          	lw	x24,24(x2)
800021e0:	01412c83          	lw	x25,20(x2)
800021e4:	01012d03          	lw	x26,16(x2)
800021e8:	00c12d83          	lw	x27,12(x2)
800021ec:	04010113          	addi	x2,x2,64
800021f0:	00008067          	jalr	x0,0(x1)

800021f4 <Test>:
800021f4:	f21ff06f          	jal	x0,80002114 <Multiply>

800021f8 <benchmark_body>:
800021f8:	fe010113          	addi	x2,x2,-32
800021fc:	00812c23          	sw	x8,24(x2)
80002200:	00912a23          	sw	x9,20(x2)
80002204:	80003437          	lui	x8,0x80003
80002208:	800044b7          	lui	x9,0x80004
8000220c:	01412423          	sw	x20,8(x2)
80002210:	cd840413          	addi	x8,x8,-808 # 80002cd8 <_end+0xffffe0b8>
80002214:	cd848493          	addi	x9,x9,-808 # 80003cd8 <_end+0xfffff0b8>
80002218:	80005a37          	lui	x20,0x80005
8000221c:	01212823          	sw	x18,16(x2)
80002220:	01312623          	sw	x19,12(x2)
80002224:	01512223          	sw	x21,4(x2)
80002228:	01612023          	sw	x22,0(x2)
8000222c:	00112e23          	sw	x1,28(x2)
80002230:	00050913          	addi	x18,x10,0
80002234:	00000993          	addi	x19,x0,0
80002238:	64040b13          	addi	x22,x8,1600
8000223c:	c8048a93          	addi	x21,x9,-896
80002240:	cd8a0a13          	addi	x20,x20,-808 # 80004cd8 <_end+0xb8>
80002244:	0329c863          	blt	x19,x18,80002274 <benchmark_body+0x7c>
80002248:	01c12083          	lw	x1,28(x2)
8000224c:	01812403          	lw	x8,24(x2)
80002250:	01412483          	lw	x9,20(x2)
80002254:	01012903          	lw	x18,16(x2)
80002258:	00c12983          	lw	x19,12(x2)
8000225c:	00812a03          	lw	x20,8(x2)
80002260:	00412a83          	lw	x21,4(x2)
80002264:	00012b03          	lw	x22,0(x2)
80002268:	00000513          	addi	x10,x0,0
8000226c:	02010113          	addi	x2,x2,32
80002270:	00008067          	jalr	x0,0(x1)
80002274:	64000613          	addi	x12,x0,1600
80002278:	000b0593          	addi	x11,x22,0
8000227c:	00040513          	addi	x10,x8,0
80002280:	2f0000ef          	jal	x1,80002570 <memcpy>
80002284:	64000613          	addi	x12,x0,1600
80002288:	2c048593          	addi	x11,x9,704
8000228c:	000a8513          	addi	x10,x21,0
80002290:	2e0000ef          	jal	x1,80002570 <memcpy>
80002294:	900a0613          	addi	x12,x20,-1792
80002298:	000a8593          	addi	x11,x21,0
8000229c:	00040513          	addi	x10,x8,0
800022a0:	e75ff0ef          	jal	x1,80002114 <Multiply>
800022a4:	00198993          	addi	x19,x19,1
800022a8:	f9dff06f          	jal	x0,80002244 <benchmark_body+0x4c>

800022ac <warm_caches>:
800022ac:	f4dff06f          	jal	x0,800021f8 <benchmark_body>

800022b0 <benchmark>:
800022b0:	02e00513          	addi	x10,x0,46
800022b4:	f45ff06f          	jal	x0,800021f8 <benchmark_body>

800022b8 <initialise_benchmark>:
800022b8:	fe010113          	addi	x2,x2,-32
800022bc:	00812c23          	sw	x8,24(x2)
800022c0:	80003437          	lui	x8,0x80003
800022c4:	800057b7          	lui	x15,0x80005
800022c8:	31840413          	addi	x8,x8,792 # 80003318 <_end+0xffffe6f8>
800022cc:	01312623          	sw	x19,12(x2)
800022d0:	01412423          	sw	x20,8(x2)
800022d4:	00112e23          	sw	x1,28(x2)
800022d8:	00912a23          	sw	x9,20(x2)
800022dc:	01212823          	sw	x18,16(x2)
800022e0:	c007ac23          	sw	x0,-1000(x15) # 80004c18 <_end+0xfffffff8>
800022e4:	64040993          	addi	x19,x8,1600
800022e8:	01400a13          	addi	x20,x0,20
800022ec:	00040913          	addi	x18,x8,0
800022f0:	00000493          	addi	x9,x0,0
800022f4:	dd9ff0ef          	jal	x1,800020cc <RandomInteger>
800022f8:	00a92023          	sw	x10,0(x18)
800022fc:	00148493          	addi	x9,x9,1
80002300:	00490913          	addi	x18,x18,4
80002304:	ff4498e3          	bne	x9,x20,800022f4 <initialise_benchmark+0x3c>
80002308:	05040413          	addi	x8,x8,80
8000230c:	ff3410e3          	bne	x8,x19,800022ec <initialise_benchmark+0x34>
80002310:	80004437          	lui	x8,0x80004
80002314:	f9840413          	addi	x8,x8,-104 # 80003f98 <_end+0xfffff378>
80002318:	64040993          	addi	x19,x8,1600
8000231c:	01400a13          	addi	x20,x0,20
80002320:	00040913          	addi	x18,x8,0
80002324:	00000493          	addi	x9,x0,0
80002328:	da5ff0ef          	jal	x1,800020cc <RandomInteger>
8000232c:	00a92023          	sw	x10,0(x18)
80002330:	00148493          	addi	x9,x9,1
80002334:	00490913          	addi	x18,x18,4
80002338:	ff4498e3          	bne	x9,x20,80002328 <initialise_benchmark+0x70>
8000233c:	05040413          	addi	x8,x8,80
80002340:	ff3410e3          	bne	x8,x19,80002320 <initialise_benchmark+0x68>
80002344:	01c12083          	lw	x1,28(x2)
80002348:	01812403          	lw	x8,24(x2)
8000234c:	01412483          	lw	x9,20(x2)
80002350:	01012903          	lw	x18,16(x2)
80002354:	00c12983          	lw	x19,12(x2)
80002358:	00812a03          	lw	x20,8(x2)
8000235c:	02010113          	addi	x2,x2,32
80002360:	00008067          	jalr	x0,0(x1)

80002364 <verify_benchmark>:
80002364:	9b010113          	addi	x2,x2,-1616
80002368:	800025b7          	lui	x11,0x80002
8000236c:	64000613          	addi	x12,x0,1600
80002370:	69858593          	addi	x11,x11,1688 # 80002698 <_end+0xffffda78>
80002374:	00010513          	addi	x10,x2,0
80002378:	64112623          	sw	x1,1612(x2)
8000237c:	1f4000ef          	jal	x1,80002570 <memcpy>
80002380:	80004537          	lui	x10,0x80004
80002384:	00010593          	addi	x11,x2,0
80002388:	64000613          	addi	x12,x0,1600
8000238c:	5d850513          	addi	x10,x10,1496 # 800045d8 <_end+0xfffff9b8>
80002390:	168000ef          	jal	x1,800024f8 <memcmp>
80002394:	64c12083          	lw	x1,1612(x2)
80002398:	00153513          	sltiu	x10,x10,1
8000239c:	65010113          	addi	x2,x2,1616
800023a0:	00008067          	jalr	x0,0(x1)

800023a4 <initialise_board>:
800023a4:	00000513          	addi	x10,x0,0
800023a8:	00008067          	jalr	x0,0(x1)

800023ac <start_trigger>:
800023ac:	00000513          	addi	x10,x0,0
800023b0:	deadc2b7          	lui	x5,0xdeadc
800023b4:	eef28293          	addi	x5,x5,-273 # deadbeef <_end+0x5ead72cf>
800023b8:	00008067          	jalr	x0,0(x1)

800023bc <stop_trigger>:
800023bc:	beefe2b7          	lui	x5,0xbeefe
800023c0:	ead28293          	addi	x5,x5,-339 # beefdead <_end+0x3eef928d>
800023c4:	05d00893          	addi	x17,x0,93
800023c8:	00000513          	addi	x10,x0,0
800023cc:	020102b7          	lui	x5,0x2010
800023d0:	f1402873          	csrrs	x16,mhartid,x0
800023d4:	0102a023          	sw	x16,0(x5) # 2010000 <SYSCALL_ADDR+0x1e0f000>
800023d8:	0112a023          	sw	x17,0(x5)
800023dc:	00008067          	jalr	x0,0(x1)

800023e0 <__mulsi3>:
800023e0:	00050613          	addi	x12,x10,0
800023e4:	00000513          	addi	x10,x0,0
800023e8:	0015f693          	andi	x13,x11,1
800023ec:	00068463          	beq	x13,x0,800023f4 <__mulsi3+0x14>
800023f0:	00c50533          	add	x10,x10,x12
800023f4:	0015d593          	srli	x11,x11,0x1
800023f8:	00161613          	slli	x12,x12,0x1
800023fc:	fe0596e3          	bne	x11,x0,800023e8 <__mulsi3+0x8>
80002400:	00008067          	jalr	x0,0(x1)

80002404 <__divsi3>:
80002404:	06054063          	blt	x10,x0,80002464 <__umodsi3+0x10>
80002408:	0605c663          	blt	x11,x0,80002474 <__umodsi3+0x20>

8000240c <__udivsi3>:
8000240c:	00058613          	addi	x12,x11,0
80002410:	00050593          	addi	x11,x10,0
80002414:	fff00513          	addi	x10,x0,-1
80002418:	02060c63          	beq	x12,x0,80002450 <__udivsi3+0x44>
8000241c:	00100693          	addi	x13,x0,1
80002420:	00b67a63          	bgeu	x12,x11,80002434 <__udivsi3+0x28>
80002424:	00c05863          	bge	x0,x12,80002434 <__udivsi3+0x28>
80002428:	00161613          	slli	x12,x12,0x1
8000242c:	00169693          	slli	x13,x13,0x1
80002430:	feb66ae3          	bltu	x12,x11,80002424 <__udivsi3+0x18>
80002434:	00000513          	addi	x10,x0,0
80002438:	00c5e663          	bltu	x11,x12,80002444 <__udivsi3+0x38>
8000243c:	40c585b3          	sub	x11,x11,x12
80002440:	00d56533          	or	x10,x10,x13
80002444:	0016d693          	srli	x13,x13,0x1
80002448:	00165613          	srli	x12,x12,0x1
8000244c:	fe0696e3          	bne	x13,x0,80002438 <__udivsi3+0x2c>
80002450:	00008067          	jalr	x0,0(x1)

80002454 <__umodsi3>:
80002454:	00008293          	addi	x5,x1,0
80002458:	fb5ff0ef          	jal	x1,8000240c <__udivsi3>
8000245c:	00058513          	addi	x10,x11,0
80002460:	00028067          	jalr	x0,0(x5)
80002464:	40a00533          	sub	x10,x0,x10
80002468:	00b04863          	blt	x0,x11,80002478 <__umodsi3+0x24>
8000246c:	40b005b3          	sub	x11,x0,x11
80002470:	f9dff06f          	jal	x0,8000240c <__udivsi3>
80002474:	40b005b3          	sub	x11,x0,x11
80002478:	00008293          	addi	x5,x1,0
8000247c:	f91ff0ef          	jal	x1,8000240c <__udivsi3>
80002480:	40a00533          	sub	x10,x0,x10
80002484:	00028067          	jalr	x0,0(x5)

80002488 <__modsi3>:
80002488:	00008293          	addi	x5,x1,0
8000248c:	0005ca63          	blt	x11,x0,800024a0 <__modsi3+0x18>
80002490:	00054c63          	blt	x10,x0,800024a8 <__modsi3+0x20>
80002494:	f79ff0ef          	jal	x1,8000240c <__udivsi3>
80002498:	00058513          	addi	x10,x11,0
8000249c:	00028067          	jalr	x0,0(x5)
800024a0:	40b005b3          	sub	x11,x0,x11
800024a4:	fe0558e3          	bge	x10,x0,80002494 <__modsi3+0xc>
800024a8:	40a00533          	sub	x10,x0,x10
800024ac:	f61ff0ef          	jal	x1,8000240c <__udivsi3>
800024b0:	40b00533          	sub	x10,x0,x11
800024b4:	00028067          	jalr	x0,0(x5)

Disassembly of section .text.startup:

800024b8 <main>:
800024b8:	fe010113          	addi	x2,x2,-32
800024bc:	00112e23          	sw	x1,28(x2)
800024c0:	ee5ff0ef          	jal	x1,800023a4 <initialise_board>
800024c4:	df5ff0ef          	jal	x1,800022b8 <initialise_benchmark>
800024c8:	00100513          	addi	x10,x0,1
800024cc:	de1ff0ef          	jal	x1,800022ac <warm_caches>
800024d0:	eddff0ef          	jal	x1,800023ac <start_trigger>
800024d4:	dddff0ef          	jal	x1,800022b0 <benchmark>
800024d8:	00a12623          	sw	x10,12(x2)
800024dc:	ee1ff0ef          	jal	x1,800023bc <stop_trigger>
800024e0:	00c12503          	lw	x10,12(x2)
800024e4:	e81ff0ef          	jal	x1,80002364 <verify_benchmark>
800024e8:	01c12083          	lw	x1,28(x2)
800024ec:	00153513          	sltiu	x10,x10,1
800024f0:	02010113          	addi	x2,x2,32
800024f4:	00008067          	jalr	x0,0(x1)

Disassembly of section .text.memcmp:

800024f8 <memcmp>:
800024f8:	00300793          	addi	x15,x0,3
800024fc:	02c7f863          	bgeu	x15,x12,8000252c <memcmp+0x34>
80002500:	00b567b3          	or	x15,x10,x11
80002504:	0037f793          	andi	x15,x15,3
80002508:	00300693          	addi	x13,x0,3
8000250c:	04079e63          	bne	x15,x0,80002568 <memcmp+0x70>
80002510:	00052703          	lw	x14,0(x10)
80002514:	0005a783          	lw	x15,0(x11)
80002518:	04f71863          	bne	x14,x15,80002568 <memcmp+0x70>
8000251c:	ffc60613          	addi	x12,x12,-4
80002520:	00450513          	addi	x10,x10,4
80002524:	00458593          	addi	x11,x11,4
80002528:	fec6e4e3          	bltu	x13,x12,80002510 <memcmp+0x18>
8000252c:	fff60693          	addi	x13,x12,-1
80002530:	02060863          	beq	x12,x0,80002560 <memcmp+0x68>
80002534:	00168693          	addi	x13,x13,1
80002538:	00d506b3          	add	x13,x10,x13
8000253c:	0080006f          	jal	x0,80002544 <memcmp+0x4c>
80002540:	02d50063          	beq	x10,x13,80002560 <memcmp+0x68>
80002544:	00054783          	lbu	x15,0(x10)
80002548:	0005c703          	lbu	x14,0(x11)
8000254c:	00150513          	addi	x10,x10,1
80002550:	00158593          	addi	x11,x11,1
80002554:	fee786e3          	beq	x15,x14,80002540 <memcmp+0x48>
80002558:	40e78533          	sub	x10,x15,x14
8000255c:	00008067          	jalr	x0,0(x1)
80002560:	00000513          	addi	x10,x0,0
80002564:	00008067          	jalr	x0,0(x1)
80002568:	fff60693          	addi	x13,x12,-1
8000256c:	fc9ff06f          	jal	x0,80002534 <memcmp+0x3c>

Disassembly of section .text.memcpy:

80002570 <memcpy>:
80002570:	00a5c7b3          	xor	x15,x11,x10
80002574:	0037f793          	andi	x15,x15,3
80002578:	00c508b3          	add	x17,x10,x12
8000257c:	06079663          	bne	x15,x0,800025e8 <memcpy+0x78>
80002580:	00300793          	addi	x15,x0,3
80002584:	06c7f263          	bgeu	x15,x12,800025e8 <memcpy+0x78>
80002588:	00357793          	andi	x15,x10,3
8000258c:	00050713          	addi	x14,x10,0
80002590:	0c079a63          	bne	x15,x0,80002664 <memcpy+0xf4>
80002594:	ffc8f613          	andi	x12,x17,-4
80002598:	40e606b3          	sub	x13,x12,x14
8000259c:	02000793          	addi	x15,x0,32
800025a0:	02000293          	addi	x5,x0,32
800025a4:	06d7c263          	blt	x15,x13,80002608 <memcpy+0x98>
800025a8:	00058693          	addi	x13,x11,0
800025ac:	00070793          	addi	x15,x14,0
800025b0:	02c77863          	bgeu	x14,x12,800025e0 <memcpy+0x70>
800025b4:	0006a803          	lw	x16,0(x13)
800025b8:	00478793          	addi	x15,x15,4
800025bc:	00468693          	addi	x13,x13,4
800025c0:	ff07ae23          	sw	x16,-4(x15)
800025c4:	fec7e8e3          	bltu	x15,x12,800025b4 <memcpy+0x44>
800025c8:	fff60793          	addi	x15,x12,-1
800025cc:	40e787b3          	sub	x15,x15,x14
800025d0:	ffc7f793          	andi	x15,x15,-4
800025d4:	00478793          	addi	x15,x15,4
800025d8:	00f70733          	add	x14,x14,x15
800025dc:	00f585b3          	add	x11,x11,x15
800025e0:	01176863          	bltu	x14,x17,800025f0 <memcpy+0x80>
800025e4:	00008067          	jalr	x0,0(x1)
800025e8:	00050713          	addi	x14,x10,0
800025ec:	ff157ce3          	bgeu	x10,x17,800025e4 <memcpy+0x74>
800025f0:	0005c783          	lbu	x15,0(x11)
800025f4:	00170713          	addi	x14,x14,1
800025f8:	00158593          	addi	x11,x11,1
800025fc:	fef70fa3          	sb	x15,-1(x14)
80002600:	ff1768e3          	bltu	x14,x17,800025f0 <memcpy+0x80>
80002604:	00008067          	jalr	x0,0(x1)
80002608:	0045a683          	lw	x13,4(x11)
8000260c:	01c5a783          	lw	x15,28(x11)
80002610:	0005af83          	lw	x31,0(x11)
80002614:	0085af03          	lw	x30,8(x11)
80002618:	00c5ae83          	lw	x29,12(x11)
8000261c:	0105ae03          	lw	x28,16(x11)
80002620:	0145a303          	lw	x6,20(x11)
80002624:	0185a803          	lw	x16,24(x11)
80002628:	00d72223          	sw	x13,4(x14)
8000262c:	0205a683          	lw	x13,32(x11)
80002630:	01f72023          	sw	x31,0(x14)
80002634:	01e72423          	sw	x30,8(x14)
80002638:	01d72623          	sw	x29,12(x14)
8000263c:	01c72823          	sw	x28,16(x14)
80002640:	00672a23          	sw	x6,20(x14)
80002644:	01072c23          	sw	x16,24(x14)
80002648:	00f72e23          	sw	x15,28(x14)
8000264c:	02470713          	addi	x14,x14,36
80002650:	40e607b3          	sub	x15,x12,x14
80002654:	fed72e23          	sw	x13,-4(x14)
80002658:	02458593          	addi	x11,x11,36
8000265c:	faf2c6e3          	blt	x5,x15,80002608 <memcpy+0x98>
80002660:	f49ff06f          	jal	x0,800025a8 <memcpy+0x38>
80002664:	0005c683          	lbu	x13,0(x11)
80002668:	00170713          	addi	x14,x14,1
8000266c:	00377793          	andi	x15,x14,3
80002670:	fed70fa3          	sb	x13,-1(x14)
80002674:	00158593          	addi	x11,x11,1
80002678:	f0078ee3          	beq	x15,x0,80002594 <memcpy+0x24>
8000267c:	0005c683          	lbu	x13,0(x11)
80002680:	00170713          	addi	x14,x14,1
80002684:	00377793          	andi	x15,x14,3
80002688:	fed70fa3          	sb	x13,-1(x14)
8000268c:	00158593          	addi	x11,x11,1
80002690:	fc079ae3          	bne	x15,x0,80002664 <memcpy+0xf4>
80002694:	f01ff06f          	jal	x0,80002594 <memcpy+0x24>

Disassembly of section .rodata:

80002698 <.rodata>:
80002698:	9510                	0x9510
8000269a:	1158                	c.addi4spn	x14,x2,164
8000269c:	12c6850b          	0x12c6850b
800026a0:	f6f2                	c.fswsp	f28,108(x2)
800026a2:	10a1                	c.addi	x1,-24
800026a4:	0c392f27          	fsw	f3,222(x18)
800026a8:	d7a1                	c.beqz	x15,800025f0 <memcpy+0x80>
800026aa:	3f1916cf          	fnmadd.q	f13,f18,f17,f7,rtz
800026ae:	1209                	c.addi	x4,-30
800026b0:	14befcf3          	csrrci	x25,0x14b,29
800026b4:	c1da                	c.swsp	x22,192(x2)
800026b6:	126a                	c.slli	x4,0x3a
800026b8:	37b8                	c.fld	f14,104(x15)
800026ba:	1474                	c.addi4spn	x13,x2,556
800026bc:	f91f 124d 2f4a      	0x2f4a124df91f
800026c2:	1170                	c.addi4spn	x12,x2,172
800026c4:	ac8e                	c.fsdsp	f3,88(x2)
800026c6:	0e5c                	c.addi4spn	x15,x2,788
800026c8:	0ddf9267          	0xddf9267
800026cc:	7831                	c.lui	x16,0xfffec
800026ce:	0eb1                	c.addi	x29,12
800026d0:	018e                	c.slli	x3,0x3
800026d2:	1394                	c.addi4spn	x13,x2,480
800026d4:	0fb732f7          	0xfb732f7
800026d8:	1350190b          	0x1350190b
800026dc:	7246                	c.flwsp	f4,112(x2)
800026de:	13f2                	c.slli	x7,0x3c
800026e0:	110bb083          	0x110bb083
800026e4:	eef8                	c.fsw	f14,92(x13)
800026e6:	1495                	c.addi	x9,-27
800026e8:	0f08e7ab          	0xf08e7ab
800026ec:	13dfc78b          	0x13dfc78b
800026f0:	11d5bd33          	0x11d5bd33
800026f4:	0ec44d17          	auipc	x26,0xec44
800026f8:	f9be                	c.fswsp	f15,240(x2)
800026fa:	192e                	c.slli	x18,0x2b
800026fc:	e4b9                	c.bnez	x9,8000274a <memcpy+0x1da>
800026fe:	12e0                	c.addi4spn	x8,x2,364
80002700:	02be                	c.slli	x5,0xf
80002702:	1570                	c.addi4spn	x12,x2,684
80002704:	83b0                	0x83b0
80002706:	108e                	c.slli	x1,0x23
80002708:	1345ba5b          	0x1345ba5b
8000270c:	d4d8                	c.sw	x14,44(x9)
8000270e:	131c                	c.addi4spn	x15,x2,416
80002710:	3a4a                	c.fldsp	f20,176(x2)
80002712:	0ee5                	c.addi	x29,25
80002714:	9360                	0x9360
80002716:	0efd                	c.addi	x29,31
80002718:	9cf4                	0x9cf4
8000271a:	73780e6f          	jal	x28,80083650 <_end+0x7ea30>
8000271e:	0fb4                	c.addi4spn	x13,x2,984
80002720:	14c13a13          	sltiu	x20,x2,332
80002724:	312c                	c.fld	f11,96(x10)
80002726:	1141                	c.addi	x2,-16
80002728:	13962743          	fmadd.d	f14,f12,f25,f2,rdn
8000272c:	11edd75b          	0x11edd75b
80002730:	f9f2                	c.fswsp	f28,240(x2)
80002732:	100d                	c.addi	x0,-29
80002734:	aa24                	c.fsd	f9,80(x12)
80002736:	1238                	c.addi4spn	x14,x2,296
80002738:	6b92                	c.flwsp	f23,4(x2)
8000273a:	122c                	c.addi4spn	x11,x2,296
8000273c:	12d9a28f          	0x12d9a28f
80002740:	0fb09343          	fmadd.q	f6,f1,f27,f1,rtz
80002744:	0c742807          	flw	f16,199(x8)
80002748:	1d0c                	c.addi4spn	x11,x2,688
8000274a:	bd321927          	0xbd321927
8000274e:	c62213f7          	0xc62213f7
80002752:	14c6                	c.slli	x9,0x31
80002754:	10bf999b          	0x10bf999b
80002758:	3bd2                	c.fldsp	f23,304(x2)
8000275a:	1145                	c.addi	x2,-15
8000275c:	0f7ab9b7          	lui	x19,0xf7ab
80002760:	2846                	c.fldsp	f16,80(x2)
80002762:	1199                	c.addi	x3,-26
80002764:	1287f543          	fmadd.d	f10,f15,f8,f2
80002768:	60f1                	c.lui	x1,0x1c
8000276a:	0ef4                	c.addi4spn	x13,x2,860
8000276c:	0c79                	c.addi	x24,30
8000276e:	0ee9                	c.addi	x29,26
80002770:	12c7fbe3          	bgeu	x15,x12,800030a6 <ArrayA+0x3ce>
80002774:	a400                	c.fsd	f8,8(x8)
80002776:	0e16                	c.slli	x28,0x5
80002778:	12a628fb          	0x12a628fb
8000277c:	9a4d                	c.andi	x12,-13
8000277e:	12a1                	c.addi	x5,-24
80002780:	107366e3          	bltu	x6,x7,8000308c <ArrayA+0x3b4>
80002784:	209d                	c.jal	800027ea <memcpy+0x27a>
80002786:	b3ed1483          	lh	x9,-1218(x26) # 8ec46232 <_end+0xec41612>
8000278a:	1116                	c.slli	x2,0x25
8000278c:	2540                	c.fld	f8,136(x10)
8000278e:	136e                	c.slli	x6,0x3b
80002790:	4ffa                	c.lwsp	x31,156(x2)
80002792:	0f15                	c.addi	x30,5
80002794:	7c12                	c.flwsp	f24,36(x2)
80002796:	0d5f 03b2 1512      	0x151203b20d5f
8000279c:	7ea2                	c.flwsp	f29,40(x2)
8000279e:	1245                	c.addi	x4,-15
800027a0:	192c                	c.addi4spn	x11,x2,184
800027a2:	1348                	c.addi4spn	x10,x2,420
800027a4:	eac1                	c.bnez	x13,80002834 <memcpy+0x2c4>
800027a6:	0f71                	c.addi	x30,28
800027a8:	9c9a                	c.add	x25,x6
800027aa:	4d4a1257          	0x4d4a1257
800027ae:	10d5                	c.addi	x1,-11
800027b0:	ab82                	c.fsdsp	f0,464(x2)
800027b2:	10c1                	c.addi	x1,-16
800027b4:	0eb7f567          	0xeb7f567
800027b8:	297f                	0x297f
800027ba:	0c64                	c.addi4spn	x9,x2,540
800027bc:	5864                	c.lw	x9,116(x8)
800027be:	7f3a0def          	jal	x27,800a37b0 <_end+0x9eb90>
800027c2:	1441                	c.addi	x8,-16
800027c4:	34de                	c.fldsp	f9,496(x2)
800027c6:	ad741087          	0xad741087
800027ca:	1311                	c.addi	x6,-28
800027cc:	1253a22f          	0x1253a22f
800027d0:	406c                	c.lw	x11,68(x8)
800027d2:	1151                	c.addi	x2,-12
800027d4:	116c1b3f 103f1b77 	0x103f1b77116c1b3f
800027dc:	af58                	c.fsd	f14,152(x14)
800027de:	1682                	c.slli	x13,0x20
800027e0:	00c1                	c.addi	x1,16
800027e2:	14fc1227          	0x14fc1227
800027e6:	0fad                	c.addi	x31,11
800027e8:	9405                	c.srai	x8,0x21
800027ea:	165a                	c.slli	x12,0x36
800027ec:	925e                	c.add	x4,x23
800027ee:	1365                	c.addi	x6,-7
800027f0:	91dc                	0x91dc
800027f2:	1879                	c.addi	x16,-2
800027f4:	ed32                	c.fswsp	f12,152(x2)
800027f6:	12aa                	c.slli	x5,0x2a
800027f8:	15473b77          	0x15473b77
800027fc:	126376c3          	fmadd.d	f13,f6,f6,f2
80002800:	798a                	c.flwsp	f19,160(x2)
80002802:	0cfe                	c.slli	x25,0x1f
80002804:	d2df 103d d75c      	0xd75c103dd2df
8000280a:	0fda                	c.slli	x31,0x16
8000280c:	87f6                	c.mv	x15,x29
8000280e:	35a40fc7          	0x35a40fc7
80002812:	15e8                	c.addi4spn	x10,x2,748
80002814:	1220e8f3          	csrrsi	x17,0x122,1
80002818:	610c                	c.flw	f11,0(x10)
8000281a:	152d                	c.addi	x10,-21
8000281c:	ba1c                	c.fsd	f15,48(x12)
8000281e:	4c8f1073          	csrrw	x0,0x4c8,x30
80002822:	0efc                	c.addi4spn	x15,x2,860
80002824:	11f45513          	0x11f45513
80002828:	c03c                	c.sw	x15,64(x8)
8000282a:	103e                	c.slli	x0,0x2f
8000282c:	0a7c                	c.addi4spn	x15,x2,284
8000282e:	132a                	c.slli	x6,0x2a
80002830:	05c9                	c.addi	x11,18
80002832:	55af112f          	0x55af112f
80002836:	0ec4                	c.addi4spn	x9,x2,852
80002838:	173d9917          	auipc	x18,0x173d9
8000283c:	024a                	c.slli	x4,0x12
8000283e:	13c8                	c.addi4spn	x10,x2,484
80002840:	1619eeeb          	0x1619eeeb
80002844:	12cda5f7          	0x12cda5f7
80002848:	6fb5                	c.lui	x31,0xd
8000284a:	15e8                	c.addi4spn	x10,x2,748
8000284c:	f18c                	c.fsw	f11,32(x11)
8000284e:	1f551297          	auipc	x5,0x1f551
80002852:	0f6d                	c.addi	x30,27
80002854:	0f3e                	c.slli	x30,0xf
80002856:	1020                	c.addi4spn	x8,x2,40
80002858:	0f4d6593          	ori	x11,x26,244
8000285c:	7480                	c.flw	f8,40(x9)
8000285e:	111d                	c.addi	x2,-25
80002860:	44b6                	c.lwsp	x9,76(x2)
80002862:	15a4                	c.addi4spn	x9,x2,744
80002864:	11070547          	fmsub.s	f10,f14,f16,f2,rne
80002868:	93e8                	0x93e8
8000286a:	1514                	c.addi4spn	x13,x2,672
8000286c:	1222062f          	0x1222062f
80002870:	10629967          	0x10629967
80002874:	4b74                	c.lw	x13,84(x14)
80002876:	135a                	c.slli	x6,0x36
80002878:	0de5309b          	0xde5309b
8000287c:	eb50                	c.fsw	f12,20(x14)
8000287e:	0d89                	c.addi	x27,2
80002880:	0cacdc33          	0xcacdc33
80002884:	4722                	c.lwsp	x14,8(x2)
80002886:	0bd6                	c.slli	x23,0x15
80002888:	65d2                	c.flwsp	f11,20(x2)
8000288a:	1495                	c.addi	x9,-27
8000288c:	40d5                	c.li	x1,21
8000288e:	120a                	c.slli	x4,0x22
80002890:	31cd                	c.jal	80002572 <memcpy+0x2>
80002892:	0f1a                	c.slli	x30,0x6
80002894:	02a9                	c.addi	x5,10
80002896:	be0e0de7          	jalr	x27,-1056(x28)
8000289a:	0dee                	c.slli	x27,0x1b
8000289c:	f8d8                	c.fsw	f14,52(x9)
8000289e:	0d62                	c.slli	x26,0x18
800028a0:	ef54                	c.fsw	f13,28(x14)
800028a2:	0bf1                	c.addi	x23,28
800028a4:	c4df 0ef2 bf80      	0xbf800ef2c4df
800028aa:	0df8                	c.addi4spn	x14,x2,732
800028ac:	a57d                	c.j	80002f5a <ArrayA+0x282>
800028ae:	0c9e                	c.slli	x25,0x7
800028b0:	1395                	c.addi	x7,-27
800028b2:	10ba                	c.slli	x1,0x2e
800028b4:	0b0aa0b3          	0xb0aa0b3
800028b8:	10f1                	c.addi	x1,-4
800028ba:	ad2f11ab          	0xad2f11ab
800028be:	d5891077          	0xd5891077
800028c2:	0f0a                	c.slli	x30,0x2
800028c4:	109d0787          	0x109d0787
800028c8:	108d38a7          	fsd	f8,273(x26)
800028cc:	1ed0                	c.addi4spn	x12,x2,884
800028ce:	143e                	c.slli	x8,0x2f
800028d0:	dfce                	c.swsp	x19,252(x2)
800028d2:	1320                	c.addi4spn	x8,x2,424
800028d4:	124e314b          	fnmsub.d	f2,f28,f4,f2,rup
800028d8:	17da5f4f          	fnmadd.q	f30,f20,f29,f2,unknown
800028dc:	26ff                	0x26ff
800028de:	13ee                	c.slli	x7,0x3b
800028e0:	aec8                	c.fsd	f10,152(x13)
800028e2:	166d                	c.addi	x12,-5
800028e4:	80ba                	c.mv	x1,x14
800028e6:	11a4                	c.addi4spn	x9,x2,232
800028e8:	c1f4                	c.sw	x13,68(x11)
800028ea:	15a2                	c.slli	x11,0x28
800028ec:	4a3c                	c.lw	x15,80(x12)
800028ee:	153c                	c.addi4spn	x15,x2,680
800028f0:	8e99                	c.sub	x13,x14
800028f2:	1185                	c.addi	x3,-31
800028f4:	5036                	0x5036
800028f6:	91df0f97          	auipc	x31,0x91df0
800028fa:	0f7a                	c.slli	x30,0x1e
800028fc:	a309                	c.j	80002dfe <ArrayA+0x126>
800028fe:	0fad                	c.addi	x31,11
80002900:	15b9                	c.addi	x11,-18
80002902:	558b18d7          	0x558b18d7
80002906:	105f 58d6 16fb      	0x16fb58d6105f
8000290c:	f8b1                	c.bnez	x9,80002860 <memcpy+0x2f0>
8000290e:	1801                	c.addi	x16,-32
80002910:	bbe2                	c.fsdsp	f24,496(x2)
80002912:	134e                	c.slli	x6,0x33
80002914:	9056                	c.add	x0,x21
80002916:	159f acca 0fec      	0xfecacca159f
8000291c:	b7d0                	c.fsd	f12,168(x15)
8000291e:	1346                	c.slli	x6,0x31
80002920:	709a                	c.flwsp	f1,164(x2)
80002922:	10a8                	c.addi4spn	x10,x2,104
80002924:	461d                	c.li	x12,7
80002926:	0c09                	c.addi	x24,2
80002928:	352c                	c.fld	f11,104(x10)
8000292a:	159d                	c.addi	x11,-25
8000292c:	a211                	c.j	80002a30 <memcpy+0x4c0>
8000292e:	13b6                	c.slli	x7,0x2d
80002930:	16291f0b          	0x16291f0b
80002934:	4ce8                	c.lw	x10,92(x9)
80002936:	11dc                	c.addi4spn	x15,x2,228
80002938:	08b5                	c.addi	x17,13
8000293a:	65c213e3          	bne	x4,x28,80003780 <ArrayA_ref+0x468>
8000293e:	0fc8                	c.addi4spn	x10,x2,980
80002940:	a6f0                	c.fsd	f12,200(x13)
80002942:	0cde                	c.slli	x25,0x17
80002944:	8238                	0x8238
80002946:	108a                	c.slli	x1,0x22
80002948:	0fbd5d53          	fsub.q	f26,f26,f27,unknown
8000294c:	079f 0dfb dbe3      	0xdbe30dfb079f
80002952:	132d                	c.addi	x6,-21
80002954:	e4d1                	c.bnez	x9,800029e0 <memcpy+0x470>
80002956:	0cf6                	c.slli	x25,0x1d
80002958:	e858                	c.fsw	f14,20(x8)
8000295a:	127f                	0x127f
8000295c:	592e                	c.lwsp	x18,232(x2)
8000295e:	12ed                	c.addi	x5,-5
80002960:	6dcd                	c.lui	x27,0x13
80002962:	0ea2                	c.slli	x29,0x8
80002964:	1474904b          	0x1474904b
80002968:	3302                	c.fldsp	f6,32(x2)
8000296a:	10c4                	c.addi4spn	x9,x2,100
8000296c:	4ad1                	c.li	x21,20
8000296e:	1376                	c.slli	x6,0x3d
80002970:	d8b1                	c.beqz	x9,800028c4 <memcpy+0x354>
80002972:	0dea                	c.slli	x27,0x1a
80002974:	7761                	c.lui	x14,0xffff8
80002976:	71780e37          	lui	x28,0x71780
8000297a:	11b4                	c.addi4spn	x13,x2,232
8000297c:	028c                	c.addi4spn	x11,x2,320
8000297e:	0fdf 468e 14d5      	0x14d5468e0fdf
80002984:	44aa                	c.lwsp	x9,136(x2)
80002986:	0f75                	c.addi	x30,29
80002988:	ae7f                	0xae7f
8000298a:	123d                	c.addi	x4,-17
8000298c:	0fe0e8db          	0xfe0e8db
80002990:	8a68                	0x8a68
80002992:	0c88                	c.addi4spn	x10,x2,592
80002994:	666d                	c.lui	x12,0x1b
80002996:	0fb8                	c.addi4spn	x14,x2,984
80002998:	4d8a                	c.lwsp	x27,128(x2)
8000299a:	71e90dcf          	fnmadd.s	f27,f18,f30,f14,rne
8000299e:	0f04                	c.addi4spn	x9,x2,912
800029a0:	6974                	c.flw	f13,84(x10)
800029a2:	117f                	0x117f
800029a4:	0af4                	c.addi4spn	x13,x2,348
800029a6:	0d85                	c.addi	x27,1
800029a8:	67e0                	c.flw	f8,76(x15)
800029aa:	126e                	c.slli	x4,0x3b
800029ac:	3fa0                	c.fld	f8,120(x15)
800029ae:	f82b110f          	0xf82b110f
800029b2:	0c48                	c.addi4spn	x10,x2,532
800029b4:	6f49                	c.lui	x30,0x12
800029b6:	b37e0e1b          	0xb37e0e1b
800029ba:	1130                	c.addi4spn	x12,x2,168
800029bc:	127f190f          	0x127f190f
800029c0:	97f6                	c.add	x15,x29
800029c2:	10d9                	c.addi	x1,-10
800029c4:	71d4                	c.flw	f13,36(x11)
800029c6:	0e8d                	c.addi	x29,3
800029c8:	b624                	c.fsd	f9,104(x12)
800029ca:	2c9e196b          	0x2c9e196b
800029ce:	1719                	c.addi	x14,-26
800029d0:	c88e                	c.swsp	x3,80(x2)
800029d2:	1462                	c.slli	x8,0x38
800029d4:	af69                	c.j	8000316e <ArrayA+0x496>
800029d6:	e994136f          	jal	x6,7ff4486e <SYSCALL_ADDR+0x7fd4386e>
800029da:	14fe                	c.slli	x9,0x3f
800029dc:	1312c727          	fsq	f17,302(x5) # 9f55397c <_end+0x1f54ed5c>
800029e0:	11eb7dcb          	fnmsub.s	f27,f22,f30,f2
800029e4:	0c84                	c.addi4spn	x9,x2,592
800029e6:	10fa                	c.slli	x1,0x3e
800029e8:	e900                	c.fsw	f8,16(x10)
800029ea:	ea1f1033          	0xea1f1033
800029ee:	1054                	c.addi4spn	x13,x2,36
800029f0:	09aa                	c.slli	x19,0xa
800029f2:	1591                	c.addi	x11,-28
800029f4:	4ff0                	c.lw	x12,92(x15)
800029f6:	f1b00f0b          	0xf1b00f0b
800029fa:	14c6                	c.slli	x9,0x31
800029fc:	76bc                	c.flw	f15,104(x13)
800029fe:	1666                	c.slli	x12,0x39
80002a00:	c0df 12de f226      	0xf22612dec0df
80002a06:	1338                	c.addi4spn	x14,x2,424
80002a08:	46cc                	c.lw	x11,12(x13)
80002a0a:	eb37104b          	fnmsub.d	f0,f14,f19,f29,rtz
80002a0e:	13a6                	c.slli	x7,0x29
80002a10:	1134baaf          	0x1134baaf
80002a14:	3621                	c.jal	8000251c <memcmp+0x24>
80002a16:	0dfa                	c.slli	x27,0x1e
80002a18:	4972                	c.lwsp	x18,28(x2)
80002a1a:	16c4                	c.addi4spn	x9,x2,868
80002a1c:	9b6d                	c.andi	x14,-5
80002a1e:	1474                	c.addi4spn	x13,x2,556
80002a20:	264d                	c.jal	80002dc2 <ArrayA+0xea>
80002a22:	141e                	c.slli	x8,0x27
80002a24:	c09d                	c.beqz	x9,80002a4a <memcpy+0x4da>
80002a26:	0f79                	c.addi	x30,30
80002a28:	dec9                	c.beqz	x13,800029c2 <memcpy+0x452>
80002a2a:	11a0                	c.addi4spn	x8,x2,232
80002a2c:	5e79                	c.li	x28,-2
80002a2e:	10f9                	c.addi	x1,-2
80002a30:	ca3d                	c.beqz	x12,80002aa6 <memcpy+0x536>
80002a32:	0c3c                	c.addi4spn	x15,x2,536
80002a34:	9166                	c.add	x2,x25
80002a36:	0ee0                	c.addi4spn	x8,x2,860
80002a38:	5bc6                	c.lwsp	x23,112(x2)
80002a3a:	0f4c                	c.addi4spn	x11,x2,916
80002a3c:	18df 0efe 641a      	0x641a0efe18df
80002a42:	1409                	c.addi	x8,-30
80002a44:	a8c6                	c.fsdsp	f17,80(x2)
80002a46:	0edc                	c.addi4spn	x15,x2,852
80002a48:	b69a                	c.fsdsp	f6,360(x2)
80002a4a:	13e1                	c.addi	x7,-8
80002a4c:	aace                	c.fsdsp	f19,336(x2)
80002a4e:	13a0                	c.addi4spn	x8,x2,488
80002a50:	d4fd                	c.beqz	x9,80002a3e <memcpy+0x4ce>
80002a52:	1095                	c.addi	x1,-27
80002a54:	eb44                	c.fsw	f9,20(x14)
80002a56:	4a8711eb          	0x4a8711eb
80002a5a:	12fd                	c.addi	x5,-1
80002a5c:	7ef0                	c.flw	f12,124(x13)
80002a5e:	12ce                	c.slli	x5,0x33
80002a60:	0f88eee7          	0xf88eee7
80002a64:	d8a5                	c.beqz	x9,800029d4 <memcpy+0x464>
80002a66:	0ee6                	c.slli	x29,0x19
80002a68:	2932                	c.fldsp	f18,264(x2)
80002a6a:	1418                	c.addi4spn	x14,x2,544
80002a6c:	1bfa                	c.slli	x23,0x3e
80002a6e:	12a5                	c.addi	x5,-23
80002a70:	335e                	c.fldsp	f6,496(x2)
80002a72:	14aa                	c.slli	x9,0x2a
80002a74:	a52e                	c.fsdsp	f11,136(x2)
80002a76:	d5760f8b          	0xd5760f8b
80002a7a:	1724                	c.addi4spn	x9,x2,936
80002a7c:	73c5                	c.lui	x7,0xffff1
80002a7e:	eed21417          	auipc	x8,0xeed21
80002a82:	188210e7          	0x188210e7
80002a86:	0c68                	c.addi4spn	x10,x2,540
80002a88:	7259                	c.lui	x4,0xffff6
80002a8a:	0df4                	c.addi4spn	x13,x2,732
80002a8c:	fe2d                	c.bnez	x12,80002a06 <memcpy+0x496>
80002a8e:	0f79                	c.addi	x30,30
80002a90:	160f82b7          	lui	x5,0x160f8
80002a94:	a35a                	c.fsdsp	f22,384(x2)
80002a96:	0e80                	c.addi4spn	x8,x2,848
80002a98:	e575                	c.bnez	x10,80002b84 <memcpy+0x614>
80002a9a:	1684                	c.addi4spn	x9,x2,864
80002a9c:	a6d2                	c.fsdsp	f20,328(x2)
80002a9e:	1562                	c.slli	x10,0x38
80002aa0:	d3b2                	c.swsp	x12,228(x2)
80002aa2:	1118                	c.addi4spn	x14,x2,160
80002aa4:	13300003          	lb	x0,307(x0) # 133 <SYSCALL_ADDR-0x200ecd>
80002aa8:	8825                	c.andi	x8,9
80002aaa:	0dae                	c.slli	x27,0xb
80002aac:	3c5a                	c.fldsp	f24,432(x2)
80002aae:	bfb10f23          	sb	x27,-1026(x2)
80002ab2:	0d4a                	c.slli	x26,0x12
80002ab4:	0c0ee433          	0xc0ee433
80002ab8:	12163bab          	0x12163bab
80002abc:	91a4                	0x91a4
80002abe:	1000                	c.addi4spn	x8,x2,32
80002ac0:	9b21                	c.andi	x14,-24
80002ac2:	1105                	c.addi	x2,-31
80002ac4:	cf1d                	c.beqz	x14,80002b02 <memcpy+0x592>
80002ac6:	9e080c93          	addi	x25,x16,-1568 # fffeb9e0 <_end+0x7ffe6dc0>
80002aca:	1125                	c.addi	x2,-23
80002acc:	02d6                	c.slli	x5,0x15
80002ace:	10ad                	c.addi	x1,-21
80002ad0:	809e                	c.mv	x1,x7
80002ad2:	0d8d                	c.addi	x27,3
80002ad4:	0bc5048f          	0xbc5048f
80002ad8:	0d429e53          	0xd429e53
80002adc:	0ab382e7          	jalr	x5,171(x7) # ffff10ab <_end+0x7ffec48b>
80002ae0:	cc44                	c.sw	x9,28(x8)
80002ae2:	46a3124b          	fnmsub.q	f4,f6,f10,f8,rtz
80002ae6:	0aa2                	c.slli	x21,0x8
80002ae8:	81b2                	c.mv	x3,x12
80002aea:	10c0                	c.addi4spn	x8,x2,100
80002aec:	28e8                	c.fld	f10,208(x9)
80002aee:	10ac                	c.addi4spn	x11,x2,104
80002af0:	ce06                	c.swsp	x1,28(x2)
80002af2:	0dff                	0xdff
80002af4:	1139a92f          	0x1139a92f
80002af8:	11539f5b          	0x11539f5b
80002afc:	292e                	c.fldsp	f18,200(x2)
80002afe:	12f0                	c.addi4spn	x12,x2,364
80002b00:	11c11bcb          	fnmsub.s	f23,f2,f28,f2,rtz
80002b04:	fd51                	c.bnez	x10,80002aa0 <memcpy+0x530>
80002b06:	0cb8                	c.addi4spn	x14,x2,600
80002b08:	1bf88197          	auipc	x3,0x1bf88
80002b0c:	4f0e                	c.lwsp	x30,192(x2)
80002b0e:	165f 6f3c 137d      	0x137d6f3c165f
80002b14:	1130                	c.addi4spn	x12,x2,168
80002b16:	13f1                	c.addi	x7,-4
80002b18:	af48                	c.fsd	f10,152(x14)
80002b1a:	04971363          	bne	x14,x9,80002b60 <memcpy+0x5f0>
80002b1e:	114e                	c.slli	x2,0x33
80002b20:	78d1                	c.lui	x17,0xffff4
80002b22:	0f2e                	c.slli	x30,0xb
80002b24:	7510                	c.flw	f12,40(x10)
80002b26:	35fc10fb          	0x35fc10fb
80002b2a:	0ea6                	c.slli	x29,0x9
80002b2c:	36e6                	c.fldsp	f13,120(x2)
80002b2e:	107d                	c.addi	x0,-1
80002b30:	1348620b          	0x1348620b
80002b34:	a820                	c.fsd	f8,80(x8)
80002b36:	af7a1027          	0xaf7a1027
80002b3a:	141c                	c.addi4spn	x15,x2,544
80002b3c:	56b0                	c.lw	x12,104(x13)
80002b3e:	1575                	c.addi	x10,-3
80002b40:	9600                	0x9600
80002b42:	a65f10c7          	fmsub.q	f1,f30,f5,f20,rtz
80002b46:	13be                	c.slli	x7,0x2f
80002b48:	6b35                	c.lui	x22,0xd
80002b4a:	111c                	c.addi4spn	x15,x2,160
80002b4c:	f962                	c.fswsp	f24,176(x2)
80002b4e:	12aa                	c.slli	x5,0x2a
80002b50:	2f41                	c.jal	800032e0 <ArrayA+0x608>
80002b52:	1016                	c.slli	x0,0x25
80002b54:	0c677e3b          	0xc677e3b
80002b58:	ab6a                	c.fsdsp	f26,400(x2)
80002b5a:	1912                	c.slli	x18,0x24
80002b5c:	6582                	c.flwsp	f11,0(x2)
80002b5e:	13c8                	c.addi4spn	x10,x2,484
80002b60:	9819                	c.andi	x8,-26
80002b62:	4a03152f          	0x4a03152f
80002b66:	12f5                	c.addi	x5,-3
80002b68:	bf90                	c.fsd	f12,56(x15)
80002b6a:	147d                	c.addi	x8,-1
80002b6c:	1202a45b          	0x1202a45b
80002b70:	5880                	c.lw	x8,48(x9)
80002b72:	126a                	c.slli	x4,0x3a
80002b74:	e7fe                	c.fswsp	f31,204(x2)
80002b76:	12a2                	c.slli	x5,0x28
80002b78:	946c                	0x946c
80002b7a:	1008                	c.addi4spn	x10,x2,32
80002b7c:	11330967          	jalr	x18,275(x6)
80002b80:	2ae1                	c.jal	80002d58 <ArrayA+0x80>
80002b82:	1610                	c.addi4spn	x12,x2,800
80002b84:	3eaa                	c.fldsp	f29,168(x2)
80002b86:	0c38                	c.addi4spn	x14,x2,536
80002b88:	12f7540b          	0x12f7540b
80002b8c:	c4a8                	c.sw	x10,72(x9)
80002b8e:	16ea                	c.slli	x13,0x3a
80002b90:	a539                	c.j	8000319e <ArrayA+0x4c6>
80002b92:	12dc                	c.addi4spn	x15,x2,356
80002b94:	b95c                	c.fsd	f15,176(x10)
80002b96:	1692                	c.slli	x13,0x24
80002b98:	5404                	c.lw	x9,40(x8)
80002b9a:	109c                	c.addi4spn	x15,x2,96
80002b9c:	9174                	0x9174
80002b9e:	1544                	c.addi4spn	x9,x2,676
80002ba0:	8f04                	0x8f04
80002ba2:	1255                	c.addi	x4,-11
80002ba4:	0495                	c.addi	x9,5
80002ba6:	0ce1                	c.addi	x25,24
80002ba8:	174c5803          	lhu	x16,372(x24)
80002bac:	7991                	c.lui	x19,0xfffe4
80002bae:	1562                	c.slli	x10,0x38
80002bb0:	4e7e                	c.lwsp	x28,220(x2)
80002bb2:	1564                	c.addi4spn	x9,x2,684
80002bb4:	d084                	c.sw	x9,32(x9)
80002bb6:	33901243          	fmadd.d	f4,f0,f25,f6,rtz
80002bba:	e40212cf          	0xe40212cf
80002bbe:	1040                	c.addi4spn	x8,x2,36
80002bc0:	e9c5                	c.bnez	x11,80002c70 <memcpy+0x700>
80002bc2:	0edd                	c.addi	x29,23
80002bc4:	d422                	c.swsp	x8,40(x2)
80002bc6:	105d                	c.addi	x0,-9
80002bc8:	c05a                	c.swsp	x22,0(x2)
80002bca:	104d                	c.addi	x0,-13
80002bcc:	7459                	c.lui	x8,0xffff6
80002bce:	0fd2                	c.slli	x31,0x14
80002bd0:	0ef0                	c.addi4spn	x12,x2,860
80002bd2:	1361                	c.addi	x6,-8
80002bd4:	fb02                	c.fswsp	f0,180(x2)
80002bd6:	12a4                	c.addi4spn	x9,x2,360
80002bd8:	1834                	c.addi4spn	x13,x2,56
80002bda:	083e12e7          	0x83e12e7
80002bde:	7fae11cb          	fnmsub.q	f3,f28,f26,f15,rtz
80002be2:	de271017          	auipc	x0,0xde271
80002be6:	13d2                	c.slli	x7,0x34
80002be8:	0354                	c.addi4spn	x13,x2,388
80002bea:	0ea4                	c.addi4spn	x9,x2,856
80002bec:	6d02                	c.flwsp	f26,0(x2)
80002bee:	0fea                	c.slli	x31,0x1a
80002bf0:	0dfd120b          	0xdfd120b
80002bf4:	2881                	c.jal	80002c44 <memcpy+0x6d4>
80002bf6:	0c72                	c.slli	x24,0x1c
80002bf8:	15d62643          	0x15d62643
80002bfc:	0168                	c.addi4spn	x10,x2,140
80002bfe:	a0a50feb          	0xa0a50feb
80002c02:	14d2                	c.slli	x9,0x34
80002c04:	101a4ba3          	0x101a4ba3
80002c08:	cbd4                	c.sw	x13,20(x15)
80002c0a:	14be                	c.slli	x9,0x2f
80002c0c:	b6d2                	c.fsdsp	f20,360(x2)
80002c0e:	1160                	c.addi4spn	x8,x2,172
80002c10:	57e8                	c.lw	x10,108(x15)
80002c12:	1041                	c.addi	x0,-16
80002c14:	ed6a                	c.fswsp	f26,152(x2)
80002c16:	0f7a                	c.slli	x30,0x1e
80002c18:	9735                	c.srai	x14,0x2d
80002c1a:	0e11                	c.addi	x28,4
80002c1c:	099a                	c.slli	x19,0x6
80002c1e:	10ba                	c.slli	x1,0x2e
80002c20:	106a                	c.slli	x0,0x3a
80002c22:	13f9                	c.addi	x7,-2
80002c24:	0a86dcab          	0xa86dcab
80002c28:	36ae                	c.fldsp	f13,232(x2)
80002c2a:	0f75                	c.addi	x30,29
80002c2c:	d148                	c.sw	x10,36(x10)
80002c2e:	133c                	c.addi4spn	x15,x2,424
80002c30:	0e1467b7          	lui	x15,0xe146
80002c34:	a10e                	c.fsdsp	f3,128(x2)
80002c36:	13a6                	c.slli	x7,0x29
80002c38:	617a                	c.flwsp	f2,156(x2)
80002c3a:	0d80                	c.addi4spn	x8,x2,720
80002c3c:	0f55                	c.addi	x30,21
80002c3e:	84b0103b          	0x84b0103b
80002c42:	102e                	c.slli	x0,0x2b
80002c44:	0ce21e6b          	0xce21e6b
80002c48:	17e6592b          	0x17e6592b
80002c4c:	c9fd                	c.beqz	x11,80002d42 <ArrayA+0x6a>
80002c4e:	1131                	c.addi	x2,-20
80002c50:	b64e                	c.fsdsp	f19,296(x2)
80002c52:	13d8                	c.addi4spn	x14,x2,484
80002c54:	bd99                	c.j	80002aaa <memcpy+0x53a>
80002c56:	f02d142b          	0xf02d142b
80002c5a:	139c                	c.addi4spn	x15,x2,480
80002c5c:	62c9                	c.lui	x5,0x12
80002c5e:	13b1                	c.addi	x7,-20
80002c60:	a31f 1244 124d      	0x124d1244a31f
80002c66:	1036                	c.slli	x0,0x2d
80002c68:	2f38                	c.fld	f14,88(x14)
80002c6a:	0de0                	c.addi4spn	x8,x2,732
80002c6c:	9259                	c.srli	x12,0x36
80002c6e:	0f5a                	c.slli	x30,0x16
80002c70:	3f15                	c.jal	80002ba4 <memcpy+0x634>
80002c72:	143d                	c.addi	x8,-17
80002c74:	0c14f5f3          	csrrci	x11,0xc1,9
80002c78:	4df1                	c.li	x27,28
80002c7a:	131c                	c.addi4spn	x15,x2,416
80002c7c:	3d72                	c.fldsp	f26,312(x2)
80002c7e:	c7e11707          	0xc7e11707
80002c82:	b40212cb          	0xb40212cb
80002c86:	139f fa82 0d66      	0xd66fa82139f
80002c8c:	3e7c                	c.fld	f15,248(x12)
80002c8e:	0dc9                	c.addi	x27,18
80002c90:	0e1f81d3          	fsub.q	f3,f31,f1,rne
80002c94:	100c                	c.addi4spn	x11,x2,32
80002c96:	0e80                	c.addi4spn	x8,x2,848
80002c98:	f180                	c.fsw	f8,32(x11)
80002c9a:	2368140b          	0x2368140b
80002c9e:	1230                	c.addi4spn	x12,x2,296
80002ca0:	2d20                	c.fld	f8,88(x10)
80002ca2:	0ecc                	c.addi4spn	x11,x2,852
80002ca4:	ad35                	c.j	800032e0 <ArrayA+0x608>
80002ca6:	0b6c                	c.addi4spn	x11,x2,412
80002ca8:	09ad                	c.addi	x19,11
80002caa:	0e68                	c.addi4spn	x10,x2,796
80002cac:	5c90                	c.lw	x12,56(x9)
80002cae:	0fae                	c.slli	x31,0xb
80002cb0:	0bdab983          	0xbdab983
80002cb4:	9fa5                	0x9fa5
80002cb6:	0a79                	c.addi	x20,30
80002cb8:	2d5a                	c.fldsp	f26,400(x2)
80002cba:	0c12                	c.slli	x24,0x4
80002cbc:	096e                	c.slli	x18,0x1b
80002cbe:	3e200a47          	fmsub.q	f20,f0,f2,f7,rne
80002cc2:	11a9                	c.addi	x3,-22
80002cc4:	f7f2                	c.fswsp	f28,236(x2)
80002cc6:	b60b0c77          	0xb60b0c77
80002cca:	1376                	c.slli	x6,0x3d
80002ccc:	53fc                	c.lw	x15,100(x15)
80002cce:	0f14                	c.addi4spn	x13,x2,912
80002cd0:	0e3c7a77          	0xe3c7a77
80002cd4:	498d                	c.li	x19,3
80002cd6:	1145                	c.addi	x2,-15

Disassembly of section .bss:

80002cd8 <ArrayA>:
	...

80003318 <ArrayA_ref>:
	...

80003958 <ArrayB>:
	...

80003f98 <ArrayB_ref>:
	...

800045d8 <ResultArray>:
	...

Disassembly of section .sbss:

80004c18 <Seed>:
	...

Disassembly of section .comment:

00000000 <.comment>:
   0:	3a434347          	fmsub.d	f6,f6,f4,f7,rmm
   4:	2820                	c.fld	f8,80(x8)
   6:	39336367          	0x39336367
   a:	3131                	c.jal	fffffc16 <_end+0x7fffaff6>
   c:	3665                	c.jal	fffffbb4 <_end+0x7fffaf94>
   e:	3234                	c.fld	f13,96(x12)
  10:	6635                	c.lui	x12,0xd
  12:	2029                	c.jal	1c <SYSCALL_ADDR-0x200fe4>
  14:	3031                	c.jal	fffff820 <_end+0x7fffac00>
  16:	322e                	c.fldsp	f4,232(x2)
  18:	302e                	c.fldsp	f0,232(x2)
  1a:	4700                	c.lw	x8,8(x14)
  1c:	203a4343          	fmadd.s	f6,f20,f3,f4,rmm
  20:	4728                	c.lw	x10,72(x14)
  22:	554e                	c.lwsp	x10,240(x2)
  24:	2029                	c.jal	2e <SYSCALL_ADDR-0x200fd2>
  26:	3031                	c.jal	fffff832 <_end+0x7fffac12>
  28:	322e                	c.fldsp	f4,232(x2)
  2a:	302e                	c.fldsp	f0,232(x2)
	...

Disassembly of section .riscv.attributes:

00000000 <.riscv.attributes>:
   0:	1f41                	c.addi	x30,-16
   2:	0000                	c.unimp
   4:	7200                	c.flw	f8,32(x12)
   6:	7369                	c.lui	x6,0xffffa
   8:	01007663          	bgeu	x0,x16,14 <SYSCALL_ADDR-0x200fec>
   c:	0015                	c.addi	x0,5
   e:	0000                	c.unimp
  10:	1004                	c.addi4spn	x9,x2,32
  12:	7205                	c.lui	x4,0xfffe1
  14:	3376                	c.fldsp	f6,376(x2)
  16:	6932                	c.flwsp	f18,12(x2)
  18:	7032                	c.flwsp	f0,44(x2)
  1a:	0030                	c.addi4spn	x12,x2,8
  1c:	0108                	c.addi4spn	x10,x2,128
  1e:	0b0a                	c.slli	x22,0x2

Disassembly of section .debug_line:

00000000 <.debug_line>:
   0:	0094                	c.addi4spn	x13,x2,64
   2:	0000                	c.unimp
   4:	004e0003          	lb	x0,4(x28) # 71780004 <SYSCALL_ADDR+0x7157f004>
   8:	0000                	c.unimp
   a:	0101                	c.addi	x2,0
   c:	000d0efb          	0xd0efb
  10:	0101                	c.addi	x2,0
  12:	0101                	c.addi	x2,0
  14:	0000                	c.unimp
  16:	0100                	c.addi4spn	x8,x2,128
  18:	0000                	c.unimp
  1a:	2e01                	c.jal	32a <SYSCALL_ADDR-0x200cd6>
  1c:	2f2e                	c.fldsp	f30,200(x2)
  1e:	2e2e                	c.fldsp	f28,200(x2)
  20:	2f2e2e2f          	0x2f2e2e2f
  24:	2e2e                	c.fldsp	f28,200(x2)
  26:	2f2e2e2f          	0x2f2e2e2f
  2a:	2f2e                	c.fldsp	f30,200(x2)
  2c:	6972                	c.flwsp	f18,28(x2)
  2e:	2d766373          	csrrsi	x6,0x2d7,12
  32:	2f636367          	0x2f636367
  36:	696c                	c.flw	f11,84(x10)
  38:	6762                	c.flwsp	f14,24(x2)
  3a:	632f6363          	bltu	x30,x18,660 <SYSCALL_ADDR-0x2009a0>
  3e:	69666e6f          	jal	x28,666d4 <SYSCALL_ADDR-0x19a92c>
  42:	69722f67          	0x69722f67
  46:	00766373          	csrrsi	x6,0x7,12
  4a:	6d00                	c.flw	f8,24(x10)
  4c:	6c75                	c.lui	x24,0x1d
  4e:	6964                	c.flw	f9,84(x10)
  50:	00532e33          	slt	x28,x6,x5
  54:	0001                	c.addi	x0,0
  56:	0000                	c.unimp
  58:	0500                	c.addi4spn	x8,x2,640
  5a:	e002                	c.fswsp	f0,0(x2)
  5c:	03800023          	sb	x24,32(x0) # 20 <SYSCALL_ADDR-0x200fe0>
  60:	0124                	c.addi4spn	x9,x2,136
  62:	04090103          	lb	x2,64(x18) # 973db878 <_end+0x173d6c58>
  66:	0100                	c.addi4spn	x8,x2,128
  68:	04090203          	lb	x4,64(x18)
  6c:	0100                	c.addi4spn	x8,x2,128
  6e:	04090103          	lb	x2,64(x18)
  72:	0100                	c.addi4spn	x8,x2,128
  74:	04090103          	lb	x2,64(x18)
  78:	0100                	c.addi4spn	x8,x2,128
  7a:	04090203          	lb	x4,64(x18)
  7e:	0100                	c.addi4spn	x8,x2,128
  80:	04090103          	lb	x2,64(x18)
  84:	0100                	c.addi4spn	x8,x2,128
  86:	04090103          	lb	x2,64(x18)
  8a:	0100                	c.addi4spn	x8,x2,128
  8c:	04090103          	lb	x2,64(x18)
  90:	0100                	c.addi4spn	x8,x2,128
  92:	0409                	c.addi	x8,2
  94:	0000                	c.unimp
  96:	0101                	c.addi	x2,0
  98:	016a                	c.slli	x2,0x1a
  9a:	0000                	c.unimp
  9c:	004b0003          	lb	x0,4(x22) # d004 <SYSCALL_ADDR-0x1f3ffc>
  a0:	0000                	c.unimp
  a2:	0101                	c.addi	x2,0
  a4:	000d0efb          	0xd0efb
  a8:	0101                	c.addi	x2,0
  aa:	0101                	c.addi	x2,0
  ac:	0000                	c.unimp
  ae:	0100                	c.addi4spn	x8,x2,128
  b0:	0000                	c.unimp
  b2:	2e01                	c.jal	3c2 <SYSCALL_ADDR-0x200c3e>
  b4:	2f2e                	c.fldsp	f30,200(x2)
  b6:	2e2e                	c.fldsp	f28,200(x2)
  b8:	2f2e2e2f          	0x2f2e2e2f
  bc:	2e2e                	c.fldsp	f28,200(x2)
  be:	2f2e2e2f          	0x2f2e2e2f
  c2:	2f2e                	c.fldsp	f30,200(x2)
  c4:	6972                	c.flwsp	f18,28(x2)
  c6:	2d766373          	csrrsi	x6,0x2d7,12
  ca:	2f636367          	0x2f636367
  ce:	696c                	c.flw	f11,84(x10)
  d0:	6762                	c.flwsp	f14,24(x2)
  d2:	632f6363          	bltu	x30,x18,6f8 <SYSCALL_ADDR-0x200908>
  d6:	69666e6f          	jal	x28,6676c <SYSCALL_ADDR-0x19a894>
  da:	69722f67          	0x69722f67
  de:	00766373          	csrrsi	x6,0x7,12
  e2:	6400                	c.flw	f8,8(x8)
  e4:	7669                	c.lui	x12,0xffffa
  e6:	532e                	c.lwsp	x6,232(x2)
  e8:	0100                	c.addi4spn	x8,x2,128
  ea:	0000                	c.unimp
  ec:	0000                	c.unimp
  ee:	0205                	c.addi	x4,1
  f0:	2404                	c.fld	f9,8(x8)
  f2:	8000                	0x8000
  f4:	0100c403          	lbu	x8,16(x1) # 1c010 <SYSCALL_ADDR-0x1e4ff0>
  f8:	04090103          	lb	x2,64(x18)
  fc:	0100                	c.addi4spn	x8,x2,128
  fe:	04090403          	lb	x8,64(x18)
 102:	0100                	c.addi4spn	x8,x2,128
 104:	04090103          	lb	x2,64(x18)
 108:	0100                	c.addi4spn	x8,x2,128
 10a:	04090103          	lb	x2,64(x18)
 10e:	0100                	c.addi4spn	x8,x2,128
 110:	04090103          	lb	x2,64(x18)
 114:	0100                	c.addi4spn	x8,x2,128
 116:	04090103          	lb	x2,64(x18)
 11a:	0100                	c.addi4spn	x8,x2,128
 11c:	04090103          	lb	x2,64(x18)
 120:	0100                	c.addi4spn	x8,x2,128
 122:	04090203          	lb	x4,64(x18)
 126:	0100                	c.addi4spn	x8,x2,128
 128:	04090103          	lb	x2,64(x18)
 12c:	0100                	c.addi4spn	x8,x2,128
 12e:	04090103          	lb	x2,64(x18)
 132:	0100                	c.addi4spn	x8,x2,128
 134:	04090103          	lb	x2,64(x18)
 138:	0100                	c.addi4spn	x8,x2,128
 13a:	04090203          	lb	x4,64(x18)
 13e:	0100                	c.addi4spn	x8,x2,128
 140:	04090203          	lb	x4,64(x18)
 144:	0100                	c.addi4spn	x8,x2,128
 146:	04090103          	lb	x2,64(x18)
 14a:	0100                	c.addi4spn	x8,x2,128
 14c:	04090103          	lb	x2,64(x18)
 150:	0100                	c.addi4spn	x8,x2,128
 152:	04090203          	lb	x4,64(x18)
 156:	0100                	c.addi4spn	x8,x2,128
 158:	04090103          	lb	x2,64(x18)
 15c:	0100                	c.addi4spn	x8,x2,128
 15e:	04090103          	lb	x2,64(x18)
 162:	0100                	c.addi4spn	x8,x2,128
 164:	04090203          	lb	x4,64(x18)
 168:	0100                	c.addi4spn	x8,x2,128
 16a:	04090503          	lb	x10,64(x18)
 16e:	0100                	c.addi4spn	x8,x2,128
 170:	04090103          	lb	x2,64(x18)
 174:	0100                	c.addi4spn	x8,x2,128
 176:	04090103          	lb	x2,64(x18)
 17a:	0100                	c.addi4spn	x8,x2,128
 17c:	04090103          	lb	x2,64(x18)
 180:	0100                	c.addi4spn	x8,x2,128
 182:	04090503          	lb	x10,64(x18)
 186:	0100                	c.addi4spn	x8,x2,128
 188:	04090203          	lb	x4,64(x18)
 18c:	0100                	c.addi4spn	x8,x2,128
 18e:	04090203          	lb	x4,64(x18)
 192:	0100                	c.addi4spn	x8,x2,128
 194:	04090103          	lb	x2,64(x18)
 198:	0100                	c.addi4spn	x8,x2,128
 19a:	04090203          	lb	x4,64(x18)
 19e:	0100                	c.addi4spn	x8,x2,128
 1a0:	04090203          	lb	x4,64(x18)
 1a4:	0100                	c.addi4spn	x8,x2,128
 1a6:	04090103          	lb	x2,64(x18)
 1aa:	0100                	c.addi4spn	x8,x2,128
 1ac:	04090103          	lb	x2,64(x18)
 1b0:	0100                	c.addi4spn	x8,x2,128
 1b2:	04090103          	lb	x2,64(x18)
 1b6:	0100                	c.addi4spn	x8,x2,128
 1b8:	04090403          	lb	x8,64(x18)
 1bc:	0100                	c.addi4spn	x8,x2,128
 1be:	04090103          	lb	x2,64(x18)
 1c2:	0100                	c.addi4spn	x8,x2,128
 1c4:	04090103          	lb	x2,64(x18)
 1c8:	0100                	c.addi4spn	x8,x2,128
 1ca:	04090203          	lb	x4,64(x18)
 1ce:	0100                	c.addi4spn	x8,x2,128
 1d0:	04090103          	lb	x2,64(x18)
 1d4:	0100                	c.addi4spn	x8,x2,128
 1d6:	04090103          	lb	x2,64(x18)
 1da:	0100                	c.addi4spn	x8,x2,128
 1dc:	04090203          	lb	x4,64(x18)
 1e0:	0100                	c.addi4spn	x8,x2,128
 1e2:	04090103          	lb	x2,64(x18)
 1e6:	0100                	c.addi4spn	x8,x2,128
 1e8:	04090203          	lb	x4,64(x18)
 1ec:	0100                	c.addi4spn	x8,x2,128
 1ee:	04090103          	lb	x2,64(x18)
 1f2:	0100                	c.addi4spn	x8,x2,128
 1f4:	04090103          	lb	x2,64(x18)
 1f8:	0100                	c.addi4spn	x8,x2,128
 1fa:	04090103          	lb	x2,64(x18)
 1fe:	0100                	c.addi4spn	x8,x2,128
 200:	0409                	c.addi	x8,2
 202:	0000                	c.unimp
 204:	0101                	c.addi	x2,0

Disassembly of section .debug_info:

00000000 <.debug_info>:
   0:	0022                	c.slli	x0,0x8
   2:	0000                	c.unimp
   4:	0002                	c.slli64	x0
   6:	0000                	c.unimp
   8:	0000                	c.unimp
   a:	0104                	c.addi4spn	x9,x2,128
   c:	0000                	c.unimp
   e:	0000                	c.unimp
  10:	23e0                	c.fld	f8,192(x15)
  12:	8000                	0x8000
  14:	2404                	c.fld	f9,8(x8)
  16:	8000                	0x8000
  18:	0000                	c.unimp
  1a:	0000                	c.unimp
  1c:	0038                	c.addi4spn	x14,x2,8
  1e:	0000                	c.unimp
  20:	009e                	c.slli	x1,0x7
  22:	0000                	c.unimp
  24:	8001                	c.srli64	x8
  26:	0022                	c.slli	x0,0x8
  28:	0000                	c.unimp
  2a:	0002                	c.slli64	x0
  2c:	0014                	0x14
  2e:	0000                	c.unimp
  30:	0104                	c.addi4spn	x9,x2,128
  32:	0098                	c.addi4spn	x14,x2,64
  34:	0000                	c.unimp
  36:	2404                	c.fld	f9,8(x8)
  38:	8000                	0x8000
  3a:	24b8                	c.fld	f14,72(x9)
  3c:	8000                	0x8000
  3e:	00aa                	c.slli	x1,0xa
  40:	0000                	c.unimp
  42:	0038                	c.addi4spn	x14,x2,8
  44:	0000                	c.unimp
  46:	009e                	c.slli	x1,0x7
  48:	0000                	c.unimp
  4a:	8001                	c.srli64	x8

Disassembly of section .debug_abbrev:

00000000 <.debug_abbrev>:
   0:	1101                	c.addi	x2,-32
   2:	1000                	c.addi4spn	x8,x2,32
   4:	1106                	c.slli	x2,0x21
   6:	1201                	c.addi	x4,-32
   8:	0301                	c.addi	x6,0
   a:	1b0e                	c.slli	x22,0x23
   c:	250e                	c.fldsp	f10,192(x2)
   e:	130e                	c.slli	x6,0x23
  10:	0005                	c.addi	x0,1
  12:	0000                	c.unimp
  14:	1101                	c.addi	x2,-32
  16:	1000                	c.addi4spn	x8,x2,32
  18:	1106                	c.slli	x2,0x21
  1a:	1201                	c.addi	x4,-32
  1c:	0301                	c.addi	x6,0
  1e:	1b0e                	c.slli	x22,0x23
  20:	250e                	c.fldsp	f10,192(x2)
  22:	130e                	c.slli	x6,0x23
  24:	0005                	c.addi	x0,1
	...

Disassembly of section .debug_aranges:

00000000 <.debug_aranges>:
   0:	001c                	0x1c
   2:	0000                	c.unimp
   4:	0002                	c.slli64	x0
   6:	0000                	c.unimp
   8:	0000                	c.unimp
   a:	0004                	0x4
   c:	0000                	c.unimp
   e:	0000                	c.unimp
  10:	23e0                	c.fld	f8,192(x15)
  12:	8000                	0x8000
  14:	0024                	c.addi4spn	x9,x2,8
	...
  1e:	0000                	c.unimp
  20:	001c                	0x1c
  22:	0000                	c.unimp
  24:	0002                	c.slli64	x0
  26:	0026                	c.slli	x0,0x9
  28:	0000                	c.unimp
  2a:	0004                	0x4
  2c:	0000                	c.unimp
  2e:	0000                	c.unimp
  30:	2404                	c.fld	f9,8(x8)
  32:	8000                	0x8000
  34:	00b4                	c.addi4spn	x13,x2,72
	...

Disassembly of section .debug_str:

00000000 <.debug_str>:
   0:	2e2e                	c.fldsp	f28,200(x2)
   2:	2f2e2e2f          	0x2f2e2e2f
   6:	2e2e                	c.fldsp	f28,200(x2)
   8:	2f2e2e2f          	0x2f2e2e2f
   c:	2e2e                	c.fldsp	f28,200(x2)
   e:	722f2e2f          	0x722f2e2f
  12:	7369                	c.lui	x6,0xffffa
  14:	672d7663          	bgeu	x26,x18,680 <SYSCALL_ADDR-0x200980>
  18:	6c2f6363          	bltu	x30,x2,6de <SYSCALL_ADDR-0x200922>
  1c:	6269                	c.lui	x4,0x1a
  1e:	2f636367          	0x2f636367
  22:	666e6f63          	bltu	x28,x6,6a0 <SYSCALL_ADDR-0x200960>
  26:	6769                	c.lui	x14,0x1a
  28:	7369722f          	0x7369722f
  2c:	6d2f7663          	bgeu	x30,x18,6f8 <SYSCALL_ADDR-0x200908>
  30:	6c75                	c.lui	x24,0x1d
  32:	6964                	c.flw	f9,84(x10)
  34:	00532e33          	slt	x28,x6,x5
  38:	6d6f682f          	0x6d6f682f
  3c:	2f65                	c.jal	7f4 <SYSCALL_ADDR-0x20080c>
  3e:	6c6c6173          	csrrsi	x2,0x6c6,24
  42:	7261                	c.lui	x4,0xffff8
  44:	6f6f742f          	0x6f6f742f
  48:	736c                	c.flw	f11,100(x14)
  4a:	7369722f          	0x7369722f
  4e:	672d7663          	bgeu	x26,x18,6ba <SYSCALL_ADDR-0x200946>
  52:	756e                	c.flwsp	f10,248(x2)
  54:	742d                	c.lui	x8,0xfffeb
  56:	636c6f6f          	jal	x30,c668c <SYSCALL_ADDR-0x13a974>
  5a:	6168                	c.flw	f10,68(x10)
  5c:	6e69                	c.lui	x28,0x1a
  5e:	6975622f          	0x6975622f
  62:	646c                	c.flw	f11,76(x8)
  64:	672d                	c.lui	x14,0xb
  66:	6e2d6363          	bltu	x26,x2,74c <SYSCALL_ADDR-0x2008b4>
  6a:	7765                	c.lui	x14,0xffff9
  6c:	696c                	c.flw	f11,84(x10)
  6e:	2d62                	c.fldsp	f26,24(x2)
  70:	67617473          	csrrci	x8,0x676,2
  74:	3265                	c.jal	fffffa1c <_end+0x7fffadfc>
  76:	7369722f          	0x7369722f
  7a:	34367663          	bgeu	x12,x3,3c6 <SYSCALL_ADDR-0x200c3a>
  7e:	752d                	c.lui	x10,0xfffeb
  80:	6b6e                	c.flwsp	f22,216(x2)
  82:	6f6e                	c.flwsp	f30,216(x2)
  84:	652d6e77          	0x652d6e77
  88:	666c                	c.flw	f11,76(x12)
  8a:	3376722f          	0x3376722f
  8e:	6932                	c.flwsp	f18,12(x2)
  90:	706c692f          	0x706c692f
  94:	6c2f3233          	0x6c2f3233
  98:	6269                	c.lui	x4,0x1a
  9a:	00636367          	0x636367
  9e:	20554e47          	fmsub.s	f28,f10,f5,f4,rmm
  a2:	5341                	c.li	x6,-16
  a4:	3220                	c.fld	f8,96(x12)
  a6:	332e                	c.fldsp	f6,232(x2)
  a8:	0035                	c.addi	x0,13
  aa:	2e2e                	c.fldsp	f28,200(x2)
  ac:	2f2e2e2f          	0x2f2e2e2f
  b0:	2e2e                	c.fldsp	f28,200(x2)
  b2:	2f2e2e2f          	0x2f2e2e2f
  b6:	2e2e                	c.fldsp	f28,200(x2)
  b8:	722f2e2f          	0x722f2e2f
  bc:	7369                	c.lui	x6,0xffffa
  be:	672d7663          	bgeu	x26,x18,72a <SYSCALL_ADDR-0x2008d6>
  c2:	6c2f6363          	bltu	x30,x2,788 <SYSCALL_ADDR-0x200878>
  c6:	6269                	c.lui	x4,0x1a
  c8:	2f636367          	0x2f636367
  cc:	666e6f63          	bltu	x28,x6,74a <SYSCALL_ADDR-0x2008b6>
  d0:	6769                	c.lui	x14,0x1a
  d2:	7369722f          	0x7369722f
  d6:	642f7663          	bgeu	x30,x2,722 <SYSCALL_ADDR-0x2008de>
  da:	7669                	c.lui	x12,0xffffa
  dc:	532e                	c.lwsp	x6,232(x2)
	...
