
nettle-sha256.elf:     Dateiformat elf32-littleriscv


Disassembly of section .text.init:

80000000 <initSection>:
80000000:	000070b3          	and	x1,x0,x0
80000004:	00007133          	and	x2,x0,x0
80000008:	000071b3          	and	x3,x0,x0
8000000c:	00007233          	and	x4,x0,x0
80000010:	000072b3          	and	x5,x0,x0
80000014:	00007333          	and	x6,x0,x0
80000018:	000073b3          	and	x7,x0,x0
8000001c:	00007433          	and	x8,x0,x0
80000020:	000074b3          	and	x9,x0,x0
80000024:	00007533          	and	x10,x0,x0
80000028:	000075b3          	and	x11,x0,x0
8000002c:	00007633          	and	x12,x0,x0
80000030:	000076b3          	and	x13,x0,x0
80000034:	00007733          	and	x14,x0,x0
80000038:	000077b3          	and	x15,x0,x0
8000003c:	00007833          	and	x16,x0,x0
80000040:	000078b3          	and	x17,x0,x0
80000044:	00007933          	and	x18,x0,x0
80000048:	000079b3          	and	x19,x0,x0
8000004c:	00007a33          	and	x20,x0,x0
80000050:	00007ab3          	and	x21,x0,x0
80000054:	00007b33          	and	x22,x0,x0
80000058:	00007bb3          	and	x23,x0,x0
8000005c:	00007c33          	and	x24,x0,x0
80000060:	00007cb3          	and	x25,x0,x0
80000064:	00007d33          	and	x26,x0,x0
80000068:	00007db3          	and	x27,x0,x0
8000006c:	00007e33          	and	x28,x0,x0
80000070:	00007eb3          	and	x29,x0,x0
80000074:	00007f33          	and	x30,x0,x0
80000078:	00007fb3          	and	x31,x0,x0
8000007c:	00002117          	auipc	x2,0x2
80000080:	03410113          	addi	x2,x2,52 # 800020b0 <stack_end>
80000084:	339030ef          	jal	x1,80003bbc <main>

80000088 <sys_end>:
80000088:	05d00893          	addi	x17,x0,93
8000008c:	00000513          	addi	x10,x0,0
80000090:	002012b7          	lui	x5,0x201
80000094:	f1402873          	csrrs	x16,mhartid,x0
80000098:	0102a023          	sw	x16,0(x5) # 201000 <SYSCALL_ADDR>
8000009c:	0112a023          	sw	x17,0(x5)
800000a0:	fe9ff06f          	jal	x0,80000088 <sys_end>
800000a4:	00000013          	addi	x0,x0,0
800000a8:	00000013          	addi	x0,x0,0
800000ac:	00000013          	addi	x0,x0,0

800000b0 <stack_begin>:
	...

800020b0 <stack_end>:
800020b0:	0000                	c.unimp
	...

Disassembly of section .text:

800020b4 <sha256_init>:
800020b4:	800045b7          	lui	x11,0x80004
800020b8:	ff010113          	addi	x2,x2,-16
800020bc:	02000613          	addi	x12,x0,32
800020c0:	33c58593          	addi	x11,x11,828 # 8000433c <_end+0xfffffe8c>
800020c4:	00812423          	sw	x8,8(x2)
800020c8:	00112623          	sw	x1,12(x2)
800020cc:	00050413          	addi	x8,x10,0
800020d0:	361010ef          	jal	x1,80003c30 <memcpy>
800020d4:	00000793          	addi	x15,x0,0
800020d8:	00000813          	addi	x16,x0,0
800020dc:	00c12083          	lw	x1,12(x2)
800020e0:	02f42023          	sw	x15,32(x8)
800020e4:	03042223          	sw	x16,36(x8)
800020e8:	06042423          	sw	x0,104(x8)
800020ec:	00812403          	lw	x8,8(x2)
800020f0:	01010113          	addi	x2,x2,16
800020f4:	00008067          	jalr	x0,0(x1)

800020f8 <_nettle_write_be32>:
800020f8:	00357693          	andi	x13,x10,3
800020fc:	ffc57513          	andi	x10,x10,-4
80002100:	00060793          	addi	x15,x12,0
80002104:	00a58733          	add	x14,x11,x10
80002108:	02e59e63          	bne	x11,x14,80002144 <_nettle_write_be32+0x4c>
8000210c:	02068a63          	beq	x13,x0,80002140 <_nettle_write_be32+0x48>
80002110:	00a60533          	add	x10,x12,x10
80002114:	00200613          	addi	x12,x0,2
80002118:	00052783          	lw	x15,0(x10)
8000211c:	00c68a63          	beq	x13,x12,80002130 <_nettle_write_be32+0x38>
80002120:	00300613          	addi	x12,x0,3
80002124:	00c69a63          	bne	x13,x12,80002138 <_nettle_write_be32+0x40>
80002128:	0087d693          	srli	x13,x15,0x8
8000212c:	00d70123          	sb	x13,2(x14)
80002130:	0107d693          	srli	x13,x15,0x10
80002134:	00d700a3          	sb	x13,1(x14)
80002138:	0187d793          	srli	x15,x15,0x18
8000213c:	00f70023          	sb	x15,0(x14)
80002140:	00008067          	jalr	x0,0(x1)
80002144:	0037c803          	lbu	x16,3(x15)
80002148:	00458593          	addi	x11,x11,4
8000214c:	00478793          	addi	x15,x15,4
80002150:	ff058e23          	sb	x16,-4(x11)
80002154:	ffe7d803          	lhu	x16,-2(x15)
80002158:	ff058ea3          	sb	x16,-3(x11)
8000215c:	ffc7a803          	lw	x16,-4(x15)
80002160:	00885813          	srli	x16,x16,0x8
80002164:	ff058f23          	sb	x16,-2(x11)
80002168:	ffc7a803          	lw	x16,-4(x15)
8000216c:	ff058fa3          	sb	x16,-1(x11)
80002170:	f99ff06f          	jal	x0,80002108 <_nettle_write_be32+0x10>

80002174 <_nettle_sha256_compress>:
80002174:	f6010113          	addi	x2,x2,-160
80002178:	03010713          	addi	x14,x2,48
8000217c:	08812e23          	sw	x8,156(x2)
80002180:	08912c23          	sw	x9,152(x2)
80002184:	09212a23          	sw	x18,148(x2)
80002188:	09312823          	sw	x19,144(x2)
8000218c:	09412623          	sw	x20,140(x2)
80002190:	09512423          	sw	x21,136(x2)
80002194:	09612223          	sw	x22,132(x2)
80002198:	09712023          	sw	x23,128(x2)
8000219c:	07812e23          	sw	x24,124(x2)
800021a0:	07912c23          	sw	x25,120(x2)
800021a4:	07a12a23          	sw	x26,116(x2)
800021a8:	07b12823          	sw	x27,112(x2)
800021ac:	04058813          	addi	x16,x11,64
800021b0:	00070e93          	addi	x29,x14,0
800021b4:	0005c783          	lbu	x15,0(x11)
800021b8:	0015c683          	lbu	x13,1(x11)
800021bc:	00458593          	addi	x11,x11,4
800021c0:	01879793          	slli	x15,x15,0x18
800021c4:	01069693          	slli	x13,x13,0x10
800021c8:	00d7e7b3          	or	x15,x15,x13
800021cc:	fff5c683          	lbu	x13,-1(x11)
800021d0:	00470713          	addi	x14,x14,4
800021d4:	00d7e7b3          	or	x15,x15,x13
800021d8:	ffe5c683          	lbu	x13,-2(x11)
800021dc:	00869693          	slli	x13,x13,0x8
800021e0:	00d7e7b3          	or	x15,x15,x13
800021e4:	fef72e23          	sw	x15,-4(x14)
800021e8:	fd0596e3          	bne	x11,x16,800021b4 <_nettle_sha256_compress+0x40>
800021ec:	00052783          	lw	x15,0(x10)
800021f0:	04060a93          	addi	x21,x12,64
800021f4:	00060f13          	addi	x30,x12,0
800021f8:	00f12623          	sw	x15,12(x2)
800021fc:	00452783          	lw	x15,4(x10)
80002200:	00c12b03          	lw	x22,12(x2)
80002204:	00f12823          	sw	x15,16(x2)
80002208:	00852783          	lw	x15,8(x10)
8000220c:	01012303          	lw	x6,16(x2)
80002210:	00f12a23          	sw	x15,20(x2)
80002214:	00c52783          	lw	x15,12(x10)
80002218:	01412883          	lw	x17,20(x2)
8000221c:	00f12c23          	sw	x15,24(x2)
80002220:	01052783          	lw	x15,16(x10)
80002224:	00f12e23          	sw	x15,28(x2)
80002228:	01452783          	lw	x15,20(x10)
8000222c:	01c12803          	lw	x16,28(x2)
80002230:	02f12023          	sw	x15,32(x2)
80002234:	01852783          	lw	x15,24(x10)
80002238:	02012583          	lw	x11,32(x2)
8000223c:	02f12223          	sw	x15,36(x2)
80002240:	01c52783          	lw	x15,28(x10)
80002244:	02412683          	lw	x13,36(x2)
80002248:	02f12423          	sw	x15,40(x2)
8000224c:	00078713          	addi	x14,x15,0
80002250:	01812783          	lw	x15,24(x2)
80002254:	01a81f93          	slli	x31,x16,0x1a
80002258:	00685e13          	srli	x28,x16,0x6
8000225c:	01581293          	slli	x5,x16,0x15
80002260:	01fe6e33          	or	x28,x28,x31
80002264:	00b85f93          	srli	x31,x16,0xb
80002268:	005fefb3          	or	x31,x31,x5
8000226c:	01fe4e33          	xor	x28,x28,x31
80002270:	01985293          	srli	x5,x16,0x19
80002274:	00781f93          	slli	x31,x16,0x7
80002278:	005fefb3          	or	x31,x31,x5
8000227c:	01fe4e33          	xor	x28,x28,x31
80002280:	000ea283          	lw	x5,0(x29)
80002284:	000f2f83          	lw	x31,0(x30)
80002288:	020f0f13          	addi	x30,x30,32
8000228c:	020e8e93          	addi	x29,x29,32
80002290:	005f8fb3          	add	x31,x31,x5
80002294:	01fe0e33          	add	x28,x28,x31
80002298:	00d5cfb3          	xor	x31,x11,x13
8000229c:	010fffb3          	and	x31,x31,x16
800022a0:	00dfcfb3          	xor	x31,x31,x13
800022a4:	01fe0e33          	add	x28,x28,x31
800022a8:	00ee0733          	add	x14,x28,x14
800022ac:	01eb1f93          	slli	x31,x22,0x1e
800022b0:	002b5e13          	srli	x28,x22,0x2
800022b4:	013b1293          	slli	x5,x22,0x13
800022b8:	01fe6e33          	or	x28,x28,x31
800022bc:	00db5f93          	srli	x31,x22,0xd
800022c0:	005fefb3          	or	x31,x31,x5
800022c4:	01fe4e33          	xor	x28,x28,x31
800022c8:	016b5293          	srli	x5,x22,0x16
800022cc:	00ab1f93          	slli	x31,x22,0xa
800022d0:	005fefb3          	or	x31,x31,x5
800022d4:	01fe4e33          	xor	x28,x28,x31
800022d8:	006b4fb3          	xor	x31,x22,x6
800022dc:	006b72b3          	and	x5,x22,x6
800022e0:	011fffb3          	and	x31,x31,x17
800022e4:	005fcfb3          	xor	x31,x31,x5
800022e8:	01fe0e33          	add	x28,x28,x31
800022ec:	00f707b3          	add	x15,x14,x15
800022f0:	fe4f2f83          	lw	x31,-28(x30)
800022f4:	00ee0733          	add	x14,x28,x14
800022f8:	fe4eae03          	lw	x28,-28(x29)
800022fc:	01579293          	slli	x5,x15,0x15
80002300:	01cf8fb3          	add	x31,x31,x28
80002304:	00df86b3          	add	x13,x31,x13
80002308:	00b84fb3          	xor	x31,x16,x11
8000230c:	00ffffb3          	and	x31,x31,x15
80002310:	00bfcfb3          	xor	x31,x31,x11
80002314:	01f68fb3          	add	x31,x13,x31
80002318:	01a79e13          	slli	x28,x15,0x1a
8000231c:	0067d693          	srli	x13,x15,0x6
80002320:	01c6e6b3          	or	x13,x13,x28
80002324:	00b7de13          	srli	x28,x15,0xb
80002328:	005e6e33          	or	x28,x28,x5
8000232c:	01c6c6b3          	xor	x13,x13,x28
80002330:	0197d293          	srli	x5,x15,0x19
80002334:	00779e13          	slli	x28,x15,0x7
80002338:	005e6e33          	or	x28,x28,x5
8000233c:	01c6c6b3          	xor	x13,x13,x28
80002340:	01f68e33          	add	x28,x13,x31
80002344:	01e71f93          	slli	x31,x14,0x1e
80002348:	00275693          	srli	x13,x14,0x2
8000234c:	01371293          	slli	x5,x14,0x13
80002350:	01f6e6b3          	or	x13,x13,x31
80002354:	00d75f93          	srli	x31,x14,0xd
80002358:	005fefb3          	or	x31,x31,x5
8000235c:	01f6c6b3          	xor	x13,x13,x31
80002360:	01675293          	srli	x5,x14,0x16
80002364:	00a71f93          	slli	x31,x14,0xa
80002368:	005fefb3          	or	x31,x31,x5
8000236c:	01f6c6b3          	xor	x13,x13,x31
80002370:	01674fb3          	xor	x31,x14,x22
80002374:	016772b3          	and	x5,x14,x22
80002378:	006fffb3          	and	x31,x31,x6
8000237c:	005fcfb3          	xor	x31,x31,x5
80002380:	01f686b3          	add	x13,x13,x31
80002384:	01c686b3          	add	x13,x13,x28
80002388:	011e08b3          	add	x17,x28,x17
8000238c:	fe8f2f83          	lw	x31,-24(x30)
80002390:	fe8eae03          	lw	x28,-24(x29)
80002394:	01589293          	slli	x5,x17,0x15
80002398:	01cf8fb3          	add	x31,x31,x28
8000239c:	00bf85b3          	add	x11,x31,x11
800023a0:	0107cfb3          	xor	x31,x15,x16
800023a4:	011fffb3          	and	x31,x31,x17
800023a8:	010fcfb3          	xor	x31,x31,x16
800023ac:	01f58fb3          	add	x31,x11,x31
800023b0:	01a89e13          	slli	x28,x17,0x1a
800023b4:	0068d593          	srli	x11,x17,0x6
800023b8:	01c5e5b3          	or	x11,x11,x28
800023bc:	00b8de13          	srli	x28,x17,0xb
800023c0:	005e6e33          	or	x28,x28,x5
800023c4:	01c5c5b3          	xor	x11,x11,x28
800023c8:	0198d293          	srli	x5,x17,0x19
800023cc:	00789e13          	slli	x28,x17,0x7
800023d0:	005e6e33          	or	x28,x28,x5
800023d4:	01c5c5b3          	xor	x11,x11,x28
800023d8:	01f58e33          	add	x28,x11,x31
800023dc:	01e69f93          	slli	x31,x13,0x1e
800023e0:	0026d593          	srli	x11,x13,0x2
800023e4:	01369293          	slli	x5,x13,0x13
800023e8:	01f5e5b3          	or	x11,x11,x31
800023ec:	00d6df93          	srli	x31,x13,0xd
800023f0:	005fefb3          	or	x31,x31,x5
800023f4:	01f5c5b3          	xor	x11,x11,x31
800023f8:	0166d293          	srli	x5,x13,0x16
800023fc:	00a69f93          	slli	x31,x13,0xa
80002400:	005fefb3          	or	x31,x31,x5
80002404:	01f5c5b3          	xor	x11,x11,x31
80002408:	00d74fb3          	xor	x31,x14,x13
8000240c:	00d772b3          	and	x5,x14,x13
80002410:	016fffb3          	and	x31,x31,x22
80002414:	005fcfb3          	xor	x31,x31,x5
80002418:	01f585b3          	add	x11,x11,x31
8000241c:	01c585b3          	add	x11,x11,x28
80002420:	006e0333          	add	x6,x28,x6
80002424:	fecf2f83          	lw	x31,-20(x30)
80002428:	feceae03          	lw	x28,-20(x29)
8000242c:	01531293          	slli	x5,x6,0x15
80002430:	01cf8fb3          	add	x31,x31,x28
80002434:	010f8833          	add	x16,x31,x16
80002438:	0117cfb3          	xor	x31,x15,x17
8000243c:	006fffb3          	and	x31,x31,x6
80002440:	00ffcfb3          	xor	x31,x31,x15
80002444:	01f80fb3          	add	x31,x16,x31
80002448:	01a31e13          	slli	x28,x6,0x1a
8000244c:	00635813          	srli	x16,x6,0x6
80002450:	01c86833          	or	x16,x16,x28
80002454:	00b35e13          	srli	x28,x6,0xb
80002458:	005e6e33          	or	x28,x28,x5
8000245c:	01c84833          	xor	x16,x16,x28
80002460:	01935293          	srli	x5,x6,0x19
80002464:	00731e13          	slli	x28,x6,0x7
80002468:	005e6e33          	or	x28,x28,x5
8000246c:	01c84833          	xor	x16,x16,x28
80002470:	01f80e33          	add	x28,x16,x31
80002474:	01e59f93          	slli	x31,x11,0x1e
80002478:	0025d813          	srli	x16,x11,0x2
8000247c:	01359293          	slli	x5,x11,0x13
80002480:	01f86833          	or	x16,x16,x31
80002484:	00d5df93          	srli	x31,x11,0xd
80002488:	005fefb3          	or	x31,x31,x5
8000248c:	01f84833          	xor	x16,x16,x31
80002490:	0165d293          	srli	x5,x11,0x16
80002494:	00a59f93          	slli	x31,x11,0xa
80002498:	005fefb3          	or	x31,x31,x5
8000249c:	01f84833          	xor	x16,x16,x31
800024a0:	00b6cfb3          	xor	x31,x13,x11
800024a4:	00b6f2b3          	and	x5,x13,x11
800024a8:	00efffb3          	and	x31,x31,x14
800024ac:	005fcfb3          	xor	x31,x31,x5
800024b0:	01f80833          	add	x16,x16,x31
800024b4:	01c80833          	add	x16,x16,x28
800024b8:	016e0b33          	add	x22,x28,x22
800024bc:	ff0eaf83          	lw	x31,-16(x29)
800024c0:	ff0f2e03          	lw	x28,-16(x30)
800024c4:	015b1293          	slli	x5,x22,0x15
800024c8:	01fe0e33          	add	x28,x28,x31
800024cc:	0068cfb3          	xor	x31,x17,x6
800024d0:	016fffb3          	and	x31,x31,x22
800024d4:	011fcfb3          	xor	x31,x31,x17
800024d8:	00fe07b3          	add	x15,x28,x15
800024dc:	01f787b3          	add	x15,x15,x31
800024e0:	006b5e13          	srli	x28,x22,0x6
800024e4:	01ab1f93          	slli	x31,x22,0x1a
800024e8:	01fe6e33          	or	x28,x28,x31
800024ec:	00bb5f93          	srli	x31,x22,0xb
800024f0:	005fefb3          	or	x31,x31,x5
800024f4:	01fe4e33          	xor	x28,x28,x31
800024f8:	019b5293          	srli	x5,x22,0x19
800024fc:	007b1f93          	slli	x31,x22,0x7
80002500:	005fefb3          	or	x31,x31,x5
80002504:	01fe4e33          	xor	x28,x28,x31
80002508:	00fe0e33          	add	x28,x28,x15
8000250c:	01e81f93          	slli	x31,x16,0x1e
80002510:	00285793          	srli	x15,x16,0x2
80002514:	01381293          	slli	x5,x16,0x13
80002518:	01f7e7b3          	or	x15,x15,x31
8000251c:	00d85f93          	srli	x31,x16,0xd
80002520:	005fefb3          	or	x31,x31,x5
80002524:	01f7c7b3          	xor	x15,x15,x31
80002528:	01685293          	srli	x5,x16,0x16
8000252c:	00a81f93          	slli	x31,x16,0xa
80002530:	005fefb3          	or	x31,x31,x5
80002534:	01f7c7b3          	xor	x15,x15,x31
80002538:	0105cfb3          	xor	x31,x11,x16
8000253c:	0105f2b3          	and	x5,x11,x16
80002540:	00dfffb3          	and	x31,x31,x13
80002544:	005fcfb3          	xor	x31,x31,x5
80002548:	01f787b3          	add	x15,x15,x31
8000254c:	01c787b3          	add	x15,x15,x28
80002550:	01c70733          	add	x14,x14,x28
80002554:	ff4eaf83          	lw	x31,-12(x29)
80002558:	ff4f2e03          	lw	x28,-12(x30)
8000255c:	01571293          	slli	x5,x14,0x15
80002560:	01fe0e33          	add	x28,x28,x31
80002564:	01634fb3          	xor	x31,x6,x22
80002568:	00efffb3          	and	x31,x31,x14
8000256c:	006fcfb3          	xor	x31,x31,x6
80002570:	011e08b3          	add	x17,x28,x17
80002574:	01f888b3          	add	x17,x17,x31
80002578:	00675e13          	srli	x28,x14,0x6
8000257c:	01a71f93          	slli	x31,x14,0x1a
80002580:	01fe6e33          	or	x28,x28,x31
80002584:	00b75f93          	srli	x31,x14,0xb
80002588:	005fefb3          	or	x31,x31,x5
8000258c:	01fe4e33          	xor	x28,x28,x31
80002590:	01975293          	srli	x5,x14,0x19
80002594:	00771f93          	slli	x31,x14,0x7
80002598:	005fefb3          	or	x31,x31,x5
8000259c:	01fe4e33          	xor	x28,x28,x31
800025a0:	011e0e33          	add	x28,x28,x17
800025a4:	01e79f93          	slli	x31,x15,0x1e
800025a8:	0027d893          	srli	x17,x15,0x2
800025ac:	01f8e8b3          	or	x17,x17,x31
800025b0:	01379293          	slli	x5,x15,0x13
800025b4:	00d7df93          	srli	x31,x15,0xd
800025b8:	005fefb3          	or	x31,x31,x5
800025bc:	01f8c8b3          	xor	x17,x17,x31
800025c0:	0167d293          	srli	x5,x15,0x16
800025c4:	00a79f93          	slli	x31,x15,0xa
800025c8:	005fefb3          	or	x31,x31,x5
800025cc:	01f8c8b3          	xor	x17,x17,x31
800025d0:	00f84fb3          	xor	x31,x16,x15
800025d4:	00f872b3          	and	x5,x16,x15
800025d8:	00bfffb3          	and	x31,x31,x11
800025dc:	005fcfb3          	xor	x31,x31,x5
800025e0:	01f888b3          	add	x17,x17,x31
800025e4:	01c888b3          	add	x17,x17,x28
800025e8:	01c686b3          	add	x13,x13,x28
800025ec:	ff8eaf83          	lw	x31,-8(x29)
800025f0:	ff8f2e03          	lw	x28,-8(x30)
800025f4:	01569293          	slli	x5,x13,0x15
800025f8:	01fe0e33          	add	x28,x28,x31
800025fc:	00eb4fb3          	xor	x31,x22,x14
80002600:	00dfffb3          	and	x31,x31,x13
80002604:	016fcfb3          	xor	x31,x31,x22
80002608:	006e0333          	add	x6,x28,x6
8000260c:	01f30333          	add	x6,x6,x31
80002610:	0066de13          	srli	x28,x13,0x6
80002614:	01a69f93          	slli	x31,x13,0x1a
80002618:	01fe6e33          	or	x28,x28,x31
8000261c:	00b6df93          	srli	x31,x13,0xb
80002620:	005fefb3          	or	x31,x31,x5
80002624:	01fe4e33          	xor	x28,x28,x31
80002628:	0196d293          	srli	x5,x13,0x19
8000262c:	00769f93          	slli	x31,x13,0x7
80002630:	005fefb3          	or	x31,x31,x5
80002634:	01fe4e33          	xor	x28,x28,x31
80002638:	006e0e33          	add	x28,x28,x6
8000263c:	01e89f93          	slli	x31,x17,0x1e
80002640:	0028d313          	srli	x6,x17,0x2
80002644:	01f36333          	or	x6,x6,x31
80002648:	01389293          	slli	x5,x17,0x13
8000264c:	00d8df93          	srli	x31,x17,0xd
80002650:	005fefb3          	or	x31,x31,x5
80002654:	01f34333          	xor	x6,x6,x31
80002658:	0168d293          	srli	x5,x17,0x16
8000265c:	00a89f93          	slli	x31,x17,0xa
80002660:	005fefb3          	or	x31,x31,x5
80002664:	01f34333          	xor	x6,x6,x31
80002668:	0117cfb3          	xor	x31,x15,x17
8000266c:	010fffb3          	and	x31,x31,x16
80002670:	0117f2b3          	and	x5,x15,x17
80002674:	005fcfb3          	xor	x31,x31,x5
80002678:	01f30333          	add	x6,x6,x31
8000267c:	01c30333          	add	x6,x6,x28
80002680:	01c585b3          	add	x11,x11,x28
80002684:	ffceaf83          	lw	x31,-4(x29)
80002688:	ffcf2e03          	lw	x28,-4(x30)
8000268c:	01559293          	slli	x5,x11,0x15
80002690:	01fe0e33          	add	x28,x28,x31
80002694:	00d74fb3          	xor	x31,x14,x13
80002698:	00bfffb3          	and	x31,x31,x11
8000269c:	016e0b33          	add	x22,x28,x22
800026a0:	00efcfb3          	xor	x31,x31,x14
800026a4:	01fb0b33          	add	x22,x22,x31
800026a8:	0065de13          	srli	x28,x11,0x6
800026ac:	01a59f93          	slli	x31,x11,0x1a
800026b0:	01fe6e33          	or	x28,x28,x31
800026b4:	00b5df93          	srli	x31,x11,0xb
800026b8:	005fefb3          	or	x31,x31,x5
800026bc:	01fe4e33          	xor	x28,x28,x31
800026c0:	0195d293          	srli	x5,x11,0x19
800026c4:	00759f93          	slli	x31,x11,0x7
800026c8:	005fefb3          	or	x31,x31,x5
800026cc:	01fe4e33          	xor	x28,x28,x31
800026d0:	016e0e33          	add	x28,x28,x22
800026d4:	01e31f93          	slli	x31,x6,0x1e
800026d8:	00235b13          	srli	x22,x6,0x2
800026dc:	01fb6b33          	or	x22,x22,x31
800026e0:	01331293          	slli	x5,x6,0x13
800026e4:	00d35f93          	srli	x31,x6,0xd
800026e8:	005fefb3          	or	x31,x31,x5
800026ec:	01fb4b33          	xor	x22,x22,x31
800026f0:	01635293          	srli	x5,x6,0x16
800026f4:	00a31f93          	slli	x31,x6,0xa
800026f8:	005fefb3          	or	x31,x31,x5
800026fc:	01fb4b33          	xor	x22,x22,x31
80002700:	0068cfb3          	xor	x31,x17,x6
80002704:	00ffffb3          	and	x31,x31,x15
80002708:	0068f2b3          	and	x5,x17,x6
8000270c:	005fcfb3          	xor	x31,x31,x5
80002710:	01fb0b33          	add	x22,x22,x31
80002714:	01c80833          	add	x16,x16,x28
80002718:	01cb0b33          	add	x22,x22,x28
8000271c:	b35f1ce3          	bne	x30,x21,80002254 <_nettle_sha256_compress+0xe0>
80002720:	03012e03          	lw	x28,48(x2)
80002724:	06412e83          	lw	x29,100(x2)
80002728:	06812c03          	lw	x24,104(x2)
8000272c:	01c12023          	sw	x28,0(x2)
80002730:	06c12e03          	lw	x28,108(x2)
80002734:	01d12423          	sw	x29,8(x2)
80002738:	05412403          	lw	x8,84(x2)
8000273c:	01c12223          	sw	x28,4(x2)
80002740:	03412a03          	lw	x20,52(x2)
80002744:	05812283          	lw	x5,88(x2)
80002748:	03812983          	lw	x19,56(x2)
8000274c:	05c12f03          	lw	x30,92(x2)
80002750:	03c12903          	lw	x18,60(x2)
80002754:	06012e03          	lw	x28,96(x2)
80002758:	04012483          	lw	x9,64(x2)
8000275c:	04412383          	lw	x7,68(x2)
80002760:	04812f83          	lw	x31,72(x2)
80002764:	04c12e83          	lw	x29,76(x2)
80002768:	05012c83          	lw	x25,80(x2)
8000276c:	10060613          	addi	x12,x12,256
80002770:	02c12623          	sw	x12,44(x2)
80002774:	011c5613          	srli	x12,x24,0x11
80002778:	00fc1d13          	slli	x26,x24,0xf
8000277c:	00cd6d33          	or	x26,x26,x12
80002780:	00dc1b93          	slli	x23,x24,0xd
80002784:	013c5613          	srli	x12,x24,0x13
80002788:	00cbe633          	or	x12,x23,x12
8000278c:	00cd4633          	xor	x12,x26,x12
80002790:	00ac5b93          	srli	x23,x24,0xa
80002794:	01764633          	xor	x12,x12,x23
80002798:	007a5d13          	srli	x26,x20,0x7
8000279c:	019a1b93          	slli	x23,x20,0x19
800027a0:	012a5d93          	srli	x27,x20,0x12
800027a4:	017d6d33          	or	x26,x26,x23
800027a8:	00ea1b93          	slli	x23,x20,0xe
800027ac:	01bbebb3          	or	x23,x23,x27
800027b0:	017d4d33          	xor	x26,x26,x23
800027b4:	003a5b93          	srli	x23,x20,0x3
800027b8:	017d4d33          	xor	x26,x26,x23
800027bc:	01a60d33          	add	x26,x12,x26
800027c0:	00012603          	lw	x12,0(x2)
800027c4:	008d0d33          	add	x26,x26,x8
800027c8:	00685b93          	srli	x23,x16,0x6
800027cc:	01a60633          	add	x12,x12,x26
800027d0:	00c12023          	sw	x12,0(x2)
800027d4:	01a81613          	slli	x12,x16,0x1a
800027d8:	00cbed33          	or	x26,x23,x12
800027dc:	00b85613          	srli	x12,x16,0xb
800027e0:	01581b93          	slli	x23,x16,0x15
800027e4:	01766bb3          	or	x23,x12,x23
800027e8:	017d4bb3          	xor	x23,x26,x23
800027ec:	00781613          	slli	x12,x16,0x7
800027f0:	01985d13          	srli	x26,x16,0x19
800027f4:	01a66633          	or	x12,x12,x26
800027f8:	00cbc633          	xor	x12,x23,x12
800027fc:	00d5cbb3          	xor	x23,x11,x13
80002800:	010bfbb3          	and	x23,x23,x16
80002804:	00dbcbb3          	xor	x23,x23,x13
80002808:	01760bb3          	add	x23,x12,x23
8000280c:	000aa603          	lw	x12,0(x21)
80002810:	002b5d13          	srli	x26,x22,0x2
80002814:	040a8a93          	addi	x21,x21,64
80002818:	00cb8bb3          	add	x23,x23,x12
8000281c:	00012603          	lw	x12,0(x2)
80002820:	00cb8bb3          	add	x23,x23,x12
80002824:	01eb1613          	slli	x12,x22,0x1e
80002828:	00eb8733          	add	x14,x23,x14
8000282c:	00cd6db3          	or	x27,x26,x12
80002830:	00db5b93          	srli	x23,x22,0xd
80002834:	013b1613          	slli	x12,x22,0x13
80002838:	00cbe633          	or	x12,x23,x12
8000283c:	00cdcd33          	xor	x26,x27,x12
80002840:	00ab1b93          	slli	x23,x22,0xa
80002844:	016b5613          	srli	x12,x22,0x16
80002848:	00cbe633          	or	x12,x23,x12
8000284c:	006b4bb3          	xor	x23,x22,x6
80002850:	00cd4633          	xor	x12,x26,x12
80002854:	011bfbb3          	and	x23,x23,x17
80002858:	006b7d33          	and	x26,x22,x6
8000285c:	01abcbb3          	xor	x23,x23,x26
80002860:	01760bb3          	add	x23,x12,x23
80002864:	00412603          	lw	x12,4(x2)
80002868:	00f707b3          	add	x15,x14,x15
8000286c:	00eb8733          	add	x14,x23,x14
80002870:	00f61b93          	slli	x23,x12,0xf
80002874:	01165613          	srli	x12,x12,0x11
80002878:	00412d03          	lw	x26,4(x2)
8000287c:	00cbebb3          	or	x23,x23,x12
80002880:	00412603          	lw	x12,4(x2)
80002884:	013d5d13          	srli	x26,x26,0x13
80002888:	00d61613          	slli	x12,x12,0xd
8000288c:	01a66633          	or	x12,x12,x26
80002890:	00cbcbb3          	xor	x23,x23,x12
80002894:	00412603          	lw	x12,4(x2)
80002898:	0129dd13          	srli	x26,x19,0x12
8000289c:	00a65613          	srli	x12,x12,0xa
800028a0:	00cbcbb3          	xor	x23,x23,x12
800028a4:	005b8bb3          	add	x23,x23,x5
800028a8:	01999613          	slli	x12,x19,0x19
800028ac:	014b8a33          	add	x20,x23,x20
800028b0:	0079db93          	srli	x23,x19,0x7
800028b4:	00cbebb3          	or	x23,x23,x12
800028b8:	00e99613          	slli	x12,x19,0xe
800028bc:	01a66633          	or	x12,x12,x26
800028c0:	fc4aad03          	lw	x26,-60(x21)
800028c4:	00cbcbb3          	xor	x23,x23,x12
800028c8:	0039d613          	srli	x12,x19,0x3
800028cc:	00cbcbb3          	xor	x23,x23,x12
800028d0:	00b84633          	xor	x12,x16,x11
800028d4:	017a0a33          	add	x20,x20,x23
800028d8:	00f67633          	and	x12,x12,x15
800028dc:	01a686b3          	add	x13,x13,x26
800028e0:	00b64633          	xor	x12,x12,x11
800028e4:	014686b3          	add	x13,x13,x20
800028e8:	00d60633          	add	x12,x12,x13
800028ec:	0067db93          	srli	x23,x15,0x6
800028f0:	01a79693          	slli	x13,x15,0x1a
800028f4:	00dbedb3          	or	x27,x23,x13
800028f8:	00b7dd13          	srli	x26,x15,0xb
800028fc:	01579b93          	slli	x23,x15,0x15
80002900:	017d6bb3          	or	x23,x26,x23
80002904:	00779693          	slli	x13,x15,0x7
80002908:	0197dd13          	srli	x26,x15,0x19
8000290c:	017dcbb3          	xor	x23,x27,x23
80002910:	01a6e6b3          	or	x13,x13,x26
80002914:	00dbc6b3          	xor	x13,x23,x13
80002918:	00c686b3          	add	x13,x13,x12
8000291c:	00275d13          	srli	x26,x14,0x2
80002920:	01e71613          	slli	x12,x14,0x1e
80002924:	00cd6db3          	or	x27,x26,x12
80002928:	01371b93          	slli	x23,x14,0x13
8000292c:	00d75613          	srli	x12,x14,0xd
80002930:	01766bb3          	or	x23,x12,x23
80002934:	017dcd33          	xor	x26,x27,x23
80002938:	00a71613          	slli	x12,x14,0xa
8000293c:	01675b93          	srli	x23,x14,0x16
80002940:	01766bb3          	or	x23,x12,x23
80002944:	01674633          	xor	x12,x14,x22
80002948:	017d4bb3          	xor	x23,x26,x23
8000294c:	00667633          	and	x12,x12,x6
80002950:	01677d33          	and	x26,x14,x22
80002954:	01a64633          	xor	x12,x12,x26
80002958:	00cb8bb3          	add	x23,x23,x12
8000295c:	00db8bb3          	add	x23,x23,x13
80002960:	011688b3          	add	x17,x13,x17
80002964:	00795613          	srli	x12,x18,0x7
80002968:	01991693          	slli	x13,x18,0x19
8000296c:	01295d13          	srli	x26,x18,0x12
80002970:	00d66633          	or	x12,x12,x13
80002974:	00e91693          	slli	x13,x18,0xe
80002978:	01a6e6b3          	or	x13,x13,x26
8000297c:	00d64633          	xor	x12,x12,x13
80002980:	00395693          	srli	x13,x18,0x3
80002984:	00d64633          	xor	x12,x12,x13
80002988:	00012683          	lw	x13,0(x2)
8000298c:	01e60633          	add	x12,x12,x30
80002990:	013609b3          	add	x19,x12,x19
80002994:	00f69613          	slli	x12,x13,0xf
80002998:	0116d693          	srli	x13,x13,0x11
8000299c:	00012d03          	lw	x26,0(x2)
800029a0:	00d66633          	or	x12,x12,x13
800029a4:	00012683          	lw	x13,0(x2)
800029a8:	013d5d13          	srli	x26,x26,0x13
800029ac:	0068dd93          	srli	x27,x17,0x6
800029b0:	00d69693          	slli	x13,x13,0xd
800029b4:	01a6e6b3          	or	x13,x13,x26
800029b8:	00d64633          	xor	x12,x12,x13
800029bc:	00012683          	lw	x13,0(x2)
800029c0:	fc8aad03          	lw	x26,-56(x21)
800029c4:	00a6d693          	srli	x13,x13,0xa
800029c8:	00d64633          	xor	x12,x12,x13
800029cc:	0107c6b3          	xor	x13,x15,x16
800029d0:	00c989b3          	add	x19,x19,x12
800029d4:	0116f6b3          	and	x13,x13,x17
800029d8:	01a89613          	slli	x12,x17,0x1a
800029dc:	01a585b3          	add	x11,x11,x26
800029e0:	00cdedb3          	or	x27,x27,x12
800029e4:	00b8dd13          	srli	x26,x17,0xb
800029e8:	0106c6b3          	xor	x13,x13,x16
800029ec:	013585b3          	add	x11,x11,x19
800029f0:	01589613          	slli	x12,x17,0x15
800029f4:	00b686b3          	add	x13,x13,x11
800029f8:	00cd6633          	or	x12,x26,x12
800029fc:	00789593          	slli	x11,x17,0x7
80002a00:	0198dd13          	srli	x26,x17,0x19
80002a04:	00cdc633          	xor	x12,x27,x12
80002a08:	01a5e5b3          	or	x11,x11,x26
80002a0c:	00b645b3          	xor	x11,x12,x11
80002a10:	00d585b3          	add	x11,x11,x13
80002a14:	002bdd13          	srli	x26,x23,0x2
80002a18:	01eb9693          	slli	x13,x23,0x1e
80002a1c:	00dd6db3          	or	x27,x26,x13
80002a20:	013b9613          	slli	x12,x23,0x13
80002a24:	00dbd693          	srli	x13,x23,0xd
80002a28:	00c6e633          	or	x12,x13,x12
80002a2c:	00cdcd33          	xor	x26,x27,x12
80002a30:	00ab9693          	slli	x13,x23,0xa
80002a34:	016bd613          	srli	x12,x23,0x16
80002a38:	00c6e633          	or	x12,x13,x12
80002a3c:	017746b3          	xor	x13,x14,x23
80002a40:	00cd4633          	xor	x12,x26,x12
80002a44:	0166f6b3          	and	x13,x13,x22
80002a48:	01777d33          	and	x26,x14,x23
80002a4c:	01a6c6b3          	xor	x13,x13,x26
80002a50:	00d60633          	add	x12,x12,x13
80002a54:	00b60633          	add	x12,x12,x11
80002a58:	00658333          	add	x6,x11,x6
80002a5c:	01949693          	slli	x13,x9,0x19
80002a60:	0074d593          	srli	x11,x9,0x7
80002a64:	0124dd13          	srli	x26,x9,0x12
80002a68:	00d5e5b3          	or	x11,x11,x13
80002a6c:	00e49693          	slli	x13,x9,0xe
80002a70:	01a6e6b3          	or	x13,x13,x26
80002a74:	00d5c5b3          	xor	x11,x11,x13
80002a78:	0034d693          	srli	x13,x9,0x3
80002a7c:	00d5c5b3          	xor	x11,x11,x13
80002a80:	01c585b3          	add	x11,x11,x28
80002a84:	01258933          	add	x18,x11,x18
80002a88:	011a5693          	srli	x13,x20,0x11
80002a8c:	00fa1593          	slli	x11,x20,0xf
80002a90:	00d5e5b3          	or	x11,x11,x13
80002a94:	013a5d13          	srli	x26,x20,0x13
80002a98:	00da1693          	slli	x13,x20,0xd
80002a9c:	01a6e6b3          	or	x13,x13,x26
80002aa0:	00d5c5b3          	xor	x11,x11,x13
80002aa4:	fccaad03          	lw	x26,-52(x21)
80002aa8:	00aa5693          	srli	x13,x20,0xa
80002aac:	00d5c5b3          	xor	x11,x11,x13
80002ab0:	00b90933          	add	x18,x18,x11
80002ab4:	0117c5b3          	xor	x11,x15,x17
80002ab8:	01a31693          	slli	x13,x6,0x1a
80002abc:	0065f5b3          	and	x11,x11,x6
80002ac0:	01a80833          	add	x16,x16,x26
80002ac4:	00635d93          	srli	x27,x6,0x6
80002ac8:	00ddedb3          	or	x27,x27,x13
80002acc:	00b35d13          	srli	x26,x6,0xb
80002ad0:	00f5c5b3          	xor	x11,x11,x15
80002ad4:	01280833          	add	x16,x16,x18
80002ad8:	01531693          	slli	x13,x6,0x15
80002adc:	010585b3          	add	x11,x11,x16
80002ae0:	00dd66b3          	or	x13,x26,x13
80002ae4:	00731813          	slli	x16,x6,0x7
80002ae8:	01935d13          	srli	x26,x6,0x19
80002aec:	00ddc6b3          	xor	x13,x27,x13
80002af0:	01a86833          	or	x16,x16,x26
80002af4:	0106c833          	xor	x16,x13,x16
80002af8:	00265d13          	srli	x26,x12,0x2
80002afc:	01e61693          	slli	x13,x12,0x1e
80002b00:	00b80833          	add	x16,x16,x11
80002b04:	00dd6db3          	or	x27,x26,x13
80002b08:	00d65593          	srli	x11,x12,0xd
80002b0c:	01361693          	slli	x13,x12,0x13
80002b10:	00d5e6b3          	or	x13,x11,x13
80002b14:	00ddcd33          	xor	x26,x27,x13
80002b18:	00a61593          	slli	x11,x12,0xa
80002b1c:	01665693          	srli	x13,x12,0x16
80002b20:	00d5e6b3          	or	x13,x11,x13
80002b24:	00cbc5b3          	xor	x11,x23,x12
80002b28:	00dd46b3          	xor	x13,x26,x13
80002b2c:	00e5f5b3          	and	x11,x11,x14
80002b30:	00cbfd33          	and	x26,x23,x12
80002b34:	01a5c5b3          	xor	x11,x11,x26
80002b38:	00b686b3          	add	x13,x13,x11
80002b3c:	010686b3          	add	x13,x13,x16
80002b40:	01680b33          	add	x22,x16,x22
80002b44:	01939593          	slli	x11,x7,0x19
80002b48:	0073d813          	srli	x16,x7,0x7
80002b4c:	0123dd13          	srli	x26,x7,0x12
80002b50:	00b86833          	or	x16,x16,x11
80002b54:	00e39593          	slli	x11,x7,0xe
80002b58:	01a5e5b3          	or	x11,x11,x26
80002b5c:	00b84833          	xor	x16,x16,x11
80002b60:	0033d593          	srli	x11,x7,0x3
80002b64:	00b84833          	xor	x16,x16,x11
80002b68:	00812583          	lw	x11,8(x2)
80002b6c:	0139dd13          	srli	x26,x19,0x13
80002b70:	006b5d93          	srli	x27,x22,0x6
80002b74:	00b80833          	add	x16,x16,x11
80002b78:	009804b3          	add	x9,x16,x9
80002b7c:	0119d593          	srli	x11,x19,0x11
80002b80:	00f99813          	slli	x16,x19,0xf
80002b84:	00b86833          	or	x16,x16,x11
80002b88:	00d99593          	slli	x11,x19,0xd
80002b8c:	01a5e5b3          	or	x11,x11,x26
80002b90:	00b84833          	xor	x16,x16,x11
80002b94:	00a9d593          	srli	x11,x19,0xa
80002b98:	00b84833          	xor	x16,x16,x11
80002b9c:	010484b3          	add	x9,x9,x16
80002ba0:	fd0aa803          	lw	x16,-48(x21)
80002ba4:	0068c5b3          	xor	x11,x17,x6
80002ba8:	0165f5b3          	and	x11,x11,x22
80002bac:	01078833          	add	x16,x15,x16
80002bb0:	01ab1793          	slli	x15,x22,0x1a
80002bb4:	0115c5b3          	xor	x11,x11,x17
80002bb8:	00fdedb3          	or	x27,x27,x15
80002bbc:	00bb5d13          	srli	x26,x22,0xb
80002bc0:	015b1793          	slli	x15,x22,0x15
80002bc4:	00980833          	add	x16,x16,x9
80002bc8:	01058833          	add	x16,x11,x16
80002bcc:	00fd67b3          	or	x15,x26,x15
80002bd0:	007b1593          	slli	x11,x22,0x7
80002bd4:	019b5d13          	srli	x26,x22,0x19
80002bd8:	00fdc7b3          	xor	x15,x27,x15
80002bdc:	01a5e5b3          	or	x11,x11,x26
80002be0:	00b7c5b3          	xor	x11,x15,x11
80002be4:	0026dd13          	srli	x26,x13,0x2
80002be8:	01e69793          	slli	x15,x13,0x1e
80002bec:	010585b3          	add	x11,x11,x16
80002bf0:	00fd6db3          	or	x27,x26,x15
80002bf4:	00d6d813          	srli	x16,x13,0xd
80002bf8:	01369793          	slli	x15,x13,0x13
80002bfc:	00f867b3          	or	x15,x16,x15
80002c00:	00fdcd33          	xor	x26,x27,x15
80002c04:	00a69813          	slli	x16,x13,0xa
80002c08:	0166d793          	srli	x15,x13,0x16
80002c0c:	00f867b3          	or	x15,x16,x15
80002c10:	00d64833          	xor	x16,x12,x13
80002c14:	00fd47b3          	xor	x15,x26,x15
80002c18:	01787833          	and	x16,x16,x23
80002c1c:	00d67d33          	and	x26,x12,x13
80002c20:	01a84833          	xor	x16,x16,x26
80002c24:	010787b3          	add	x15,x15,x16
80002c28:	00b787b3          	add	x15,x15,x11
80002c2c:	00b70733          	add	x14,x14,x11
80002c30:	007fd813          	srli	x16,x31,0x7
80002c34:	019f9593          	slli	x11,x31,0x19
80002c38:	012fdd13          	srli	x26,x31,0x12
80002c3c:	00b86833          	or	x16,x16,x11
80002c40:	00ef9593          	slli	x11,x31,0xe
80002c44:	01a5e5b3          	or	x11,x11,x26
80002c48:	00b84833          	xor	x16,x16,x11
80002c4c:	003fd593          	srli	x11,x31,0x3
80002c50:	00b84833          	xor	x16,x16,x11
80002c54:	01880833          	add	x16,x16,x24
80002c58:	007803b3          	add	x7,x16,x7
80002c5c:	01195593          	srli	x11,x18,0x11
80002c60:	00f91813          	slli	x16,x18,0xf
80002c64:	00b86833          	or	x16,x16,x11
80002c68:	01395d13          	srli	x26,x18,0x13
80002c6c:	00d91593          	slli	x11,x18,0xd
80002c70:	01a5e5b3          	or	x11,x11,x26
80002c74:	00b84833          	xor	x16,x16,x11
80002c78:	fd4aad03          	lw	x26,-44(x21)
80002c7c:	00a95593          	srli	x11,x18,0xa
80002c80:	00b84833          	xor	x16,x16,x11
80002c84:	010383b3          	add	x7,x7,x16
80002c88:	016345b3          	xor	x11,x6,x22
80002c8c:	00e5f5b3          	and	x11,x11,x14
80002c90:	01a38d33          	add	x26,x7,x26
80002c94:	0065c5b3          	xor	x11,x11,x6
80002c98:	011d08b3          	add	x17,x26,x17
80002c9c:	01158833          	add	x16,x11,x17
80002ca0:	00675893          	srli	x17,x14,0x6
80002ca4:	01a71593          	slli	x11,x14,0x1a
80002ca8:	00b8edb3          	or	x27,x17,x11
80002cac:	00b75d13          	srli	x26,x14,0xb
80002cb0:	01571893          	slli	x17,x14,0x15
80002cb4:	011d68b3          	or	x17,x26,x17
80002cb8:	00771593          	slli	x11,x14,0x7
80002cbc:	01975d13          	srli	x26,x14,0x19
80002cc0:	011dc8b3          	xor	x17,x27,x17
80002cc4:	01a5e5b3          	or	x11,x11,x26
80002cc8:	00b8c5b3          	xor	x11,x17,x11
80002ccc:	010585b3          	add	x11,x11,x16
80002cd0:	0027dd13          	srli	x26,x15,0x2
80002cd4:	01e79813          	slli	x16,x15,0x1e
80002cd8:	010d6db3          	or	x27,x26,x16
80002cdc:	01379893          	slli	x17,x15,0x13
80002ce0:	00d7d813          	srli	x16,x15,0xd
80002ce4:	011868b3          	or	x17,x16,x17
80002ce8:	011dcd33          	xor	x26,x27,x17
80002cec:	00a79813          	slli	x16,x15,0xa
80002cf0:	0167d893          	srli	x17,x15,0x16
80002cf4:	011868b3          	or	x17,x16,x17
80002cf8:	00f6c833          	xor	x16,x13,x15
80002cfc:	011d48b3          	xor	x17,x26,x17
80002d00:	00c87833          	and	x16,x16,x12
80002d04:	00f6fd33          	and	x26,x13,x15
80002d08:	01a84833          	xor	x16,x16,x26
80002d0c:	010888b3          	add	x17,x17,x16
80002d10:	00b888b3          	add	x17,x17,x11
80002d14:	00bb8bb3          	add	x23,x23,x11
80002d18:	007ed813          	srli	x16,x29,0x7
80002d1c:	019e9593          	slli	x11,x29,0x19
80002d20:	012edd13          	srli	x26,x29,0x12
80002d24:	00b86833          	or	x16,x16,x11
80002d28:	00ee9593          	slli	x11,x29,0xe
80002d2c:	01a5e5b3          	or	x11,x11,x26
80002d30:	00b84833          	xor	x16,x16,x11
80002d34:	003ed593          	srli	x11,x29,0x3
80002d38:	00b84833          	xor	x16,x16,x11
80002d3c:	00412583          	lw	x11,4(x2)
80002d40:	0134dd13          	srli	x26,x9,0x13
80002d44:	00b80833          	add	x16,x16,x11
80002d48:	01f80fb3          	add	x31,x16,x31
80002d4c:	0114d593          	srli	x11,x9,0x11
80002d50:	00f49813          	slli	x16,x9,0xf
80002d54:	00b86833          	or	x16,x16,x11
80002d58:	00d49593          	slli	x11,x9,0xd
80002d5c:	01a5e5b3          	or	x11,x11,x26
80002d60:	00b84833          	xor	x16,x16,x11
80002d64:	fd8aad03          	lw	x26,-40(x21)
80002d68:	00a4d593          	srli	x11,x9,0xa
80002d6c:	00b84833          	xor	x16,x16,x11
80002d70:	010f8fb3          	add	x31,x31,x16
80002d74:	00eb45b3          	xor	x11,x22,x14
80002d78:	0175f5b3          	and	x11,x11,x23
80002d7c:	01af8d33          	add	x26,x31,x26
80002d80:	0165c5b3          	xor	x11,x11,x22
80002d84:	006d0333          	add	x6,x26,x6
80002d88:	00658833          	add	x16,x11,x6
80002d8c:	006bd313          	srli	x6,x23,0x6
80002d90:	01ab9593          	slli	x11,x23,0x1a
80002d94:	00b36db3          	or	x27,x6,x11
80002d98:	00bbdd13          	srli	x26,x23,0xb
80002d9c:	015b9313          	slli	x6,x23,0x15
80002da0:	006d6333          	or	x6,x26,x6
80002da4:	007b9593          	slli	x11,x23,0x7
80002da8:	019bdd13          	srli	x26,x23,0x19
80002dac:	006dc333          	xor	x6,x27,x6
80002db0:	01a5e5b3          	or	x11,x11,x26
80002db4:	00b345b3          	xor	x11,x6,x11
80002db8:	010585b3          	add	x11,x11,x16
80002dbc:	00b60833          	add	x16,x12,x11
80002dc0:	0028dd13          	srli	x26,x17,0x2
80002dc4:	01e89613          	slli	x12,x17,0x1e
80002dc8:	00cd6db3          	or	x27,x26,x12
80002dcc:	01389313          	slli	x6,x17,0x13
80002dd0:	00d8d613          	srli	x12,x17,0xd
80002dd4:	00666333          	or	x6,x12,x6
80002dd8:	006dcd33          	xor	x26,x27,x6
80002ddc:	00a89613          	slli	x12,x17,0xa
80002de0:	0168d313          	srli	x6,x17,0x16
80002de4:	00666333          	or	x6,x12,x6
80002de8:	0117c633          	xor	x12,x15,x17
80002dec:	006d4333          	xor	x6,x26,x6
80002df0:	00d67633          	and	x12,x12,x13
80002df4:	0117fd33          	and	x26,x15,x17
80002df8:	01a64633          	xor	x12,x12,x26
80002dfc:	00c30333          	add	x6,x6,x12
80002e00:	00b30333          	add	x6,x6,x11
80002e04:	019c9613          	slli	x12,x25,0x19
80002e08:	007cd593          	srli	x11,x25,0x7
80002e0c:	012cdd13          	srli	x26,x25,0x12
80002e10:	00c5e5b3          	or	x11,x11,x12
80002e14:	00ec9613          	slli	x12,x25,0xe
80002e18:	01a66633          	or	x12,x12,x26
80002e1c:	00c5c5b3          	xor	x11,x11,x12
80002e20:	003cd613          	srli	x12,x25,0x3
80002e24:	00c5c5b3          	xor	x11,x11,x12
80002e28:	00012603          	lw	x12,0(x2)
80002e2c:	0133dd13          	srli	x26,x7,0x13
80002e30:	00c585b3          	add	x11,x11,x12
80002e34:	01d58eb3          	add	x29,x11,x29
80002e38:	0113d613          	srli	x12,x7,0x11
80002e3c:	00f39593          	slli	x11,x7,0xf
80002e40:	00c5e5b3          	or	x11,x11,x12
80002e44:	00d39613          	slli	x12,x7,0xd
80002e48:	01a66633          	or	x12,x12,x26
80002e4c:	00c5c5b3          	xor	x11,x11,x12
80002e50:	fdcaad03          	lw	x26,-36(x21)
80002e54:	00a3d613          	srli	x12,x7,0xa
80002e58:	00c5c5b3          	xor	x11,x11,x12
80002e5c:	00be8eb3          	add	x29,x29,x11
80002e60:	017745b3          	xor	x11,x14,x23
80002e64:	0105f5b3          	and	x11,x11,x16
80002e68:	01ae8d33          	add	x26,x29,x26
80002e6c:	00e5c5b3          	xor	x11,x11,x14
80002e70:	016d0b33          	add	x22,x26,x22
80002e74:	01658633          	add	x12,x11,x22
80002e78:	00685b13          	srli	x22,x16,0x6
80002e7c:	01a81593          	slli	x11,x16,0x1a
80002e80:	00bb6db3          	or	x27,x22,x11
80002e84:	00b85d13          	srli	x26,x16,0xb
80002e88:	01581b13          	slli	x22,x16,0x15
80002e8c:	016d6b33          	or	x22,x26,x22
80002e90:	00781593          	slli	x11,x16,0x7
80002e94:	01985d13          	srli	x26,x16,0x19
80002e98:	016dcb33          	xor	x22,x27,x22
80002e9c:	01a5e5b3          	or	x11,x11,x26
80002ea0:	00bb45b3          	xor	x11,x22,x11
80002ea4:	00c585b3          	add	x11,x11,x12
80002ea8:	00b68633          	add	x12,x13,x11
80002eac:	00235d13          	srli	x26,x6,0x2
80002eb0:	01e31693          	slli	x13,x6,0x1e
80002eb4:	00dd6db3          	or	x27,x26,x13
80002eb8:	01331b13          	slli	x22,x6,0x13
80002ebc:	00d35693          	srli	x13,x6,0xd
80002ec0:	0166eb33          	or	x22,x13,x22
80002ec4:	016dcd33          	xor	x26,x27,x22
80002ec8:	00a31693          	slli	x13,x6,0xa
80002ecc:	01635b13          	srli	x22,x6,0x16
80002ed0:	0166eb33          	or	x22,x13,x22
80002ed4:	0068c6b3          	xor	x13,x17,x6
80002ed8:	016d4b33          	xor	x22,x26,x22
80002edc:	00f6f6b3          	and	x13,x13,x15
80002ee0:	0068fd33          	and	x26,x17,x6
80002ee4:	01a6c6b3          	xor	x13,x13,x26
80002ee8:	00db0b33          	add	x22,x22,x13
80002eec:	00bb0b33          	add	x22,x22,x11
80002ef0:	01941693          	slli	x13,x8,0x19
80002ef4:	00745593          	srli	x11,x8,0x7
80002ef8:	01245d13          	srli	x26,x8,0x12
80002efc:	00d5e5b3          	or	x11,x11,x13
80002f00:	00e41693          	slli	x13,x8,0xe
80002f04:	01a6e6b3          	or	x13,x13,x26
80002f08:	00d5c5b3          	xor	x11,x11,x13
80002f0c:	00345693          	srli	x13,x8,0x3
80002f10:	00d5c5b3          	xor	x11,x11,x13
80002f14:	014585b3          	add	x11,x11,x20
80002f18:	01958cb3          	add	x25,x11,x25
80002f1c:	011fd693          	srli	x13,x31,0x11
80002f20:	00ff9593          	slli	x11,x31,0xf
80002f24:	00d5e5b3          	or	x11,x11,x13
80002f28:	013fdd13          	srli	x26,x31,0x13
80002f2c:	00df9693          	slli	x13,x31,0xd
80002f30:	01a6e6b3          	or	x13,x13,x26
80002f34:	00d5c5b3          	xor	x11,x11,x13
80002f38:	00afd693          	srli	x13,x31,0xa
80002f3c:	00d5c5b3          	xor	x11,x11,x13
80002f40:	00bc8cb3          	add	x25,x25,x11
80002f44:	fe0aa583          	lw	x11,-32(x21)
80002f48:	010bc6b3          	xor	x13,x23,x16
80002f4c:	00c6f6b3          	and	x13,x13,x12
80002f50:	00bc85b3          	add	x11,x25,x11
80002f54:	0176c6b3          	xor	x13,x13,x23
80002f58:	00e58733          	add	x14,x11,x14
80002f5c:	00e68733          	add	x14,x13,x14
80002f60:	00665d13          	srli	x26,x12,0x6
80002f64:	01a61693          	slli	x13,x12,0x1a
80002f68:	00dd6d33          	or	x26,x26,x13
80002f6c:	00b65593          	srli	x11,x12,0xb
80002f70:	01561693          	slli	x13,x12,0x15
80002f74:	00d5e6b3          	or	x13,x11,x13
80002f78:	00dd46b3          	xor	x13,x26,x13
80002f7c:	00761593          	slli	x11,x12,0x7
80002f80:	01965d13          	srli	x26,x12,0x19
80002f84:	01a5e5b3          	or	x11,x11,x26
80002f88:	00b6c6b3          	xor	x13,x13,x11
80002f8c:	00e686b3          	add	x13,x13,x14
80002f90:	002b5d13          	srli	x26,x22,0x2
80002f94:	01eb1713          	slli	x14,x22,0x1e
80002f98:	00ed6db3          	or	x27,x26,x14
80002f9c:	00db5593          	srli	x11,x22,0xd
80002fa0:	013b1713          	slli	x14,x22,0x13
80002fa4:	00e5e733          	or	x14,x11,x14
80002fa8:	00edcd33          	xor	x26,x27,x14
80002fac:	00ab1593          	slli	x11,x22,0xa
80002fb0:	016b5713          	srli	x14,x22,0x16
80002fb4:	00e5e733          	or	x14,x11,x14
80002fb8:	016345b3          	xor	x11,x6,x22
80002fbc:	00ed4733          	xor	x14,x26,x14
80002fc0:	0115f5b3          	and	x11,x11,x17
80002fc4:	01637d33          	and	x26,x6,x22
80002fc8:	01a5c5b3          	xor	x11,x11,x26
80002fcc:	00b70733          	add	x14,x14,x11
80002fd0:	00d70733          	add	x14,x14,x13
80002fd4:	00d787b3          	add	x15,x15,x13
80002fd8:	0072d593          	srli	x11,x5,0x7
80002fdc:	01929693          	slli	x13,x5,0x19
80002fe0:	0122dd13          	srli	x26,x5,0x12
80002fe4:	00d5e5b3          	or	x11,x11,x13
80002fe8:	00e29693          	slli	x13,x5,0xe
80002fec:	01a6e6b3          	or	x13,x13,x26
80002ff0:	00d5c5b3          	xor	x11,x11,x13
80002ff4:	0032d693          	srli	x13,x5,0x3
80002ff8:	00d5c5b3          	xor	x11,x11,x13
80002ffc:	013585b3          	add	x11,x11,x19
80003000:	00858433          	add	x8,x11,x8
80003004:	011ed693          	srli	x13,x29,0x11
80003008:	00fe9593          	slli	x11,x29,0xf
8000300c:	00d5e5b3          	or	x11,x11,x13
80003010:	013edd13          	srli	x26,x29,0x13
80003014:	00de9693          	slli	x13,x29,0xd
80003018:	01a6e6b3          	or	x13,x13,x26
8000301c:	00d5c5b3          	xor	x11,x11,x13
80003020:	00aed693          	srli	x13,x29,0xa
80003024:	00d5c5b3          	xor	x11,x11,x13
80003028:	00b40433          	add	x8,x8,x11
8000302c:	fe4aa583          	lw	x11,-28(x21)
80003030:	00c846b3          	xor	x13,x16,x12
80003034:	00f6f6b3          	and	x13,x13,x15
80003038:	00b405b3          	add	x11,x8,x11
8000303c:	0106c6b3          	xor	x13,x13,x16
80003040:	01758bb3          	add	x23,x11,x23
80003044:	01768bb3          	add	x23,x13,x23
80003048:	0067dd13          	srli	x26,x15,0x6
8000304c:	01a79693          	slli	x13,x15,0x1a
80003050:	00dd6d33          	or	x26,x26,x13
80003054:	00b7d593          	srli	x11,x15,0xb
80003058:	01579693          	slli	x13,x15,0x15
8000305c:	00d5e6b3          	or	x13,x11,x13
80003060:	00dd46b3          	xor	x13,x26,x13
80003064:	00779593          	slli	x11,x15,0x7
80003068:	0197dd13          	srli	x26,x15,0x19
8000306c:	01a5e5b3          	or	x11,x11,x26
80003070:	00b6c6b3          	xor	x13,x13,x11
80003074:	01768bb3          	add	x23,x13,x23
80003078:	00275d13          	srli	x26,x14,0x2
8000307c:	01e71693          	slli	x13,x14,0x1e
80003080:	00dd6db3          	or	x27,x26,x13
80003084:	00d75593          	srli	x11,x14,0xd
80003088:	01371693          	slli	x13,x14,0x13
8000308c:	00d5e6b3          	or	x13,x11,x13
80003090:	00ddcd33          	xor	x26,x27,x13
80003094:	00a71593          	slli	x11,x14,0xa
80003098:	01675693          	srli	x13,x14,0x16
8000309c:	00d5e6b3          	or	x13,x11,x13
800030a0:	00eb45b3          	xor	x11,x22,x14
800030a4:	00dd46b3          	xor	x13,x26,x13
800030a8:	0065f5b3          	and	x11,x11,x6
800030ac:	00eb7d33          	and	x26,x22,x14
800030b0:	01a5c5b3          	xor	x11,x11,x26
800030b4:	00b686b3          	add	x13,x13,x11
800030b8:	017686b3          	add	x13,x13,x23
800030bc:	017888b3          	add	x17,x17,x23
800030c0:	019f1593          	slli	x11,x30,0x19
800030c4:	007f5b93          	srli	x23,x30,0x7
800030c8:	012f5d13          	srli	x26,x30,0x12
800030cc:	00bbebb3          	or	x23,x23,x11
800030d0:	00ef1593          	slli	x11,x30,0xe
800030d4:	01a5e5b3          	or	x11,x11,x26
800030d8:	00bbcbb3          	xor	x23,x23,x11
800030dc:	003f5593          	srli	x11,x30,0x3
800030e0:	00bbcbb3          	xor	x23,x23,x11
800030e4:	012b8bb3          	add	x23,x23,x18
800030e8:	005b82b3          	add	x5,x23,x5
800030ec:	011cd593          	srli	x11,x25,0x11
800030f0:	00fc9b93          	slli	x23,x25,0xf
800030f4:	00bbebb3          	or	x23,x23,x11
800030f8:	013cdd13          	srli	x26,x25,0x13
800030fc:	00dc9593          	slli	x11,x25,0xd
80003100:	01a5e5b3          	or	x11,x11,x26
80003104:	00bbcbb3          	xor	x23,x23,x11
80003108:	fe8aad03          	lw	x26,-24(x21)
8000310c:	00acd593          	srli	x11,x25,0xa
80003110:	00bbcbb3          	xor	x23,x23,x11
80003114:	017282b3          	add	x5,x5,x23
80003118:	00f64bb3          	xor	x23,x12,x15
8000311c:	011bfbb3          	and	x23,x23,x17
80003120:	01a28d33          	add	x26,x5,x26
80003124:	00cbc5b3          	xor	x11,x23,x12
80003128:	010d0833          	add	x16,x26,x16
8000312c:	01058bb3          	add	x23,x11,x16
80003130:	0068d813          	srli	x16,x17,0x6
80003134:	01a89593          	slli	x11,x17,0x1a
80003138:	00b865b3          	or	x11,x16,x11
8000313c:	00b8dd13          	srli	x26,x17,0xb
80003140:	01589813          	slli	x16,x17,0x15
80003144:	010d6833          	or	x16,x26,x16
80003148:	0105c833          	xor	x16,x11,x16
8000314c:	0198dd13          	srli	x26,x17,0x19
80003150:	00789593          	slli	x11,x17,0x7
80003154:	01a5e5b3          	or	x11,x11,x26
80003158:	00b845b3          	xor	x11,x16,x11
8000315c:	01758833          	add	x16,x11,x23
80003160:	0026dd13          	srli	x26,x13,0x2
80003164:	01e69593          	slli	x11,x13,0x1e
80003168:	00bd6db3          	or	x27,x26,x11
8000316c:	00d6db93          	srli	x23,x13,0xd
80003170:	01369593          	slli	x11,x13,0x13
80003174:	00bbe5b3          	or	x11,x23,x11
80003178:	00bdcd33          	xor	x26,x27,x11
8000317c:	00a69b93          	slli	x23,x13,0xa
80003180:	0166d593          	srli	x11,x13,0x16
80003184:	00bbe5b3          	or	x11,x23,x11
80003188:	00d74bb3          	xor	x23,x14,x13
8000318c:	00bd45b3          	xor	x11,x26,x11
80003190:	016bfbb3          	and	x23,x23,x22
80003194:	00d77d33          	and	x26,x14,x13
80003198:	01abcbb3          	xor	x23,x23,x26
8000319c:	017585b3          	add	x11,x11,x23
800031a0:	010585b3          	add	x11,x11,x16
800031a4:	01030333          	add	x6,x6,x16
800031a8:	007e5b93          	srli	x23,x28,0x7
800031ac:	019e1813          	slli	x16,x28,0x19
800031b0:	012e5d13          	srli	x26,x28,0x12
800031b4:	010bebb3          	or	x23,x23,x16
800031b8:	00ee1813          	slli	x16,x28,0xe
800031bc:	01a86833          	or	x16,x16,x26
800031c0:	010bcbb3          	xor	x23,x23,x16
800031c4:	003e5813          	srli	x16,x28,0x3
800031c8:	010bcbb3          	xor	x23,x23,x16
800031cc:	009b8bb3          	add	x23,x23,x9
800031d0:	01eb8f33          	add	x30,x23,x30
800031d4:	01145813          	srli	x16,x8,0x11
800031d8:	00f41b93          	slli	x23,x8,0xf
800031dc:	010bebb3          	or	x23,x23,x16
800031e0:	01345d13          	srli	x26,x8,0x13
800031e4:	00d41813          	slli	x16,x8,0xd
800031e8:	01a86833          	or	x16,x16,x26
800031ec:	010bcbb3          	xor	x23,x23,x16
800031f0:	fecaad03          	lw	x26,-20(x21)
800031f4:	00a45813          	srli	x16,x8,0xa
800031f8:	010bcbb3          	xor	x23,x23,x16
800031fc:	017f0f33          	add	x30,x30,x23
80003200:	0117cbb3          	xor	x23,x15,x17
80003204:	006bfbb3          	and	x23,x23,x6
80003208:	01af0d33          	add	x26,x30,x26
8000320c:	00fbc833          	xor	x16,x23,x15
80003210:	00cd0633          	add	x12,x26,x12
80003214:	00c80bb3          	add	x23,x16,x12
80003218:	01a31613          	slli	x12,x6,0x1a
8000321c:	00635813          	srli	x16,x6,0x6
80003220:	00c86833          	or	x16,x16,x12
80003224:	00b35d13          	srli	x26,x6,0xb
80003228:	01531613          	slli	x12,x6,0x15
8000322c:	00cd6633          	or	x12,x26,x12
80003230:	00c84633          	xor	x12,x16,x12
80003234:	01935d13          	srli	x26,x6,0x19
80003238:	00731813          	slli	x16,x6,0x7
8000323c:	01a86833          	or	x16,x16,x26
80003240:	01064833          	xor	x16,x12,x16
80003244:	01780633          	add	x12,x16,x23
80003248:	0025dd13          	srli	x26,x11,0x2
8000324c:	01e59813          	slli	x16,x11,0x1e
80003250:	010d6db3          	or	x27,x26,x16
80003254:	00d5db93          	srli	x23,x11,0xd
80003258:	01359813          	slli	x16,x11,0x13
8000325c:	010be833          	or	x16,x23,x16
80003260:	010dcd33          	xor	x26,x27,x16
80003264:	00a59b93          	slli	x23,x11,0xa
80003268:	0165d813          	srli	x16,x11,0x16
8000326c:	010be833          	or	x16,x23,x16
80003270:	00b6cbb3          	xor	x23,x13,x11
80003274:	010d4833          	xor	x16,x26,x16
80003278:	00ebfbb3          	and	x23,x23,x14
8000327c:	00b6fd33          	and	x26,x13,x11
80003280:	01abcbb3          	xor	x23,x23,x26
80003284:	01780833          	add	x16,x16,x23
80003288:	00c80833          	add	x16,x16,x12
8000328c:	00cb0b33          	add	x22,x22,x12
80003290:	00812603          	lw	x12,8(x2)
80003294:	00812d03          	lw	x26,8(x2)
80003298:	00765b93          	srli	x23,x12,0x7
8000329c:	01961613          	slli	x12,x12,0x19
800032a0:	00cbebb3          	or	x23,x23,x12
800032a4:	00812603          	lw	x12,8(x2)
800032a8:	012d5d13          	srli	x26,x26,0x12
800032ac:	00e61613          	slli	x12,x12,0xe
800032b0:	01a66633          	or	x12,x12,x26
800032b4:	00cbcbb3          	xor	x23,x23,x12
800032b8:	00812603          	lw	x12,8(x2)
800032bc:	0132dd13          	srli	x26,x5,0x13
800032c0:	00365613          	srli	x12,x12,0x3
800032c4:	00cbcbb3          	xor	x23,x23,x12
800032c8:	007b8bb3          	add	x23,x23,x7
800032cc:	01cb8e33          	add	x28,x23,x28
800032d0:	0112d613          	srli	x12,x5,0x11
800032d4:	00f29b93          	slli	x23,x5,0xf
800032d8:	00cbebb3          	or	x23,x23,x12
800032dc:	00d29613          	slli	x12,x5,0xd
800032e0:	01a66633          	or	x12,x12,x26
800032e4:	00cbcbb3          	xor	x23,x23,x12
800032e8:	00a2d613          	srli	x12,x5,0xa
800032ec:	00cbcbb3          	xor	x23,x23,x12
800032f0:	017e0e33          	add	x28,x28,x23
800032f4:	ff0aab83          	lw	x23,-16(x21)
800032f8:	0068c633          	xor	x12,x17,x6
800032fc:	01667633          	and	x12,x12,x22
80003300:	017e0bb3          	add	x23,x28,x23
80003304:	01164633          	xor	x12,x12,x17
80003308:	00fb87b3          	add	x15,x23,x15
8000330c:	00f607b3          	add	x15,x12,x15
80003310:	006b5d13          	srli	x26,x22,0x6
80003314:	01ab1613          	slli	x12,x22,0x1a
80003318:	00cd6d33          	or	x26,x26,x12
8000331c:	00bb5b93          	srli	x23,x22,0xb
80003320:	015b1613          	slli	x12,x22,0x15
80003324:	00cbe633          	or	x12,x23,x12
80003328:	00cd4633          	xor	x12,x26,x12
8000332c:	007b1b93          	slli	x23,x22,0x7
80003330:	019b5d13          	srli	x26,x22,0x19
80003334:	01abebb3          	or	x23,x23,x26
80003338:	01764633          	xor	x12,x12,x23
8000333c:	00f60633          	add	x12,x12,x15
80003340:	00285d13          	srli	x26,x16,0x2
80003344:	01e81793          	slli	x15,x16,0x1e
80003348:	00fd6db3          	or	x27,x26,x15
8000334c:	00d85b93          	srli	x23,x16,0xd
80003350:	01381793          	slli	x15,x16,0x13
80003354:	00fbe7b3          	or	x15,x23,x15
80003358:	00fdcd33          	xor	x26,x27,x15
8000335c:	00a81b93          	slli	x23,x16,0xa
80003360:	01685793          	srli	x15,x16,0x16
80003364:	00fbe7b3          	or	x15,x23,x15
80003368:	0105cbb3          	xor	x23,x11,x16
8000336c:	00fd47b3          	xor	x15,x26,x15
80003370:	00dbfbb3          	and	x23,x23,x13
80003374:	0105fd33          	and	x26,x11,x16
80003378:	01abcbb3          	xor	x23,x23,x26
8000337c:	017787b3          	add	x15,x15,x23
80003380:	00c787b3          	add	x15,x15,x12
80003384:	00c70733          	add	x14,x14,x12
80003388:	007c5b93          	srli	x23,x24,0x7
8000338c:	019c1613          	slli	x12,x24,0x19
80003390:	012c5d13          	srli	x26,x24,0x12
80003394:	00cbebb3          	or	x23,x23,x12
80003398:	00ec1613          	slli	x12,x24,0xe
8000339c:	01a66633          	or	x12,x12,x26
800033a0:	00cbcbb3          	xor	x23,x23,x12
800033a4:	003c5613          	srli	x12,x24,0x3
800033a8:	00cbc633          	xor	x12,x23,x12
800033ac:	00812b83          	lw	x23,8(x2)
800033b0:	01f60633          	add	x12,x12,x31
800033b4:	00ff1d13          	slli	x26,x30,0xf
800033b8:	01760633          	add	x12,x12,x23
800033bc:	011f5b93          	srli	x23,x30,0x11
800033c0:	017d6d33          	or	x26,x26,x23
800033c4:	013f5d93          	srli	x27,x30,0x13
800033c8:	00df1b93          	slli	x23,x30,0xd
800033cc:	01bbebb3          	or	x23,x23,x27
800033d0:	017d4d33          	xor	x26,x26,x23
800033d4:	00af5b93          	srli	x23,x30,0xa
800033d8:	017d4d33          	xor	x26,x26,x23
800033dc:	01a60633          	add	x12,x12,x26
800033e0:	00c12423          	sw	x12,8(x2)
800033e4:	00812b83          	lw	x23,8(x2)
800033e8:	ff4aa603          	lw	x12,-12(x21)
800033ec:	00675d13          	srli	x26,x14,0x6
800033f0:	00cb8633          	add	x12,x23,x12
800033f4:	01634bb3          	xor	x23,x6,x22
800033f8:	00ebfbb3          	and	x23,x23,x14
800033fc:	006bcbb3          	xor	x23,x23,x6
80003400:	011608b3          	add	x17,x12,x17
80003404:	01a71613          	slli	x12,x14,0x1a
80003408:	017888b3          	add	x17,x17,x23
8000340c:	00cd6d33          	or	x26,x26,x12
80003410:	00b75b93          	srli	x23,x14,0xb
80003414:	01571613          	slli	x12,x14,0x15
80003418:	00cbe633          	or	x12,x23,x12
8000341c:	00cd4633          	xor	x12,x26,x12
80003420:	00771b93          	slli	x23,x14,0x7
80003424:	01975d13          	srli	x26,x14,0x19
80003428:	01abebb3          	or	x23,x23,x26
8000342c:	01764633          	xor	x12,x12,x23
80003430:	01160633          	add	x12,x12,x17
80003434:	0027dd13          	srli	x26,x15,0x2
80003438:	01e79893          	slli	x17,x15,0x1e
8000343c:	011d6db3          	or	x27,x26,x17
80003440:	00d7db93          	srli	x23,x15,0xd
80003444:	01379893          	slli	x17,x15,0x13
80003448:	011be8b3          	or	x17,x23,x17
8000344c:	011dcd33          	xor	x26,x27,x17
80003450:	00a79b93          	slli	x23,x15,0xa
80003454:	0167d893          	srli	x17,x15,0x16
80003458:	011be8b3          	or	x17,x23,x17
8000345c:	00f84bb3          	xor	x23,x16,x15
80003460:	011d48b3          	xor	x17,x26,x17
80003464:	00bbfbb3          	and	x23,x23,x11
80003468:	00f87d33          	and	x26,x16,x15
8000346c:	01abcbb3          	xor	x23,x23,x26
80003470:	017888b3          	add	x17,x17,x23
80003474:	00c888b3          	add	x17,x17,x12
80003478:	00c686b3          	add	x13,x13,x12
8000347c:	00412603          	lw	x12,4(x2)
80003480:	00412d03          	lw	x26,4(x2)
80003484:	00765b93          	srli	x23,x12,0x7
80003488:	01961613          	slli	x12,x12,0x19
8000348c:	00cbebb3          	or	x23,x23,x12
80003490:	00412603          	lw	x12,4(x2)
80003494:	012d5d13          	srli	x26,x26,0x12
80003498:	00e61613          	slli	x12,x12,0xe
8000349c:	01a66633          	or	x12,x12,x26
800034a0:	00cbcbb3          	xor	x23,x23,x12
800034a4:	00412603          	lw	x12,4(x2)
800034a8:	013e5d13          	srli	x26,x28,0x13
800034ac:	00365613          	srli	x12,x12,0x3
800034b0:	00cbcbb3          	xor	x23,x23,x12
800034b4:	01db8bb3          	add	x23,x23,x29
800034b8:	018b8c33          	add	x24,x23,x24
800034bc:	011e5613          	srli	x12,x28,0x11
800034c0:	00fe1b93          	slli	x23,x28,0xf
800034c4:	00cbebb3          	or	x23,x23,x12
800034c8:	00de1613          	slli	x12,x28,0xd
800034cc:	01a66633          	or	x12,x12,x26
800034d0:	00cbcbb3          	xor	x23,x23,x12
800034d4:	00ae5613          	srli	x12,x28,0xa
800034d8:	00cbcbb3          	xor	x23,x23,x12
800034dc:	017c0c33          	add	x24,x24,x23
800034e0:	ff8aab83          	lw	x23,-8(x21)
800034e4:	00eb4633          	xor	x12,x22,x14
800034e8:	00d67633          	and	x12,x12,x13
800034ec:	017c0bb3          	add	x23,x24,x23
800034f0:	01664633          	xor	x12,x12,x22
800034f4:	006b8333          	add	x6,x23,x6
800034f8:	00660333          	add	x6,x12,x6
800034fc:	0066dd13          	srli	x26,x13,0x6
80003500:	01a69613          	slli	x12,x13,0x1a
80003504:	00cd6d33          	or	x26,x26,x12
80003508:	00b6db93          	srli	x23,x13,0xb
8000350c:	01569613          	slli	x12,x13,0x15
80003510:	00cbe633          	or	x12,x23,x12
80003514:	00cd4633          	xor	x12,x26,x12
80003518:	00769b93          	slli	x23,x13,0x7
8000351c:	0196dd13          	srli	x26,x13,0x19
80003520:	01abebb3          	or	x23,x23,x26
80003524:	01764633          	xor	x12,x12,x23
80003528:	00660633          	add	x12,x12,x6
8000352c:	0028dd13          	srli	x26,x17,0x2
80003530:	01e89313          	slli	x6,x17,0x1e
80003534:	006d6db3          	or	x27,x26,x6
80003538:	00d8db93          	srli	x23,x17,0xd
8000353c:	01389313          	slli	x6,x17,0x13
80003540:	006be333          	or	x6,x23,x6
80003544:	006dcd33          	xor	x26,x27,x6
80003548:	00a89b93          	slli	x23,x17,0xa
8000354c:	0168d313          	srli	x6,x17,0x16
80003550:	006be333          	or	x6,x23,x6
80003554:	0117cbb3          	xor	x23,x15,x17
80003558:	006d4333          	xor	x6,x26,x6
8000355c:	010bfbb3          	and	x23,x23,x16
80003560:	0117fd33          	and	x26,x15,x17
80003564:	01abcbb3          	xor	x23,x23,x26
80003568:	01730333          	add	x6,x6,x23
8000356c:	00c30333          	add	x6,x6,x12
80003570:	00c585b3          	add	x11,x11,x12
80003574:	00012603          	lw	x12,0(x2)
80003578:	00012d03          	lw	x26,0(x2)
8000357c:	00812d83          	lw	x27,8(x2)
80003580:	00765b93          	srli	x23,x12,0x7
80003584:	01961613          	slli	x12,x12,0x19
80003588:	00cbebb3          	or	x23,x23,x12
8000358c:	00012603          	lw	x12,0(x2)
80003590:	012d5d13          	srli	x26,x26,0x12
80003594:	013ddd93          	srli	x27,x27,0x13
80003598:	00e61613          	slli	x12,x12,0xe
8000359c:	01a66633          	or	x12,x12,x26
800035a0:	00cbcbb3          	xor	x23,x23,x12
800035a4:	00012603          	lw	x12,0(x2)
800035a8:	00365613          	srli	x12,x12,0x3
800035ac:	00cbc633          	xor	x12,x23,x12
800035b0:	00412b83          	lw	x23,4(x2)
800035b4:	01960633          	add	x12,x12,x25
800035b8:	01760633          	add	x12,x12,x23
800035bc:	00812b83          	lw	x23,8(x2)
800035c0:	00fb9d13          	slli	x26,x23,0xf
800035c4:	011bdb93          	srli	x23,x23,0x11
800035c8:	017d6d33          	or	x26,x26,x23
800035cc:	00812b83          	lw	x23,8(x2)
800035d0:	00db9b93          	slli	x23,x23,0xd
800035d4:	01bbebb3          	or	x23,x23,x27
800035d8:	017d4d33          	xor	x26,x26,x23
800035dc:	00812b83          	lw	x23,8(x2)
800035e0:	00abdb93          	srli	x23,x23,0xa
800035e4:	017d4d33          	xor	x26,x26,x23
800035e8:	01a60633          	add	x12,x12,x26
800035ec:	00c12223          	sw	x12,4(x2)
800035f0:	00412d03          	lw	x26,4(x2)
800035f4:	ffcaab83          	lw	x23,-4(x21)
800035f8:	00d74633          	xor	x12,x14,x13
800035fc:	00b67633          	and	x12,x12,x11
80003600:	017d0bb3          	add	x23,x26,x23
80003604:	00e64633          	xor	x12,x12,x14
80003608:	016b8b33          	add	x22,x23,x22
8000360c:	01660b33          	add	x22,x12,x22
80003610:	0065dd13          	srli	x26,x11,0x6
80003614:	01a59613          	slli	x12,x11,0x1a
80003618:	00cd6d33          	or	x26,x26,x12
8000361c:	00b5db93          	srli	x23,x11,0xb
80003620:	01559613          	slli	x12,x11,0x15
80003624:	00cbe633          	or	x12,x23,x12
80003628:	00cd4633          	xor	x12,x26,x12
8000362c:	00759b93          	slli	x23,x11,0x7
80003630:	0195dd13          	srli	x26,x11,0x19
80003634:	01abebb3          	or	x23,x23,x26
80003638:	01764633          	xor	x12,x12,x23
8000363c:	01660633          	add	x12,x12,x22
80003640:	00235d13          	srli	x26,x6,0x2
80003644:	01e31b13          	slli	x22,x6,0x1e
80003648:	016d6db3          	or	x27,x26,x22
8000364c:	00d35b93          	srli	x23,x6,0xd
80003650:	01331b13          	slli	x22,x6,0x13
80003654:	016beb33          	or	x22,x23,x22
80003658:	016dcd33          	xor	x26,x27,x22
8000365c:	00a31b93          	slli	x23,x6,0xa
80003660:	01635b13          	srli	x22,x6,0x16
80003664:	016beb33          	or	x22,x23,x22
80003668:	0068cbb3          	xor	x23,x17,x6
8000366c:	016d4b33          	xor	x22,x26,x22
80003670:	00fbfbb3          	and	x23,x23,x15
80003674:	0068fd33          	and	x26,x17,x6
80003678:	01abcbb3          	xor	x23,x23,x26
8000367c:	017b0b33          	add	x22,x22,x23
80003680:	00c80833          	add	x16,x16,x12
80003684:	00cb0b33          	add	x22,x22,x12
80003688:	02c12603          	lw	x12,44(x2)
8000368c:	8eca9463          	bne	x21,x12,80002774 <_nettle_sha256_compress+0x600>
80003690:	00c12603          	lw	x12,12(x2)
80003694:	09c12403          	lw	x8,156(x2)
80003698:	09812483          	lw	x9,152(x2)
8000369c:	01660b33          	add	x22,x12,x22
800036a0:	01012603          	lw	x12,16(x2)
800036a4:	01652023          	sw	x22,0(x10)
800036a8:	09412903          	lw	x18,148(x2)
800036ac:	00660333          	add	x6,x12,x6
800036b0:	01412603          	lw	x12,20(x2)
800036b4:	00652223          	sw	x6,4(x10)
800036b8:	09012983          	lw	x19,144(x2)
800036bc:	011608b3          	add	x17,x12,x17
800036c0:	01812603          	lw	x12,24(x2)
800036c4:	01152423          	sw	x17,8(x10)
800036c8:	08c12a03          	lw	x20,140(x2)
800036cc:	00f607b3          	add	x15,x12,x15
800036d0:	00f52623          	sw	x15,12(x10)
800036d4:	01c12783          	lw	x15,28(x2)
800036d8:	08812a83          	lw	x21,136(x2)
800036dc:	08412b03          	lw	x22,132(x2)
800036e0:	01078833          	add	x16,x15,x16
800036e4:	02012783          	lw	x15,32(x2)
800036e8:	01052823          	sw	x16,16(x10)
800036ec:	08012b83          	lw	x23,128(x2)
800036f0:	00b785b3          	add	x11,x15,x11
800036f4:	02412783          	lw	x15,36(x2)
800036f8:	00b52a23          	sw	x11,20(x10)
800036fc:	07c12c03          	lw	x24,124(x2)
80003700:	00d786b3          	add	x13,x15,x13
80003704:	02812783          	lw	x15,40(x2)
80003708:	00d52c23          	sw	x13,24(x10)
8000370c:	07812c83          	lw	x25,120(x2)
80003710:	00e78733          	add	x14,x15,x14
80003714:	00e52e23          	sw	x14,28(x10)
80003718:	07412d03          	lw	x26,116(x2)
8000371c:	07012d83          	lw	x27,112(x2)
80003720:	0a010113          	addi	x2,x2,160
80003724:	00008067          	jalr	x0,0(x1)

80003728 <sha256_update>:
80003728:	fd010113          	addi	x2,x2,-48
8000372c:	01512a23          	sw	x21,20(x2)
80003730:	06852a83          	lw	x21,104(x10)
80003734:	02812423          	sw	x8,40(x2)
80003738:	02912223          	sw	x9,36(x2)
8000373c:	03212023          	sw	x18,32(x2)
80003740:	01412c23          	sw	x20,24(x2)
80003744:	02112623          	sw	x1,44(x2)
80003748:	01312e23          	sw	x19,28(x2)
8000374c:	01612823          	sw	x22,16(x2)
80003750:	01712623          	sw	x23,12(x2)
80003754:	00050413          	addi	x8,x10,0
80003758:	00058493          	addi	x9,x11,0
8000375c:	00060913          	addi	x18,x12,0
80003760:	02850a13          	addi	x20,x10,40
80003764:	0a0a8063          	beq	x21,x0,80003804 <sha256_update+0xdc>
80003768:	04000993          	addi	x19,x0,64
8000376c:	415989b3          	sub	x19,x19,x21
80003770:	015a0533          	add	x10,x20,x21
80003774:	0535f463          	bgeu	x11,x19,800037bc <sha256_update+0x94>
80003778:	00058613          	addi	x12,x11,0
8000377c:	00090593          	addi	x11,x18,0
80003780:	4b0000ef          	jal	x1,80003c30 <memcpy>
80003784:	06842583          	lw	x11,104(x8)
80003788:	009584b3          	add	x9,x11,x9
8000378c:	06942423          	sw	x9,104(x8)
80003790:	02c12083          	lw	x1,44(x2)
80003794:	02812403          	lw	x8,40(x2)
80003798:	02412483          	lw	x9,36(x2)
8000379c:	02012903          	lw	x18,32(x2)
800037a0:	01c12983          	lw	x19,28(x2)
800037a4:	01812a03          	lw	x20,24(x2)
800037a8:	01412a83          	lw	x21,20(x2)
800037ac:	01012b03          	lw	x22,16(x2)
800037b0:	00c12b83          	lw	x23,12(x2)
800037b4:	03010113          	addi	x2,x2,48
800037b8:	00008067          	jalr	x0,0(x1)
800037bc:	00090593          	addi	x11,x18,0
800037c0:	00098613          	addi	x12,x19,0
800037c4:	46c000ef          	jal	x1,80003c30 <memcpy>
800037c8:	80004637          	lui	x12,0x80004
800037cc:	35c60613          	addi	x12,x12,860 # 8000435c <_end+0xfffffeac>
800037d0:	000a0593          	addi	x11,x20,0
800037d4:	00040513          	addi	x10,x8,0
800037d8:	99dfe0ef          	jal	x1,80002174 <_nettle_sha256_compress>
800037dc:	02042783          	lw	x15,32(x8)
800037e0:	02442683          	lw	x13,36(x8)
800037e4:	fc048493          	addi	x9,x9,-64
800037e8:	00178713          	addi	x14,x15,1
800037ec:	00f737b3          	sltu	x15,x14,x15
800037f0:	00d787b3          	add	x15,x15,x13
800037f4:	02e42023          	sw	x14,32(x8)
800037f8:	02f42223          	sw	x15,36(x8)
800037fc:	01390933          	add	x18,x18,x19
80003800:	009a84b3          	add	x9,x21,x9
80003804:	80004ab7          	lui	x21,0x80004
80003808:	00048993          	addi	x19,x9,0
8000380c:	00990bb3          	add	x23,x18,x9
80003810:	03f00b13          	addi	x22,x0,63
80003814:	35ca8a93          	addi	x21,x21,860 # 8000435c <_end+0xfffffeac>
80003818:	413b85b3          	sub	x11,x23,x19
8000381c:	033b6263          	bltu	x22,x19,80003840 <sha256_update+0x118>
80003820:	03f4f993          	andi	x19,x9,63
80003824:	fc04f593          	andi	x11,x9,-64
80003828:	00098613          	addi	x12,x19,0
8000382c:	00b905b3          	add	x11,x18,x11
80003830:	000a0513          	addi	x10,x20,0
80003834:	3fc000ef          	jal	x1,80003c30 <memcpy>
80003838:	07342423          	sw	x19,104(x8)
8000383c:	f55ff06f          	jal	x0,80003790 <sha256_update+0x68>
80003840:	000a8613          	addi	x12,x21,0
80003844:	00040513          	addi	x10,x8,0
80003848:	92dfe0ef          	jal	x1,80002174 <_nettle_sha256_compress>
8000384c:	02042783          	lw	x15,32(x8)
80003850:	02442683          	lw	x13,36(x8)
80003854:	fc098993          	addi	x19,x19,-64
80003858:	00178713          	addi	x14,x15,1
8000385c:	00f737b3          	sltu	x15,x14,x15
80003860:	00d787b3          	add	x15,x15,x13
80003864:	02e42023          	sw	x14,32(x8)
80003868:	02f42223          	sw	x15,36(x8)
8000386c:	fadff06f          	jal	x0,80003818 <sha256_update+0xf0>

80003870 <sha256_digest>:
80003870:	fe010113          	addi	x2,x2,-32
80003874:	00112e23          	sw	x1,28(x2)
80003878:	00812c23          	sw	x8,24(x2)
8000387c:	00912a23          	sw	x9,20(x2)
80003880:	01212823          	sw	x18,16(x2)
80003884:	01312623          	sw	x19,12(x2)
80003888:	01412423          	sw	x20,8(x2)
8000388c:	01512223          	sw	x21,4(x2)
80003890:	02000793          	addi	x15,x0,32
80003894:	00b7f663          	bgeu	x15,x11,800038a0 <sha256_digest+0x30>
80003898:	00100513          	addi	x10,x0,1
8000389c:	360000ef          	jal	x1,80003bfc <exit>
800038a0:	06852783          	lw	x15,104(x10)
800038a4:	03f00713          	addi	x14,x0,63
800038a8:	00050413          	addi	x8,x10,0
800038ac:	fef766e3          	bltu	x14,x15,80003898 <sha256_digest+0x28>
800038b0:	00178513          	addi	x10,x15,1
800038b4:	f8000713          	addi	x14,x0,-128
800038b8:	00f407b3          	add	x15,x8,x15
800038bc:	02e78423          	sb	x14,40(x15)
800038c0:	80004ab7          	lui	x21,0x80004
800038c4:	03800793          	addi	x15,x0,56
800038c8:	00058493          	addi	x9,x11,0
800038cc:	00060993          	addi	x19,x12,0
800038d0:	02840913          	addi	x18,x8,40
800038d4:	35ca8a13          	addi	x20,x21,860 # 8000435c <_end+0xfffffeac>
800038d8:	02a7f663          	bgeu	x15,x10,80003904 <sha256_digest+0x94>
800038dc:	04000613          	addi	x12,x0,64
800038e0:	40a60633          	sub	x12,x12,x10
800038e4:	00000593          	addi	x11,x0,0
800038e8:	00a90533          	add	x10,x18,x10
800038ec:	1f4000ef          	jal	x1,80003ae0 <memset>
800038f0:	00040513          	addi	x10,x8,0
800038f4:	35ca8613          	addi	x12,x21,860
800038f8:	00090593          	addi	x11,x18,0
800038fc:	879fe0ef          	jal	x1,80002174 <_nettle_sha256_compress>
80003900:	00000513          	addi	x10,x0,0
80003904:	03800613          	addi	x12,x0,56
80003908:	40a60633          	sub	x12,x12,x10
8000390c:	00000593          	addi	x11,x0,0
80003910:	00a90533          	add	x10,x18,x10
80003914:	1cc000ef          	jal	x1,80003ae0 <memset>
80003918:	02042783          	lw	x15,32(x8)
8000391c:	02442703          	lw	x14,36(x8)
80003920:	000a0613          	addi	x12,x20,0
80003924:	0177d693          	srli	x13,x15,0x17
80003928:	00971713          	slli	x14,x14,0x9
8000392c:	00e6e733          	or	x14,x13,x14
80003930:	06842683          	lw	x13,104(x8)
80003934:	00979793          	slli	x15,x15,0x9
80003938:	06e401a3          	sb	x14,99(x8)
8000393c:	00369693          	slli	x13,x13,0x3
80003940:	00d7e7b3          	or	x15,x15,x13
80003944:	01875693          	srli	x13,x14,0x18
80003948:	06d40023          	sb	x13,96(x8)
8000394c:	01075693          	srli	x13,x14,0x10
80003950:	06d400a3          	sb	x13,97(x8)
80003954:	00875693          	srli	x13,x14,0x8
80003958:	0187d713          	srli	x14,x15,0x18
8000395c:	06e40223          	sb	x14,100(x8)
80003960:	0107d713          	srli	x14,x15,0x10
80003964:	06e402a3          	sb	x14,101(x8)
80003968:	00879713          	slli	x14,x15,0x8
8000396c:	01079793          	slli	x15,x15,0x10
80003970:	0107d793          	srli	x15,x15,0x10
80003974:	0087d793          	srli	x15,x15,0x8
80003978:	00f767b3          	or	x15,x14,x15
8000397c:	06d40123          	sb	x13,98(x8)
80003980:	06f41323          	sh	x15,102(x8)
80003984:	00090593          	addi	x11,x18,0
80003988:	00040513          	addi	x10,x8,0
8000398c:	fe8fe0ef          	jal	x1,80002174 <_nettle_sha256_compress>
80003990:	00048513          	addi	x10,x9,0
80003994:	00040613          	addi	x12,x8,0
80003998:	00098593          	addi	x11,x19,0
8000399c:	f5cfe0ef          	jal	x1,800020f8 <_nettle_write_be32>
800039a0:	00040513          	addi	x10,x8,0
800039a4:	01812403          	lw	x8,24(x2)
800039a8:	01c12083          	lw	x1,28(x2)
800039ac:	01412483          	lw	x9,20(x2)
800039b0:	01012903          	lw	x18,16(x2)
800039b4:	00c12983          	lw	x19,12(x2)
800039b8:	00812a03          	lw	x20,8(x2)
800039bc:	00412a83          	lw	x21,4(x2)
800039c0:	02010113          	addi	x2,x2,32
800039c4:	ef0fe06f          	jal	x0,800020b4 <sha256_init>

800039c8 <benchmark_body>:
800039c8:	f7010113          	addi	x2,x2,-144
800039cc:	08812423          	sw	x8,136(x2)
800039d0:	08912223          	sw	x9,132(x2)
800039d4:	09212023          	sw	x18,128(x2)
800039d8:	07312e23          	sw	x19,124(x2)
800039dc:	08112623          	sw	x1,140(x2)
800039e0:	00050413          	addi	x8,x10,0
800039e4:	00000493          	addi	x9,x0,0
800039e8:	80004937          	lui	x18,0x80004
800039ec:	800049b7          	lui	x19,0x80004
800039f0:	0284c263          	blt	x9,x8,80003a14 <benchmark_body+0x4c>
800039f4:	08c12083          	lw	x1,140(x2)
800039f8:	08812403          	lw	x8,136(x2)
800039fc:	08412483          	lw	x9,132(x2)
80003a00:	08012903          	lw	x18,128(x2)
80003a04:	07c12983          	lw	x19,124(x2)
80003a08:	00000513          	addi	x10,x0,0
80003a0c:	09010113          	addi	x2,x2,144
80003a10:	00008067          	jalr	x0,0(x1)
80003a14:	02000613          	addi	x12,x0,32
80003a18:	00000593          	addi	x11,x0,0
80003a1c:	48490513          	addi	x10,x18,1156 # 80004484 <_end+0xffffffd4>
80003a20:	0c0000ef          	jal	x1,80003ae0 <memset>
80003a24:	00010513          	addi	x10,x2,0
80003a28:	e8cfe0ef          	jal	x1,800020b4 <sha256_init>
80003a2c:	eb898613          	addi	x12,x19,-328 # 80003eb8 <_end+0xfffffa08>
80003a30:	03800593          	addi	x11,x0,56
80003a34:	00010513          	addi	x10,x2,0
80003a38:	cf1ff0ef          	jal	x1,80003728 <sha256_update>
80003a3c:	48490613          	addi	x12,x18,1156
80003a40:	02000593          	addi	x11,x0,32
80003a44:	00010513          	addi	x10,x2,0
80003a48:	e29ff0ef          	jal	x1,80003870 <sha256_digest>
80003a4c:	00148493          	addi	x9,x9,1
80003a50:	fa1ff06f          	jal	x0,800039f0 <benchmark_body+0x28>

80003a54 <verify_benchmark>:
80003a54:	80004737          	lui	x14,0x80004
80003a58:	800046b7          	lui	x13,0x80004
80003a5c:	00000793          	addi	x15,x0,0
80003a60:	00100513          	addi	x10,x0,1
80003a64:	ef070713          	addi	x14,x14,-272 # 80003ef0 <_end+0xfffffa40>
80003a68:	48468693          	addi	x13,x13,1156 # 80004484 <_end+0xffffffd4>
80003a6c:	00800813          	addi	x16,x0,8
80003a70:	00f705b3          	add	x11,x14,x15
80003a74:	00f68633          	add	x12,x13,x15
80003a78:	0005c583          	lbu	x11,0(x11)
80003a7c:	00064603          	lbu	x12,0(x12)
80003a80:	00c58463          	beq	x11,x12,80003a88 <verify_benchmark+0x34>
80003a84:	00000513          	addi	x10,x0,0
80003a88:	00178793          	addi	x15,x15,1
80003a8c:	ff0792e3          	bne	x15,x16,80003a70 <verify_benchmark+0x1c>
80003a90:	00008067          	jalr	x0,0(x1)

80003a94 <initialise_benchmark>:
80003a94:	00008067          	jalr	x0,0(x1)

80003a98 <warm_caches>:
80003a98:	f31ff06f          	jal	x0,800039c8 <benchmark_body>

80003a9c <benchmark>:
80003a9c:	1db00513          	addi	x10,x0,475
80003aa0:	f29ff06f          	jal	x0,800039c8 <benchmark_body>

80003aa4 <initialise_board>:
80003aa4:	00000513          	addi	x10,x0,0
80003aa8:	00008067          	jalr	x0,0(x1)

80003aac <start_trigger>:
80003aac:	00000513          	addi	x10,x0,0
80003ab0:	deadc2b7          	lui	x5,0xdeadc
80003ab4:	eef28293          	addi	x5,x5,-273 # deadbeef <_end+0x5ead7a3f>
80003ab8:	00008067          	jalr	x0,0(x1)

80003abc <stop_trigger>:
80003abc:	beefe2b7          	lui	x5,0xbeefe
80003ac0:	ead28293          	addi	x5,x5,-339 # beefdead <_end+0x3eef99fd>
80003ac4:	05d00893          	addi	x17,x0,93
80003ac8:	00000513          	addi	x10,x0,0
80003acc:	020102b7          	lui	x5,0x2010
80003ad0:	f1402873          	csrrs	x16,mhartid,x0
80003ad4:	0102a023          	sw	x16,0(x5) # 2010000 <SYSCALL_ADDR+0x1e0f000>
80003ad8:	0112a023          	sw	x17,0(x5)
80003adc:	00008067          	jalr	x0,0(x1)

80003ae0 <memset>:
80003ae0:	00f00313          	addi	x6,x0,15
80003ae4:	00050713          	addi	x14,x10,0
80003ae8:	02c37e63          	bgeu	x6,x12,80003b24 <memset+0x44>
80003aec:	00f77793          	andi	x15,x14,15
80003af0:	0a079063          	bne	x15,x0,80003b90 <memset+0xb0>
80003af4:	08059263          	bne	x11,x0,80003b78 <memset+0x98>
80003af8:	ff067693          	andi	x13,x12,-16
80003afc:	00f67613          	andi	x12,x12,15
80003b00:	00e686b3          	add	x13,x13,x14
80003b04:	00b72023          	sw	x11,0(x14)
80003b08:	00b72223          	sw	x11,4(x14)
80003b0c:	00b72423          	sw	x11,8(x14)
80003b10:	00b72623          	sw	x11,12(x14)
80003b14:	01070713          	addi	x14,x14,16
80003b18:	fed766e3          	bltu	x14,x13,80003b04 <memset+0x24>
80003b1c:	00061463          	bne	x12,x0,80003b24 <memset+0x44>
80003b20:	00008067          	jalr	x0,0(x1)
80003b24:	40c306b3          	sub	x13,x6,x12
80003b28:	00269693          	slli	x13,x13,0x2
80003b2c:	00000297          	auipc	x5,0x0
80003b30:	005686b3          	add	x13,x13,x5
80003b34:	00c68067          	jalr	x0,12(x13)
80003b38:	00b70723          	sb	x11,14(x14)
80003b3c:	00b706a3          	sb	x11,13(x14)
80003b40:	00b70623          	sb	x11,12(x14)
80003b44:	00b705a3          	sb	x11,11(x14)
80003b48:	00b70523          	sb	x11,10(x14)
80003b4c:	00b704a3          	sb	x11,9(x14)
80003b50:	00b70423          	sb	x11,8(x14)
80003b54:	00b703a3          	sb	x11,7(x14)
80003b58:	00b70323          	sb	x11,6(x14)
80003b5c:	00b702a3          	sb	x11,5(x14)
80003b60:	00b70223          	sb	x11,4(x14)
80003b64:	00b701a3          	sb	x11,3(x14)
80003b68:	00b70123          	sb	x11,2(x14)
80003b6c:	00b700a3          	sb	x11,1(x14)
80003b70:	00b70023          	sb	x11,0(x14)
80003b74:	00008067          	jalr	x0,0(x1)
80003b78:	0ff5f593          	andi	x11,x11,255
80003b7c:	00859693          	slli	x13,x11,0x8
80003b80:	00d5e5b3          	or	x11,x11,x13
80003b84:	01059693          	slli	x13,x11,0x10
80003b88:	00d5e5b3          	or	x11,x11,x13
80003b8c:	f6dff06f          	jal	x0,80003af8 <memset+0x18>
80003b90:	00279693          	slli	x13,x15,0x2
80003b94:	00000297          	auipc	x5,0x0
80003b98:	005686b3          	add	x13,x13,x5
80003b9c:	00008293          	addi	x5,x1,0
80003ba0:	fa0680e7          	jalr	x1,-96(x13)
80003ba4:	00028093          	addi	x1,x5,0 # 80003b94 <memset+0xb4>
80003ba8:	ff078793          	addi	x15,x15,-16
80003bac:	40f70733          	sub	x14,x14,x15
80003bb0:	00f60633          	add	x12,x12,x15
80003bb4:	f6c378e3          	bgeu	x6,x12,80003b24 <memset+0x44>
80003bb8:	f3dff06f          	jal	x0,80003af4 <memset+0x14>

Disassembly of section .text.startup:

80003bbc <main>:
80003bbc:	fe010113          	addi	x2,x2,-32
80003bc0:	00112e23          	sw	x1,28(x2)
80003bc4:	ee1ff0ef          	jal	x1,80003aa4 <initialise_board>
80003bc8:	ecdff0ef          	jal	x1,80003a94 <initialise_benchmark>
80003bcc:	00100513          	addi	x10,x0,1
80003bd0:	ec9ff0ef          	jal	x1,80003a98 <warm_caches>
80003bd4:	ed9ff0ef          	jal	x1,80003aac <start_trigger>
80003bd8:	ec5ff0ef          	jal	x1,80003a9c <benchmark>
80003bdc:	00a12623          	sw	x10,12(x2)
80003be0:	eddff0ef          	jal	x1,80003abc <stop_trigger>
80003be4:	00c12503          	lw	x10,12(x2)
80003be8:	e6dff0ef          	jal	x1,80003a54 <verify_benchmark>
80003bec:	01c12083          	lw	x1,28(x2)
80003bf0:	00153513          	sltiu	x10,x10,1
80003bf4:	02010113          	addi	x2,x2,32
80003bf8:	00008067          	jalr	x0,0(x1)

Disassembly of section .text.exit:

80003bfc <exit>:
80003bfc:	ff010113          	addi	x2,x2,-16
80003c00:	00000593          	addi	x11,x0,0
80003c04:	00812423          	sw	x8,8(x2)
80003c08:	00112623          	sw	x1,12(x2)
80003c0c:	00050413          	addi	x8,x10,0
80003c10:	148000ef          	jal	x1,80003d58 <__call_exitprocs>
80003c14:	800047b7          	lui	x15,0x80004
80003c18:	4807a503          	lw	x10,1152(x15) # 80004480 <_end+0xffffffd0>
80003c1c:	03c52783          	lw	x15,60(x10)
80003c20:	00078463          	beq	x15,x0,80003c28 <exit+0x2c>
80003c24:	000780e7          	jalr	x1,0(x15)
80003c28:	00040513          	addi	x10,x8,0
80003c2c:	250000ef          	jal	x1,80003e7c <_exit>

Disassembly of section .text.memcpy:

80003c30 <memcpy>:
80003c30:	00a5c7b3          	xor	x15,x11,x10
80003c34:	0037f793          	andi	x15,x15,3
80003c38:	00c508b3          	add	x17,x10,x12
80003c3c:	06079663          	bne	x15,x0,80003ca8 <memcpy+0x78>
80003c40:	00300793          	addi	x15,x0,3
80003c44:	06c7f263          	bgeu	x15,x12,80003ca8 <memcpy+0x78>
80003c48:	00357793          	andi	x15,x10,3
80003c4c:	00050713          	addi	x14,x10,0
80003c50:	0c079a63          	bne	x15,x0,80003d24 <memcpy+0xf4>
80003c54:	ffc8f613          	andi	x12,x17,-4
80003c58:	40e606b3          	sub	x13,x12,x14
80003c5c:	02000793          	addi	x15,x0,32
80003c60:	02000293          	addi	x5,x0,32
80003c64:	06d7c263          	blt	x15,x13,80003cc8 <memcpy+0x98>
80003c68:	00058693          	addi	x13,x11,0
80003c6c:	00070793          	addi	x15,x14,0
80003c70:	02c77863          	bgeu	x14,x12,80003ca0 <memcpy+0x70>
80003c74:	0006a803          	lw	x16,0(x13)
80003c78:	00478793          	addi	x15,x15,4
80003c7c:	00468693          	addi	x13,x13,4
80003c80:	ff07ae23          	sw	x16,-4(x15)
80003c84:	fec7e8e3          	bltu	x15,x12,80003c74 <memcpy+0x44>
80003c88:	fff60793          	addi	x15,x12,-1
80003c8c:	40e787b3          	sub	x15,x15,x14
80003c90:	ffc7f793          	andi	x15,x15,-4
80003c94:	00478793          	addi	x15,x15,4
80003c98:	00f70733          	add	x14,x14,x15
80003c9c:	00f585b3          	add	x11,x11,x15
80003ca0:	01176863          	bltu	x14,x17,80003cb0 <memcpy+0x80>
80003ca4:	00008067          	jalr	x0,0(x1)
80003ca8:	00050713          	addi	x14,x10,0
80003cac:	ff157ce3          	bgeu	x10,x17,80003ca4 <memcpy+0x74>
80003cb0:	0005c783          	lbu	x15,0(x11)
80003cb4:	00170713          	addi	x14,x14,1
80003cb8:	00158593          	addi	x11,x11,1
80003cbc:	fef70fa3          	sb	x15,-1(x14)
80003cc0:	ff1768e3          	bltu	x14,x17,80003cb0 <memcpy+0x80>
80003cc4:	00008067          	jalr	x0,0(x1)
80003cc8:	0045a683          	lw	x13,4(x11)
80003ccc:	01c5a783          	lw	x15,28(x11)
80003cd0:	0005af83          	lw	x31,0(x11)
80003cd4:	0085af03          	lw	x30,8(x11)
80003cd8:	00c5ae83          	lw	x29,12(x11)
80003cdc:	0105ae03          	lw	x28,16(x11)
80003ce0:	0145a303          	lw	x6,20(x11)
80003ce4:	0185a803          	lw	x16,24(x11)
80003ce8:	00d72223          	sw	x13,4(x14)
80003cec:	0205a683          	lw	x13,32(x11)
80003cf0:	01f72023          	sw	x31,0(x14)
80003cf4:	01e72423          	sw	x30,8(x14)
80003cf8:	01d72623          	sw	x29,12(x14)
80003cfc:	01c72823          	sw	x28,16(x14)
80003d00:	00672a23          	sw	x6,20(x14)
80003d04:	01072c23          	sw	x16,24(x14)
80003d08:	00f72e23          	sw	x15,28(x14)
80003d0c:	02470713          	addi	x14,x14,36
80003d10:	40e607b3          	sub	x15,x12,x14
80003d14:	fed72e23          	sw	x13,-4(x14)
80003d18:	02458593          	addi	x11,x11,36
80003d1c:	faf2c6e3          	blt	x5,x15,80003cc8 <memcpy+0x98>
80003d20:	f49ff06f          	jal	x0,80003c68 <memcpy+0x38>
80003d24:	0005c683          	lbu	x13,0(x11)
80003d28:	00170713          	addi	x14,x14,1
80003d2c:	00377793          	andi	x15,x14,3
80003d30:	fed70fa3          	sb	x13,-1(x14)
80003d34:	00158593          	addi	x11,x11,1
80003d38:	f0078ee3          	beq	x15,x0,80003c54 <memcpy+0x24>
80003d3c:	0005c683          	lbu	x13,0(x11)
80003d40:	00170713          	addi	x14,x14,1
80003d44:	00377793          	andi	x15,x14,3
80003d48:	fed70fa3          	sb	x13,-1(x14)
80003d4c:	00158593          	addi	x11,x11,1
80003d50:	fc079ae3          	bne	x15,x0,80003d24 <memcpy+0xf4>
80003d54:	f01ff06f          	jal	x0,80003c54 <memcpy+0x24>

Disassembly of section .text.__call_exitprocs:

80003d58 <__call_exitprocs>:
80003d58:	fd010113          	addi	x2,x2,-48
80003d5c:	800047b7          	lui	x15,0x80004
80003d60:	01412c23          	sw	x20,24(x2)
80003d64:	4807aa03          	lw	x20,1152(x15) # 80004480 <_end+0xffffffd0>
80003d68:	03212023          	sw	x18,32(x2)
80003d6c:	02112623          	sw	x1,44(x2)
80003d70:	148a2903          	lw	x18,328(x20)
80003d74:	02812423          	sw	x8,40(x2)
80003d78:	02912223          	sw	x9,36(x2)
80003d7c:	01312e23          	sw	x19,28(x2)
80003d80:	01512a23          	sw	x21,20(x2)
80003d84:	01612823          	sw	x22,16(x2)
80003d88:	01712623          	sw	x23,12(x2)
80003d8c:	01812423          	sw	x24,8(x2)
80003d90:	04090063          	beq	x18,x0,80003dd0 <__call_exitprocs+0x78>
80003d94:	00050b13          	addi	x22,x10,0
80003d98:	00058b93          	addi	x23,x11,0
80003d9c:	00100a93          	addi	x21,x0,1
80003da0:	fff00993          	addi	x19,x0,-1
80003da4:	00492483          	lw	x9,4(x18)
80003da8:	fff48413          	addi	x8,x9,-1
80003dac:	02044263          	blt	x8,x0,80003dd0 <__call_exitprocs+0x78>
80003db0:	00249493          	slli	x9,x9,0x2
80003db4:	009904b3          	add	x9,x18,x9
80003db8:	040b8463          	beq	x23,x0,80003e00 <__call_exitprocs+0xa8>
80003dbc:	1044a783          	lw	x15,260(x9)
80003dc0:	05778063          	beq	x15,x23,80003e00 <__call_exitprocs+0xa8>
80003dc4:	fff40413          	addi	x8,x8,-1
80003dc8:	ffc48493          	addi	x9,x9,-4
80003dcc:	ff3416e3          	bne	x8,x19,80003db8 <__call_exitprocs+0x60>
80003dd0:	02c12083          	lw	x1,44(x2)
80003dd4:	02812403          	lw	x8,40(x2)
80003dd8:	02412483          	lw	x9,36(x2)
80003ddc:	02012903          	lw	x18,32(x2)
80003de0:	01c12983          	lw	x19,28(x2)
80003de4:	01812a03          	lw	x20,24(x2)
80003de8:	01412a83          	lw	x21,20(x2)
80003dec:	01012b03          	lw	x22,16(x2)
80003df0:	00c12b83          	lw	x23,12(x2)
80003df4:	00812c03          	lw	x24,8(x2)
80003df8:	03010113          	addi	x2,x2,48
80003dfc:	00008067          	jalr	x0,0(x1)
80003e00:	00492783          	lw	x15,4(x18)
80003e04:	0044a683          	lw	x13,4(x9)
80003e08:	fff78793          	addi	x15,x15,-1
80003e0c:	04878e63          	beq	x15,x8,80003e68 <__call_exitprocs+0x110>
80003e10:	0004a223          	sw	x0,4(x9)
80003e14:	fa0688e3          	beq	x13,x0,80003dc4 <__call_exitprocs+0x6c>
80003e18:	18892783          	lw	x15,392(x18)
80003e1c:	008a9733          	sll	x14,x21,x8
80003e20:	00492c03          	lw	x24,4(x18)
80003e24:	00f777b3          	and	x15,x14,x15
80003e28:	02079263          	bne	x15,x0,80003e4c <__call_exitprocs+0xf4>
80003e2c:	000680e7          	jalr	x1,0(x13)
80003e30:	00492703          	lw	x14,4(x18)
80003e34:	148a2783          	lw	x15,328(x20)
80003e38:	01871463          	bne	x14,x24,80003e40 <__call_exitprocs+0xe8>
80003e3c:	f92784e3          	beq	x15,x18,80003dc4 <__call_exitprocs+0x6c>
80003e40:	f80788e3          	beq	x15,x0,80003dd0 <__call_exitprocs+0x78>
80003e44:	00078913          	addi	x18,x15,0
80003e48:	f5dff06f          	jal	x0,80003da4 <__call_exitprocs+0x4c>
80003e4c:	18c92783          	lw	x15,396(x18)
80003e50:	0844a583          	lw	x11,132(x9)
80003e54:	00f77733          	and	x14,x14,x15
80003e58:	00071c63          	bne	x14,x0,80003e70 <__call_exitprocs+0x118>
80003e5c:	000b0513          	addi	x10,x22,0
80003e60:	000680e7          	jalr	x1,0(x13)
80003e64:	fcdff06f          	jal	x0,80003e30 <__call_exitprocs+0xd8>
80003e68:	00892223          	sw	x8,4(x18)
80003e6c:	fa9ff06f          	jal	x0,80003e14 <__call_exitprocs+0xbc>
80003e70:	00058513          	addi	x10,x11,0
80003e74:	000680e7          	jalr	x1,0(x13)
80003e78:	fb9ff06f          	jal	x0,80003e30 <__call_exitprocs+0xd8>

Disassembly of section .text._exit:

80003e7c <_exit>:
80003e7c:	05d00893          	addi	x17,x0,93
80003e80:	00000073          	ecall
80003e84:	00054463          	blt	x10,x0,80003e8c <_exit+0x10>
80003e88:	0000006f          	jal	x0,80003e88 <_exit+0xc>
80003e8c:	ff010113          	addi	x2,x2,-16
80003e90:	00812423          	sw	x8,8(x2)
80003e94:	00050413          	addi	x8,x10,0
80003e98:	00112623          	sw	x1,12(x2)
80003e9c:	40800433          	sub	x8,x0,x8
80003ea0:	00c000ef          	jal	x1,80003eac <__errno>
80003ea4:	00852023          	sw	x8,0(x10)
80003ea8:	0000006f          	jal	x0,80003ea8 <_exit+0x2c>

Disassembly of section .text.__errno:

80003eac <__errno>:
80003eac:	800047b7          	lui	x15,0x80004
80003eb0:	3387a503          	lw	x10,824(x15) # 80004338 <_end+0xfffffe88>
80003eb4:	00008067          	jalr	x0,0(x1)

Disassembly of section .data:

80003eb8 <msg>:
80003eb8:	6261                	c.lui	x4,0x18
80003eba:	63626463          	bltu	x4,x22,800044e2 <_end+0x32>
80003ebe:	6564                	c.flw	f9,76(x10)
80003ec0:	66656463          	bltu	x10,x6,80004528 <_end+0x78>
80003ec4:	6564                	c.flw	f9,76(x10)
80003ec6:	6766                	c.flwsp	f14,88(x2)
80003ec8:	6665                	c.lui	x12,0x19
80003eca:	67666867          	0x67666867
80003ece:	6968                	c.flw	f10,84(x10)
80003ed0:	6a696867          	0x6a696867
80003ed4:	6968                	c.flw	f10,84(x10)
80003ed6:	6b6a                	c.flwsp	f22,152(x2)
80003ed8:	6a69                	c.lui	x20,0x1a
80003eda:	6b6a6c6b          	0x6b6a6c6b
80003ede:	6d6c                	c.flw	f11,92(x10)
80003ee0:	6e6d6c6b          	0x6e6d6c6b
80003ee4:	6d6c                	c.flw	f11,92(x10)
80003ee6:	6f6e                	c.flwsp	f30,216(x2)
80003ee8:	6e6d                	c.lui	x28,0x1b
80003eea:	6f6e706f          	jal	x0,800eb5e0 <_end+0xe7130>
80003eee:	7170                	c.flw	f12,100(x10)

80003ef0 <hash>:
80003ef0:	8d24                	0x8d24
80003ef2:	616a                	c.flwsp	f2,152(x2)
80003ef4:	06d2                	c.slli	x13,0x14
80003ef6:	b838                	c.fsd	f14,112(x8)
80003ef8:	c0e5                	c.beqz	x9,80003fd8 <impure_data+0xc8>
80003efa:	9326                	c.add	x6,x9
80003efc:	3e0c                	c.fld	f11,56(x12)
80003efe:	3960                	c.fld	f8,240(x10)
80003f00:	59e43ca3          	0x59e43ca3
80003f04:	ff64                	c.fsw	f9,124(x14)
80003f06:	6721                	c.lui	x14,0x8
80003f08:	ecf6                	c.fswsp	f29,88(x2)
80003f0a:	d4ed                	c.beqz	x9,80003ef4 <hash+0x4>
80003f0c:	db19                	c.beqz	x14,80003e22 <__call_exitprocs+0xca>
80003f0e:	c106                	c.swsp	x1,128(x2)

Disassembly of section .data.impure_data:

80003f10 <impure_data>:
80003f10:	0000                	c.unimp
80003f12:	0000                	c.unimp
80003f14:	41fc                	c.lw	x15,68(x11)
80003f16:	8000                	0x8000
80003f18:	4264                	c.lw	x9,68(x12)
80003f1a:	8000                	0x8000
80003f1c:	42cc                	c.lw	x11,4(x13)
80003f1e:	8000                	0x8000
	...
80003fb8:	0001                	c.addi	x0,0
80003fba:	0000                	c.unimp
80003fbc:	0000                	c.unimp
80003fbe:	0000                	c.unimp
80003fc0:	330e                	c.fldsp	f6,224(x2)
80003fc2:	abcd                	c.j	800045b4 <_end+0x104>
80003fc4:	1234                	c.addi4spn	x13,x2,296
80003fc6:	e66d                	c.bnez	x12,800040b0 <impure_data+0x1a0>
80003fc8:	deec                	c.sw	x11,124(x13)
80003fca:	0005                	c.addi	x0,1
80003fcc:	0000000b          	0xb
	...

Disassembly of section .sdata._impure_ptr:

80004338 <_impure_ptr>:
80004338:	3f10                	c.fld	f12,56(x14)
8000433a:	8000                	0x8000

Disassembly of section .rodata:

8000433c <H0.0>:
8000433c:	6a09e667          	0x6a09e667
80004340:	ae85                	c.j	800046b0 <_end+0x200>
80004342:	f372bb67          	0xf372bb67
80004346:	3c6e                	c.fldsp	f24,248(x2)
80004348:	f53a                	c.fswsp	f14,168(x2)
8000434a:	527fa54f          	fnmadd.d	f10,f31,f7,f10,rdn
8000434e:	510e                	c.lwsp	x2,224(x2)
80004350:	688c                	c.flw	f11,16(x9)
80004352:	9b05                	c.andi	x14,-31
80004354:	1f83d9ab          	0x1f83d9ab
80004358:	cd19                	c.beqz	x10,80004376 <K+0x1a>
8000435a:	5be0                	c.lw	x8,116(x15)

8000435c <K>:
8000435c:	2f98                	c.fld	f14,24(x15)
8000435e:	428a                	c.lwsp	x5,128(x2)
80004360:	4491                	c.li	x9,4
80004362:	fbcf7137          	lui	x2,0xfbcf7
80004366:	b5c0                	c.fsd	f8,168(x11)
80004368:	dba5                	c.beqz	x15,800042d8 <impure_data+0x3c8>
8000436a:	e9b5                	c.bnez	x11,800043de <K+0x82>
8000436c:	3956c25b          	0x3956c25b
80004370:	11f1                	c.addi	x3,-4
80004372:	59f1                	c.li	x19,-4
80004374:	82a4                	0x82a4
80004376:	5ed5923f aa98ab1c 	0xaa98ab1c5ed5923f
8000437e:	5b01d807          	0x5b01d807
80004382:	85be1283          	lh	x5,-1957(x28) # 1a85b <SYSCALL_ADDR-0x1e67a5>
80004386:	2431                	c.jal	80004592 <_end+0xe2>
80004388:	550c7dc3          	0x550c7dc3
8000438c:	5d74                	c.lw	x13,124(x10)
8000438e:	72be                	c.flwsp	f5,236(x2)
80004390:	b1fe                	c.fsdsp	f31,224(x2)
80004392:	80de                	c.mv	x1,x23
80004394:	9bdc06a7          	0x9bdc06a7
80004398:	f174                	c.fsw	f13,100(x10)
8000439a:	69c1c19b          	0x69c1c19b
8000439e:	4786e49b          	0x4786e49b
800043a2:	efbe                	c.fswsp	f15,220(x2)
800043a4:	9dc6                	c.add	x27,x17
800043a6:	0fc1                	c.addi	x31,16
800043a8:	a1cc                	c.fsd	f11,128(x11)
800043aa:	240c                	c.fld	f11,8(x8)
800043ac:	2de92c6f          	jal	x24,8009668a <_end+0x921da>
800043b0:	84aa                	c.mv	x9,x10
800043b2:	4a74                	c.lw	x13,84(x12)
800043b4:	a9dc                	c.fsd	f15,144(x11)
800043b6:	5cb0                	c.lw	x12,120(x9)
800043b8:	88da                	c.mv	x17,x22
800043ba:	76f9                	c.lui	x13,0xffffe
800043bc:	5152                	c.lwsp	x2,52(x2)
800043be:	983e                	c.add	x16,x15
800043c0:	c66d                	c.beqz	x12,800044aa <buffer+0x26>
800043c2:	a831                	c.j	800043de <K+0x82>
800043c4:	27c8                	c.fld	f10,136(x15)
800043c6:	7fc7b003          	0x7fc7b003
800043ca:	bf59                	c.j	80004360 <K+0x4>
800043cc:	c6e00bf3          	0xc6e00bf3
800043d0:	d5a79147          	0xd5a79147
800043d4:	6351                	c.lui	x6,0x14
800043d6:	06ca                	c.slli	x13,0x12
800043d8:	14292967          	0x14292967
800043dc:	0a85                	c.addi	x21,1
800043de:	213827b7          	lui	x15,0x21382
800043e2:	6dfc2e1b          	0x6dfc2e1b
800043e6:	4d2c                	c.lw	x11,88(x10)
800043e8:	53380d13          	addi	x26,x16,1331
800043ec:	7354                	c.flw	f13,36(x14)
800043ee:	650a                	c.flwsp	f10,128(x2)
800043f0:	766a0abb          	0x766a0abb
800043f4:	c92e                	c.swsp	x11,144(x2)
800043f6:	81c2                	c.mv	x3,x16
800043f8:	2c85                	c.jal	80004668 <_end+0x1b8>
800043fa:	9272                	c.add	x4,x28
800043fc:	e8a1                	c.bnez	x9,8000444c <K+0xf0>
800043fe:	664ba2bf 8b70a81a 	0x8b70a81a664ba2bf
80004406:	51a3c24b          	fnmsub.s	f4,f7,f26,f10,rmm
8000440a:	c76c                	c.sw	x11,76(x14)
8000440c:	e819                	c.bnez	x8,80004422 <K+0xc6>
8000440e:	d192                	c.swsp	x4,224(x2)
80004410:	0624                	c.addi4spn	x9,x2,776
80004412:	d699                	c.beqz	x13,80004320 <impure_data+0x410>
80004414:	3585                	c.jal	80004274 <impure_data+0x364>
80004416:	f40e                	c.fswsp	f3,40(x2)
80004418:	a070                	c.fsd	f12,192(x8)
8000441a:	106a                	c.slli	x0,0x3a
8000441c:	c116                	c.swsp	x5,128(x2)
8000441e:	19a4                	c.addi4spn	x9,x2,248
80004420:	6c08                	c.flw	f10,24(x8)
80004422:	774c1e37          	lui	x28,0x774c1
80004426:	2748                	c.fld	f10,136(x14)
80004428:	bcb5                	c.j	80003ea4 <_exit+0x28>
8000442a:	34b0                	c.fld	f12,104(x9)
8000442c:	391c0cb3          	0x391c0cb3
80004430:	aa4a                	c.fsdsp	f18,272(x2)
80004432:	4ed8                	c.lw	x14,28(x13)
80004434:	5b9cca4f          	fnmadd.d	f20,f25,f25,f11,rmm
80004438:	682e6ff3          	csrrsi	x31,0x682,28
8000443c:	82ee                	c.mv	x5,x27
8000443e:	636f748f          	0x636f748f
80004442:	78a5                	c.lui	x17,0xfffe9
80004444:	7814                	c.flw	f13,48(x8)
80004446:	84c8                	0x84c8
80004448:	0208                	c.addi4spn	x10,x2,256
8000444a:	fffa8cc7          	fmsub.q	f25,f21,f31,f31,rne
8000444e:	90be                	c.add	x1,x15
80004450:	a4506ceb          	0xa4506ceb
80004454:	bef9a3f7          	0xbef9a3f7
80004458:	78f2                	c.flwsp	f17,60(x2)
8000445a:	c671                	c.beqz	x12,80004526 <_end+0x76>

8000445c <nettle_sha256>:
8000445c:	4478                	c.lw	x14,76(x8)
8000445e:	8000                	0x8000
80004460:	0070                	c.addi4spn	x12,x2,12
80004462:	0000                	c.unimp
80004464:	0020                	c.addi4spn	x8,x2,8
80004466:	0000                	c.unimp
80004468:	0040                	c.addi4spn	x8,x2,4
8000446a:	0000                	c.unimp
8000446c:	20b4                	c.fld	f13,64(x9)
8000446e:	8000                	0x8000
80004470:	3728                	c.fld	f10,104(x14)
80004472:	8000                	0x8000
80004474:	3870                	c.fld	f12,240(x8)
80004476:	8000                	0x8000

Disassembly of section .rodata.str1.4:

80004478 <.rodata.str1.4>:
80004478:	32616873          	csrrsi	x16,mhpmevent6,2
8000447c:	3635                	c.jal	80003fa8 <impure_data+0x98>
	...

Disassembly of section .srodata._global_impure_ptr:

80004480 <_global_impure_ptr>:
80004480:	3f10                	c.fld	f12,56(x14)
80004482:	8000                	0x8000

Disassembly of section .bss:

80004484 <buffer>:
	...

Disassembly of section .sbss:

800044a4 <_end-0xc>:
	...

Disassembly of section .comment:

00000000 <.comment>:
   0:	3a434347          	fmsub.d	f6,f6,f4,f7,rmm
   4:	2820                	c.fld	f8,80(x8)
   6:	39336367          	0x39336367
   a:	3131                	c.jal	fffffc16 <_end+0x7fffb766>
   c:	3665                	c.jal	fffffbb4 <_end+0x7fffb704>
   e:	3234                	c.fld	f13,96(x12)
  10:	6635                	c.lui	x12,0xd
  12:	2029                	c.jal	1c <SYSCALL_ADDR-0x200fe4>
  14:	3031                	c.jal	fffff820 <_end+0x7fffb370>
  16:	322e                	c.fldsp	f4,232(x2)
  18:	302e                	c.fldsp	f0,232(x2)
  1a:	4700                	c.lw	x8,8(x14)
  1c:	203a4343          	fmadd.s	f6,f20,f3,f4,rmm
  20:	4728                	c.lw	x10,72(x14)
  22:	554e                	c.lwsp	x10,240(x2)
  24:	2029                	c.jal	2e <SYSCALL_ADDR-0x200fd2>
  26:	3031                	c.jal	fffff832 <_end+0x7fffb382>
  28:	322e                	c.fldsp	f4,232(x2)
  2a:	302e                	c.fldsp	f0,232(x2)
	...

Disassembly of section .riscv.attributes:

00000000 <.riscv.attributes>:
   0:	1f41                	c.addi	x30,-16
   2:	0000                	c.unimp
   4:	7200                	c.flw	f8,32(x12)
   6:	7369                	c.lui	x6,0xffffa
   8:	01007663          	bgeu	x0,x16,14 <SYSCALL_ADDR-0x200fec>
   c:	0015                	c.addi	x0,5
   e:	0000                	c.unimp
  10:	1004                	c.addi4spn	x9,x2,32
  12:	7205                	c.lui	x4,0xfffe1
  14:	3376                	c.fldsp	f6,376(x2)
  16:	6932                	c.flwsp	f18,12(x2)
  18:	7032                	c.flwsp	f0,44(x2)
  1a:	0030                	c.addi4spn	x12,x2,8
  1c:	0108                	c.addi4spn	x10,x2,128
  1e:	0b0a                	c.slli	x22,0x2
