
picojpeg.elf:     Dateiformat elf32-littleriscv


Disassembly of section .text.init:

80000000 <initSection>:
80000000:	000070b3          	and	x1,x0,x0
80000004:	00007133          	and	x2,x0,x0
80000008:	000071b3          	and	x3,x0,x0
8000000c:	00007233          	and	x4,x0,x0
80000010:	000072b3          	and	x5,x0,x0
80000014:	00007333          	and	x6,x0,x0
80000018:	000073b3          	and	x7,x0,x0
8000001c:	00007433          	and	x8,x0,x0
80000020:	000074b3          	and	x9,x0,x0
80000024:	00007533          	and	x10,x0,x0
80000028:	000075b3          	and	x11,x0,x0
8000002c:	00007633          	and	x12,x0,x0
80000030:	000076b3          	and	x13,x0,x0
80000034:	00007733          	and	x14,x0,x0
80000038:	000077b3          	and	x15,x0,x0
8000003c:	00007833          	and	x16,x0,x0
80000040:	000078b3          	and	x17,x0,x0
80000044:	00007933          	and	x18,x0,x0
80000048:	000079b3          	and	x19,x0,x0
8000004c:	00007a33          	and	x20,x0,x0
80000050:	00007ab3          	and	x21,x0,x0
80000054:	00007b33          	and	x22,x0,x0
80000058:	00007bb3          	and	x23,x0,x0
8000005c:	00007c33          	and	x24,x0,x0
80000060:	00007cb3          	and	x25,x0,x0
80000064:	00007d33          	and	x26,x0,x0
80000068:	00007db3          	and	x27,x0,x0
8000006c:	00007e33          	and	x28,x0,x0
80000070:	00007eb3          	and	x29,x0,x0
80000074:	00007f33          	and	x30,x0,x0
80000078:	00007fb3          	and	x31,x0,x0
8000007c:	00002117          	auipc	x2,0x2
80000080:	03410113          	addi	x2,x2,52 # 800020b0 <stack_end>
80000084:	705040ef          	jal	x1,80004f88 <main>

80000088 <sys_end>:
80000088:	05d00893          	addi	x17,x0,93
8000008c:	00000513          	addi	x10,x0,0
80000090:	002012b7          	lui	x5,0x201
80000094:	f1402873          	csrrs	x16,mhartid,x0
80000098:	0102a023          	sw	x16,0(x5) # 201000 <SYSCALL_ADDR>
8000009c:	0112a023          	sw	x17,0(x5)
800000a0:	fe9ff06f          	jal	x0,80000088 <sys_end>
800000a4:	00000013          	addi	x0,x0,0
800000a8:	00000013          	addi	x0,x0,0
800000ac:	00000013          	addi	x0,x0,0

800000b0 <stack_begin>:
	...

800020b0 <stack_end>:
800020b0:	0000                	c.unimp
	...

Disassembly of section .text:

800020b4 <stuffChar>:
800020b4:	80006737          	lui	x14,0x80006
800020b8:	f7174783          	lbu	x15,-143(x14) # 80005f71 <_end+0xffffffe1>
800020bc:	fff78793          	addi	x15,x15,-1
800020c0:	0ff7f793          	andi	x15,x15,255
800020c4:	f6f708a3          	sb	x15,-143(x14)
800020c8:	80005737          	lui	x14,0x80005
800020cc:	61470713          	addi	x14,x14,1556 # 80005614 <_end+0xfffff684>
800020d0:	00f707b3          	add	x15,x14,x15
800020d4:	80006737          	lui	x14,0x80006
800020d8:	00a78023          	sb	x10,0(x15)
800020dc:	f7074783          	lbu	x15,-144(x14) # 80005f70 <_end+0xffffffe0>
800020e0:	00178793          	addi	x15,x15,1
800020e4:	f6f70823          	sb	x15,-144(x14)
800020e8:	00008067          	jalr	x0,0(x1)

800020ec <huffExtend>:
800020ec:	fff58593          	addi	x11,x11,-1
800020f0:	0ff5f593          	andi	x11,x11,255
800020f4:	00e00793          	addi	x15,x0,14
800020f8:	02b7e263          	bltu	x15,x11,8000211c <huffExtend+0x30>
800020fc:	800057b7          	lui	x15,0x80005
80002100:	23878793          	addi	x15,x15,568 # 80005238 <_end+0xfffff2a8>
80002104:	00159593          	slli	x11,x11,0x1
80002108:	00b785b3          	add	x11,x15,x11
8000210c:	0005d783          	lhu	x15,0(x11)
80002110:	00f57663          	bgeu	x10,x15,8000211c <huffExtend+0x30>
80002114:	0205d783          	lhu	x15,32(x11)
80002118:	00f50533          	add	x10,x10,x15
8000211c:	01051513          	slli	x10,x10,0x10
80002120:	41055513          	srai	x10,x10,0x10
80002124:	00008067          	jalr	x0,0(x1)

80002128 <clamp>:
80002128:	01051713          	slli	x14,x10,0x10
8000212c:	01075713          	srli	x14,x14,0x10
80002130:	0ff00793          	addi	x15,x0,255
80002134:	00e7f663          	bgeu	x15,x14,80002140 <clamp+0x18>
80002138:	fff54513          	xori	x10,x10,-1
8000213c:	41f55513          	srai	x10,x10,0x1f
80002140:	0ff57513          	andi	x10,x10,255
80002144:	00008067          	jalr	x0,0(x1)

80002148 <addAndClamp>:
80002148:	00b505b3          	add	x11,x10,x11
8000214c:	01059593          	slli	x11,x11,0x10
80002150:	0105d593          	srli	x11,x11,0x10
80002154:	0ff00793          	addi	x15,x0,255
80002158:	00b7fe63          	bgeu	x15,x11,80002174 <addAndClamp+0x2c>
8000215c:	01059713          	slli	x14,x11,0x10
80002160:	41075713          	srai	x14,x14,0x10
80002164:	00000513          	addi	x10,x0,0
80002168:	00074863          	blt	x14,x0,80002178 <addAndClamp+0x30>
8000216c:	0ff00513          	addi	x10,x0,255
80002170:	00e7c463          	blt	x15,x14,80002178 <addAndClamp+0x30>
80002174:	0ff5f513          	andi	x10,x11,255
80002178:	00008067          	jalr	x0,0(x1)

8000217c <subAndClamp>:
8000217c:	40b505b3          	sub	x11,x10,x11
80002180:	01059593          	slli	x11,x11,0x10
80002184:	0105d593          	srli	x11,x11,0x10
80002188:	0ff00793          	addi	x15,x0,255
8000218c:	00b7fe63          	bgeu	x15,x11,800021a8 <subAndClamp+0x2c>
80002190:	01059713          	slli	x14,x11,0x10
80002194:	41075713          	srai	x14,x14,0x10
80002198:	00000513          	addi	x10,x0,0
8000219c:	00074863          	blt	x14,x0,800021ac <subAndClamp+0x30>
800021a0:	0ff00513          	addi	x10,x0,255
800021a4:	00e7c463          	blt	x15,x14,800021ac <subAndClamp+0x30>
800021a8:	0ff5f513          	andi	x10,x11,255
800021ac:	00008067          	jalr	x0,0(x1)

800021b0 <upsampleCb>:
800021b0:	800057b7          	lui	x15,0x80005
800021b4:	fc010113          	addi	x2,x2,-64
800021b8:	61478793          	addi	x15,x15,1556 # 80005614 <_end+0xfffff684>
800021bc:	03612023          	sw	x22,32(x2)
800021c0:	01912a23          	sw	x25,20(x2)
800021c4:	10078b13          	addi	x22,x15,256
800021c8:	18078c93          	addi	x25,x15,384
800021cc:	00151513          	slli	x10,x10,0x1
800021d0:	28078793          	addi	x15,x15,640
800021d4:	03512223          	sw	x21,36(x2)
800021d8:	01712e23          	sw	x23,28(x2)
800021dc:	01b12623          	sw	x27,12(x2)
800021e0:	02112e23          	sw	x1,60(x2)
800021e4:	02812c23          	sw	x8,56(x2)
800021e8:	02912a23          	sw	x9,52(x2)
800021ec:	03212823          	sw	x18,48(x2)
800021f0:	03312623          	sw	x19,44(x2)
800021f4:	03412423          	sw	x20,40(x2)
800021f8:	01812c23          	sw	x24,24(x2)
800021fc:	01a12823          	sw	x26,16(x2)
80002200:	00ab0b33          	add	x22,x22,x10
80002204:	00bc8cb3          	add	x25,x25,x11
80002208:	00b78ab3          	add	x21,x15,x11
8000220c:	00000b93          	addi	x23,x0,0
80002210:	04000d93          	addi	x27,x0,64
80002214:	017a8a33          	add	x20,x21,x23
80002218:	017c89b3          	add	x19,x25,x23
8000221c:	000b0c13          	addi	x24,x22,0
80002220:	008b0d13          	addi	x26,x22,8
80002224:	000c1483          	lh	x9,0(x24)
80002228:	0009c503          	lbu	x10,0(x19)
8000222c:	002c0c13          	addi	x24,x24,2
80002230:	0ff4f793          	andi	x15,x9,255
80002234:	00179913          	slli	x18,x15,0x1
80002238:	00f90933          	add	x18,x18,x15
8000223c:	00291413          	slli	x8,x18,0x2
80002240:	40f40433          	sub	x8,x8,x15
80002244:	00341413          	slli	x8,x8,0x3
80002248:	00845413          	srli	x8,x8,0x8
8000224c:	fd440413          	addi	x8,x8,-44
80002250:	01041413          	slli	x8,x8,0x10
80002254:	41045413          	srai	x8,x8,0x10
80002258:	00040593          	addi	x11,x8,0
8000225c:	f21ff0ef          	jal	x1,8000217c <subAndClamp>
80002260:	00a98023          	sb	x10,0(x19)
80002264:	0019c503          	lbu	x10,1(x19)
80002268:	00040593          	addi	x11,x8,0
8000226c:	00298993          	addi	x19,x19,2
80002270:	f0dff0ef          	jal	x1,8000217c <subAndClamp>
80002274:	fea98fa3          	sb	x10,-1(x19)
80002278:	0069c503          	lbu	x10,6(x19)
8000227c:	00040593          	addi	x11,x8,0
80002280:	002a0a13          	addi	x20,x20,2
80002284:	ef9ff0ef          	jal	x1,8000217c <subAndClamp>
80002288:	00a98323          	sb	x10,6(x19)
8000228c:	0079c503          	lbu	x10,7(x19)
80002290:	00040593          	addi	x11,x8,0
80002294:	0ff4f413          	andi	x8,x9,255
80002298:	ee5ff0ef          	jal	x1,8000217c <subAndClamp>
8000229c:	00591593          	slli	x11,x18,0x5
800022a0:	00b90933          	add	x18,x18,x11
800022a4:	00a983a3          	sb	x10,7(x19)
800022a8:	f1d40413          	addi	x8,x8,-227
800022ac:	ffea4503          	lbu	x10,-2(x20)
800022b0:	00795913          	srli	x18,x18,0x7
800022b4:	01240433          	add	x8,x8,x18
800022b8:	00040593          	addi	x11,x8,0
800022bc:	e8dff0ef          	jal	x1,80002148 <addAndClamp>
800022c0:	feaa0f23          	sb	x10,-2(x20)
800022c4:	fffa4503          	lbu	x10,-1(x20)
800022c8:	00040593          	addi	x11,x8,0
800022cc:	e7dff0ef          	jal	x1,80002148 <addAndClamp>
800022d0:	feaa0fa3          	sb	x10,-1(x20)
800022d4:	006a4503          	lbu	x10,6(x20)
800022d8:	00040593          	addi	x11,x8,0
800022dc:	e6dff0ef          	jal	x1,80002148 <addAndClamp>
800022e0:	00aa0323          	sb	x10,6(x20)
800022e4:	007a4503          	lbu	x10,7(x20)
800022e8:	00040593          	addi	x11,x8,0
800022ec:	e5dff0ef          	jal	x1,80002148 <addAndClamp>
800022f0:	00aa03a3          	sb	x10,7(x20)
800022f4:	f3ac18e3          	bne	x24,x26,80002224 <upsampleCb+0x74>
800022f8:	010b8b93          	addi	x23,x23,16
800022fc:	010b0b13          	addi	x22,x22,16
80002300:	f1bb9ae3          	bne	x23,x27,80002214 <upsampleCb+0x64>
80002304:	03c12083          	lw	x1,60(x2)
80002308:	03812403          	lw	x8,56(x2)
8000230c:	03412483          	lw	x9,52(x2)
80002310:	03012903          	lw	x18,48(x2)
80002314:	02c12983          	lw	x19,44(x2)
80002318:	02812a03          	lw	x20,40(x2)
8000231c:	02412a83          	lw	x21,36(x2)
80002320:	02012b03          	lw	x22,32(x2)
80002324:	01c12b83          	lw	x23,28(x2)
80002328:	01812c03          	lw	x24,24(x2)
8000232c:	01412c83          	lw	x25,20(x2)
80002330:	01012d03          	lw	x26,16(x2)
80002334:	00c12d83          	lw	x27,12(x2)
80002338:	04010113          	addi	x2,x2,64
8000233c:	00008067          	jalr	x0,0(x1)

80002340 <upsampleCbH>:
80002340:	800057b7          	lui	x15,0x80005
80002344:	fc010113          	addi	x2,x2,-64
80002348:	61478793          	addi	x15,x15,1556 # 80005614 <_end+0xfffff684>
8000234c:	03312623          	sw	x19,44(x2)
80002350:	01812c23          	sw	x24,24(x2)
80002354:	10078993          	addi	x19,x15,256
80002358:	18078c13          	addi	x24,x15,384
8000235c:	00151513          	slli	x10,x10,0x1
80002360:	28078793          	addi	x15,x15,640
80002364:	03212823          	sw	x18,48(x2)
80002368:	03612023          	sw	x22,32(x2)
8000236c:	01a12823          	sw	x26,16(x2)
80002370:	02112e23          	sw	x1,60(x2)
80002374:	02812c23          	sw	x8,56(x2)
80002378:	02912a23          	sw	x9,52(x2)
8000237c:	03412423          	sw	x20,40(x2)
80002380:	03512223          	sw	x21,36(x2)
80002384:	01712e23          	sw	x23,28(x2)
80002388:	01912a23          	sw	x25,20(x2)
8000238c:	00a989b3          	add	x19,x19,x10
80002390:	00bc0c33          	add	x24,x24,x11
80002394:	00b78933          	add	x18,x15,x11
80002398:	00000b13          	addi	x22,x0,0
8000239c:	04000d13          	addi	x26,x0,64
800023a0:	01690ab3          	add	x21,x18,x22
800023a4:	016c0a33          	add	x20,x24,x22
800023a8:	00098b93          	addi	x23,x19,0
800023ac:	00898c93          	addi	x25,x19,8
800023b0:	000b9403          	lh	x8,0(x23)
800023b4:	000a4503          	lbu	x10,0(x20)
800023b8:	002b8b93          	addi	x23,x23,2
800023bc:	0ff47793          	andi	x15,x8,255
800023c0:	00179493          	slli	x9,x15,0x1
800023c4:	00f484b3          	add	x9,x9,x15
800023c8:	00249593          	slli	x11,x9,0x2
800023cc:	40f585b3          	sub	x11,x11,x15
800023d0:	00359593          	slli	x11,x11,0x3
800023d4:	0085d593          	srli	x11,x11,0x8
800023d8:	fd458593          	addi	x11,x11,-44
800023dc:	01059593          	slli	x11,x11,0x10
800023e0:	4105d593          	srai	x11,x11,0x10
800023e4:	00b12623          	sw	x11,12(x2)
800023e8:	d95ff0ef          	jal	x1,8000217c <subAndClamp>
800023ec:	00c12583          	lw	x11,12(x2)
800023f0:	00aa0023          	sb	x10,0(x20)
800023f4:	001a4503          	lbu	x10,1(x20)
800023f8:	002a8a93          	addi	x21,x21,2
800023fc:	002a0a13          	addi	x20,x20,2
80002400:	d7dff0ef          	jal	x1,8000217c <subAndClamp>
80002404:	00549793          	slli	x15,x9,0x5
80002408:	00f484b3          	add	x9,x9,x15
8000240c:	feaa0fa3          	sb	x10,-1(x20)
80002410:	0ff47593          	andi	x11,x8,255
80002414:	ffeac503          	lbu	x10,-2(x21)
80002418:	f1d58593          	addi	x11,x11,-227
8000241c:	0074d493          	srli	x9,x9,0x7
80002420:	009585b3          	add	x11,x11,x9
80002424:	00b12623          	sw	x11,12(x2)
80002428:	d21ff0ef          	jal	x1,80002148 <addAndClamp>
8000242c:	feaa8f23          	sb	x10,-2(x21)
80002430:	00c12583          	lw	x11,12(x2)
80002434:	fffac503          	lbu	x10,-1(x21)
80002438:	d11ff0ef          	jal	x1,80002148 <addAndClamp>
8000243c:	feaa8fa3          	sb	x10,-1(x21)
80002440:	f79b98e3          	bne	x23,x25,800023b0 <upsampleCbH+0x70>
80002444:	008b0b13          	addi	x22,x22,8
80002448:	01098993          	addi	x19,x19,16
8000244c:	f5ab1ae3          	bne	x22,x26,800023a0 <upsampleCbH+0x60>
80002450:	03c12083          	lw	x1,60(x2)
80002454:	03812403          	lw	x8,56(x2)
80002458:	03412483          	lw	x9,52(x2)
8000245c:	03012903          	lw	x18,48(x2)
80002460:	02c12983          	lw	x19,44(x2)
80002464:	02812a03          	lw	x20,40(x2)
80002468:	02412a83          	lw	x21,36(x2)
8000246c:	02012b03          	lw	x22,32(x2)
80002470:	01c12b83          	lw	x23,28(x2)
80002474:	01812c03          	lw	x24,24(x2)
80002478:	01412c83          	lw	x25,20(x2)
8000247c:	01012d03          	lw	x26,16(x2)
80002480:	04010113          	addi	x2,x2,64
80002484:	00008067          	jalr	x0,0(x1)

80002488 <upsampleCbV>:
80002488:	800057b7          	lui	x15,0x80005
8000248c:	fc010113          	addi	x2,x2,-64
80002490:	61478793          	addi	x15,x15,1556 # 80005614 <_end+0xfffff684>
80002494:	02812c23          	sw	x8,56(x2)
80002498:	01712e23          	sw	x23,28(x2)
8000249c:	10078413          	addi	x8,x15,256
800024a0:	18078b93          	addi	x23,x15,384
800024a4:	00151513          	slli	x10,x10,0x1
800024a8:	28078793          	addi	x15,x15,640
800024ac:	03312623          	sw	x19,44(x2)
800024b0:	03612023          	sw	x22,32(x2)
800024b4:	01912a23          	sw	x25,20(x2)
800024b8:	02112e23          	sw	x1,60(x2)
800024bc:	02912a23          	sw	x9,52(x2)
800024c0:	03212823          	sw	x18,48(x2)
800024c4:	03412423          	sw	x20,40(x2)
800024c8:	03512223          	sw	x21,36(x2)
800024cc:	01812c23          	sw	x24,24(x2)
800024d0:	00a40433          	add	x8,x8,x10
800024d4:	00bb8bb3          	add	x23,x23,x11
800024d8:	00b789b3          	add	x19,x15,x11
800024dc:	00000b13          	addi	x22,x0,0
800024e0:	04000c93          	addi	x25,x0,64
800024e4:	01698ab3          	add	x21,x19,x22
800024e8:	016b8a33          	add	x20,x23,x22
800024ec:	01040c13          	addi	x24,x8,16
800024f0:	00041483          	lh	x9,0(x8)
800024f4:	000a4503          	lbu	x10,0(x20)
800024f8:	00240413          	addi	x8,x8,2
800024fc:	0ff4f793          	andi	x15,x9,255
80002500:	00179913          	slli	x18,x15,0x1
80002504:	00f90933          	add	x18,x18,x15
80002508:	00291593          	slli	x11,x18,0x2
8000250c:	40f585b3          	sub	x11,x11,x15
80002510:	00359593          	slli	x11,x11,0x3
80002514:	0085d593          	srli	x11,x11,0x8
80002518:	fd458593          	addi	x11,x11,-44
8000251c:	01059593          	slli	x11,x11,0x10
80002520:	4105d593          	srai	x11,x11,0x10
80002524:	00b12623          	sw	x11,12(x2)
80002528:	c55ff0ef          	jal	x1,8000217c <subAndClamp>
8000252c:	00c12583          	lw	x11,12(x2)
80002530:	00aa0023          	sb	x10,0(x20)
80002534:	008a4503          	lbu	x10,8(x20)
80002538:	001a8a93          	addi	x21,x21,1
8000253c:	001a0a13          	addi	x20,x20,1
80002540:	c3dff0ef          	jal	x1,8000217c <subAndClamp>
80002544:	00591793          	slli	x15,x18,0x5
80002548:	00f90933          	add	x18,x18,x15
8000254c:	00aa03a3          	sb	x10,7(x20)
80002550:	0ff4f593          	andi	x11,x9,255
80002554:	fffac503          	lbu	x10,-1(x21)
80002558:	f1d58593          	addi	x11,x11,-227
8000255c:	00795913          	srli	x18,x18,0x7
80002560:	012585b3          	add	x11,x11,x18
80002564:	00b12623          	sw	x11,12(x2)
80002568:	be1ff0ef          	jal	x1,80002148 <addAndClamp>
8000256c:	feaa8fa3          	sb	x10,-1(x21)
80002570:	00c12583          	lw	x11,12(x2)
80002574:	007ac503          	lbu	x10,7(x21)
80002578:	bd1ff0ef          	jal	x1,80002148 <addAndClamp>
8000257c:	00aa83a3          	sb	x10,7(x21)
80002580:	f78418e3          	bne	x8,x24,800024f0 <upsampleCbV+0x68>
80002584:	010b0b13          	addi	x22,x22,16
80002588:	f59b1ee3          	bne	x22,x25,800024e4 <upsampleCbV+0x5c>
8000258c:	03c12083          	lw	x1,60(x2)
80002590:	03812403          	lw	x8,56(x2)
80002594:	03412483          	lw	x9,52(x2)
80002598:	03012903          	lw	x18,48(x2)
8000259c:	02c12983          	lw	x19,44(x2)
800025a0:	02812a03          	lw	x20,40(x2)
800025a4:	02412a83          	lw	x21,36(x2)
800025a8:	02012b03          	lw	x22,32(x2)
800025ac:	01c12b83          	lw	x23,28(x2)
800025b0:	01812c03          	lw	x24,24(x2)
800025b4:	01412c83          	lw	x25,20(x2)
800025b8:	04010113          	addi	x2,x2,64
800025bc:	00008067          	jalr	x0,0(x1)

800025c0 <upsampleCr>:
800025c0:	800057b7          	lui	x15,0x80005
800025c4:	fc010113          	addi	x2,x2,-64
800025c8:	61478793          	addi	x15,x15,1556 # 80005614 <_end+0xfffff684>
800025cc:	03512223          	sw	x21,36(x2)
800025d0:	01812c23          	sw	x24,24(x2)
800025d4:	10078a93          	addi	x21,x15,256
800025d8:	38078c13          	addi	x24,x15,896
800025dc:	00151513          	slli	x10,x10,0x1
800025e0:	18078793          	addi	x15,x15,384
800025e4:	03412423          	sw	x20,40(x2)
800025e8:	03612023          	sw	x22,32(x2)
800025ec:	01a12823          	sw	x26,16(x2)
800025f0:	02112e23          	sw	x1,60(x2)
800025f4:	02812c23          	sw	x8,56(x2)
800025f8:	02912a23          	sw	x9,52(x2)
800025fc:	03212823          	sw	x18,48(x2)
80002600:	03312623          	sw	x19,44(x2)
80002604:	01712e23          	sw	x23,28(x2)
80002608:	01912a23          	sw	x25,20(x2)
8000260c:	01b12623          	sw	x27,12(x2)
80002610:	00aa8ab3          	add	x21,x21,x10
80002614:	00bc0c33          	add	x24,x24,x11
80002618:	00b78a33          	add	x20,x15,x11
8000261c:	00000b13          	addi	x22,x0,0
80002620:	04000d13          	addi	x26,x0,64
80002624:	016a09b3          	add	x19,x20,x22
80002628:	016c0933          	add	x18,x24,x22
8000262c:	000a8b93          	addi	x23,x21,0
80002630:	008a8c93          	addi	x25,x21,8
80002634:	000b9483          	lh	x9,0(x23)
80002638:	00094503          	lbu	x10,0(x18)
8000263c:	002b8b93          	addi	x23,x23,2
80002640:	0ff4fd93          	andi	x27,x9,255
80002644:	001d9413          	slli	x8,x27,0x1
80002648:	01b40433          	add	x8,x8,x27
8000264c:	00241593          	slli	x11,x8,0x2
80002650:	01b585b3          	add	x11,x11,x27
80002654:	00359593          	slli	x11,x11,0x3
80002658:	0ff4f493          	andi	x9,x9,255
8000265c:	41b585b3          	sub	x11,x11,x27
80002660:	0085d593          	srli	x11,x11,0x8
80002664:	f4d48493          	addi	x9,x9,-179
80002668:	00b484b3          	add	x9,x9,x11
8000266c:	01049493          	slli	x9,x9,0x10
80002670:	4104d493          	srai	x9,x9,0x10
80002674:	00048593          	addi	x11,x9,0
80002678:	ad1ff0ef          	jal	x1,80002148 <addAndClamp>
8000267c:	00a90023          	sb	x10,0(x18)
80002680:	00194503          	lbu	x10,1(x18)
80002684:	00048593          	addi	x11,x9,0
80002688:	00341413          	slli	x8,x8,0x3
8000268c:	abdff0ef          	jal	x1,80002148 <addAndClamp>
80002690:	00a900a3          	sb	x10,1(x18)
80002694:	00894503          	lbu	x10,8(x18)
80002698:	00048593          	addi	x11,x9,0
8000269c:	41b40433          	sub	x8,x8,x27
800026a0:	aa9ff0ef          	jal	x1,80002148 <addAndClamp>
800026a4:	00a90423          	sb	x10,8(x18)
800026a8:	00341413          	slli	x8,x8,0x3
800026ac:	00994503          	lbu	x10,9(x18)
800026b0:	41b40433          	sub	x8,x8,x27
800026b4:	00048593          	addi	x11,x9,0
800026b8:	00845413          	srli	x8,x8,0x8
800026bc:	a8dff0ef          	jal	x1,80002148 <addAndClamp>
800026c0:	fa540413          	addi	x8,x8,-91
800026c4:	00a904a3          	sb	x10,9(x18)
800026c8:	01041413          	slli	x8,x8,0x10
800026cc:	0009c503          	lbu	x10,0(x19)
800026d0:	41045413          	srai	x8,x8,0x10
800026d4:	00040593          	addi	x11,x8,0
800026d8:	aa5ff0ef          	jal	x1,8000217c <subAndClamp>
800026dc:	00a98023          	sb	x10,0(x19)
800026e0:	0019c503          	lbu	x10,1(x19)
800026e4:	00040593          	addi	x11,x8,0
800026e8:	00290913          	addi	x18,x18,2
800026ec:	a91ff0ef          	jal	x1,8000217c <subAndClamp>
800026f0:	00a980a3          	sb	x10,1(x19)
800026f4:	0089c503          	lbu	x10,8(x19)
800026f8:	00040593          	addi	x11,x8,0
800026fc:	00298993          	addi	x19,x19,2
80002700:	a7dff0ef          	jal	x1,8000217c <subAndClamp>
80002704:	00a98323          	sb	x10,6(x19)
80002708:	0079c503          	lbu	x10,7(x19)
8000270c:	00040593          	addi	x11,x8,0
80002710:	a6dff0ef          	jal	x1,8000217c <subAndClamp>
80002714:	00a983a3          	sb	x10,7(x19)
80002718:	f19b9ee3          	bne	x23,x25,80002634 <upsampleCr+0x74>
8000271c:	010b0b13          	addi	x22,x22,16
80002720:	010a8a93          	addi	x21,x21,16
80002724:	f1ab10e3          	bne	x22,x26,80002624 <upsampleCr+0x64>
80002728:	03c12083          	lw	x1,60(x2)
8000272c:	03812403          	lw	x8,56(x2)
80002730:	03412483          	lw	x9,52(x2)
80002734:	03012903          	lw	x18,48(x2)
80002738:	02c12983          	lw	x19,44(x2)
8000273c:	02812a03          	lw	x20,40(x2)
80002740:	02412a83          	lw	x21,36(x2)
80002744:	02012b03          	lw	x22,32(x2)
80002748:	01c12b83          	lw	x23,28(x2)
8000274c:	01812c03          	lw	x24,24(x2)
80002750:	01412c83          	lw	x25,20(x2)
80002754:	01012d03          	lw	x26,16(x2)
80002758:	00c12d83          	lw	x27,12(x2)
8000275c:	04010113          	addi	x2,x2,64
80002760:	00008067          	jalr	x0,0(x1)

80002764 <upsampleCrH>:
80002764:	800057b7          	lui	x15,0x80005
80002768:	fc010113          	addi	x2,x2,-64
8000276c:	61478793          	addi	x15,x15,1556 # 80005614 <_end+0xfffff684>
80002770:	03212823          	sw	x18,48(x2)
80002774:	01712e23          	sw	x23,28(x2)
80002778:	10078913          	addi	x18,x15,256
8000277c:	38078b93          	addi	x23,x15,896
80002780:	00151513          	slli	x10,x10,0x1
80002784:	18078793          	addi	x15,x15,384
80002788:	02912a23          	sw	x9,52(x2)
8000278c:	03512223          	sw	x21,36(x2)
80002790:	01912a23          	sw	x25,20(x2)
80002794:	02112e23          	sw	x1,60(x2)
80002798:	02812c23          	sw	x8,56(x2)
8000279c:	03312623          	sw	x19,44(x2)
800027a0:	03412423          	sw	x20,40(x2)
800027a4:	03612023          	sw	x22,32(x2)
800027a8:	01812c23          	sw	x24,24(x2)
800027ac:	01a12823          	sw	x26,16(x2)
800027b0:	00a90933          	add	x18,x18,x10
800027b4:	00bb8bb3          	add	x23,x23,x11
800027b8:	00b784b3          	add	x9,x15,x11
800027bc:	00000a93          	addi	x21,x0,0
800027c0:	04000c93          	addi	x25,x0,64
800027c4:	01548a33          	add	x20,x9,x21
800027c8:	015b89b3          	add	x19,x23,x21
800027cc:	00090b13          	addi	x22,x18,0
800027d0:	00890c13          	addi	x24,x18,8
800027d4:	000b1583          	lh	x11,0(x22)
800027d8:	0009c503          	lbu	x10,0(x19)
800027dc:	002b0b13          	addi	x22,x22,2
800027e0:	0ff5fd13          	andi	x26,x11,255
800027e4:	001d1413          	slli	x8,x26,0x1
800027e8:	01a40433          	add	x8,x8,x26
800027ec:	00241793          	slli	x15,x8,0x2
800027f0:	01a787b3          	add	x15,x15,x26
800027f4:	00379793          	slli	x15,x15,0x3
800027f8:	0ff5f593          	andi	x11,x11,255
800027fc:	41a787b3          	sub	x15,x15,x26
80002800:	0087d793          	srli	x15,x15,0x8
80002804:	f4d58593          	addi	x11,x11,-179
80002808:	00f585b3          	add	x11,x11,x15
8000280c:	01059593          	slli	x11,x11,0x10
80002810:	4105d593          	srai	x11,x11,0x10
80002814:	00b12623          	sw	x11,12(x2)
80002818:	931ff0ef          	jal	x1,80002148 <addAndClamp>
8000281c:	00c12583          	lw	x11,12(x2)
80002820:	00a98023          	sb	x10,0(x19)
80002824:	0019c503          	lbu	x10,1(x19)
80002828:	002a0a13          	addi	x20,x20,2
8000282c:	00298993          	addi	x19,x19,2
80002830:	919ff0ef          	jal	x1,80002148 <addAndClamp>
80002834:	00341593          	slli	x11,x8,0x3
80002838:	41a585b3          	sub	x11,x11,x26
8000283c:	00359593          	slli	x11,x11,0x3
80002840:	41a585b3          	sub	x11,x11,x26
80002844:	0085d593          	srli	x11,x11,0x8
80002848:	fea98fa3          	sb	x10,-1(x19)
8000284c:	fa558593          	addi	x11,x11,-91
80002850:	ffea4503          	lbu	x10,-2(x20)
80002854:	01059593          	slli	x11,x11,0x10
80002858:	4105d593          	srai	x11,x11,0x10
8000285c:	00b12623          	sw	x11,12(x2)
80002860:	91dff0ef          	jal	x1,8000217c <subAndClamp>
80002864:	feaa0f23          	sb	x10,-2(x20)
80002868:	00c12583          	lw	x11,12(x2)
8000286c:	fffa4503          	lbu	x10,-1(x20)
80002870:	90dff0ef          	jal	x1,8000217c <subAndClamp>
80002874:	feaa0fa3          	sb	x10,-1(x20)
80002878:	f58b1ee3          	bne	x22,x24,800027d4 <upsampleCrH+0x70>
8000287c:	008a8a93          	addi	x21,x21,8
80002880:	01090913          	addi	x18,x18,16
80002884:	f59a90e3          	bne	x21,x25,800027c4 <upsampleCrH+0x60>
80002888:	03c12083          	lw	x1,60(x2)
8000288c:	03812403          	lw	x8,56(x2)
80002890:	03412483          	lw	x9,52(x2)
80002894:	03012903          	lw	x18,48(x2)
80002898:	02c12983          	lw	x19,44(x2)
8000289c:	02812a03          	lw	x20,40(x2)
800028a0:	02412a83          	lw	x21,36(x2)
800028a4:	02012b03          	lw	x22,32(x2)
800028a8:	01c12b83          	lw	x23,28(x2)
800028ac:	01812c03          	lw	x24,24(x2)
800028b0:	01412c83          	lw	x25,20(x2)
800028b4:	01012d03          	lw	x26,16(x2)
800028b8:	04010113          	addi	x2,x2,64
800028bc:	00008067          	jalr	x0,0(x1)

800028c0 <upsampleCrV>:
800028c0:	800057b7          	lui	x15,0x80005
800028c4:	fc010113          	addi	x2,x2,-64
800028c8:	61478793          	addi	x15,x15,1556 # 80005614 <_end+0xfffff684>
800028cc:	02912a23          	sw	x9,52(x2)
800028d0:	03612023          	sw	x22,32(x2)
800028d4:	10078493          	addi	x9,x15,256
800028d8:	38078b13          	addi	x22,x15,896
800028dc:	00151513          	slli	x10,x10,0x1
800028e0:	18078793          	addi	x15,x15,384
800028e4:	03212823          	sw	x18,48(x2)
800028e8:	03512223          	sw	x21,36(x2)
800028ec:	01812c23          	sw	x24,24(x2)
800028f0:	02112e23          	sw	x1,60(x2)
800028f4:	02812c23          	sw	x8,56(x2)
800028f8:	03312623          	sw	x19,44(x2)
800028fc:	03412423          	sw	x20,40(x2)
80002900:	01712e23          	sw	x23,28(x2)
80002904:	01912a23          	sw	x25,20(x2)
80002908:	00a484b3          	add	x9,x9,x10
8000290c:	00bb0b33          	add	x22,x22,x11
80002910:	00b78933          	add	x18,x15,x11
80002914:	00000a93          	addi	x21,x0,0
80002918:	04000c13          	addi	x24,x0,64
8000291c:	01590a33          	add	x20,x18,x21
80002920:	015b09b3          	add	x19,x22,x21
80002924:	01048b93          	addi	x23,x9,16
80002928:	00049583          	lh	x11,0(x9)
8000292c:	0009c503          	lbu	x10,0(x19)
80002930:	00248493          	addi	x9,x9,2
80002934:	0ff5fc93          	andi	x25,x11,255
80002938:	001c9413          	slli	x8,x25,0x1
8000293c:	01940433          	add	x8,x8,x25
80002940:	00241793          	slli	x15,x8,0x2
80002944:	019787b3          	add	x15,x15,x25
80002948:	00379793          	slli	x15,x15,0x3
8000294c:	0ff5f593          	andi	x11,x11,255
80002950:	419787b3          	sub	x15,x15,x25
80002954:	0087d793          	srli	x15,x15,0x8
80002958:	f4d58593          	addi	x11,x11,-179
8000295c:	00f585b3          	add	x11,x11,x15
80002960:	01059593          	slli	x11,x11,0x10
80002964:	4105d593          	srai	x11,x11,0x10
80002968:	00b12623          	sw	x11,12(x2)
8000296c:	fdcff0ef          	jal	x1,80002148 <addAndClamp>
80002970:	00c12583          	lw	x11,12(x2)
80002974:	00a98023          	sb	x10,0(x19)
80002978:	0089c503          	lbu	x10,8(x19)
8000297c:	001a0a13          	addi	x20,x20,1
80002980:	00198993          	addi	x19,x19,1
80002984:	fc4ff0ef          	jal	x1,80002148 <addAndClamp>
80002988:	00341593          	slli	x11,x8,0x3
8000298c:	419585b3          	sub	x11,x11,x25
80002990:	00359593          	slli	x11,x11,0x3
80002994:	419585b3          	sub	x11,x11,x25
80002998:	0085d593          	srli	x11,x11,0x8
8000299c:	00a983a3          	sb	x10,7(x19)
800029a0:	fa558593          	addi	x11,x11,-91
800029a4:	fffa4503          	lbu	x10,-1(x20)
800029a8:	01059593          	slli	x11,x11,0x10
800029ac:	4105d593          	srai	x11,x11,0x10
800029b0:	00b12623          	sw	x11,12(x2)
800029b4:	fc8ff0ef          	jal	x1,8000217c <subAndClamp>
800029b8:	feaa0fa3          	sb	x10,-1(x20)
800029bc:	00c12583          	lw	x11,12(x2)
800029c0:	007a4503          	lbu	x10,7(x20)
800029c4:	fb8ff0ef          	jal	x1,8000217c <subAndClamp>
800029c8:	00aa03a3          	sb	x10,7(x20)
800029cc:	f5749ee3          	bne	x9,x23,80002928 <upsampleCrV+0x68>
800029d0:	010a8a93          	addi	x21,x21,16
800029d4:	f58a94e3          	bne	x21,x24,8000291c <upsampleCrV+0x5c>
800029d8:	03c12083          	lw	x1,60(x2)
800029dc:	03812403          	lw	x8,56(x2)
800029e0:	03412483          	lw	x9,52(x2)
800029e4:	03012903          	lw	x18,48(x2)
800029e8:	02c12983          	lw	x19,44(x2)
800029ec:	02812a03          	lw	x20,40(x2)
800029f0:	02412a83          	lw	x21,36(x2)
800029f4:	02012b03          	lw	x22,32(x2)
800029f8:	01c12b83          	lw	x23,28(x2)
800029fc:	01812c03          	lw	x24,24(x2)
80002a00:	01412c83          	lw	x25,20(x2)
80002a04:	04010113          	addi	x2,x2,64
80002a08:	00008067          	jalr	x0,0(x1)

80002a0c <copyY>:
80002a0c:	800057b7          	lui	x15,0x80005
80002a10:	61478793          	addi	x15,x15,1556 # 80005614 <_end+0xfffff684>
80002a14:	10078593          	addi	x11,x15,256
80002a18:	38078e13          	addi	x28,x15,896
80002a1c:	18078313          	addi	x6,x15,384
80002a20:	00000693          	addi	x13,x0,0
80002a24:	28078793          	addi	x15,x15,640
80002a28:	04000813          	addi	x16,x0,64
80002a2c:	0005c603          	lbu	x12,0(x11)
80002a30:	00d50733          	add	x14,x10,x13
80002a34:	00ee08b3          	add	x17,x28,x14
80002a38:	00c88023          	sb	x12,0(x17)
80002a3c:	00e308b3          	add	x17,x6,x14
80002a40:	00e78733          	add	x14,x15,x14
80002a44:	00c88023          	sb	x12,0(x17)
80002a48:	00c70023          	sb	x12,0(x14)
80002a4c:	00168693          	addi	x13,x13,1
80002a50:	00258593          	addi	x11,x11,2
80002a54:	fd069ce3          	bne	x13,x16,80002a2c <copyY+0x20>
80002a58:	00008067          	jalr	x0,0(x1)

80002a5c <getChar>:
80002a5c:	ff010113          	addi	x2,x2,-16
80002a60:	00812423          	sw	x8,8(x2)
80002a64:	80006437          	lui	x8,0x80006
80002a68:	f7044783          	lbu	x15,-144(x8) # 80005f70 <_end+0xffffffe0>
80002a6c:	00912223          	sw	x9,4(x2)
80002a70:	01212023          	sw	x18,0(x2)
80002a74:	800054b7          	lui	x9,0x80005
80002a78:	00112623          	sw	x1,12(x2)
80002a7c:	80006937          	lui	x18,0x80006
80002a80:	61448493          	addi	x9,x9,1556 # 80005614 <_end+0xfffff684>
80002a84:	06079e63          	bne	x15,x0,80002b00 <getChar+0xa4>
80002a88:	00400793          	addi	x15,x0,4
80002a8c:	f6f908a3          	sb	x15,-143(x18) # 80005f71 <_end+0xffffffe1>
80002a90:	80006737          	lui	x14,0x80006
80002a94:	800067b7          	lui	x15,0x80006
80002a98:	f2c7a783          	lw	x15,-212(x15) # 80005f2c <_end+0xffffff9c>
80002a9c:	f2872683          	lw	x13,-216(x14) # 80005f28 <_end+0xffffff98>
80002aa0:	f6040823          	sb	x0,-144(x8)
80002aa4:	f7040613          	addi	x12,x8,-144
80002aa8:	0fc00593          	addi	x11,x0,252
80002aac:	00448513          	addi	x10,x9,4
80002ab0:	000780e7          	jalr	x1,0(x15)
80002ab4:	00050663          	beq	x10,x0,80002ac0 <getChar+0x64>
80002ab8:	800067b7          	lui	x15,0x80006
80002abc:	f2a782a3          	sb	x10,-219(x15) # 80005f25 <_end+0xffffff95>
80002ac0:	f7044783          	lbu	x15,-144(x8)
80002ac4:	02079e63          	bne	x15,x0,80002b00 <getChar+0xa4>
80002ac8:	80006737          	lui	x14,0x80006
80002acc:	f7274783          	lbu	x15,-142(x14) # 80005f72 <_end+0xffffffe2>
80002ad0:	0ff00513          	addi	x10,x0,255
80002ad4:	fff7c793          	xori	x15,x15,-1
80002ad8:	0ff7f793          	andi	x15,x15,255
80002adc:	f6f70923          	sb	x15,-142(x14)
80002ae0:	00079463          	bne	x15,x0,80002ae8 <getChar+0x8c>
80002ae4:	0d900513          	addi	x10,x0,217
80002ae8:	00c12083          	lw	x1,12(x2)
80002aec:	00812403          	lw	x8,8(x2)
80002af0:	00412483          	lw	x9,4(x2)
80002af4:	00012903          	lw	x18,0(x2)
80002af8:	01010113          	addi	x2,x2,16
80002afc:	00008067          	jalr	x0,0(x1)
80002b00:	f7044783          	lbu	x15,-144(x8)
80002b04:	fff78793          	addi	x15,x15,-1
80002b08:	f6f40823          	sb	x15,-144(x8)
80002b0c:	f7194783          	lbu	x15,-143(x18)
80002b10:	00178713          	addi	x14,x15,1
80002b14:	00f484b3          	add	x9,x9,x15
80002b18:	0004c503          	lbu	x10,0(x9)
80002b1c:	f6e908a3          	sb	x14,-143(x18)
80002b20:	fc9ff06f          	jal	x0,80002ae8 <getChar+0x8c>

80002b24 <getOctet>:
80002b24:	ff010113          	addi	x2,x2,-16
80002b28:	00812423          	sw	x8,8(x2)
80002b2c:	00912223          	sw	x9,4(x2)
80002b30:	00112623          	sw	x1,12(x2)
80002b34:	00050493          	addi	x9,x10,0
80002b38:	f25ff0ef          	jal	x1,80002a5c <getChar>
80002b3c:	00050413          	addi	x8,x10,0
80002b40:	02048063          	beq	x9,x0,80002b60 <getOctet+0x3c>
80002b44:	0ff00793          	addi	x15,x0,255
80002b48:	00f51c63          	bne	x10,x15,80002b60 <getOctet+0x3c>
80002b4c:	f11ff0ef          	jal	x1,80002a5c <getChar>
80002b50:	00050863          	beq	x10,x0,80002b60 <getOctet+0x3c>
80002b54:	d60ff0ef          	jal	x1,800020b4 <stuffChar>
80002b58:	0ff00513          	addi	x10,x0,255
80002b5c:	d58ff0ef          	jal	x1,800020b4 <stuffChar>
80002b60:	00c12083          	lw	x1,12(x2)
80002b64:	00040513          	addi	x10,x8,0
80002b68:	00812403          	lw	x8,8(x2)
80002b6c:	00412483          	lw	x9,4(x2)
80002b70:	01010113          	addi	x2,x2,16
80002b74:	00008067          	jalr	x0,0(x1)

80002b78 <getBits>:
80002b78:	fe010113          	addi	x2,x2,-32
80002b7c:	00812c23          	sw	x8,24(x2)
80002b80:	00912a23          	sw	x9,20(x2)
80002b84:	01212823          	sw	x18,16(x2)
80002b88:	01312623          	sw	x19,12(x2)
80002b8c:	01412423          	sw	x20,8(x2)
80002b90:	01512223          	sw	x21,4(x2)
80002b94:	01612023          	sw	x22,0(x2)
80002b98:	80006437          	lui	x8,0x80006
80002b9c:	00112e23          	sw	x1,28(x2)
80002ba0:	00800a13          	addi	x20,x0,8
80002ba4:	f6e45483          	lhu	x9,-146(x8) # 80005f6e <_end+0xffffffde>
80002ba8:	00050913          	addi	x18,x10,0
80002bac:	00058993          	addi	x19,x11,0
80002bb0:	80006ab7          	lui	x21,0x80006
80002bb4:	00050b13          	addi	x22,x10,0
80002bb8:	04aa7a63          	bgeu	x20,x10,80002c0c <getBits+0x94>
80002bbc:	f6cac683          	lbu	x13,-148(x21) # 80005f6c <_end+0xffffffdc>
80002bc0:	ff850793          	addi	x15,x10,-8
80002bc4:	00058513          	addi	x10,x11,0
80002bc8:	00d496b3          	sll	x13,x9,x13
80002bcc:	0ff7fb13          	andi	x22,x15,255
80002bd0:	f6d41723          	sh	x13,-146(x8)
80002bd4:	f51ff0ef          	jal	x1,80002b24 <getOctet>
80002bd8:	f6e45783          	lhu	x15,-146(x8)
80002bdc:	f6cac703          	lbu	x14,-148(x21)
80002be0:	f004f493          	andi	x9,x9,-256
80002be4:	00f567b3          	or	x15,x10,x15
80002be8:	01079793          	slli	x15,x15,0x10
80002bec:	0107d793          	srli	x15,x15,0x10
80002bf0:	40ea0a33          	sub	x20,x20,x14
80002bf4:	014797b3          	sll	x15,x15,x20
80002bf8:	01079793          	slli	x15,x15,0x10
80002bfc:	0107d793          	srli	x15,x15,0x10
80002c00:	f6f41723          	sh	x15,-146(x8)
80002c04:	0087d793          	srli	x15,x15,0x8
80002c08:	00f4e4b3          	or	x9,x9,x15
80002c0c:	f6cac683          	lbu	x13,-148(x21)
80002c10:	f6e45783          	lhu	x15,-146(x8)
80002c14:	0766fe63          	bgeu	x13,x22,80002c90 <getBits+0x118>
80002c18:	00d797b3          	sll	x15,x15,x13
80002c1c:	00098513          	addi	x10,x19,0
80002c20:	f6f41723          	sh	x15,-146(x8)
80002c24:	f01ff0ef          	jal	x1,80002b24 <getOctet>
80002c28:	f6e45783          	lhu	x15,-146(x8)
80002c2c:	f6cac703          	lbu	x14,-148(x21)
80002c30:	00f567b3          	or	x15,x10,x15
80002c34:	01079793          	slli	x15,x15,0x10
80002c38:	40eb0533          	sub	x10,x22,x14
80002c3c:	0107d793          	srli	x15,x15,0x10
80002c40:	00a797b3          	sll	x15,x15,x10
80002c44:	00870713          	addi	x14,x14,8
80002c48:	f6f41723          	sh	x15,-146(x8)
80002c4c:	416707b3          	sub	x15,x14,x22
80002c50:	f6fa8623          	sb	x15,-148(x21)
80002c54:	01000793          	addi	x15,x0,16
80002c58:	01c12083          	lw	x1,28(x2)
80002c5c:	01812403          	lw	x8,24(x2)
80002c60:	412787b3          	sub	x15,x15,x18
80002c64:	40f4d7b3          	sra	x15,x9,x15
80002c68:	01079513          	slli	x10,x15,0x10
80002c6c:	01412483          	lw	x9,20(x2)
80002c70:	01012903          	lw	x18,16(x2)
80002c74:	00c12983          	lw	x19,12(x2)
80002c78:	00812a03          	lw	x20,8(x2)
80002c7c:	00412a83          	lw	x21,4(x2)
80002c80:	00012b03          	lw	x22,0(x2)
80002c84:	01055513          	srli	x10,x10,0x10
80002c88:	02010113          	addi	x2,x2,32
80002c8c:	00008067          	jalr	x0,0(x1)
80002c90:	416686b3          	sub	x13,x13,x22
80002c94:	016797b3          	sll	x15,x15,x22
80002c98:	f6da8623          	sb	x13,-148(x21)
80002c9c:	f6f41723          	sh	x15,-146(x8)
80002ca0:	fb5ff06f          	jal	x0,80002c54 <getBits+0xdc>

80002ca4 <getBits1>:
80002ca4:	00000593          	addi	x11,x0,0
80002ca8:	ed1ff06f          	jal	x0,80002b78 <getBits>

80002cac <getBits2>:
80002cac:	00100593          	addi	x11,x0,1
80002cb0:	ec9ff06f          	jal	x0,80002b78 <getBits>

80002cb4 <getBit>:
80002cb4:	ff010113          	addi	x2,x2,-16
80002cb8:	00812423          	sw	x8,8(x2)
80002cbc:	00912223          	sw	x9,4(x2)
80002cc0:	80006437          	lui	x8,0x80006
80002cc4:	800064b7          	lui	x9,0x80006
80002cc8:	01212023          	sw	x18,0(x2)
80002ccc:	f6c4c783          	lbu	x15,-148(x9) # 80005f6c <_end+0xffffffdc>
80002cd0:	f6e45903          	lhu	x18,-146(x8) # 80005f6e <_end+0xffffffde>
80002cd4:	00112623          	sw	x1,12(x2)
80002cd8:	00f95913          	srli	x18,x18,0xf
80002cdc:	02079263          	bne	x15,x0,80002d00 <getBit+0x4c>
80002ce0:	00100513          	addi	x10,x0,1
80002ce4:	e41ff0ef          	jal	x1,80002b24 <getOctet>
80002ce8:	f6e45783          	lhu	x15,-146(x8)
80002cec:	00f56533          	or	x10,x10,x15
80002cf0:	f6c4c783          	lbu	x15,-148(x9)
80002cf4:	f6a41723          	sh	x10,-146(x8)
80002cf8:	00878793          	addi	x15,x15,8
80002cfc:	f6f48623          	sb	x15,-148(x9)
80002d00:	f6c4c783          	lbu	x15,-148(x9)
80002d04:	00c12083          	lw	x1,12(x2)
80002d08:	00090513          	addi	x10,x18,0
80002d0c:	fff78793          	addi	x15,x15,-1
80002d10:	f6f48623          	sb	x15,-148(x9)
80002d14:	f6e45783          	lhu	x15,-146(x8)
80002d18:	00412483          	lw	x9,4(x2)
80002d1c:	00012903          	lw	x18,0(x2)
80002d20:	00179793          	slli	x15,x15,0x1
80002d24:	f6f41723          	sh	x15,-146(x8)
80002d28:	00812403          	lw	x8,8(x2)
80002d2c:	01010113          	addi	x2,x2,16
80002d30:	00008067          	jalr	x0,0(x1)

80002d34 <huffDecode>:
80002d34:	fe010113          	addi	x2,x2,-32
80002d38:	00912a23          	sw	x9,20(x2)
80002d3c:	01212823          	sw	x18,16(x2)
80002d40:	01312623          	sw	x19,12(x2)
80002d44:	01412423          	sw	x20,8(x2)
80002d48:	01512223          	sw	x21,4(x2)
80002d4c:	01612023          	sw	x22,0(x2)
80002d50:	00050493          	addi	x9,x10,0
80002d54:	00112e23          	sw	x1,28(x2)
80002d58:	00812c23          	sw	x8,24(x2)
80002d5c:	00058993          	addi	x19,x11,0
80002d60:	f55ff0ef          	jal	x1,80002cb4 <getBit>
80002d64:	01051793          	slli	x15,x10,0x10
80002d68:	00010ab7          	lui	x21,0x10
80002d6c:	0107d793          	srli	x15,x15,0x10
80002d70:	02048a13          	addi	x20,x9,32
80002d74:	00000913          	addi	x18,x0,0
80002d78:	fffa8a93          	addi	x21,x21,-1 # ffff <SYSCALL_ADDR-0x1f1001>
80002d7c:	01000b13          	addi	x22,x0,16
80002d80:	000a5703          	lhu	x14,0(x20)
80002d84:	00f76463          	bltu	x14,x15,80002d8c <huffDecode+0x58>
80002d88:	03571a63          	bne	x14,x21,80002dbc <huffDecode+0x88>
80002d8c:	00179793          	slli	x15,x15,0x1
80002d90:	01079413          	slli	x8,x15,0x10
80002d94:	01045413          	srli	x8,x8,0x10
80002d98:	f1dff0ef          	jal	x1,80002cb4 <getBit>
80002d9c:	00a467b3          	or	x15,x8,x10
80002da0:	01079793          	slli	x15,x15,0x10
80002da4:	00190913          	addi	x18,x18,1
80002da8:	0107d793          	srli	x15,x15,0x10
80002dac:	002a0a13          	addi	x20,x20,2
80002db0:	fd6918e3          	bne	x18,x22,80002d80 <huffDecode+0x4c>
80002db4:	00000513          	addi	x10,x0,0
80002db8:	02c0006f          	jal	x0,80002de4 <huffDecode+0xb0>
80002dbc:	01248733          	add	x14,x9,x18
80002dc0:	04074503          	lbu	x10,64(x14)
80002dc4:	00191913          	slli	x18,x18,0x1
80002dc8:	012484b3          	add	x9,x9,x18
80002dcc:	00a787b3          	add	x15,x15,x10
80002dd0:	0004d503          	lhu	x10,0(x9)
80002dd4:	40a787b3          	sub	x15,x15,x10
80002dd8:	0ff7f793          	andi	x15,x15,255
80002ddc:	00f987b3          	add	x15,x19,x15
80002de0:	0007c503          	lbu	x10,0(x15)
80002de4:	01c12083          	lw	x1,28(x2)
80002de8:	01812403          	lw	x8,24(x2)
80002dec:	01412483          	lw	x9,20(x2)
80002df0:	01012903          	lw	x18,16(x2)
80002df4:	00c12983          	lw	x19,12(x2)
80002df8:	00812a03          	lw	x20,8(x2)
80002dfc:	00412a83          	lw	x21,4(x2)
80002e00:	00012b03          	lw	x22,0(x2)
80002e04:	02010113          	addi	x2,x2,32
80002e08:	00008067          	jalr	x0,0(x1)

80002e0c <processMarkers>:
80002e0c:	fa010113          	addi	x2,x2,-96
80002e10:	05212823          	sw	x18,80(x2)
80002e14:	80005937          	lui	x18,0x80005
80002e18:	05312623          	sw	x19,76(x2)
80002e1c:	61490913          	addi	x18,x18,1556 # 80005614 <_end+0xfffff684>
80002e20:	800059b7          	lui	x19,0x80005
80002e24:	05412423          	sw	x20,72(x2)
80002e28:	05512223          	sw	x21,68(x2)
80002e2c:	04112e23          	sw	x1,92(x2)
80002e30:	04812c23          	sw	x8,88(x2)
80002e34:	04912a23          	sw	x9,84(x2)
80002e38:	05612023          	sw	x22,64(x2)
80002e3c:	03712e23          	sw	x23,60(x2)
80002e40:	03812c23          	sw	x24,56(x2)
80002e44:	03912a23          	sw	x25,52(x2)
80002e48:	03a12823          	sw	x26,48(x2)
80002e4c:	03b12623          	sw	x27,44(x2)
80002e50:	00050a13          	addi	x20,x10,0
80002e54:	50090a93          	addi	x21,x18,1280
80002e58:	23898993          	addi	x19,x19,568 # 80005238 <_end+0xfffff2a8>
80002e5c:	0ff00413          	addi	x8,x0,255
80002e60:	00800513          	addi	x10,x0,8
80002e64:	e41ff0ef          	jal	x1,80002ca4 <getBits1>
80002e68:	0ff57513          	andi	x10,x10,255
80002e6c:	fe851ae3          	bne	x10,x8,80002e60 <processMarkers+0x54>
80002e70:	00800513          	addi	x10,x0,8
80002e74:	e31ff0ef          	jal	x1,80002ca4 <getBits1>
80002e78:	0ff57513          	andi	x10,x10,255
80002e7c:	fe850ae3          	beq	x10,x8,80002e70 <processMarkers+0x64>
80002e80:	fe0500e3          	beq	x10,x0,80002e60 <processMarkers+0x54>
80002e84:	00100793          	addi	x15,x0,1
80002e88:	34f50a63          	beq	x10,x15,800031dc <processMarkers+0x3d0>
80002e8c:	04050793          	addi	x15,x10,64
80002e90:	0ff7f793          	andi	x15,x15,255
80002e94:	01d00713          	addi	x14,x0,29
80002e98:	30f76863          	bltu	x14,x15,800031a8 <processMarkers+0x39c>
80002e9c:	80005737          	lui	x14,0x80005
80002ea0:	00279793          	slli	x15,x15,0x2
80002ea4:	16870713          	addi	x14,x14,360 # 80005168 <_end+0xfffff1d8>
80002ea8:	00e787b3          	add	x15,x15,x14
80002eac:	0007a783          	lw	x15,0(x15)
80002eb0:	00078067          	jalr	x0,0(x15)
80002eb4:	00aa0023          	sb	x10,0(x20)
80002eb8:	00000513          	addi	x10,x0,0
80002ebc:	05c12083          	lw	x1,92(x2)
80002ec0:	05812403          	lw	x8,88(x2)
80002ec4:	05412483          	lw	x9,84(x2)
80002ec8:	05012903          	lw	x18,80(x2)
80002ecc:	04c12983          	lw	x19,76(x2)
80002ed0:	04812a03          	lw	x20,72(x2)
80002ed4:	04412a83          	lw	x21,68(x2)
80002ed8:	04012b03          	lw	x22,64(x2)
80002edc:	03c12b83          	lw	x23,60(x2)
80002ee0:	03812c03          	lw	x24,56(x2)
80002ee4:	03412c83          	lw	x25,52(x2)
80002ee8:	03012d03          	lw	x26,48(x2)
80002eec:	02c12d83          	lw	x27,44(x2)
80002ef0:	06010113          	addi	x2,x2,96
80002ef4:	00008067          	jalr	x0,0(x1)
80002ef8:	01000513          	addi	x10,x0,16
80002efc:	da9ff0ef          	jal	x1,80002ca4 <getBits1>
80002f00:	00100793          	addi	x15,x0,1
80002f04:	f4a7fce3          	bgeu	x15,x10,80002e5c <processMarkers+0x50>
80002f08:	ffe50413          	addi	x8,x10,-2
80002f0c:	01041c93          	slli	x25,x8,0x10
80002f10:	010cdc93          	srli	x25,x25,0x10
80002f14:	01000b13          	addi	x22,x0,16
80002f18:	80006bb7          	lui	x23,0x80006
80002f1c:	fff00c13          	addi	x24,x0,-1
80002f20:	f20c8ee3          	beq	x25,x0,80002e5c <processMarkers+0x50>
80002f24:	00800513          	addi	x10,x0,8
80002f28:	d7dff0ef          	jal	x1,80002ca4 <getBits1>
80002f2c:	00e57d93          	andi	x27,x10,14
80002f30:	0ff57793          	andi	x15,x10,255
80002f34:	f20d94e3          	bne	x27,x0,80002e5c <processMarkers+0x50>
80002f38:	0f07f713          	andi	x14,x15,240
80002f3c:	f2eb60e3          	bltu	x22,x14,80002e5c <processMarkers+0x50>
80002f40:	0037d793          	srli	x15,x15,0x3
80002f44:	0027f793          	andi	x15,x15,2
80002f48:	00157513          	andi	x10,x10,1
80002f4c:	00a7e733          	or	x14,x15,x10
80002f50:	00271793          	slli	x15,x14,0x2
80002f54:	00f987b3          	add	x15,x19,x15
80002f58:	f74bc683          	lbu	x13,-140(x23) # 80005f74 <_end+0xffffffe4>
80002f5c:	0407a483          	lw	x9,64(x15)
80002f60:	0507ad03          	lw	x26,80(x15)
80002f64:	00100793          	addi	x15,x0,1
80002f68:	00e797b3          	sll	x15,x15,x14
80002f6c:	00d7e7b3          	or	x15,x15,x13
80002f70:	f6fb8a23          	sb	x15,-140(x23)
80002f74:	00000413          	addi	x8,x0,0
80002f78:	00000793          	addi	x15,x0,0
80002f7c:	00800513          	addi	x10,x0,8
80002f80:	00f12623          	sw	x15,12(x2)
80002f84:	00e12423          	sw	x14,8(x2)
80002f88:	d1dff0ef          	jal	x1,80002ca4 <getBits1>
80002f8c:	00c12783          	lw	x15,12(x2)
80002f90:	01010713          	addi	x14,x2,16
80002f94:	00f706b3          	add	x13,x14,x15
80002f98:	00a68023          	sb	x10,0(x13)
80002f9c:	0ff57513          	andi	x10,x10,255
80002fa0:	00a40433          	add	x8,x8,x10
80002fa4:	01041413          	slli	x8,x8,0x10
80002fa8:	00178793          	addi	x15,x15,1
80002fac:	00812703          	lw	x14,8(x2)
80002fb0:	01045413          	srli	x8,x8,0x10
80002fb4:	fd6794e3          	bne	x15,x22,80002f7c <processMarkers+0x170>
80002fb8:	00100693          	addi	x13,x0,1
80002fbc:	00c00793          	addi	x15,x0,12
80002fc0:	00e6d463          	bge	x13,x14,80002fc8 <processMarkers+0x1bc>
80002fc4:	0ff00793          	addi	x15,x0,255
80002fc8:	e887eae3          	bltu	x15,x8,80002e5c <processMarkers+0x50>
80002fcc:	00000793          	addi	x15,x0,0
80002fd0:	0687e263          	bltu	x15,x8,80003034 <processMarkers+0x228>
80002fd4:	01140413          	addi	x8,x8,17
80002fd8:	01041413          	slli	x8,x8,0x10
80002fdc:	01045413          	srli	x8,x8,0x10
80002fe0:	e68ceee3          	bltu	x25,x8,80002e5c <processMarkers+0x50>
80002fe4:	408c8433          	sub	x8,x25,x8
80002fe8:	01041c93          	slli	x25,x8,0x10
80002fec:	010cdc93          	srli	x25,x25,0x10
80002ff0:	01010613          	addi	x12,x2,16
80002ff4:	04048693          	addi	x13,x9,64
80002ff8:	02048593          	addi	x11,x9,32
80002ffc:	00000793          	addi	x15,x0,0
80003000:	00064703          	lbu	x14,0(x12)
80003004:	04071a63          	bne	x14,x0,80003058 <processMarkers+0x24c>
80003008:	00049023          	sh	x0,0(x9)
8000300c:	03849023          	sh	x24,32(x9)
80003010:	00068023          	sb	x0,0(x13)
80003014:	00179793          	slli	x15,x15,0x1
80003018:	01079793          	slli	x15,x15,0x10
8000301c:	00248493          	addi	x9,x9,2
80003020:	0107d793          	srli	x15,x15,0x10
80003024:	00160613          	addi	x12,x12,1
80003028:	00168693          	addi	x13,x13,1
8000302c:	fc959ae3          	bne	x11,x9,80003000 <processMarkers+0x1f4>
80003030:	ef1ff06f          	jal	x0,80002f20 <processMarkers+0x114>
80003034:	00800513          	addi	x10,x0,8
80003038:	00f12423          	sw	x15,8(x2)
8000303c:	c69ff0ef          	jal	x1,80002ca4 <getBits1>
80003040:	00812783          	lw	x15,8(x2)
80003044:	00fd0733          	add	x14,x26,x15
80003048:	00178793          	addi	x15,x15,1
8000304c:	00a70023          	sb	x10,0(x14)
80003050:	0ff7f793          	andi	x15,x15,255
80003054:	f7dff06f          	jal	x0,80002fd0 <processMarkers+0x1c4>
80003058:	00f49023          	sh	x15,0(x9)
8000305c:	00e787b3          	add	x15,x15,x14
80003060:	01079793          	slli	x15,x15,0x10
80003064:	0107d793          	srli	x15,x15,0x10
80003068:	fff78513          	addi	x10,x15,-1
8000306c:	02a49023          	sh	x10,32(x9)
80003070:	01b68023          	sb	x27,0(x13)
80003074:	01b70db3          	add	x27,x14,x27
80003078:	0ffdfd93          	andi	x27,x27,255
8000307c:	f99ff06f          	jal	x0,80003014 <processMarkers+0x208>
80003080:	01000513          	addi	x10,x0,16
80003084:	c21ff0ef          	jal	x1,80002ca4 <getBits1>
80003088:	00100793          	addi	x15,x0,1
8000308c:	dca7f8e3          	bgeu	x15,x10,80002e5c <processMarkers+0x50>
80003090:	ffe50513          	addi	x10,x10,-2
80003094:	01051493          	slli	x9,x10,0x10
80003098:	0104d493          	srli	x9,x9,0x10
8000309c:	80006b37          	lui	x22,0x80006
800030a0:	48090b93          	addi	x23,x18,1152
800030a4:	da048ce3          	beq	x9,x0,80002e5c <processMarkers+0x50>
800030a8:	00800513          	addi	x10,x0,8
800030ac:	bf9ff0ef          	jal	x1,80002ca4 <getBits1>
800030b0:	0ff57513          	andi	x10,x10,255
800030b4:	00455c13          	srli	x24,x10,0x4
800030b8:	00f57d93          	andi	x27,x10,15
800030bc:	00e57513          	andi	x10,x10,14
800030c0:	d8051ee3          	bne	x10,x0,80002e5c <processMarkers+0x50>
800030c4:	f73b4703          	lbu	x14,-141(x22) # 80005f73 <_end+0xffffffe3>
800030c8:	01b037b3          	sltu	x15,x0,x27
800030cc:	00178793          	addi	x15,x15,1
800030d0:	00e7e7b3          	or	x15,x15,x14
800030d4:	f6fb09a3          	sb	x15,-141(x22)
800030d8:	00000d13          	addi	x26,x0,0
800030dc:	08000c93          	addi	x25,x0,128
800030e0:	00800513          	addi	x10,x0,8
800030e4:	bc1ff0ef          	jal	x1,80002ca4 <getBits1>
800030e8:	020c0263          	beq	x24,x0,8000310c <processMarkers+0x300>
800030ec:	00851513          	slli	x10,x10,0x8
800030f0:	01051413          	slli	x8,x10,0x10
800030f4:	00800513          	addi	x10,x0,8
800030f8:	01045413          	srli	x8,x8,0x10
800030fc:	ba9ff0ef          	jal	x1,80002ca4 <getBits1>
80003100:	00a40533          	add	x10,x8,x10
80003104:	01051513          	slli	x10,x10,0x10
80003108:	01055513          	srli	x10,x10,0x10
8000310c:	01051793          	slli	x15,x10,0x10
80003110:	4107d793          	srai	x15,x15,0x10
80003114:	01ab8733          	add	x14,x23,x26
80003118:	000d9463          	bne	x27,x0,80003120 <processMarkers+0x314>
8000311c:	01aa8733          	add	x14,x21,x26
80003120:	00f71023          	sh	x15,0(x14)
80003124:	002d0d13          	addi	x26,x26,2
80003128:	fb9d1ce3          	bne	x26,x25,800030e0 <processMarkers+0x2d4>
8000312c:	000b8413          	addi	x8,x23,0
80003130:	000d9463          	bne	x27,x0,80003138 <processMarkers+0x32c>
80003134:	000a8413          	addi	x8,x21,0
80003138:	06098c93          	addi	x25,x19,96
8000313c:	08040d13          	addi	x26,x8,128
80003140:	00041583          	lh	x11,0(x8)
80003144:	000cc503          	lbu	x10,0(x25)
80003148:	00240413          	addi	x8,x8,2
8000314c:	001c8c93          	addi	x25,x25,1
80003150:	615010ef          	jal	x1,80004f64 <__mulsi3>
80003154:	00450513          	addi	x10,x10,4
80003158:	40355513          	srai	x10,x10,0x3
8000315c:	fea41f23          	sh	x10,-2(x8)
80003160:	fe8d10e3          	bne	x26,x8,80003140 <processMarkers+0x334>
80003164:	04100793          	addi	x15,x0,65
80003168:	000c0463          	beq	x24,x0,80003170 <processMarkers+0x364>
8000316c:	08100793          	addi	x15,x0,129
80003170:	cef4e6e3          	bltu	x9,x15,80002e5c <processMarkers+0x50>
80003174:	40f484b3          	sub	x9,x9,x15
80003178:	01049493          	slli	x9,x9,0x10
8000317c:	0104d493          	srli	x9,x9,0x10
80003180:	f25ff06f          	jal	x0,800030a4 <processMarkers+0x298>
80003184:	01000513          	addi	x10,x0,16
80003188:	b1dff0ef          	jal	x1,80002ca4 <getBits1>
8000318c:	00400793          	addi	x15,x0,4
80003190:	ccf516e3          	bne	x10,x15,80002e5c <processMarkers+0x50>
80003194:	01000513          	addi	x10,x0,16
80003198:	b0dff0ef          	jal	x1,80002ca4 <getBits1>
8000319c:	800067b7          	lui	x15,0x80006
800031a0:	f4a79a23          	sh	x10,-172(x15) # 80005f54 <_end+0xffffffc4>
800031a4:	cb9ff06f          	jal	x0,80002e5c <processMarkers+0x50>
800031a8:	01000513          	addi	x10,x0,16
800031ac:	af9ff0ef          	jal	x1,80002ca4 <getBits1>
800031b0:	00100793          	addi	x15,x0,1
800031b4:	caa7f4e3          	bgeu	x15,x10,80002e5c <processMarkers+0x50>
800031b8:	ffe50513          	addi	x10,x10,-2
800031bc:	01051413          	slli	x8,x10,0x10
800031c0:	01045413          	srli	x8,x8,0x10
800031c4:	c8040ce3          	beq	x8,x0,80002e5c <processMarkers+0x50>
800031c8:	00800513          	addi	x10,x0,8
800031cc:	fff40413          	addi	x8,x8,-1
800031d0:	ad5ff0ef          	jal	x1,80002ca4 <getBits1>
800031d4:	01041413          	slli	x8,x8,0x10
800031d8:	fe9ff06f          	jal	x0,800031c0 <processMarkers+0x3b4>
800031dc:	01200513          	addi	x10,x0,18
800031e0:	cddff06f          	jal	x0,80002ebc <processMarkers+0xb0>
800031e4:	01100513          	addi	x10,x0,17
800031e8:	cd5ff06f          	jal	x0,80002ebc <processMarkers+0xb0>

800031ec <pjpeg_decode_mcu>:
800031ec:	f9010113          	addi	x2,x2,-112
800031f0:	800067b7          	lui	x15,0x80006
800031f4:	05712623          	sw	x23,76(x2)
800031f8:	f257cb83          	lbu	x23,-219(x15) # 80005f25 <_end+0xffffff95>
800031fc:	06112623          	sw	x1,108(x2)
80003200:	06812423          	sw	x8,104(x2)
80003204:	06912223          	sw	x9,100(x2)
80003208:	07212023          	sw	x18,96(x2)
8000320c:	05312e23          	sw	x19,92(x2)
80003210:	05412c23          	sw	x20,88(x2)
80003214:	05512a23          	sw	x21,84(x2)
80003218:	05612823          	sw	x22,80(x2)
8000321c:	05812423          	sw	x24,72(x2)
80003220:	05912223          	sw	x25,68(x2)
80003224:	05a12023          	sw	x26,64(x2)
80003228:	03b12e23          	sw	x27,60(x2)
8000322c:	00f12a23          	sw	x15,20(x2)
80003230:	1a0b9863          	bne	x23,x0,800033e0 <pjpeg_decode_mcu+0x1f4>
80003234:	800067b7          	lui	x15,0x80006
80003238:	f367d703          	lhu	x14,-202(x15) # 80005f36 <_end+0xffffffa6>
8000323c:	00f12c23          	sw	x15,24(x2)
80003240:	00071463          	bne	x14,x0,80003248 <pjpeg_decode_mcu+0x5c>
80003244:	1c80106f          	jal	x0,8000440c <pjpeg_decode_mcu+0x1220>
80003248:	80006937          	lui	x18,0x80006
8000324c:	f5495783          	lhu	x15,-172(x18) # 80005f54 <_end+0xffffffc4>
80003250:	00079463          	bne	x15,x0,80003258 <pjpeg_decode_mcu+0x6c>
80003254:	2200106f          	jal	x0,80004474 <pjpeg_decode_mcu+0x1288>
80003258:	800064b7          	lui	x9,0x80006
8000325c:	f504d783          	lhu	x15,-176(x9) # 80005f50 <_end+0xffffffc0>
80003260:	00078463          	beq	x15,x0,80003268 <pjpeg_decode_mcu+0x7c>
80003264:	2040106f          	jal	x0,80004468 <pjpeg_decode_mcu+0x127c>
80003268:	60000413          	addi	x8,x0,1536
8000326c:	0ff00993          	addi	x19,x0,255
80003270:	fecff0ef          	jal	x1,80002a5c <getChar>
80003274:	03351463          	bne	x10,x19,8000329c <pjpeg_decode_mcu+0xb0>
80003278:	0ff00993          	addi	x19,x0,255
8000327c:	fe0ff0ef          	jal	x1,80002a5c <getChar>
80003280:	01350463          	beq	x10,x19,80003288 <pjpeg_decode_mcu+0x9c>
80003284:	1900106f          	jal	x0,80004414 <pjpeg_decode_mcu+0x1228>
80003288:	fff40413          	addi	x8,x8,-1
8000328c:	01041413          	slli	x8,x8,0x10
80003290:	01045413          	srli	x8,x8,0x10
80003294:	fe0414e3          	bne	x8,x0,8000327c <pjpeg_decode_mcu+0x90>
80003298:	0140006f          	jal	x0,800032ac <pjpeg_decode_mcu+0xc0>
8000329c:	fff40413          	addi	x8,x8,-1
800032a0:	01041413          	slli	x8,x8,0x10
800032a4:	01045413          	srli	x8,x8,0x10
800032a8:	fc0414e3          	bne	x8,x0,80003270 <pjpeg_decode_mcu+0x84>
800032ac:	01d00b93          	addi	x23,x0,29
800032b0:	1200006f          	jal	x0,800033d0 <pjpeg_decode_mcu+0x1e4>
800032b4:	01c12783          	lw	x15,28(x2)
800032b8:	00878733          	add	x14,x15,x8
800032bc:	00074483          	lbu	x9,0(x14)
800032c0:	80006737          	lui	x14,0x80006
800032c4:	f4870713          	addi	x14,x14,-184 # 80005f48 <_end+0xffffffb8>
800032c8:	00e48733          	add	x14,x9,x14
800032cc:	00074683          	lbu	x13,0(x14)
800032d0:	80006737          	lui	x14,0x80006
800032d4:	f5870713          	addi	x14,x14,-168 # 80005f58 <_end+0xffffffc8>
800032d8:	00e48733          	add	x14,x9,x14
800032dc:	00074703          	lbu	x14,0(x14)
800032e0:	800067b7          	lui	x15,0x80006
800032e4:	a9478913          	addi	x18,x15,-1388 # 80005a94 <_end+0xfffffb04>
800032e8:	00071463          	bne	x14,x0,800032f0 <pjpeg_decode_mcu+0x104>
800032ec:	500c0913          	addi	x18,x24,1280
800032f0:	12069863          	bne	x13,x0,80003420 <pjpeg_decode_mcu+0x234>
800032f4:	5e0c0513          	addi	x10,x24,1504
800032f8:	630c0593          	addi	x11,x24,1584
800032fc:	a39ff0ef          	jal	x1,80002d34 <huffDecode>
80003300:	00f57713          	andi	x14,x10,15
80003304:	00050593          	addi	x11,x10,0
80003308:	00000513          	addi	x10,x0,0
8000330c:	00070a63          	beq	x14,x0,80003320 <pjpeg_decode_mcu+0x134>
80003310:	00070513          	addi	x10,x14,0
80003314:	00b12623          	sw	x11,12(x2)
80003318:	995ff0ef          	jal	x1,80002cac <getBits2>
8000331c:	00c12583          	lw	x11,12(x2)
80003320:	dcdfe0ef          	jal	x1,800020ec <huffExtend>
80003324:	80006737          	lui	x14,0x80006
80003328:	00149693          	slli	x13,x9,0x1
8000332c:	f7870713          	addi	x14,x14,-136 # 80005f78 <_end+0xffffffe8>
80003330:	00d70733          	add	x14,x14,x13
80003334:	00075683          	lhu	x13,0(x14)
80003338:	00095583          	lhu	x11,0(x18)
8000333c:	00d50533          	add	x10,x10,x13
80003340:	01051513          	slli	x10,x10,0x10
80003344:	01055513          	srli	x10,x10,0x10
80003348:	00a71023          	sh	x10,0(x14)
8000334c:	419010ef          	jal	x1,80004f64 <__mulsi3>
80003350:	80006737          	lui	x14,0x80006
80003354:	800066b7          	lui	x13,0x80006
80003358:	f4470713          	addi	x14,x14,-188 # 80005f44 <_end+0xffffffb4>
8000335c:	f246c683          	lbu	x13,-220(x13) # 80005f24 <_end+0xffffff94>
80003360:	00e484b3          	add	x9,x9,x14
80003364:	0004c703          	lbu	x14,0(x9)
80003368:	10ac1023          	sh	x10,256(x24)
8000336c:	800064b7          	lui	x9,0x80006
80003370:	61448493          	addi	x9,x9,1556 # 80006614 <_end+0x684>
80003374:	66068663          	beq	x13,x0,800039e0 <pjpeg_decode_mcu+0x7f4>
80003378:	0a070a63          	beq	x14,x0,8000342c <pjpeg_decode_mcu+0x240>
8000337c:	640c0b13          	addi	x22,x24,1600
80003380:	84048493          	addi	x9,x9,-1984
80003384:	00100a93          	addi	x21,x0,1
80003388:	00f00993          	addi	x19,x0,15
8000338c:	03000a13          	addi	x20,x0,48
80003390:	03f00913          	addi	x18,x0,63
80003394:	000b0593          	addi	x11,x22,0
80003398:	00048513          	addi	x10,x9,0
8000339c:	999ff0ef          	jal	x1,80002d34 <huffDecode>
800033a0:	00f57d13          	andi	x26,x10,15
800033a4:	00050c93          	addi	x25,x10,0
800033a8:	000d0663          	beq	x26,x0,800033b4 <pjpeg_decode_mcu+0x1c8>
800033ac:	000d0513          	addi	x10,x26,0
800033b0:	8fdff0ef          	jal	x1,80002cac <getBits2>
800033b4:	004cd513          	srli	x10,x25,0x4
800033b8:	0ff57513          	andi	x10,x10,255
800033bc:	060d0e63          	beq	x26,x0,80003438 <pjpeg_decode_mcu+0x24c>
800033c0:	08050463          	beq	x10,x0,80003448 <pjpeg_decode_mcu+0x25c>
800033c4:	00aa8ab3          	add	x21,x21,x10
800033c8:	07595e63          	bge	x18,x21,80003444 <pjpeg_decode_mcu+0x258>
800033cc:	01c00b93          	addi	x23,x0,28
800033d0:	01412783          	lw	x15,20(x2)
800033d4:	f257c783          	lbu	x15,-219(x15)
800033d8:	00078463          	beq	x15,x0,800033e0 <pjpeg_decode_mcu+0x1f4>
800033dc:	00078b93          	addi	x23,x15,0
800033e0:	06c12083          	lw	x1,108(x2)
800033e4:	06812403          	lw	x8,104(x2)
800033e8:	06412483          	lw	x9,100(x2)
800033ec:	06012903          	lw	x18,96(x2)
800033f0:	05c12983          	lw	x19,92(x2)
800033f4:	05812a03          	lw	x20,88(x2)
800033f8:	05412a83          	lw	x21,84(x2)
800033fc:	05012b03          	lw	x22,80(x2)
80003400:	04812c03          	lw	x24,72(x2)
80003404:	04412c83          	lw	x25,68(x2)
80003408:	04012d03          	lw	x26,64(x2)
8000340c:	03c12d83          	lw	x27,60(x2)
80003410:	000b8513          	addi	x10,x23,0
80003414:	04c12b83          	lw	x23,76(x2)
80003418:	07010113          	addi	x2,x2,112
8000341c:	00008067          	jalr	x0,0(x1)
80003420:	580c0513          	addi	x10,x24,1408
80003424:	5d0c0593          	addi	x11,x24,1488
80003428:	ed5ff06f          	jal	x0,800032fc <pjpeg_decode_mcu+0x110>
8000342c:	740c0b13          	addi	x22,x24,1856
80003430:	89048493          	addi	x9,x9,-1904
80003434:	f51ff06f          	jal	x0,80003384 <pjpeg_decode_mcu+0x198>
80003438:	01351e63          	bne	x10,x19,80003454 <pjpeg_decode_mcu+0x268>
8000343c:	f95a68e3          	bltu	x20,x21,800033cc <pjpeg_decode_mcu+0x1e0>
80003440:	00fa8a93          	addi	x21,x21,15
80003444:	0ffafa93          	andi	x21,x21,255
80003448:	001a8a93          	addi	x21,x21,1
8000344c:	0ffafa93          	andi	x21,x21,255
80003450:	f55972e3          	bgeu	x18,x21,80003394 <pjpeg_decode_mcu+0x1a8>
80003454:	100c1503          	lh	x10,256(x24)
80003458:	04050513          	addi	x10,x10,64
8000345c:	00755513          	srli	x10,x10,0x7
80003460:	08050513          	addi	x10,x10,128
80003464:	01051513          	slli	x10,x10,0x10
80003468:	41055513          	srai	x10,x10,0x10
8000346c:	cbdfe0ef          	jal	x1,80002128 <clamp>
80003470:	80006737          	lui	x14,0x80006
80003474:	f4072703          	lw	x14,-192(x14) # 80005f40 <_end+0xffffffb0>
80003478:	00400693          	addi	x13,x0,4
8000347c:	00050493          	addi	x9,x10,0
80003480:	02e6e063          	bltu	x13,x14,800034a0 <pjpeg_decode_mcu+0x2b4>
80003484:	800056b7          	lui	x13,0x80005
80003488:	00271713          	slli	x14,x14,0x2
8000348c:	1e068693          	addi	x13,x13,480 # 800051e0 <_end+0xfffff250>
80003490:	00d70733          	add	x14,x14,x13
80003494:	00072703          	lw	x14,0(x14)
80003498:	00070067          	jalr	x0,0(x14)
8000349c:	38ac0023          	sb	x10,896(x24)
800034a0:	00140413          	addi	x8,x8,1
800034a4:	0ff47413          	andi	x8,x8,255
800034a8:	7f10006f          	jal	x0,80004498 <pjpeg_decode_mcu+0x12ac>
800034ac:	00100713          	addi	x14,x0,1
800034b0:	02e40063          	beq	x8,x14,800034d0 <pjpeg_decode_mcu+0x2e4>
800034b4:	00200713          	addi	x14,x0,2
800034b8:	06e40c63          	beq	x8,x14,80003530 <pjpeg_decode_mcu+0x344>
800034bc:	fe0412e3          	bne	x8,x0,800034a0 <pjpeg_decode_mcu+0x2b4>
800034c0:	389c0023          	sb	x9,896(x24)
800034c4:	189c0023          	sb	x9,384(x24)
800034c8:	289c0023          	sb	x9,640(x24)
800034cc:	fd5ff06f          	jal	x0,800034a0 <pjpeg_decode_mcu+0x2b4>
800034d0:	00151913          	slli	x18,x10,0x1
800034d4:	00a90933          	add	x18,x18,x10
800034d8:	00291593          	slli	x11,x18,0x2
800034dc:	40a585b3          	sub	x11,x11,x10
800034e0:	00359593          	slli	x11,x11,0x3
800034e4:	0085d593          	srli	x11,x11,0x8
800034e8:	180c4503          	lbu	x10,384(x24)
800034ec:	fd458593          	addi	x11,x11,-44
800034f0:	01059593          	slli	x11,x11,0x10
800034f4:	4105d593          	srai	x11,x11,0x10
800034f8:	c85fe0ef          	jal	x1,8000217c <subAndClamp>
800034fc:	00591593          	slli	x11,x18,0x5
80003500:	00b905b3          	add	x11,x18,x11
80003504:	00159593          	slli	x11,x11,0x1
80003508:	0085d593          	srli	x11,x11,0x8
8000350c:	f1d48493          	addi	x9,x9,-227
80003510:	18ac0023          	sb	x10,384(x24)
80003514:	009585b3          	add	x11,x11,x9
80003518:	280c4503          	lbu	x10,640(x24)
8000351c:	01059593          	slli	x11,x11,0x10
80003520:	4105d593          	srai	x11,x11,0x10
80003524:	c25fe0ef          	jal	x1,80002148 <addAndClamp>
80003528:	28ac0023          	sb	x10,640(x24)
8000352c:	f75ff06f          	jal	x0,800034a0 <pjpeg_decode_mcu+0x2b4>
80003530:	00151913          	slli	x18,x10,0x1
80003534:	00a90933          	add	x18,x18,x10
80003538:	00291593          	slli	x11,x18,0x2
8000353c:	00a585b3          	add	x11,x11,x10
80003540:	00359593          	slli	x11,x11,0x3
80003544:	40a585b3          	sub	x11,x11,x10
80003548:	f4d50713          	addi	x14,x10,-179
8000354c:	0085d593          	srli	x11,x11,0x8
80003550:	00e585b3          	add	x11,x11,x14
80003554:	380c4503          	lbu	x10,896(x24)
80003558:	01059593          	slli	x11,x11,0x10
8000355c:	4105d593          	srai	x11,x11,0x10
80003560:	be9fe0ef          	jal	x1,80002148 <addAndClamp>
80003564:	00391593          	slli	x11,x18,0x3
80003568:	409585b3          	sub	x11,x11,x9
8000356c:	00359593          	slli	x11,x11,0x3
80003570:	409585b3          	sub	x11,x11,x9
80003574:	0085d593          	srli	x11,x11,0x8
80003578:	38ac0023          	sb	x10,896(x24)
8000357c:	fa558593          	addi	x11,x11,-91
80003580:	180c4503          	lbu	x10,384(x24)
80003584:	01059593          	slli	x11,x11,0x10
80003588:	4105d593          	srai	x11,x11,0x10
8000358c:	bf1fe0ef          	jal	x1,8000217c <subAndClamp>
80003590:	18ac0023          	sb	x10,384(x24)
80003594:	f0dff06f          	jal	x0,800034a0 <pjpeg_decode_mcu+0x2b4>
80003598:	00200713          	addi	x14,x0,2
8000359c:	0ae40a63          	beq	x8,x14,80003650 <pjpeg_decode_mcu+0x464>
800035a0:	00876c63          	bltu	x14,x8,800035b8 <pjpeg_decode_mcu+0x3cc>
800035a4:	f0040ee3          	beq	x8,x0,800034c0 <pjpeg_decode_mcu+0x2d4>
800035a8:	409c0023          	sb	x9,1024(x24)
800035ac:	209c0023          	sb	x9,512(x24)
800035b0:	309c0023          	sb	x9,768(x24)
800035b4:	eedff06f          	jal	x0,800034a0 <pjpeg_decode_mcu+0x2b4>
800035b8:	00300713          	addi	x14,x0,3
800035bc:	eee412e3          	bne	x8,x14,800034a0 <pjpeg_decode_mcu+0x2b4>
800035c0:	00151913          	slli	x18,x10,0x1
800035c4:	00a90933          	add	x18,x18,x10
800035c8:	00291593          	slli	x11,x18,0x2
800035cc:	00a585b3          	add	x11,x11,x10
800035d0:	00359593          	slli	x11,x11,0x3
800035d4:	40a585b3          	sub	x11,x11,x10
800035d8:	f4d50713          	addi	x14,x10,-179
800035dc:	0085d593          	srli	x11,x11,0x8
800035e0:	00e585b3          	add	x11,x11,x14
800035e4:	380c4503          	lbu	x10,896(x24)
800035e8:	01059593          	slli	x11,x11,0x10
800035ec:	4105d593          	srai	x11,x11,0x10
800035f0:	00b12623          	sw	x11,12(x2)
800035f4:	b55fe0ef          	jal	x1,80002148 <addAndClamp>
800035f8:	00c12583          	lw	x11,12(x2)
800035fc:	38ac0023          	sb	x10,896(x24)
80003600:	400c4503          	lbu	x10,1024(x24)
80003604:	b45fe0ef          	jal	x1,80002148 <addAndClamp>
80003608:	00391593          	slli	x11,x18,0x3
8000360c:	409585b3          	sub	x11,x11,x9
80003610:	00359593          	slli	x11,x11,0x3
80003614:	409585b3          	sub	x11,x11,x9
80003618:	0085d593          	srli	x11,x11,0x8
8000361c:	40ac0023          	sb	x10,1024(x24)
80003620:	fa558593          	addi	x11,x11,-91
80003624:	180c4503          	lbu	x10,384(x24)
80003628:	01059593          	slli	x11,x11,0x10
8000362c:	4105d593          	srai	x11,x11,0x10
80003630:	00b12623          	sw	x11,12(x2)
80003634:	b49fe0ef          	jal	x1,8000217c <subAndClamp>
80003638:	18ac0023          	sb	x10,384(x24)
8000363c:	00c12583          	lw	x11,12(x2)
80003640:	200c4503          	lbu	x10,512(x24)
80003644:	b39fe0ef          	jal	x1,8000217c <subAndClamp>
80003648:	20ac0023          	sb	x10,512(x24)
8000364c:	e55ff06f          	jal	x0,800034a0 <pjpeg_decode_mcu+0x2b4>
80003650:	00151913          	slli	x18,x10,0x1
80003654:	00a90933          	add	x18,x18,x10
80003658:	00291593          	slli	x11,x18,0x2
8000365c:	40a585b3          	sub	x11,x11,x10
80003660:	00359593          	slli	x11,x11,0x3
80003664:	0085d593          	srli	x11,x11,0x8
80003668:	180c4503          	lbu	x10,384(x24)
8000366c:	fd458593          	addi	x11,x11,-44
80003670:	01059593          	slli	x11,x11,0x10
80003674:	4105d593          	srai	x11,x11,0x10
80003678:	00b12623          	sw	x11,12(x2)
8000367c:	b01fe0ef          	jal	x1,8000217c <subAndClamp>
80003680:	00c12583          	lw	x11,12(x2)
80003684:	18ac0023          	sb	x10,384(x24)
80003688:	200c4503          	lbu	x10,512(x24)
8000368c:	f1d48493          	addi	x9,x9,-227
80003690:	aedfe0ef          	jal	x1,8000217c <subAndClamp>
80003694:	00591593          	slli	x11,x18,0x5
80003698:	00b905b3          	add	x11,x18,x11
8000369c:	00159593          	slli	x11,x11,0x1
800036a0:	0085d593          	srli	x11,x11,0x8
800036a4:	20ac0023          	sb	x10,512(x24)
800036a8:	009585b3          	add	x11,x11,x9
800036ac:	280c4503          	lbu	x10,640(x24)
800036b0:	01059593          	slli	x11,x11,0x10
800036b4:	4105d593          	srai	x11,x11,0x10
800036b8:	00b12623          	sw	x11,12(x2)
800036bc:	a8dfe0ef          	jal	x1,80002148 <addAndClamp>
800036c0:	28ac0023          	sb	x10,640(x24)
800036c4:	00c12583          	lw	x11,12(x2)
800036c8:	300c4503          	lbu	x10,768(x24)
800036cc:	a7dfe0ef          	jal	x1,80002148 <addAndClamp>
800036d0:	30ac0023          	sb	x10,768(x24)
800036d4:	dcdff06f          	jal	x0,800034a0 <pjpeg_decode_mcu+0x2b4>
800036d8:	00200713          	addi	x14,x0,2
800036dc:	0ae40a63          	beq	x8,x14,80003790 <pjpeg_decode_mcu+0x5a4>
800036e0:	00876c63          	bltu	x14,x8,800036f8 <pjpeg_decode_mcu+0x50c>
800036e4:	dc040ee3          	beq	x8,x0,800034c0 <pjpeg_decode_mcu+0x2d4>
800036e8:	3c9c0023          	sb	x9,960(x24)
800036ec:	1c9c0023          	sb	x9,448(x24)
800036f0:	2c9c0023          	sb	x9,704(x24)
800036f4:	dadff06f          	jal	x0,800034a0 <pjpeg_decode_mcu+0x2b4>
800036f8:	00300713          	addi	x14,x0,3
800036fc:	dae412e3          	bne	x8,x14,800034a0 <pjpeg_decode_mcu+0x2b4>
80003700:	00151913          	slli	x18,x10,0x1
80003704:	00a90933          	add	x18,x18,x10
80003708:	00291593          	slli	x11,x18,0x2
8000370c:	00a585b3          	add	x11,x11,x10
80003710:	00359593          	slli	x11,x11,0x3
80003714:	40a585b3          	sub	x11,x11,x10
80003718:	f4d50713          	addi	x14,x10,-179
8000371c:	0085d593          	srli	x11,x11,0x8
80003720:	00e585b3          	add	x11,x11,x14
80003724:	380c4503          	lbu	x10,896(x24)
80003728:	01059593          	slli	x11,x11,0x10
8000372c:	4105d593          	srai	x11,x11,0x10
80003730:	00b12623          	sw	x11,12(x2)
80003734:	a15fe0ef          	jal	x1,80002148 <addAndClamp>
80003738:	00c12583          	lw	x11,12(x2)
8000373c:	38ac0023          	sb	x10,896(x24)
80003740:	3c0c4503          	lbu	x10,960(x24)
80003744:	a05fe0ef          	jal	x1,80002148 <addAndClamp>
80003748:	00391593          	slli	x11,x18,0x3
8000374c:	409585b3          	sub	x11,x11,x9
80003750:	00359593          	slli	x11,x11,0x3
80003754:	409585b3          	sub	x11,x11,x9
80003758:	0085d593          	srli	x11,x11,0x8
8000375c:	3cac0023          	sb	x10,960(x24)
80003760:	fa558593          	addi	x11,x11,-91
80003764:	180c4503          	lbu	x10,384(x24)
80003768:	01059593          	slli	x11,x11,0x10
8000376c:	4105d593          	srai	x11,x11,0x10
80003770:	00b12623          	sw	x11,12(x2)
80003774:	a09fe0ef          	jal	x1,8000217c <subAndClamp>
80003778:	18ac0023          	sb	x10,384(x24)
8000377c:	00c12583          	lw	x11,12(x2)
80003780:	1c0c4503          	lbu	x10,448(x24)
80003784:	9f9fe0ef          	jal	x1,8000217c <subAndClamp>
80003788:	1cac0023          	sb	x10,448(x24)
8000378c:	d15ff06f          	jal	x0,800034a0 <pjpeg_decode_mcu+0x2b4>
80003790:	00151913          	slli	x18,x10,0x1
80003794:	00a90933          	add	x18,x18,x10
80003798:	00291593          	slli	x11,x18,0x2
8000379c:	40a585b3          	sub	x11,x11,x10
800037a0:	00359593          	slli	x11,x11,0x3
800037a4:	0085d593          	srli	x11,x11,0x8
800037a8:	180c4503          	lbu	x10,384(x24)
800037ac:	fd458593          	addi	x11,x11,-44
800037b0:	01059593          	slli	x11,x11,0x10
800037b4:	4105d593          	srai	x11,x11,0x10
800037b8:	00b12623          	sw	x11,12(x2)
800037bc:	9c1fe0ef          	jal	x1,8000217c <subAndClamp>
800037c0:	00c12583          	lw	x11,12(x2)
800037c4:	18ac0023          	sb	x10,384(x24)
800037c8:	1c0c4503          	lbu	x10,448(x24)
800037cc:	f1d48493          	addi	x9,x9,-227
800037d0:	9adfe0ef          	jal	x1,8000217c <subAndClamp>
800037d4:	00591593          	slli	x11,x18,0x5
800037d8:	00b905b3          	add	x11,x18,x11
800037dc:	00159593          	slli	x11,x11,0x1
800037e0:	0085d593          	srli	x11,x11,0x8
800037e4:	1cac0023          	sb	x10,448(x24)
800037e8:	009585b3          	add	x11,x11,x9
800037ec:	280c4503          	lbu	x10,640(x24)
800037f0:	01059593          	slli	x11,x11,0x10
800037f4:	4105d593          	srai	x11,x11,0x10
800037f8:	00b12623          	sw	x11,12(x2)
800037fc:	94dfe0ef          	jal	x1,80002148 <addAndClamp>
80003800:	28ac0023          	sb	x10,640(x24)
80003804:	00c12583          	lw	x11,12(x2)
80003808:	2c0c4503          	lbu	x10,704(x24)
8000380c:	93dfe0ef          	jal	x1,80002148 <addAndClamp>
80003810:	2cac0023          	sb	x10,704(x24)
80003814:	c8dff06f          	jal	x0,800034a0 <pjpeg_decode_mcu+0x2b4>
80003818:	00500713          	addi	x14,x0,5
8000381c:	c88762e3          	bltu	x14,x8,800034a0 <pjpeg_decode_mcu+0x2b4>
80003820:	800056b7          	lui	x13,0x80005
80003824:	00241713          	slli	x14,x8,0x2
80003828:	1f468693          	addi	x13,x13,500 # 800051f4 <_end+0xfffff264>
8000382c:	00d70733          	add	x14,x14,x13
80003830:	00072703          	lw	x14,0(x14)
80003834:	00070067          	jalr	x0,0(x14)
80003838:	44ac0023          	sb	x10,1088(x24)
8000383c:	24ac0023          	sb	x10,576(x24)
80003840:	34ac0023          	sb	x10,832(x24)
80003844:	c5dff06f          	jal	x0,800034a0 <pjpeg_decode_mcu+0x2b4>
80003848:	00151913          	slli	x18,x10,0x1
8000384c:	00a90933          	add	x18,x18,x10
80003850:	00291993          	slli	x19,x18,0x2
80003854:	40a989b3          	sub	x19,x19,x10
80003858:	00399993          	slli	x19,x19,0x3
8000385c:	0089d993          	srli	x19,x19,0x8
80003860:	fd498993          	addi	x19,x19,-44
80003864:	180c4503          	lbu	x10,384(x24)
80003868:	01099993          	slli	x19,x19,0x10
8000386c:	4109d993          	srai	x19,x19,0x10
80003870:	00098593          	addi	x11,x19,0
80003874:	909fe0ef          	jal	x1,8000217c <subAndClamp>
80003878:	18ac0023          	sb	x10,384(x24)
8000387c:	1c0c4503          	lbu	x10,448(x24)
80003880:	00098593          	addi	x11,x19,0
80003884:	f1d48493          	addi	x9,x9,-227
80003888:	8f5fe0ef          	jal	x1,8000217c <subAndClamp>
8000388c:	1cac0023          	sb	x10,448(x24)
80003890:	200c4503          	lbu	x10,512(x24)
80003894:	00098593          	addi	x11,x19,0
80003898:	8e5fe0ef          	jal	x1,8000217c <subAndClamp>
8000389c:	20ac0023          	sb	x10,512(x24)
800038a0:	240c4503          	lbu	x10,576(x24)
800038a4:	00098593          	addi	x11,x19,0
800038a8:	8d5fe0ef          	jal	x1,8000217c <subAndClamp>
800038ac:	00591593          	slli	x11,x18,0x5
800038b0:	00b905b3          	add	x11,x18,x11
800038b4:	00159593          	slli	x11,x11,0x1
800038b8:	0085d593          	srli	x11,x11,0x8
800038bc:	009584b3          	add	x9,x11,x9
800038c0:	24ac0023          	sb	x10,576(x24)
800038c4:	01049493          	slli	x9,x9,0x10
800038c8:	280c4503          	lbu	x10,640(x24)
800038cc:	4104d493          	srai	x9,x9,0x10
800038d0:	00048593          	addi	x11,x9,0
800038d4:	875fe0ef          	jal	x1,80002148 <addAndClamp>
800038d8:	28ac0023          	sb	x10,640(x24)
800038dc:	2c0c4503          	lbu	x10,704(x24)
800038e0:	00048593          	addi	x11,x9,0
800038e4:	865fe0ef          	jal	x1,80002148 <addAndClamp>
800038e8:	2cac0023          	sb	x10,704(x24)
800038ec:	300c4503          	lbu	x10,768(x24)
800038f0:	00048593          	addi	x11,x9,0
800038f4:	855fe0ef          	jal	x1,80002148 <addAndClamp>
800038f8:	30ac0023          	sb	x10,768(x24)
800038fc:	340c4503          	lbu	x10,832(x24)
80003900:	00048593          	addi	x11,x9,0
80003904:	845fe0ef          	jal	x1,80002148 <addAndClamp>
80003908:	34ac0023          	sb	x10,832(x24)
8000390c:	b95ff06f          	jal	x0,800034a0 <pjpeg_decode_mcu+0x2b4>
80003910:	00151913          	slli	x18,x10,0x1
80003914:	00a90933          	add	x18,x18,x10
80003918:	00291993          	slli	x19,x18,0x2
8000391c:	00a989b3          	add	x19,x19,x10
80003920:	00399993          	slli	x19,x19,0x3
80003924:	40a989b3          	sub	x19,x19,x10
80003928:	f4d50593          	addi	x11,x10,-179
8000392c:	0089d993          	srli	x19,x19,0x8
80003930:	00b989b3          	add	x19,x19,x11
80003934:	380c4503          	lbu	x10,896(x24)
80003938:	01099993          	slli	x19,x19,0x10
8000393c:	4109d993          	srai	x19,x19,0x10
80003940:	00098593          	addi	x11,x19,0
80003944:	805fe0ef          	jal	x1,80002148 <addAndClamp>
80003948:	38ac0023          	sb	x10,896(x24)
8000394c:	3c0c4503          	lbu	x10,960(x24)
80003950:	00098593          	addi	x11,x19,0
80003954:	ff4fe0ef          	jal	x1,80002148 <addAndClamp>
80003958:	3cac0023          	sb	x10,960(x24)
8000395c:	400c4503          	lbu	x10,1024(x24)
80003960:	00098593          	addi	x11,x19,0
80003964:	fe4fe0ef          	jal	x1,80002148 <addAndClamp>
80003968:	40ac0023          	sb	x10,1024(x24)
8000396c:	440c4503          	lbu	x10,1088(x24)
80003970:	00098593          	addi	x11,x19,0
80003974:	fd4fe0ef          	jal	x1,80002148 <addAndClamp>
80003978:	44ac0023          	sb	x10,1088(x24)
8000397c:	00391513          	slli	x10,x18,0x3
80003980:	40950533          	sub	x10,x10,x9
80003984:	00351513          	slli	x10,x10,0x3
80003988:	409504b3          	sub	x9,x10,x9
8000398c:	0084d493          	srli	x9,x9,0x8
80003990:	fa548493          	addi	x9,x9,-91
80003994:	180c4503          	lbu	x10,384(x24)
80003998:	01049493          	slli	x9,x9,0x10
8000399c:	4104d493          	srai	x9,x9,0x10
800039a0:	00048593          	addi	x11,x9,0
800039a4:	fd8fe0ef          	jal	x1,8000217c <subAndClamp>
800039a8:	18ac0023          	sb	x10,384(x24)
800039ac:	1c0c4503          	lbu	x10,448(x24)
800039b0:	00048593          	addi	x11,x9,0
800039b4:	fc8fe0ef          	jal	x1,8000217c <subAndClamp>
800039b8:	1cac0023          	sb	x10,448(x24)
800039bc:	200c4503          	lbu	x10,512(x24)
800039c0:	00048593          	addi	x11,x9,0
800039c4:	fb8fe0ef          	jal	x1,8000217c <subAndClamp>
800039c8:	20ac0023          	sb	x10,512(x24)
800039cc:	240c4503          	lbu	x10,576(x24)
800039d0:	00048593          	addi	x11,x9,0
800039d4:	fa8fe0ef          	jal	x1,8000217c <subAndClamp>
800039d8:	24ac0023          	sb	x10,576(x24)
800039dc:	ac5ff06f          	jal	x0,800034a0 <pjpeg_decode_mcu+0x2b4>
800039e0:	1e070a63          	beq	x14,x0,80003bd4 <pjpeg_decode_mcu+0x9e8>
800039e4:	640c0a13          	addi	x20,x24,1600
800039e8:	84048493          	addi	x9,x9,-1984
800039ec:	00100c93          	addi	x25,x0,1
800039f0:	00f00a93          	addi	x21,x0,15
800039f4:	03000b13          	addi	x22,x0,48
800039f8:	03f00993          	addi	x19,x0,63
800039fc:	000a0593          	addi	x11,x20,0
80003a00:	00048513          	addi	x10,x9,0
80003a04:	b30ff0ef          	jal	x1,80002d34 <huffDecode>
80003a08:	00f57593          	andi	x11,x10,15
80003a0c:	00050d13          	addi	x26,x10,0
80003a10:	00000513          	addi	x10,x0,0
80003a14:	00058a63          	beq	x11,x0,80003a28 <pjpeg_decode_mcu+0x83c>
80003a18:	00058513          	addi	x10,x11,0
80003a1c:	00b12623          	sw	x11,12(x2)
80003a20:	a8cff0ef          	jal	x1,80002cac <getBits2>
80003a24:	00c12583          	lw	x11,12(x2)
80003a28:	004d5713          	srli	x14,x26,0x4
80003a2c:	0ff77713          	andi	x14,x14,255
80003a30:	1a058863          	beq	x11,x0,80003be0 <pjpeg_decode_mcu+0x9f4>
80003a34:	02070c63          	beq	x14,x0,80003a6c <pjpeg_decode_mcu+0x880>
80003a38:	01970733          	add	x14,x14,x25
80003a3c:	98e9c8e3          	blt	x19,x14,800033cc <pjpeg_decode_mcu+0x1e0>
80003a40:	0ff77713          	andi	x14,x14,255
80003a44:	01012783          	lw	x15,16(x2)
80003a48:	000c8693          	addi	x13,x25,0
80003a4c:	001c8c93          	addi	x25,x25,1
80003a50:	00d786b3          	add	x13,x15,x13
80003a54:	0a068683          	lb	x13,160(x13)
80003a58:	0ffcfc93          	andi	x25,x25,255
80003a5c:	00169693          	slli	x13,x13,0x1
80003a60:	00dc06b3          	add	x13,x24,x13
80003a64:	10069023          	sh	x0,256(x13)
80003a68:	fcec9ee3          	bne	x25,x14,80003a44 <pjpeg_decode_mcu+0x858>
80003a6c:	e80fe0ef          	jal	x1,800020ec <huffExtend>
80003a70:	01012783          	lw	x15,16(x2)
80003a74:	00050593          	addi	x11,x10,0
80003a78:	01978733          	add	x14,x15,x25
80003a7c:	0a070d03          	lb	x26,160(x14)
80003a80:	001c9713          	slli	x14,x25,0x1
80003a84:	00e90733          	add	x14,x18,x14
80003a88:	00075503          	lhu	x10,0(x14)
80003a8c:	001d1d13          	slli	x26,x26,0x1
80003a90:	01ac0d33          	add	x26,x24,x26
80003a94:	4d0010ef          	jal	x1,80004f64 <__mulsi3>
80003a98:	10ad1023          	sh	x10,256(x26)
80003a9c:	001c8c93          	addi	x25,x25,1
80003aa0:	0ffcfc93          	andi	x25,x25,255
80003aa4:	f599fce3          	bgeu	x19,x25,800039fc <pjpeg_decode_mcu+0x810>
80003aa8:	80005d37          	lui	x26,0x80005
80003aac:	714d0793          	addi	x15,x26,1812 # 80005714 <_end+0xfffff784>
80003ab0:	00f12623          	sw	x15,12(x2)
80003ab4:	100c0493          	addi	x9,x24,256
80003ab8:	180c0793          	addi	x15,x24,384
80003abc:	00249903          	lh	x18,2(x9)
80003ac0:	00449a03          	lh	x20,4(x9)
80003ac4:	00649683          	lh	x13,6(x9)
80003ac8:	00849c83          	lh	x25,8(x9)
80003acc:	00a49503          	lh	x10,10(x9)
80003ad0:	01496733          	or	x14,x18,x20
80003ad4:	00c49a83          	lh	x21,12(x9)
80003ad8:	00e6e733          	or	x14,x13,x14
80003adc:	00e49583          	lh	x11,14(x9)
80003ae0:	00ece733          	or	x14,x25,x14
80003ae4:	00e56733          	or	x14,x10,x14
80003ae8:	00eae733          	or	x14,x21,x14
80003aec:	00e5e733          	or	x14,x11,x14
80003af0:	00049983          	lh	x19,0(x9)
80003af4:	16071463          	bne	x14,x0,80003c5c <pjpeg_decode_mcu+0xa70>
80003af8:	01349123          	sh	x19,2(x9)
80003afc:	01349223          	sh	x19,4(x9)
80003b00:	01349323          	sh	x19,6(x9)
80003b04:	01349423          	sh	x19,8(x9)
80003b08:	01349523          	sh	x19,10(x9)
80003b0c:	01349623          	sh	x19,12(x9)
80003b10:	01349723          	sh	x19,14(x9)
80003b14:	01048493          	addi	x9,x9,16
80003b18:	faf492e3          	bne	x9,x15,80003abc <pjpeg_decode_mcu+0x8d0>
80003b1c:	00c12d03          	lw	x26,12(x2)
80003b20:	010d1903          	lh	x18,16(x26)
80003b24:	020d1b03          	lh	x22,32(x26)
80003b28:	030d1603          	lh	x12,48(x26)
80003b2c:	040d1a83          	lh	x21,64(x26)
80003b30:	050d1503          	lh	x10,80(x26)
80003b34:	016966b3          	or	x13,x18,x22
80003b38:	060d1c83          	lh	x25,96(x26)
80003b3c:	00d666b3          	or	x13,x12,x13
80003b40:	070d1583          	lh	x11,112(x26)
80003b44:	00dae6b3          	or	x13,x21,x13
80003b48:	00d566b3          	or	x13,x10,x13
80003b4c:	00dce6b3          	or	x13,x25,x13
80003b50:	00d5e6b3          	or	x13,x11,x13
80003b54:	000d1483          	lh	x9,0(x26)
80003b58:	32069863          	bne	x13,x0,80003e88 <pjpeg_decode_mcu+0xc9c>
80003b5c:	04048513          	addi	x10,x9,64
80003b60:	00755513          	srli	x10,x10,0x7
80003b64:	08050513          	addi	x10,x10,128
80003b68:	01051513          	slli	x10,x10,0x10
80003b6c:	41055513          	srai	x10,x10,0x10
80003b70:	db8fe0ef          	jal	x1,80002128 <clamp>
80003b74:	01051513          	slli	x10,x10,0x10
80003b78:	41055513          	srai	x10,x10,0x10
80003b7c:	00ad1023          	sh	x10,0(x26)
80003b80:	00ad1823          	sh	x10,16(x26)
80003b84:	02ad1023          	sh	x10,32(x26)
80003b88:	02ad1823          	sh	x10,48(x26)
80003b8c:	04ad1023          	sh	x10,64(x26)
80003b90:	04ad1823          	sh	x10,80(x26)
80003b94:	06ad1023          	sh	x10,96(x26)
80003b98:	800057b7          	lui	x15,0x80005
80003b9c:	06ad1823          	sh	x10,112(x26)
80003ba0:	72478793          	addi	x15,x15,1828 # 80005724 <_end+0xfffff794>
80003ba4:	002d0d13          	addi	x26,x26,2
80003ba8:	f6fd1ce3          	bne	x26,x15,80003b20 <pjpeg_decode_mcu+0x934>
80003bac:	80006737          	lui	x14,0x80006
80003bb0:	f4072703          	lw	x14,-192(x14) # 80005f40 <_end+0xffffffb0>
80003bb4:	00400693          	addi	x13,x0,4
80003bb8:	8ee6e4e3          	bltu	x13,x14,800034a0 <pjpeg_decode_mcu+0x2b4>
80003bbc:	800056b7          	lui	x13,0x80005
80003bc0:	00271713          	slli	x14,x14,0x2
80003bc4:	20c68693          	addi	x13,x13,524 # 8000520c <_end+0xfffff27c>
80003bc8:	00d70733          	add	x14,x14,x13
80003bcc:	00072703          	lw	x14,0(x14)
80003bd0:	00070067          	jalr	x0,0(x14)
80003bd4:	740c0a13          	addi	x20,x24,1856
80003bd8:	89048493          	addi	x9,x9,-1904
80003bdc:	e11ff06f          	jal	x0,800039ec <pjpeg_decode_mcu+0x800>
80003be0:	03570c63          	beq	x14,x21,80003c18 <pjpeg_decode_mcu+0xa2c>
80003be4:	800057b7          	lui	x15,0x80005
80003be8:	2d878793          	addi	x15,x15,728 # 800052d8 <_end+0xfffff348>
80003bec:	019786b3          	add	x13,x15,x25
80003bf0:	03f00613          	addi	x12,x0,63
80003bf4:	00068703          	lb	x14,0(x13)
80003bf8:	001c8c93          	addi	x25,x25,1
80003bfc:	0ffcfc93          	andi	x25,x25,255
80003c00:	00171713          	slli	x14,x14,0x1
80003c04:	00ec0733          	add	x14,x24,x14
80003c08:	10071023          	sh	x0,256(x14)
80003c0c:	00168693          	addi	x13,x13,1
80003c10:	ff9672e3          	bgeu	x12,x25,80003bf4 <pjpeg_decode_mcu+0xa08>
80003c14:	e95ff06f          	jal	x0,80003aa8 <pjpeg_decode_mcu+0x8bc>
80003c18:	fb9b6a63          	bltu	x22,x25,800033cc <pjpeg_decode_mcu+0x1e0>
80003c1c:	010c8613          	addi	x12,x25,16
80003c20:	0ff67613          	andi	x12,x12,255
80003c24:	000c8713          	addi	x14,x25,0
80003c28:	01012783          	lw	x15,16(x2)
80003c2c:	00070693          	addi	x13,x14,0
80003c30:	00170713          	addi	x14,x14,1
80003c34:	00d786b3          	add	x13,x15,x13
80003c38:	0a068683          	lb	x13,160(x13)
80003c3c:	0ff77713          	andi	x14,x14,255
80003c40:	00169693          	slli	x13,x13,0x1
80003c44:	00dc06b3          	add	x13,x24,x13
80003c48:	10069023          	sh	x0,256(x13)
80003c4c:	fcc71ee3          	bne	x14,x12,80003c28 <pjpeg_decode_mcu+0xa3c>
80003c50:	00fc8c93          	addi	x25,x25,15
80003c54:	0ffcfc93          	andi	x25,x25,255
80003c58:	e45ff06f          	jal	x0,80003a9c <pjpeg_decode_mcu+0x8b0>
80003c5c:	01069713          	slli	x14,x13,0x10
80003c60:	01051513          	slli	x10,x10,0x10
80003c64:	01075713          	srli	x14,x14,0x10
80003c68:	01055513          	srli	x10,x10,0x10
80003c6c:	40e506b3          	sub	x13,x10,x14
80003c70:	01069693          	slli	x13,x13,0x10
80003c74:	01091913          	slli	x18,x18,0x10
80003c78:	01059593          	slli	x11,x11,0x10
80003c7c:	0105d593          	srli	x11,x11,0x10
80003c80:	01095913          	srli	x18,x18,0x10
80003c84:	0106d693          	srli	x13,x13,0x10
80003c88:	00b90633          	add	x12,x18,x11
80003c8c:	00e50533          	add	x10,x10,x14
80003c90:	41268733          	sub	x14,x13,x18
80003c94:	40b90933          	sub	x18,x18,x11
80003c98:	00e58733          	add	x14,x11,x14
80003c9c:	01091593          	slli	x11,x18,0x10
80003ca0:	4105d593          	srai	x11,x11,0x10
80003ca4:	01071813          	slli	x16,x14,0x10
80003ca8:	00459913          	slli	x18,x11,0x4
80003cac:	41085813          	srai	x16,x16,0x10
80003cb0:	00b90933          	add	x18,x18,x11
80003cb4:	00181713          	slli	x14,x16,0x1
80003cb8:	00291913          	slli	x18,x18,0x2
80003cbc:	01069693          	slli	x13,x13,0x10
80003cc0:	4106d693          	srai	x13,x13,0x10
80003cc4:	01070733          	add	x14,x14,x16
80003cc8:	00b90933          	add	x18,x18,x11
80003ccc:	00369d93          	slli	x27,x13,0x3
80003cd0:	01051513          	slli	x10,x10,0x10
80003cd4:	01061613          	slli	x12,x12,0x10
80003cd8:	00471713          	slli	x14,x14,0x4
80003cdc:	00291913          	slli	x18,x18,0x2
80003ce0:	01065613          	srli	x12,x12,0x10
80003ce4:	01055513          	srli	x10,x10,0x10
80003ce8:	01070733          	add	x14,x14,x16
80003cec:	00b90933          	add	x18,x18,x11
80003cf0:	40dd8db3          	sub	x27,x27,x13
80003cf4:	00c50833          	add	x16,x10,x12
80003cf8:	005d9d93          	slli	x27,x27,0x5
80003cfc:	40a60533          	sub	x10,x12,x10
80003d00:	00271713          	slli	x14,x14,0x2
80003d04:	08090913          	addi	x18,x18,128
80003d08:	40dd86b3          	sub	x13,x27,x13
80003d0c:	40895913          	srai	x18,x18,0x8
80003d10:	08070713          	addi	x14,x14,128
80003d14:	01051513          	slli	x10,x10,0x10
80003d18:	40875713          	srai	x14,x14,0x8
80003d1c:	00269d93          	slli	x27,x13,0x2
80003d20:	01081d13          	slli	x26,x16,0x10
80003d24:	16a00593          	addi	x11,x0,362
80003d28:	01091913          	slli	x18,x18,0x10
80003d2c:	41055513          	srai	x10,x10,0x10
80003d30:	01071b13          	slli	x22,x14,0x10
80003d34:	010d5d13          	srli	x26,x26,0x10
80003d38:	40dd8db3          	sub	x27,x27,x13
80003d3c:	01095913          	srli	x18,x18,0x10
80003d40:	224010ef          	jal	x1,80004f64 <__mulsi3>
80003d44:	010b5b13          	srli	x22,x22,0x10
80003d48:	412d08b3          	sub	x17,x26,x18
80003d4c:	011b08b3          	add	x17,x22,x17
80003d50:	08050613          	addi	x12,x10,128
80003d54:	01089893          	slli	x17,x17,0x10
80003d58:	010a9513          	slli	x10,x21,0x10
80003d5c:	010a1a13          	slli	x20,x20,0x10
80003d60:	0108d893          	srli	x17,x17,0x10
80003d64:	010a5a13          	srli	x20,x20,0x10
80003d68:	01055513          	srli	x10,x10,0x10
80003d6c:	40865613          	srai	x12,x12,0x8
80003d70:	00c88633          	add	x12,x17,x12
80003d74:	00aa0ab3          	add	x21,x20,x10
80003d78:	080d8d93          	addi	x27,x27,128
80003d7c:	40aa0533          	sub	x10,x20,x10
80003d80:	010c9693          	slli	x13,x25,0x10
80003d84:	01061613          	slli	x12,x12,0x10
80003d88:	408ddd93          	srai	x27,x27,0x8
80003d8c:	01099993          	slli	x19,x19,0x10
80003d90:	01051513          	slli	x10,x10,0x10
80003d94:	01065613          	srli	x12,x12,0x10
80003d98:	0106d693          	srli	x13,x13,0x10
80003d9c:	0109d993          	srli	x19,x19,0x10
80003da0:	16a00593          	addi	x11,x0,362
80003da4:	41bb0db3          	sub	x27,x22,x27
80003da8:	41055513          	srai	x10,x10,0x10
80003dac:	00d98cb3          	add	x25,x19,x13
80003db0:	01b60db3          	add	x27,x12,x27
80003db4:	40d989b3          	sub	x19,x19,x13
80003db8:	03112223          	sw	x17,36(x2)
80003dbc:	02c12023          	sw	x12,32(x2)
80003dc0:	1a4010ef          	jal	x1,80004f64 <__mulsi3>
80003dc4:	08050513          	addi	x10,x10,128
80003dc8:	01099993          	slli	x19,x19,0x10
80003dcc:	010a9a93          	slli	x21,x21,0x10
80003dd0:	40855513          	srai	x10,x10,0x8
80003dd4:	010ada93          	srli	x21,x21,0x10
80003dd8:	0109d993          	srli	x19,x19,0x10
80003ddc:	01051513          	slli	x10,x10,0x10
80003de0:	01055513          	srli	x10,x10,0x10
80003de4:	415985b3          	sub	x11,x19,x21
80003de8:	00b505b3          	add	x11,x10,x11
80003dec:	010c9c93          	slli	x25,x25,0x10
80003df0:	01059593          	slli	x11,x11,0x10
80003df4:	015989b3          	add	x19,x19,x21
80003df8:	02012603          	lw	x12,32(x2)
80003dfc:	010cdc93          	srli	x25,x25,0x10
80003e00:	0105d593          	srli	x11,x11,0x10
80003e04:	40a989b3          	sub	x19,x19,x10
80003e08:	41a90933          	sub	x18,x18,x26
80003e0c:	015c86b3          	add	x13,x25,x21
80003e10:	01258933          	add	x18,x11,x18
80003e14:	02412883          	lw	x17,36(x2)
80003e18:	415c8cb3          	sub	x25,x25,x21
80003e1c:	01099993          	slli	x19,x19,0x10
80003e20:	0109d993          	srli	x19,x19,0x10
80003e24:	41690733          	sub	x14,x18,x22
80003e28:	010d9d93          	slli	x27,x27,0x10
80003e2c:	01069693          	slli	x13,x13,0x10
80003e30:	010c9c93          	slli	x25,x25,0x10
80003e34:	010ddd93          	srli	x27,x27,0x10
80003e38:	0106d693          	srli	x13,x13,0x10
80003e3c:	010cdc93          	srli	x25,x25,0x10
80003e40:	00e49123          	sh	x14,2(x9)
80003e44:	01360733          	add	x14,x12,x19
80003e48:	00dd0533          	add	x10,x26,x13
80003e4c:	00e49223          	sh	x14,4(x9)
80003e50:	40c989b3          	sub	x19,x19,x12
80003e54:	41bc8733          	sub	x14,x25,x27
80003e58:	00b885b3          	add	x11,x17,x11
80003e5c:	019d8cb3          	add	x25,x27,x25
80003e60:	41a686b3          	sub	x13,x13,x26
80003e64:	800057b7          	lui	x15,0x80005
80003e68:	00a49023          	sh	x10,0(x9)
80003e6c:	00e49323          	sh	x14,6(x9)
80003e70:	01949423          	sh	x25,8(x9)
80003e74:	01349523          	sh	x19,10(x9)
80003e78:	00b49623          	sh	x11,12(x9)
80003e7c:	00d49723          	sh	x13,14(x9)
80003e80:	79478793          	addi	x15,x15,1940 # 80005794 <_end+0xfffff804>
80003e84:	c91ff06f          	jal	x0,80003b14 <pjpeg_decode_mcu+0x928>
80003e88:	01051513          	slli	x10,x10,0x10
80003e8c:	01061613          	slli	x12,x12,0x10
80003e90:	01065613          	srli	x12,x12,0x10
80003e94:	01055513          	srli	x10,x10,0x10
80003e98:	40c506b3          	sub	x13,x10,x12
80003e9c:	01069693          	slli	x13,x13,0x10
80003ea0:	01091913          	slli	x18,x18,0x10
80003ea4:	01059593          	slli	x11,x11,0x10
80003ea8:	0105d593          	srli	x11,x11,0x10
80003eac:	0106d693          	srli	x13,x13,0x10
80003eb0:	01095913          	srli	x18,x18,0x10
80003eb4:	41268a33          	sub	x20,x13,x18
80003eb8:	00c50533          	add	x10,x10,x12
80003ebc:	00b90633          	add	x12,x18,x11
80003ec0:	40b90933          	sub	x18,x18,x11
80003ec4:	01458a33          	add	x20,x11,x20
80003ec8:	01091593          	slli	x11,x18,0x10
80003ecc:	4105d593          	srai	x11,x11,0x10
80003ed0:	00459913          	slli	x18,x11,0x4
80003ed4:	00b90933          	add	x18,x18,x11
80003ed8:	00291913          	slli	x18,x18,0x2
80003edc:	00b90933          	add	x18,x18,x11
80003ee0:	00291913          	slli	x18,x18,0x2
80003ee4:	00b90933          	add	x18,x18,x11
80003ee8:	01069593          	slli	x11,x13,0x10
80003eec:	4105d593          	srai	x11,x11,0x10
80003ef0:	00359693          	slli	x13,x11,0x3
80003ef4:	010a1813          	slli	x16,x20,0x10
80003ef8:	40b686b3          	sub	x13,x13,x11
80003efc:	01051513          	slli	x10,x10,0x10
80003f00:	01061613          	slli	x12,x12,0x10
80003f04:	41085813          	srai	x16,x16,0x10
80003f08:	01065613          	srli	x12,x12,0x10
80003f0c:	01055513          	srli	x10,x10,0x10
80003f10:	00569693          	slli	x13,x13,0x5
80003f14:	00181a13          	slli	x20,x16,0x1
80003f18:	00c50db3          	add	x27,x10,x12
80003f1c:	40b686b3          	sub	x13,x13,x11
80003f20:	40a60533          	sub	x10,x12,x10
80003f24:	010a0a33          	add	x20,x20,x16
80003f28:	00269593          	slli	x11,x13,0x2
80003f2c:	01051513          	slli	x10,x10,0x10
80003f30:	40d586b3          	sub	x13,x11,x13
80003f34:	004a1a13          	slli	x20,x20,0x4
80003f38:	16a00593          	addi	x11,x0,362
80003f3c:	41055513          	srai	x10,x10,0x10
80003f40:	02d12623          	sw	x13,44(x2)
80003f44:	010a0a33          	add	x20,x20,x16
80003f48:	01c010ef          	jal	x1,80004f64 <__mulsi3>
80003f4c:	08050993          	addi	x19,x10,128
80003f50:	010b1b13          	slli	x22,x22,0x10
80003f54:	010c9513          	slli	x10,x25,0x10
80003f58:	010b5b13          	srli	x22,x22,0x10
80003f5c:	010a9613          	slli	x12,x21,0x10
80003f60:	01055513          	srli	x10,x10,0x10
80003f64:	01049493          	slli	x9,x9,0x10
80003f68:	01065613          	srli	x12,x12,0x10
80003f6c:	00ab0cb3          	add	x25,x22,x10
80003f70:	0104d493          	srli	x9,x9,0x10
80003f74:	40ab0533          	sub	x10,x22,x10
80003f78:	00c48ab3          	add	x21,x9,x12
80003f7c:	01051513          	slli	x10,x10,0x10
80003f80:	16a00593          	addi	x11,x0,362
80003f84:	010a9a93          	slli	x21,x21,0x10
80003f88:	010c9c93          	slli	x25,x25,0x10
80003f8c:	41055513          	srai	x10,x10,0x10
80003f90:	010cdc93          	srli	x25,x25,0x10
80003f94:	40c484b3          	sub	x9,x9,x12
80003f98:	010ada93          	srli	x21,x21,0x10
80003f9c:	7c9000ef          	jal	x1,80004f64 <__mulsi3>
80003fa0:	010d9d93          	slli	x27,x27,0x10
80003fa4:	010ddd93          	srli	x27,x27,0x10
80003fa8:	08050b13          	addi	x22,x10,128
80003fac:	019a8533          	add	x10,x21,x25
80003fb0:	01051613          	slli	x12,x10,0x10
80003fb4:	010d9593          	slli	x11,x27,0x10
80003fb8:	41065613          	srai	x12,x12,0x10
80003fbc:	4105d593          	srai	x11,x11,0x10
80003fc0:	00b60533          	add	x10,x12,x11
80003fc4:	04050513          	addi	x10,x10,64
80003fc8:	00755513          	srli	x10,x10,0x7
80003fcc:	08050513          	addi	x10,x10,128
80003fd0:	002a1a13          	slli	x20,x20,0x2
80003fd4:	08090913          	addi	x18,x18,128
80003fd8:	01051513          	slli	x10,x10,0x10
80003fdc:	40895913          	srai	x18,x18,0x8
80003fe0:	080a0a13          	addi	x20,x20,128
80003fe4:	01049493          	slli	x9,x9,0x10
80003fe8:	408b5b13          	srai	x22,x22,0x8
80003fec:	41055513          	srai	x10,x10,0x10
80003ff0:	02b12423          	sw	x11,40(x2)
80003ff4:	02c12223          	sw	x12,36(x2)
80003ff8:	0104d493          	srli	x9,x9,0x10
80003ffc:	92cfe0ef          	jal	x1,80002128 <clamp>
80004000:	01091913          	slli	x18,x18,0x10
80004004:	408a5a13          	srai	x20,x20,0x8
80004008:	010b1b13          	slli	x22,x22,0x10
8000400c:	00ad1023          	sh	x10,0(x26)
80004010:	01095913          	srli	x18,x18,0x10
80004014:	41948533          	sub	x10,x9,x25
80004018:	010b5b13          	srli	x22,x22,0x10
8000401c:	010a1a13          	slli	x20,x20,0x10
80004020:	4089d993          	srai	x19,x19,0x8
80004024:	010a5a13          	srli	x20,x20,0x10
80004028:	00ab0533          	add	x10,x22,x10
8000402c:	412989b3          	sub	x19,x19,x18
80004030:	41b90933          	sub	x18,x18,x27
80004034:	01051813          	slli	x16,x10,0x10
80004038:	41490533          	sub	x10,x18,x20
8000403c:	01051913          	slli	x18,x10,0x10
80004040:	41085813          	srai	x16,x16,0x10
80004044:	41095913          	srai	x18,x18,0x10
80004048:	01280533          	add	x10,x16,x18
8000404c:	013d89b3          	add	x19,x27,x19
80004050:	04050513          	addi	x10,x10,64
80004054:	013a09b3          	add	x19,x20,x19
80004058:	00755513          	srli	x10,x10,0x7
8000405c:	019484b3          	add	x9,x9,x25
80004060:	01099993          	slli	x19,x19,0x10
80004064:	08050513          	addi	x10,x10,128
80004068:	0109d993          	srli	x19,x19,0x10
8000406c:	41648b33          	sub	x22,x9,x22
80004070:	01051513          	slli	x10,x10,0x10
80004074:	01099493          	slli	x9,x19,0x10
80004078:	41055513          	srai	x10,x10,0x10
8000407c:	010b1b13          	slli	x22,x22,0x10
80004080:	03012023          	sw	x16,32(x2)
80004084:	410b5b13          	srai	x22,x22,0x10
80004088:	8a0fe0ef          	jal	x1,80002128 <clamp>
8000408c:	4104d493          	srai	x9,x9,0x10
80004090:	00ad1823          	sh	x10,16(x26)
80004094:	009b0533          	add	x10,x22,x9
80004098:	04050513          	addi	x10,x10,64
8000409c:	00755513          	srli	x10,x10,0x7
800040a0:	08050513          	addi	x10,x10,128
800040a4:	01051513          	slli	x10,x10,0x10
800040a8:	41055513          	srai	x10,x10,0x10
800040ac:	87cfe0ef          	jal	x1,80002128 <clamp>
800040b0:	02c12683          	lw	x13,44(x2)
800040b4:	419a8ab3          	sub	x21,x21,x25
800040b8:	010a9a93          	slli	x21,x21,0x10
800040bc:	08068693          	addi	x13,x13,128
800040c0:	4086d693          	srai	x13,x13,0x8
800040c4:	40da0a33          	sub	x20,x20,x13
800040c8:	014989b3          	add	x19,x19,x20
800040cc:	01099993          	slli	x19,x19,0x10
800040d0:	410ada93          	srai	x21,x21,0x10
800040d4:	4109d993          	srai	x19,x19,0x10
800040d8:	02ad1023          	sh	x10,32(x26)
800040dc:	413a8533          	sub	x10,x21,x19
800040e0:	04050513          	addi	x10,x10,64
800040e4:	00755513          	srli	x10,x10,0x7
800040e8:	08050513          	addi	x10,x10,128
800040ec:	01051513          	slli	x10,x10,0x10
800040f0:	41055513          	srai	x10,x10,0x10
800040f4:	834fe0ef          	jal	x1,80002128 <clamp>
800040f8:	02ad1823          	sh	x10,48(x26)
800040fc:	013a8533          	add	x10,x21,x19
80004100:	04050513          	addi	x10,x10,64
80004104:	00755513          	srli	x10,x10,0x7
80004108:	08050513          	addi	x10,x10,128
8000410c:	01051513          	slli	x10,x10,0x10
80004110:	41055513          	srai	x10,x10,0x10
80004114:	814fe0ef          	jal	x1,80002128 <clamp>
80004118:	04ad1023          	sh	x10,64(x26)
8000411c:	409b0533          	sub	x10,x22,x9
80004120:	04050513          	addi	x10,x10,64
80004124:	00755513          	srli	x10,x10,0x7
80004128:	08050513          	addi	x10,x10,128
8000412c:	01051513          	slli	x10,x10,0x10
80004130:	41055513          	srai	x10,x10,0x10
80004134:	ff5fd0ef          	jal	x1,80002128 <clamp>
80004138:	02012803          	lw	x16,32(x2)
8000413c:	04ad1823          	sh	x10,80(x26)
80004140:	41280533          	sub	x10,x16,x18
80004144:	04050513          	addi	x10,x10,64
80004148:	00755513          	srli	x10,x10,0x7
8000414c:	08050513          	addi	x10,x10,128
80004150:	01051513          	slli	x10,x10,0x10
80004154:	41055513          	srai	x10,x10,0x10
80004158:	fd1fd0ef          	jal	x1,80002128 <clamp>
8000415c:	02412603          	lw	x12,36(x2)
80004160:	02812583          	lw	x11,40(x2)
80004164:	06ad1023          	sh	x10,96(x26)
80004168:	40b60533          	sub	x10,x12,x11
8000416c:	04050513          	addi	x10,x10,64
80004170:	00755513          	srli	x10,x10,0x7
80004174:	08050513          	addi	x10,x10,128
80004178:	01051513          	slli	x10,x10,0x10
8000417c:	41055513          	srai	x10,x10,0x10
80004180:	fa9fd0ef          	jal	x1,80002128 <clamp>
80004184:	a15ff06f          	jal	x0,80003b98 <pjpeg_decode_mcu+0x9ac>
80004188:	00100713          	addi	x14,x0,1
8000418c:	00e40e63          	beq	x8,x14,800041a8 <pjpeg_decode_mcu+0xfbc>
80004190:	00200713          	addi	x14,x0,2
80004194:	08e40e63          	beq	x8,x14,80004230 <pjpeg_decode_mcu+0x1044>
80004198:	b0041463          	bne	x8,x0,800034a0 <pjpeg_decode_mcu+0x2b4>
8000419c:	00000513          	addi	x10,x0,0
800041a0:	86dfe0ef          	jal	x1,80002a0c <copyY>
800041a4:	afcff06f          	jal	x0,800034a0 <pjpeg_decode_mcu+0x2b4>
800041a8:	00000913          	addi	x18,x0,0
800041ac:	280c0993          	addi	x19,x24,640
800041b0:	180c0a13          	addi	x20,x24,384
800041b4:	08000a93          	addi	x21,x0,128
800041b8:	00c12783          	lw	x15,12(x2)
800041bc:	000a4503          	lbu	x10,0(x20)
800041c0:	00198993          	addi	x19,x19,1
800041c4:	01278733          	add	x14,x15,x18
800041c8:	00071b03          	lh	x22,0(x14)
800041cc:	00290913          	addi	x18,x18,2
800041d0:	001a0a13          	addi	x20,x20,1
800041d4:	0ffb7713          	andi	x14,x22,255
800041d8:	00171493          	slli	x9,x14,0x1
800041dc:	00e484b3          	add	x9,x9,x14
800041e0:	00249593          	slli	x11,x9,0x2
800041e4:	40e585b3          	sub	x11,x11,x14
800041e8:	00359593          	slli	x11,x11,0x3
800041ec:	0085d593          	srli	x11,x11,0x8
800041f0:	fd458593          	addi	x11,x11,-44
800041f4:	01059593          	slli	x11,x11,0x10
800041f8:	4105d593          	srai	x11,x11,0x10
800041fc:	f81fd0ef          	jal	x1,8000217c <subAndClamp>
80004200:	00549593          	slli	x11,x9,0x5
80004204:	feaa0fa3          	sb	x10,-1(x20)
80004208:	00b484b3          	add	x9,x9,x11
8000420c:	fff9c503          	lbu	x10,-1(x19)
80004210:	0ffb7593          	andi	x11,x22,255
80004214:	0074d493          	srli	x9,x9,0x7
80004218:	f1d58593          	addi	x11,x11,-227
8000421c:	00b485b3          	add	x11,x9,x11
80004220:	f29fd0ef          	jal	x1,80002148 <addAndClamp>
80004224:	fea98fa3          	sb	x10,-1(x19)
80004228:	f95918e3          	bne	x18,x21,800041b8 <pjpeg_decode_mcu+0xfcc>
8000422c:	a74ff06f          	jal	x0,800034a0 <pjpeg_decode_mcu+0x2b4>
80004230:	00000913          	addi	x18,x0,0
80004234:	180c0993          	addi	x19,x24,384
80004238:	380c0a13          	addi	x20,x24,896
8000423c:	08000a93          	addi	x21,x0,128
80004240:	00c12783          	lw	x15,12(x2)
80004244:	000a4503          	lbu	x10,0(x20)
80004248:	00198993          	addi	x19,x19,1
8000424c:	01278733          	add	x14,x15,x18
80004250:	00071703          	lh	x14,0(x14)
80004254:	00290913          	addi	x18,x18,2
80004258:	001a0a13          	addi	x20,x20,1
8000425c:	0ff77b13          	andi	x22,x14,255
80004260:	001b1493          	slli	x9,x22,0x1
80004264:	016484b3          	add	x9,x9,x22
80004268:	00249593          	slli	x11,x9,0x2
8000426c:	016585b3          	add	x11,x11,x22
80004270:	00359593          	slli	x11,x11,0x3
80004274:	416585b3          	sub	x11,x11,x22
80004278:	0ff77713          	andi	x14,x14,255
8000427c:	f4d70713          	addi	x14,x14,-179
80004280:	0085d593          	srli	x11,x11,0x8
80004284:	00e585b3          	add	x11,x11,x14
80004288:	01059593          	slli	x11,x11,0x10
8000428c:	4105d593          	srai	x11,x11,0x10
80004290:	eb9fd0ef          	jal	x1,80002148 <addAndClamp>
80004294:	00349593          	slli	x11,x9,0x3
80004298:	416585b3          	sub	x11,x11,x22
8000429c:	00359593          	slli	x11,x11,0x3
800042a0:	416585b3          	sub	x11,x11,x22
800042a4:	0085d593          	srli	x11,x11,0x8
800042a8:	feaa0fa3          	sb	x10,-1(x20)
800042ac:	fa558593          	addi	x11,x11,-91
800042b0:	fff9c503          	lbu	x10,-1(x19)
800042b4:	01059593          	slli	x11,x11,0x10
800042b8:	4105d593          	srai	x11,x11,0x10
800042bc:	ec1fd0ef          	jal	x1,8000217c <subAndClamp>
800042c0:	fea98fa3          	sb	x10,-1(x19)
800042c4:	f7591ee3          	bne	x18,x21,80004240 <pjpeg_decode_mcu+0x1054>
800042c8:	9d8ff06f          	jal	x0,800034a0 <pjpeg_decode_mcu+0x2b4>
800042cc:	00200713          	addi	x14,x0,2
800042d0:	02e40c63          	beq	x8,x14,80004308 <pjpeg_decode_mcu+0x111c>
800042d4:	00876863          	bltu	x14,x8,800042e4 <pjpeg_decode_mcu+0x10f8>
800042d8:	ec0402e3          	beq	x8,x0,8000419c <pjpeg_decode_mcu+0xfb0>
800042dc:	08000513          	addi	x10,x0,128
800042e0:	ec1ff06f          	jal	x0,800041a0 <pjpeg_decode_mcu+0xfb4>
800042e4:	00300713          	addi	x14,x0,3
800042e8:	9ae41c63          	bne	x8,x14,800034a0 <pjpeg_decode_mcu+0x2b4>
800042ec:	00000593          	addi	x11,x0,0
800042f0:	00000513          	addi	x10,x0,0
800042f4:	dccfe0ef          	jal	x1,800028c0 <upsampleCrV>
800042f8:	08000593          	addi	x11,x0,128
800042fc:	02000513          	addi	x10,x0,32
80004300:	dc0fe0ef          	jal	x1,800028c0 <upsampleCrV>
80004304:	99cff06f          	jal	x0,800034a0 <pjpeg_decode_mcu+0x2b4>
80004308:	00000593          	addi	x11,x0,0
8000430c:	00000513          	addi	x10,x0,0
80004310:	978fe0ef          	jal	x1,80002488 <upsampleCbV>
80004314:	08000593          	addi	x11,x0,128
80004318:	02000513          	addi	x10,x0,32
8000431c:	96cfe0ef          	jal	x1,80002488 <upsampleCbV>
80004320:	980ff06f          	jal	x0,800034a0 <pjpeg_decode_mcu+0x2b4>
80004324:	00200713          	addi	x14,x0,2
80004328:	02e40c63          	beq	x8,x14,80004360 <pjpeg_decode_mcu+0x1174>
8000432c:	00876863          	bltu	x14,x8,8000433c <pjpeg_decode_mcu+0x1150>
80004330:	e60406e3          	beq	x8,x0,8000419c <pjpeg_decode_mcu+0xfb0>
80004334:	04000513          	addi	x10,x0,64
80004338:	e69ff06f          	jal	x0,800041a0 <pjpeg_decode_mcu+0xfb4>
8000433c:	00300713          	addi	x14,x0,3
80004340:	96e41063          	bne	x8,x14,800034a0 <pjpeg_decode_mcu+0x2b4>
80004344:	00000593          	addi	x11,x0,0
80004348:	00000513          	addi	x10,x0,0
8000434c:	c18fe0ef          	jal	x1,80002764 <upsampleCrH>
80004350:	04000593          	addi	x11,x0,64
80004354:	00400513          	addi	x10,x0,4
80004358:	c0cfe0ef          	jal	x1,80002764 <upsampleCrH>
8000435c:	944ff06f          	jal	x0,800034a0 <pjpeg_decode_mcu+0x2b4>
80004360:	00000593          	addi	x11,x0,0
80004364:	00000513          	addi	x10,x0,0
80004368:	fd9fd0ef          	jal	x1,80002340 <upsampleCbH>
8000436c:	04000593          	addi	x11,x0,64
80004370:	00400513          	addi	x10,x0,4
80004374:	fcdfd0ef          	jal	x1,80002340 <upsampleCbH>
80004378:	928ff06f          	jal	x0,800034a0 <pjpeg_decode_mcu+0x2b4>
8000437c:	00500713          	addi	x14,x0,5
80004380:	92876063          	bltu	x14,x8,800034a0 <pjpeg_decode_mcu+0x2b4>
80004384:	800056b7          	lui	x13,0x80005
80004388:	00241713          	slli	x14,x8,0x2
8000438c:	22068693          	addi	x13,x13,544 # 80005220 <_end+0xfffff290>
80004390:	00d70733          	add	x14,x14,x13
80004394:	00072703          	lw	x14,0(x14)
80004398:	00070067          	jalr	x0,0(x14)
8000439c:	0c000513          	addi	x10,x0,192
800043a0:	e01ff06f          	jal	x0,800041a0 <pjpeg_decode_mcu+0xfb4>
800043a4:	00000593          	addi	x11,x0,0
800043a8:	00000513          	addi	x10,x0,0
800043ac:	e05fd0ef          	jal	x1,800021b0 <upsampleCb>
800043b0:	04000593          	addi	x11,x0,64
800043b4:	00400513          	addi	x10,x0,4
800043b8:	df9fd0ef          	jal	x1,800021b0 <upsampleCb>
800043bc:	08000593          	addi	x11,x0,128
800043c0:	02000513          	addi	x10,x0,32
800043c4:	dedfd0ef          	jal	x1,800021b0 <upsampleCb>
800043c8:	0c000593          	addi	x11,x0,192
800043cc:	02400513          	addi	x10,x0,36
800043d0:	de1fd0ef          	jal	x1,800021b0 <upsampleCb>
800043d4:	8ccff06f          	jal	x0,800034a0 <pjpeg_decode_mcu+0x2b4>
800043d8:	00000593          	addi	x11,x0,0
800043dc:	00000513          	addi	x10,x0,0
800043e0:	9e0fe0ef          	jal	x1,800025c0 <upsampleCr>
800043e4:	04000593          	addi	x11,x0,64
800043e8:	00400513          	addi	x10,x0,4
800043ec:	9d4fe0ef          	jal	x1,800025c0 <upsampleCr>
800043f0:	08000593          	addi	x11,x0,128
800043f4:	02000513          	addi	x10,x0,32
800043f8:	9c8fe0ef          	jal	x1,800025c0 <upsampleCr>
800043fc:	0c000593          	addi	x11,x0,192
80004400:	02400513          	addi	x10,x0,36
80004404:	9bcfe0ef          	jal	x1,800025c0 <upsampleCr>
80004408:	898ff06f          	jal	x0,800034a0 <pjpeg_decode_mcu+0x2b4>
8000440c:	00100b93          	addi	x23,x0,1
80004410:	fd1fe06f          	jal	x0,800033e0 <pjpeg_decode_mcu+0x1f4>
80004414:	800066b7          	lui	x13,0x80006
80004418:	f526d783          	lhu	x15,-174(x13) # 80005f52 <_end+0xffffffc2>
8000441c:	0d078713          	addi	x14,x15,208
80004420:	00e50463          	beq	x10,x14,80004428 <pjpeg_decode_mcu+0x123c>
80004424:	e89fe06f          	jal	x0,800032ac <pjpeg_decode_mcu+0xc0>
80004428:	80006737          	lui	x14,0x80006
8000442c:	f6072c23          	sw	x0,-136(x14) # 80005f78 <_end+0xffffffe8>
80004430:	f7870713          	addi	x14,x14,-136
80004434:	00071223          	sh	x0,4(x14)
80004438:	f5495703          	lhu	x14,-172(x18)
8000443c:	00178793          	addi	x15,x15,1
80004440:	0077f793          	andi	x15,x15,7
80004444:	f4e49823          	sh	x14,-176(x9)
80004448:	f4f69923          	sh	x15,-174(x13)
8000444c:	00800713          	addi	x14,x0,8
80004450:	800067b7          	lui	x15,0x80006
80004454:	00800513          	addi	x10,x0,8
80004458:	f6e78623          	sb	x14,-148(x15) # 80005f6c <_end+0xffffffdc>
8000445c:	851fe0ef          	jal	x1,80002cac <getBits2>
80004460:	00800513          	addi	x10,x0,8
80004464:	849fe0ef          	jal	x1,80002cac <getBits2>
80004468:	f504d783          	lhu	x15,-176(x9)
8000446c:	fff78793          	addi	x15,x15,-1
80004470:	f4f49823          	sh	x15,-176(x9)
80004474:	800067b7          	lui	x15,0x80006
80004478:	f3078793          	addi	x15,x15,-208 # 80005f30 <_end+0xffffffa0>
8000447c:	00f12e23          	sw	x15,28(x2)
80004480:	800057b7          	lui	x15,0x80005
80004484:	61478c13          	addi	x24,x15,1556 # 80005614 <_end+0xfffff684>
80004488:	800057b7          	lui	x15,0x80005
8000448c:	23878793          	addi	x15,x15,568 # 80005238 <_end+0xfffff2a8>
80004490:	00000413          	addi	x8,x0,0
80004494:	00f12823          	sw	x15,16(x2)
80004498:	80006737          	lui	x14,0x80006
8000449c:	f3e74703          	lbu	x14,-194(x14) # 80005f3e <_end+0xffffffae>
800044a0:	00e47463          	bgeu	x8,x14,800044a8 <pjpeg_decode_mcu+0x12bc>
800044a4:	e11fe06f          	jal	x0,800032b4 <pjpeg_decode_mcu+0xc8>
800044a8:	01412783          	lw	x15,20(x2)
800044ac:	f257c783          	lbu	x15,-219(x15)
800044b0:	00078463          	beq	x15,x0,800044b8 <pjpeg_decode_mcu+0x12cc>
800044b4:	f1dfe06f          	jal	x0,800033d0 <pjpeg_decode_mcu+0x1e4>
800044b8:	01812783          	lw	x15,24(x2)
800044bc:	01812703          	lw	x14,24(x2)
800044c0:	00000b93          	addi	x23,x0,0
800044c4:	f367d783          	lhu	x15,-202(x15)
800044c8:	fff78793          	addi	x15,x15,-1
800044cc:	f2f71b23          	sh	x15,-202(x14)
800044d0:	f11fe06f          	jal	x0,800033e0 <pjpeg_decode_mcu+0x1f4>

800044d4 <pjpeg_decode_init>:
800044d4:	800067b7          	lui	x15,0x80006
800044d8:	f2b7a623          	sw	x11,-212(x15) # 80005f2c <_end+0xffffff9c>
800044dc:	800067b7          	lui	x15,0x80006
800044e0:	fa010113          	addi	x2,x2,-96
800044e4:	f2c7a423          	sw	x12,-216(x15) # 80005f28 <_end+0xffffff98>
800044e8:	800067b7          	lui	x15,0x80006
800044ec:	04112e23          	sw	x1,92(x2)
800044f0:	04812c23          	sw	x8,88(x2)
800044f4:	04912a23          	sw	x9,84(x2)
800044f8:	05212823          	sw	x18,80(x2)
800044fc:	05312623          	sw	x19,76(x2)
80004500:	05412423          	sw	x20,72(x2)
80004504:	05512223          	sw	x21,68(x2)
80004508:	05612023          	sw	x22,64(x2)
8000450c:	03712e23          	sw	x23,60(x2)
80004510:	03812c23          	sw	x24,56(x2)
80004514:	03912a23          	sw	x25,52(x2)
80004518:	03a12823          	sw	x26,48(x2)
8000451c:	03b12623          	sw	x27,44(x2)
80004520:	f2d78223          	sb	x13,-220(x15) # 80005f24 <_end+0xffffff94>
80004524:	800064b7          	lui	x9,0x80006
80004528:	800067b7          	lui	x15,0x80006
8000452c:	80006a37          	lui	x20,0x80006
80004530:	80006cb7          	lui	x25,0x80006
80004534:	80006937          	lui	x18,0x80006
80004538:	00052023          	sw	x0,0(x10)
8000453c:	00052223          	sw	x0,4(x10)
80004540:	00052423          	sw	x0,8(x10)
80004544:	00052623          	sw	x0,12(x10)
80004548:	00052823          	sw	x0,16(x10)
8000454c:	00052a23          	sw	x0,20(x10)
80004550:	00052c23          	sw	x0,24(x10)
80004554:	00052e23          	sw	x0,28(x10)
80004558:	02052023          	sw	x0,32(x10)
8000455c:	02052223          	sw	x0,36(x10)
80004560:	02052423          	sw	x0,40(x10)
80004564:	f4079a23          	sh	x0,-172(x15) # 80005f54 <_end+0xffffffc4>
80004568:	f20482a3          	sb	x0,-219(x9) # 80005f25 <_end+0xffffff95>
8000456c:	800067b7          	lui	x15,0x80006
80004570:	f60a1523          	sh	x0,-150(x20) # 80005f6a <_end+0xffffffda>
80004574:	f60c9423          	sh	x0,-152(x25) # 80005f68 <_end+0xffffffd8>
80004578:	f60903a3          	sb	x0,-153(x18) # 80005f67 <_end+0xffffffd7>
8000457c:	800069b7          	lui	x19,0x80006
80004580:	f40987a3          	sb	x0,-177(x19) # 80005f4f <_end+0xffffffbf>
80004584:	f6078923          	sb	x0,-142(x15) # 80005f72 <_end+0xffffffe2>
80004588:	800067b7          	lui	x15,0x80006
8000458c:	f60788a3          	sb	x0,-143(x15) # 80005f71 <_end+0xffffffe1>
80004590:	800067b7          	lui	x15,0x80006
80004594:	00800713          	addi	x14,x0,8
80004598:	80006b37          	lui	x22,0x80006
8000459c:	80006c37          	lui	x24,0x80006
800045a0:	f6078823          	sb	x0,-144(x15) # 80005f70 <_end+0xffffffe0>
800045a4:	00050413          	addi	x8,x10,0
800045a8:	800067b7          	lui	x15,0x80006
800045ac:	80006bb7          	lui	x23,0x80006
800045b0:	00800513          	addi	x10,x0,8
800045b4:	f6e78623          	sb	x14,-148(x15) # 80005f6c <_end+0xffffffdc>
800045b8:	f60b0a23          	sb	x0,-140(x22) # 80005f74 <_end+0xffffffe4>
800045bc:	f60c09a3          	sb	x0,-141(x24) # 80005f73 <_end+0xffffffe3>
800045c0:	f60b9723          	sh	x0,-146(x23) # 80005f6e <_end+0xffffffde>
800045c4:	ee0fe0ef          	jal	x1,80002ca4 <getBits1>
800045c8:	00800513          	addi	x10,x0,8
800045cc:	ed8fe0ef          	jal	x1,80002ca4 <getBits1>
800045d0:	f254ca83          	lbu	x21,-219(x9)
800045d4:	01612023          	sw	x22,0(x2)
800045d8:	01812223          	sw	x24,4(x2)
800045dc:	040a9863          	bne	x21,x0,8000462c <pjpeg_decode_init+0x158>
800045e0:	00800513          	addi	x10,x0,8
800045e4:	ec0fe0ef          	jal	x1,80002ca4 <getBits1>
800045e8:	00050c13          	addi	x24,x10,0
800045ec:	00800513          	addi	x10,x0,8
800045f0:	eb4fe0ef          	jal	x1,80002ca4 <getBits1>
800045f4:	0ff57b13          	andi	x22,x10,255
800045f8:	0ff00793          	addi	x15,x0,255
800045fc:	0ffc7513          	andi	x10,x24,255
80004600:	00001c37          	lui	x24,0x1
80004604:	06f51463          	bne	x10,x15,8000466c <pjpeg_decode_init+0x198>
80004608:	0d800793          	addi	x15,x0,216
8000460c:	06fb1063          	bne	x22,x15,8000466c <pjpeg_decode_init+0x198>
80004610:	01f10513          	addi	x10,x2,31
80004614:	ff8fe0ef          	jal	x1,80002e0c <processMarkers>
80004618:	00050a93          	addi	x21,x10,0
8000461c:	0a050063          	beq	x10,x0,800046bc <pjpeg_decode_init+0x1e8>
80004620:	f254c703          	lbu	x14,-219(x9)
80004624:	00070463          	beq	x14,x0,8000462c <pjpeg_decode_init+0x158>
80004628:	00070a93          	addi	x21,x14,0
8000462c:	05c12083          	lw	x1,92(x2)
80004630:	05812403          	lw	x8,88(x2)
80004634:	05412483          	lw	x9,84(x2)
80004638:	05012903          	lw	x18,80(x2)
8000463c:	04c12983          	lw	x19,76(x2)
80004640:	04812a03          	lw	x20,72(x2)
80004644:	04012b03          	lw	x22,64(x2)
80004648:	03c12b83          	lw	x23,60(x2)
8000464c:	03812c03          	lw	x24,56(x2)
80004650:	03412c83          	lw	x25,52(x2)
80004654:	03012d03          	lw	x26,48(x2)
80004658:	02c12d83          	lw	x27,44(x2)
8000465c:	000a8513          	addi	x10,x21,0
80004660:	04412a83          	lw	x21,68(x2)
80004664:	06010113          	addi	x2,x2,96
80004668:	00008067          	jalr	x0,0(x1)
8000466c:	0ff00d13          	addi	x26,x0,255
80004670:	0d800d93          	addi	x27,x0,216
80004674:	0d900a93          	addi	x21,x0,217
80004678:	fffc0c13          	addi	x24,x24,-1 # fff <SYSCALL_ADDR-0x200001>
8000467c:	010c1c13          	slli	x24,x24,0x10
80004680:	010c5c13          	srli	x24,x24,0x10
80004684:	020c0863          	beq	x24,x0,800046b4 <pjpeg_decode_init+0x1e0>
80004688:	00800513          	addi	x10,x0,8
8000468c:	e18fe0ef          	jal	x1,80002ca4 <getBits1>
80004690:	0ff57513          	andi	x10,x10,255
80004694:	01ab1663          	bne	x22,x26,800046a0 <pjpeg_decode_init+0x1cc>
80004698:	01b50863          	beq	x10,x27,800046a8 <pjpeg_decode_init+0x1d4>
8000469c:	01550c63          	beq	x10,x21,800046b4 <pjpeg_decode_init+0x1e0>
800046a0:	00050b13          	addi	x22,x10,0
800046a4:	fd5ff06f          	jal	x0,80004678 <pjpeg_decode_init+0x1a4>
800046a8:	f6ebd783          	lhu	x15,-146(x23)
800046ac:	0087d793          	srli	x15,x15,0x8
800046b0:	f76780e3          	beq	x15,x22,80004610 <pjpeg_decode_init+0x13c>
800046b4:	01300a93          	addi	x21,x0,19
800046b8:	f69ff06f          	jal	x0,80004620 <pjpeg_decode_init+0x14c>
800046bc:	01f14703          	lbu	x14,31(x2)
800046c0:	0c200693          	addi	x13,x0,194
800046c4:	1ad70663          	beq	x14,x13,80004870 <pjpeg_decode_init+0x39c>
800046c8:	0c900693          	addi	x13,x0,201
800046cc:	18d70a63          	beq	x14,x13,80004860 <pjpeg_decode_init+0x38c>
800046d0:	0c000693          	addi	x13,x0,192
800046d4:	18d71263          	bne	x14,x13,80004858 <pjpeg_decode_init+0x384>
800046d8:	01000513          	addi	x10,x0,16
800046dc:	dc8fe0ef          	jal	x1,80002ca4 <getBits1>
800046e0:	00050b13          	addi	x22,x10,0
800046e4:	00800513          	addi	x10,x0,8
800046e8:	dbcfe0ef          	jal	x1,80002ca4 <getBits1>
800046ec:	00800713          	addi	x14,x0,8
800046f0:	00e50663          	beq	x10,x14,800046fc <pjpeg_decode_init+0x228>
800046f4:	00700a93          	addi	x21,x0,7
800046f8:	f29ff06f          	jal	x0,80004620 <pjpeg_decode_init+0x14c>
800046fc:	01000513          	addi	x10,x0,16
80004700:	da4fe0ef          	jal	x1,80002ca4 <getBits1>
80004704:	f6ac9423          	sh	x10,-152(x25)
80004708:	fff50513          	addi	x10,x10,-1
8000470c:	01051513          	slli	x10,x10,0x10
80004710:	01055513          	srli	x10,x10,0x10
80004714:	00004bb7          	lui	x23,0x4
80004718:	15757863          	bgeu	x10,x23,80004868 <pjpeg_decode_init+0x394>
8000471c:	01000513          	addi	x10,x0,16
80004720:	d84fe0ef          	jal	x1,80002ca4 <getBits1>
80004724:	f6aa1523          	sh	x10,-150(x20)
80004728:	fff50513          	addi	x10,x10,-1
8000472c:	01051513          	slli	x10,x10,0x10
80004730:	01055513          	srli	x10,x10,0x10
80004734:	01756663          	bltu	x10,x23,80004740 <pjpeg_decode_init+0x26c>
80004738:	00900a93          	addi	x21,x0,9
8000473c:	ee5ff06f          	jal	x0,80004620 <pjpeg_decode_init+0x14c>
80004740:	00800513          	addi	x10,x0,8
80004744:	d60fe0ef          	jal	x1,80002ca4 <getBits1>
80004748:	0ff57513          	andi	x10,x10,255
8000474c:	f6a903a3          	sb	x10,-153(x18)
80004750:	00300713          	addi	x14,x0,3
80004754:	00a77663          	bgeu	x14,x10,80004760 <pjpeg_decode_init+0x28c>
80004758:	00a00a93          	addi	x21,x0,10
8000475c:	ec5ff06f          	jal	x0,80004620 <pjpeg_decode_init+0x14c>
80004760:	00151713          	slli	x14,x10,0x1
80004764:	00a70533          	add	x10,x14,x10
80004768:	00850513          	addi	x10,x10,8
8000476c:	00000d13          	addi	x26,x0,0
80004770:	08ab1463          	bne	x22,x10,800047f8 <pjpeg_decode_init+0x324>
80004774:	80006b37          	lui	x22,0x80006
80004778:	80006bb7          	lui	x23,0x80006
8000477c:	80006c37          	lui	x24,0x80006
80004780:	80006db7          	lui	x27,0x80006
80004784:	f64b0b13          	addi	x22,x22,-156 # 80005f64 <_end+0xffffffd4>
80004788:	f60b8b93          	addi	x23,x23,-160 # 80005f60 <_end+0xffffffd0>
8000478c:	f5cc0c13          	addi	x24,x24,-164 # 80005f5c <_end+0xffffffcc>
80004790:	f58d8d93          	addi	x27,x27,-168 # 80005f58 <_end+0xffffffc8>
80004794:	f6794703          	lbu	x14,-153(x18)
80004798:	06ed6463          	bltu	x26,x14,80004800 <pjpeg_decode_init+0x32c>
8000479c:	f254c683          	lbu	x13,-219(x9)
800047a0:	e80690e3          	bne	x13,x0,80004620 <pjpeg_decode_init+0x14c>
800047a4:	00100693          	addi	x13,x0,1
800047a8:	0cd71863          	bne	x14,x13,80004878 <pjpeg_decode_init+0x3a4>
800047ac:	800067b7          	lui	x15,0x80006
800047b0:	f607c683          	lbu	x13,-160(x15) # 80005f60 <_end+0xffffffd0>
800047b4:	01b00a93          	addi	x21,x0,27
800047b8:	e6e69ae3          	bne	x13,x14,8000462c <pjpeg_decode_init+0x158>
800047bc:	800067b7          	lui	x15,0x80006
800047c0:	f5c7c703          	lbu	x14,-164(x15) # 80005f5c <_end+0xffffffcc>
800047c4:	e6d714e3          	bne	x14,x13,8000462c <pjpeg_decode_init+0x158>
800047c8:	800067b7          	lui	x15,0x80006
800047cc:	f407a023          	sw	x0,-192(x15) # 80005f40 <_end+0xffffffb0>
800047d0:	800067b7          	lui	x15,0x80006
800047d4:	f2e78f23          	sb	x14,-194(x15) # 80005f3e <_end+0xffffffae>
800047d8:	800067b7          	lui	x15,0x80006
800047dc:	f2078823          	sb	x0,-208(x15) # 80005f30 <_end+0xffffffa0>
800047e0:	00800793          	addi	x15,x0,8
800047e4:	80006737          	lui	x14,0x80006
800047e8:	f2f70ea3          	sb	x15,-195(x14) # 80005f3d <_end+0xffffffad>
800047ec:	80006737          	lui	x14,0x80006
800047f0:	f2f70e23          	sb	x15,-196(x14) # 80005f3c <_end+0xffffffac>
800047f4:	1540006f          	jal	x0,80004948 <pjpeg_decode_init+0x474>
800047f8:	00b00a93          	addi	x21,x0,11
800047fc:	e25ff06f          	jal	x0,80004620 <pjpeg_decode_init+0x14c>
80004800:	00800513          	addi	x10,x0,8
80004804:	ca0fe0ef          	jal	x1,80002ca4 <getBits1>
80004808:	016d0733          	add	x14,x26,x22
8000480c:	00a70023          	sb	x10,0(x14)
80004810:	00400513          	addi	x10,x0,4
80004814:	c90fe0ef          	jal	x1,80002ca4 <getBits1>
80004818:	017d0733          	add	x14,x26,x23
8000481c:	00a70023          	sb	x10,0(x14)
80004820:	00400513          	addi	x10,x0,4
80004824:	c80fe0ef          	jal	x1,80002ca4 <getBits1>
80004828:	018d0733          	add	x14,x26,x24
8000482c:	00a70023          	sb	x10,0(x14)
80004830:	00800513          	addi	x10,x0,8
80004834:	c70fe0ef          	jal	x1,80002ca4 <getBits1>
80004838:	01bd0733          	add	x14,x26,x27
8000483c:	0ff57513          	andi	x10,x10,255
80004840:	00a70023          	sb	x10,0(x14)
80004844:	00100713          	addi	x14,x0,1
80004848:	54a76463          	bltu	x14,x10,80004d90 <pjpeg_decode_init+0x8bc>
8000484c:	001d0d13          	addi	x26,x26,1
80004850:	0ffd7d13          	andi	x26,x26,255
80004854:	f41ff06f          	jal	x0,80004794 <pjpeg_decode_init+0x2c0>
80004858:	01400a93          	addi	x21,x0,20
8000485c:	dc5ff06f          	jal	x0,80004620 <pjpeg_decode_init+0x14c>
80004860:	01100a93          	addi	x21,x0,17
80004864:	dbdff06f          	jal	x0,80004620 <pjpeg_decode_init+0x14c>
80004868:	00800a93          	addi	x21,x0,8
8000486c:	db5ff06f          	jal	x0,80004620 <pjpeg_decode_init+0x14c>
80004870:	02500a93          	addi	x21,x0,37
80004874:	dadff06f          	jal	x0,80004620 <pjpeg_decode_init+0x14c>
80004878:	00300613          	addi	x12,x0,3
8000487c:	01a00a93          	addi	x21,x0,26
80004880:	dac716e3          	bne	x14,x12,8000462c <pjpeg_decode_init+0x158>
80004884:	80006737          	lui	x14,0x80006
80004888:	f6070593          	addi	x11,x14,-160 # 80005f60 <_end+0xffffffd0>
8000488c:	0015c803          	lbu	x16,1(x11)
80004890:	01b00a93          	addi	x21,x0,27
80004894:	d8d81ce3          	bne	x16,x13,8000462c <pjpeg_decode_init+0x158>
80004898:	800066b7          	lui	x13,0x80006
8000489c:	f5c68613          	addi	x12,x13,-164 # 80005f5c <_end+0xffffffcc>
800048a0:	00164503          	lbu	x10,1(x12)
800048a4:	00068893          	addi	x17,x13,0
800048a8:	d90512e3          	bne	x10,x16,8000462c <pjpeg_decode_init+0x158>
800048ac:	0025c583          	lbu	x11,2(x11)
800048b0:	d6a59ee3          	bne	x11,x10,8000462c <pjpeg_decode_init+0x158>
800048b4:	00264603          	lbu	x12,2(x12)
800048b8:	d6b61ae3          	bne	x12,x11,8000462c <pjpeg_decode_init+0x158>
800048bc:	f6074703          	lbu	x14,-160(x14)
800048c0:	12c71463          	bne	x14,x12,800049e8 <pjpeg_decode_init+0x514>
800048c4:	f5c6c683          	lbu	x13,-164(x13)
800048c8:	02e69c63          	bne	x13,x14,80004900 <pjpeg_decode_init+0x42c>
800048cc:	800067b7          	lui	x15,0x80006
800048d0:	00100713          	addi	x14,x0,1
800048d4:	f4e7a023          	sw	x14,-192(x15) # 80005f40 <_end+0xffffffb0>
800048d8:	800067b7          	lui	x15,0x80006
800048dc:	00300713          	addi	x14,x0,3
800048e0:	f2e78f23          	sb	x14,-194(x15) # 80005f3e <_end+0xffffffae>
800048e4:	800067b7          	lui	x15,0x80006
800048e8:	10000713          	addi	x14,x0,256
800048ec:	f2e79823          	sh	x14,-208(x15) # 80005f30 <_end+0xffffffa0>
800048f0:	f3078793          	addi	x15,x15,-208
800048f4:	00200713          	addi	x14,x0,2
800048f8:	00e78123          	sb	x14,2(x15)
800048fc:	ee5ff06f          	jal	x0,800047e0 <pjpeg_decode_init+0x30c>
80004900:	00200713          	addi	x14,x0,2
80004904:	01b00a93          	addi	x21,x0,27
80004908:	d2e692e3          	bne	x13,x14,8000462c <pjpeg_decode_init+0x158>
8000490c:	800067b7          	lui	x15,0x80006
80004910:	00300713          	addi	x14,x0,3
80004914:	f4e7a023          	sw	x14,-192(x15) # 80005f40 <_end+0xffffffb0>
80004918:	800067b7          	lui	x15,0x80006
8000491c:	00400713          	addi	x14,x0,4
80004920:	f2e78f23          	sb	x14,-194(x15) # 80005f3e <_end+0xffffffae>
80004924:	800067b7          	lui	x15,0x80006
80004928:	02010737          	lui	x14,0x2010
8000492c:	f2e7a823          	sw	x14,-208(x15) # 80005f30 <_end+0xffffffa0>
80004930:	800067b7          	lui	x15,0x80006
80004934:	00800713          	addi	x14,x0,8
80004938:	f2e78ea3          	sb	x14,-195(x15) # 80005f3d <_end+0xffffffad>
8000493c:	800067b7          	lui	x15,0x80006
80004940:	01000713          	addi	x14,x0,16
80004944:	f2e78e23          	sb	x14,-196(x15) # 80005f3c <_end+0xffffffac>
80004948:	80006b37          	lui	x22,0x80006
8000494c:	f3db4703          	lbu	x14,-195(x22) # 80005f3d <_end+0xffffffad>
80004950:	f6aa5503          	lhu	x10,-150(x20)
80004954:	00800693          	addi	x13,x0,8
80004958:	fff70793          	addi	x15,x14,-1 # 200ffff <SYSCALL_ADDR+0x1e0efff>
8000495c:	00f50533          	add	x10,x10,x15
80004960:	00300793          	addi	x15,x0,3
80004964:	00d70463          	beq	x14,x13,8000496c <pjpeg_decode_init+0x498>
80004968:	00400793          	addi	x15,x0,4
8000496c:	80006bb7          	lui	x23,0x80006
80004970:	40f55533          	sra	x10,x10,x15
80004974:	f3cbc703          	lbu	x14,-196(x23) # 80005f3c <_end+0xffffffac>
80004978:	f68cd583          	lhu	x11,-152(x25)
8000497c:	01051513          	slli	x10,x10,0x10
80004980:	01055513          	srli	x10,x10,0x10
80004984:	80006c37          	lui	x24,0x80006
80004988:	fff70793          	addi	x15,x14,-1
8000498c:	f2ac1d23          	sh	x10,-198(x24) # 80005f3a <_end+0xffffffaa>
80004990:	00800693          	addi	x13,x0,8
80004994:	00f585b3          	add	x11,x11,x15
80004998:	00300793          	addi	x15,x0,3
8000499c:	00d70463          	beq	x14,x13,800049a4 <pjpeg_decode_init+0x4d0>
800049a0:	00400793          	addi	x15,x0,4
800049a4:	40f5d5b3          	sra	x11,x11,x15
800049a8:	01059593          	slli	x11,x11,0x10
800049ac:	0105d593          	srli	x11,x11,0x10
800049b0:	80006cb7          	lui	x25,0x80006
800049b4:	f2bc9c23          	sh	x11,-200(x25) # 80005f38 <_end+0xffffffa8>
800049b8:	5ac000ef          	jal	x1,80004f64 <__mulsi3>
800049bc:	800067b7          	lui	x15,0x80006
800049c0:	f2a79b23          	sh	x10,-202(x15) # 80005f36 <_end+0xffffffa6>
800049c4:	01f10513          	addi	x10,x2,31
800049c8:	c44fe0ef          	jal	x1,80002e0c <processMarkers>
800049cc:	00050a93          	addi	x21,x10,0
800049d0:	c40518e3          	bne	x10,x0,80004620 <pjpeg_decode_init+0x14c>
800049d4:	01f14683          	lbu	x13,31(x2)
800049d8:	0da00713          	addi	x14,x0,218
800049dc:	0ae68063          	beq	x13,x14,80004a7c <pjpeg_decode_init+0x5a8>
800049e0:	01200a93          	addi	x21,x0,18
800049e4:	c3dff06f          	jal	x0,80004620 <pjpeg_decode_init+0x14c>
800049e8:	00200693          	addi	x13,x0,2
800049ec:	01b00a93          	addi	x21,x0,27
800049f0:	c2d71ee3          	bne	x14,x13,8000462c <pjpeg_decode_init+0x158>
800049f4:	f5c8c703          	lbu	x14,-164(x17)
800049f8:	00100793          	addi	x15,x0,1
800049fc:	04f71063          	bne	x14,x15,80004a3c <pjpeg_decode_init+0x568>
80004a00:	800067b7          	lui	x15,0x80006
80004a04:	00200713          	addi	x14,x0,2
80004a08:	f4e7a023          	sw	x14,-192(x15) # 80005f40 <_end+0xffffffb0>
80004a0c:	800067b7          	lui	x15,0x80006
80004a10:	00400713          	addi	x14,x0,4
80004a14:	f2e78f23          	sb	x14,-194(x15) # 80005f3e <_end+0xffffffae>
80004a18:	800067b7          	lui	x15,0x80006
80004a1c:	02010737          	lui	x14,0x2010
80004a20:	f2e7a823          	sw	x14,-208(x15) # 80005f30 <_end+0xffffffa0>
80004a24:	800067b7          	lui	x15,0x80006
80004a28:	01000713          	addi	x14,x0,16
80004a2c:	f2e78ea3          	sb	x14,-195(x15) # 80005f3d <_end+0xffffffad>
80004a30:	800067b7          	lui	x15,0x80006
80004a34:	00800713          	addi	x14,x0,8
80004a38:	f0dff06f          	jal	x0,80004944 <pjpeg_decode_init+0x470>
80004a3c:	00200693          	addi	x13,x0,2
80004a40:	01b00a93          	addi	x21,x0,27
80004a44:	bed714e3          	bne	x14,x13,8000462c <pjpeg_decode_init+0x158>
80004a48:	800067b7          	lui	x15,0x80006
80004a4c:	00400713          	addi	x14,x0,4
80004a50:	f4e7a023          	sw	x14,-192(x15) # 80005f40 <_end+0xffffffb0>
80004a54:	800067b7          	lui	x15,0x80006
80004a58:	00600713          	addi	x14,x0,6
80004a5c:	f2e78f23          	sb	x14,-194(x15) # 80005f3e <_end+0xffffffae>
80004a60:	800067b7          	lui	x15,0x80006
80004a64:	f207a823          	sw	x0,-208(x15) # 80005f30 <_end+0xffffffa0>
80004a68:	20100713          	addi	x14,x0,513
80004a6c:	f3078793          	addi	x15,x15,-208
80004a70:	00e79223          	sh	x14,4(x15)
80004a74:	01000793          	addi	x15,x0,16
80004a78:	d6dff06f          	jal	x0,800047e4 <pjpeg_decode_init+0x310>
80004a7c:	01000513          	addi	x10,x0,16
80004a80:	a24fe0ef          	jal	x1,80002ca4 <getBits1>
80004a84:	00050a13          	addi	x20,x10,0
80004a88:	00800513          	addi	x10,x0,8
80004a8c:	a18fe0ef          	jal	x1,80002ca4 <getBits1>
80004a90:	0ff57693          	andi	x13,x10,255
80004a94:	ffda0713          	addi	x14,x20,-3
80004a98:	01071713          	slli	x14,x14,0x10
80004a9c:	00169613          	slli	x12,x13,0x1
80004aa0:	f4d987a3          	sb	x13,-177(x19)
80004aa4:	01075713          	srli	x14,x14,0x10
80004aa8:	00360613          	addi	x12,x12,3
80004aac:	00c70663          	beq	x14,x12,80004ab8 <pjpeg_decode_init+0x5e4>
80004ab0:	00e00a93          	addi	x21,x0,14
80004ab4:	b6dff06f          	jal	x0,80004620 <pjpeg_decode_init+0x14c>
80004ab8:	fff68693          	addi	x13,x13,-1
80004abc:	0ff6f693          	andi	x13,x13,255
80004ac0:	00200613          	addi	x12,x0,2
80004ac4:	fed666e3          	bltu	x12,x13,80004ab0 <pjpeg_decode_init+0x5dc>
80004ac8:	80006a37          	lui	x20,0x80006
80004acc:	80006d37          	lui	x26,0x80006
80004ad0:	00000693          	addi	x13,x0,0
80004ad4:	f4ca0a13          	addi	x20,x20,-180 # 80005f4c <_end+0xffffffbc>
80004ad8:	f48d0d13          	addi	x26,x26,-184 # 80005f48 <_end+0xffffffb8>
80004adc:	00800513          	addi	x10,x0,8
80004ae0:	00d12623          	sw	x13,12(x2)
80004ae4:	00e12423          	sw	x14,8(x2)
80004ae8:	9bcfe0ef          	jal	x1,80002ca4 <getBits1>
80004aec:	0ff57d93          	andi	x27,x10,255
80004af0:	00800513          	addi	x10,x0,8
80004af4:	9b0fe0ef          	jal	x1,80002ca4 <getBits1>
80004af8:	00812703          	lw	x14,8(x2)
80004afc:	f6794e83          	lbu	x29,-153(x18)
80004b00:	00c12683          	lw	x13,12(x2)
80004b04:	00070593          	addi	x11,x14,0 # 2010000 <SYSCALL_ADDR+0x1e0f000>
80004b08:	ffe70713          	addi	x14,x14,-2
80004b0c:	01071713          	slli	x14,x14,0x10
80004b10:	800067b7          	lui	x15,0x80006
80004b14:	0ff57513          	andi	x10,x10,255
80004b18:	01075713          	srli	x14,x14,0x10
80004b1c:	00000613          	addi	x12,x0,0
80004b20:	f6478893          	addi	x17,x15,-156 # 80005f64 <_end+0xffffffd4>
80004b24:	80006337          	lui	x6,0x80006
80004b28:	0ff67e13          	andi	x28,x12,255
80004b2c:	01de6663          	bltu	x28,x29,80004b38 <pjpeg_decode_init+0x664>
80004b30:	00f00a93          	addi	x21,x0,15
80004b34:	aedff06f          	jal	x0,80004620 <pjpeg_decode_init+0x14c>
80004b38:	00060813          	addi	x16,x12,0
80004b3c:	00160613          	addi	x12,x12,1
80004b40:	01160f33          	add	x30,x12,x17
80004b44:	ffff4f03          	lbu	x30,-1(x30)
80004b48:	ffbf10e3          	bne	x30,x27,80004b28 <pjpeg_decode_init+0x654>
80004b4c:	01468633          	add	x12,x13,x20
80004b50:	01c60023          	sb	x28,0(x12)
80004b54:	01a80633          	add	x12,x16,x26
80004b58:	00455e13          	srli	x28,x10,0x4
80004b5c:	01c60023          	sb	x28,0(x12)
80004b60:	f4430613          	addi	x12,x6,-188 # 80005f44 <_end+0xffffffb4>
80004b64:	00c80833          	add	x16,x16,x12
80004b68:	f4f9c603          	lbu	x12,-177(x19)
80004b6c:	00f57513          	andi	x10,x10,15
80004b70:	00168693          	addi	x13,x13,1
80004b74:	00a80023          	sb	x10,0(x16)
80004b78:	0ff6f693          	andi	x13,x13,255
80004b7c:	f4430d93          	addi	x27,x6,-188
80004b80:	f4c6eee3          	bltu	x13,x12,80004adc <pjpeg_decode_init+0x608>
80004b84:	00800513          	addi	x10,x0,8
80004b88:	00b12423          	sw	x11,8(x2)
80004b8c:	918fe0ef          	jal	x1,80002ca4 <getBits1>
80004b90:	80006737          	lui	x14,0x80006
80004b94:	0ff57513          	andi	x10,x10,255
80004b98:	f2a701a3          	sb	x10,-221(x14) # 80005f23 <_end+0xffffff93>
80004b9c:	00800513          	addi	x10,x0,8
80004ba0:	904fe0ef          	jal	x1,80002ca4 <getBits1>
80004ba4:	80006737          	lui	x14,0x80006
80004ba8:	0ff57513          	andi	x10,x10,255
80004bac:	f2a70123          	sb	x10,-222(x14) # 80005f22 <_end+0xffffff92>
80004bb0:	00400513          	addi	x10,x0,4
80004bb4:	8f0fe0ef          	jal	x1,80002ca4 <getBits1>
80004bb8:	80006737          	lui	x14,0x80006
80004bbc:	0ff57513          	andi	x10,x10,255
80004bc0:	f2a700a3          	sb	x10,-223(x14) # 80005f21 <_end+0xffffff91>
80004bc4:	00400513          	addi	x10,x0,4
80004bc8:	8dcfe0ef          	jal	x1,80002ca4 <getBits1>
80004bcc:	00812583          	lw	x11,8(x2)
80004bd0:	0ff57513          	andi	x10,x10,255
80004bd4:	80006737          	lui	x14,0x80006
80004bd8:	f2a70023          	sb	x10,-224(x14) # 80005f20 <_end+0xffffff90>
80004bdc:	ffb58913          	addi	x18,x11,-5
80004be0:	01091913          	slli	x18,x18,0x10
80004be4:	01095913          	srli	x18,x18,0x10
80004be8:	00091e63          	bne	x18,x0,80004c04 <pjpeg_decode_init+0x730>
80004bec:	00012783          	lw	x15,0(x2)
80004bf0:	f4f9c583          	lbu	x11,-177(x19)
80004bf4:	00000693          	addi	x13,x0,0
80004bf8:	f747c803          	lbu	x16,-140(x15)
80004bfc:	00100513          	addi	x10,x0,1
80004c00:	0480006f          	jal	x0,80004c48 <pjpeg_decode_init+0x774>
80004c04:	00800513          	addi	x10,x0,8
80004c08:	89cfe0ef          	jal	x1,80002ca4 <getBits1>
80004c0c:	fff90913          	addi	x18,x18,-1
80004c10:	fd1ff06f          	jal	x0,80004be0 <pjpeg_decode_init+0x70c>
80004c14:	00da0733          	add	x14,x20,x13
80004c18:	00074603          	lbu	x12,0(x14)
80004c1c:	00168693          	addi	x13,x13,1
80004c20:	00cd8733          	add	x14,x27,x12
80004c24:	00074703          	lbu	x14,0(x14)
80004c28:	00cd0633          	add	x12,x26,x12
80004c2c:	00064603          	lbu	x12,0(x12)
80004c30:	00270713          	addi	x14,x14,2
80004c34:	00e51733          	sll	x14,x10,x14
80004c38:	00c51633          	sll	x12,x10,x12
80004c3c:	00c76733          	or	x14,x14,x12
80004c40:	00e87633          	and	x12,x16,x14
80004c44:	14e61263          	bne	x12,x14,80004d88 <pjpeg_decode_init+0x8b4>
80004c48:	0ff6f713          	andi	x14,x13,255
80004c4c:	fcb764e3          	bltu	x14,x11,80004c14 <pjpeg_decode_init+0x740>
80004c50:	00412783          	lw	x15,4(x2)
80004c54:	80006637          	lui	x12,0x80006
80004c58:	00000693          	addi	x13,x0,0
80004c5c:	f737c503          	lbu	x10,-141(x15)
80004c60:	f5860613          	addi	x12,x12,-168 # 80005f58 <_end+0xffffffc8>
80004c64:	0ff6f713          	andi	x14,x13,255
80004c68:	0eb76a63          	bltu	x14,x11,80004d5c <pjpeg_decode_init+0x888>
80004c6c:	80006737          	lui	x14,0x80006
80004c70:	f6072c23          	sw	x0,-136(x14) # 80005f78 <_end+0xffffffe8>
80004c74:	f7870713          	addi	x14,x14,-136
80004c78:	00071223          	sh	x0,4(x14)
80004c7c:	80006737          	lui	x14,0x80006
80004c80:	f5475703          	lhu	x14,-172(x14) # 80005f54 <_end+0xffffffc4>
80004c84:	00070a63          	beq	x14,x0,80004c98 <pjpeg_decode_init+0x7c4>
80004c88:	800066b7          	lui	x13,0x80006
80004c8c:	f4e69823          	sh	x14,-176(x13) # 80005f50 <_end+0xffffffc0>
80004c90:	80006737          	lui	x14,0x80006
80004c94:	f4071923          	sh	x0,-174(x14) # 80005f52 <_end+0xffffffc2>
80004c98:	80006737          	lui	x14,0x80006
80004c9c:	f6e75983          	lhu	x19,-146(x14) # 80005f6e <_end+0xffffffde>
80004ca0:	80006737          	lui	x14,0x80006
80004ca4:	f6c74683          	lbu	x13,-148(x14) # 80005f6c <_end+0xffffffdc>
80004ca8:	00070913          	addi	x18,x14,0
80004cac:	00068663          	beq	x13,x0,80004cb8 <pjpeg_decode_init+0x7e4>
80004cb0:	0ff9f513          	andi	x10,x19,255
80004cb4:	c00fd0ef          	jal	x1,800020b4 <stuffChar>
80004cb8:	0089d513          	srli	x10,x19,0x8
80004cbc:	bf8fd0ef          	jal	x1,800020b4 <stuffChar>
80004cc0:	00800713          	addi	x14,x0,8
80004cc4:	00800513          	addi	x10,x0,8
80004cc8:	f6e90623          	sb	x14,-148(x18)
80004ccc:	fe1fd0ef          	jal	x1,80002cac <getBits2>
80004cd0:	00800513          	addi	x10,x0,8
80004cd4:	fd9fd0ef          	jal	x1,80002cac <getBits2>
80004cd8:	80006737          	lui	x14,0x80006
80004cdc:	f2574703          	lbu	x14,-219(x14) # 80005f25 <_end+0xffffff95>
80004ce0:	940710e3          	bne	x14,x0,80004620 <pjpeg_decode_init+0x14c>
80004ce4:	800067b7          	lui	x15,0x80006
80004ce8:	f6a7d783          	lhu	x15,-150(x15) # 80005f6a <_end+0xffffffda>
80004cec:	00000a93          	addi	x21,x0,0
80004cf0:	00f42023          	sw	x15,0(x8)
80004cf4:	800067b7          	lui	x15,0x80006
80004cf8:	f687d783          	lhu	x15,-152(x15) # 80005f68 <_end+0xffffffd8>
80004cfc:	00f42223          	sw	x15,4(x8)
80004d00:	800067b7          	lui	x15,0x80006
80004d04:	f677c783          	lbu	x15,-153(x15) # 80005f67 <_end+0xffffffd7>
80004d08:	00f42423          	sw	x15,8(x8)
80004d0c:	800067b7          	lui	x15,0x80006
80004d10:	f407a783          	lw	x15,-192(x15) # 80005f40 <_end+0xffffffb0>
80004d14:	00f42a23          	sw	x15,20(x8)
80004d18:	f3ac5783          	lhu	x15,-198(x24)
80004d1c:	00f42623          	sw	x15,12(x8)
80004d20:	f38cd783          	lhu	x15,-200(x25)
80004d24:	00f42823          	sw	x15,16(x8)
80004d28:	f3db4783          	lbu	x15,-195(x22)
80004d2c:	00f42c23          	sw	x15,24(x8)
80004d30:	f3cbc783          	lbu	x15,-196(x23)
80004d34:	00f42e23          	sw	x15,28(x8)
80004d38:	800057b7          	lui	x15,0x80005
80004d3c:	61478793          	addi	x15,x15,1556 # 80005614 <_end+0xfffff684>
80004d40:	38078713          	addi	x14,x15,896
80004d44:	02e42023          	sw	x14,32(x8)
80004d48:	18078713          	addi	x14,x15,384
80004d4c:	28078793          	addi	x15,x15,640
80004d50:	02e42223          	sw	x14,36(x8)
80004d54:	02f42423          	sw	x15,40(x8)
80004d58:	8d5ff06f          	jal	x0,8000462c <pjpeg_decode_init+0x158>
80004d5c:	00da0733          	add	x14,x20,x13
80004d60:	00074703          	lbu	x14,0(x14)
80004d64:	00168693          	addi	x13,x13,1
80004d68:	00c70733          	add	x14,x14,x12
80004d6c:	00074703          	lbu	x14,0(x14)
80004d70:	00e03733          	sltu	x14,x0,x14
80004d74:	00170713          	addi	x14,x14,1
80004d78:	00e57733          	and	x14,x10,x14
80004d7c:	ee0714e3          	bne	x14,x0,80004c64 <pjpeg_decode_init+0x790>
80004d80:	01700a93          	addi	x21,x0,23
80004d84:	89dff06f          	jal	x0,80004620 <pjpeg_decode_init+0x14c>
80004d88:	01800a93          	addi	x21,x0,24
80004d8c:	895ff06f          	jal	x0,80004620 <pjpeg_decode_init+0x14c>
80004d90:	02400a93          	addi	x21,x0,36
80004d94:	88dff06f          	jal	x0,80004620 <pjpeg_decode_init+0x14c>

80004d98 <pjpeg_need_bytes_callback>:
80004d98:	ff010113          	addi	x2,x2,-16
80004d9c:	00912223          	sw	x9,4(x2)
80004da0:	800064b7          	lui	x9,0x80006
80004da4:	f804a703          	lw	x14,-128(x9) # 80005f80 <_end+0xfffffff0>
80004da8:	00812423          	sw	x8,8(x2)
80004dac:	23a00413          	addi	x8,x0,570
80004db0:	01212023          	sw	x18,0(x2)
80004db4:	00112623          	sw	x1,12(x2)
80004db8:	40e40433          	sub	x8,x8,x14
80004dbc:	00060913          	addi	x18,x12,0
80004dc0:	0085f463          	bgeu	x11,x8,80004dc8 <pjpeg_need_bytes_callback+0x30>
80004dc4:	00058413          	addi	x8,x11,0
80004dc8:	800057b7          	lui	x15,0x80005
80004dcc:	31878793          	addi	x15,x15,792 # 80005318 <_end+0xfffff388>
80004dd0:	00040613          	addi	x12,x8,0
80004dd4:	00e785b3          	add	x11,x15,x14
80004dd8:	268000ef          	jal	x1,80005040 <memcpy>
80004ddc:	00890023          	sb	x8,0(x18)
80004de0:	f804a783          	lw	x15,-128(x9)
80004de4:	00c12083          	lw	x1,12(x2)
80004de8:	00012903          	lw	x18,0(x2)
80004dec:	008787b3          	add	x15,x15,x8
80004df0:	00812403          	lw	x8,8(x2)
80004df4:	f8f4a023          	sw	x15,-128(x9)
80004df8:	00000513          	addi	x10,x0,0
80004dfc:	00412483          	lw	x9,4(x2)
80004e00:	01010113          	addi	x2,x2,16
80004e04:	00008067          	jalr	x0,0(x1)

80004e08 <benchmark_body>:
80004e08:	fe010113          	addi	x2,x2,-32
80004e0c:	00812c23          	sw	x8,24(x2)
80004e10:	00912a23          	sw	x9,20(x2)
80004e14:	01212823          	sw	x18,16(x2)
80004e18:	01312623          	sw	x19,12(x2)
80004e1c:	01412423          	sw	x20,8(x2)
80004e20:	01512223          	sw	x21,4(x2)
80004e24:	00112e23          	sw	x1,28(x2)
80004e28:	00050413          	addi	x8,x10,0
80004e2c:	00000493          	addi	x9,x0,0
80004e30:	80006937          	lui	x18,0x80006
80004e34:	800069b7          	lui	x19,0x80006
80004e38:	80005a37          	lui	x20,0x80005
80004e3c:	00100a93          	addi	x21,x0,1
80004e40:	0284c663          	blt	x9,x8,80004e6c <benchmark_body+0x64>
80004e44:	01c12083          	lw	x1,28(x2)
80004e48:	01812403          	lw	x8,24(x2)
80004e4c:	01412483          	lw	x9,20(x2)
80004e50:	01012903          	lw	x18,16(x2)
80004e54:	00c12983          	lw	x19,12(x2)
80004e58:	00812a03          	lw	x20,8(x2)
80004e5c:	00412a83          	lw	x21,4(x2)
80004e60:	00000513          	addi	x10,x0,0
80004e64:	02010113          	addi	x2,x2,32
80004e68:	00008067          	jalr	x0,0(x1)
80004e6c:	00000693          	addi	x13,x0,0
80004e70:	00000613          	addi	x12,x0,0
80004e74:	d98a0593          	addi	x11,x20,-616 # 80004d98 <_end+0xffffee08>
80004e78:	ef498513          	addi	x10,x19,-268 # 80005ef4 <_end+0xffffff64>
80004e7c:	f8092023          	sw	x0,-128(x18) # 80005f80 <_end+0xfffffff0>
80004e80:	e54ff0ef          	jal	x1,800044d4 <pjpeg_decode_init>
80004e84:	b68fe0ef          	jal	x1,800031ec <pjpeg_decode_mcu>
80004e88:	ff551ee3          	bne	x10,x21,80004e84 <benchmark_body+0x7c>
80004e8c:	00148493          	addi	x9,x9,1
80004e90:	fb1ff06f          	jal	x0,80004e40 <benchmark_body+0x38>

80004e94 <verify_benchmark>:
80004e94:	ff010113          	addi	x2,x2,-16
80004e98:	00912223          	sw	x9,4(x2)
80004e9c:	800064b7          	lui	x9,0x80006
80004ea0:	ef448493          	addi	x9,x9,-268 # 80005ef4 <_end+0xffffff64>
80004ea4:	01212023          	sw	x18,0(x2)
80004ea8:	0204a503          	lw	x10,32(x9)
80004eac:	80005937          	lui	x18,0x80005
80004eb0:	31890913          	addi	x18,x18,792 # 80005318 <_end+0xfffff388>
80004eb4:	04000613          	addi	x12,x0,64
80004eb8:	23c90593          	addi	x11,x18,572
80004ebc:	00812423          	sw	x8,8(x2)
80004ec0:	00112623          	sw	x1,12(x2)
80004ec4:	104000ef          	jal	x1,80004fc8 <memcmp>
80004ec8:	00000413          	addi	x8,x0,0
80004ecc:	02051863          	bne	x10,x0,80004efc <verify_benchmark+0x68>
80004ed0:	00050413          	addi	x8,x10,0
80004ed4:	0244a503          	lw	x10,36(x9)
80004ed8:	04000613          	addi	x12,x0,64
80004edc:	27c90593          	addi	x11,x18,636
80004ee0:	0e8000ef          	jal	x1,80004fc8 <memcmp>
80004ee4:	00051c63          	bne	x10,x0,80004efc <verify_benchmark+0x68>
80004ee8:	0284a503          	lw	x10,40(x9)
80004eec:	04000613          	addi	x12,x0,64
80004ef0:	2bc90593          	addi	x11,x18,700
80004ef4:	0d4000ef          	jal	x1,80004fc8 <memcmp>
80004ef8:	00153413          	sltiu	x8,x10,1
80004efc:	00c12083          	lw	x1,12(x2)
80004f00:	00040513          	addi	x10,x8,0
80004f04:	00812403          	lw	x8,8(x2)
80004f08:	00412483          	lw	x9,4(x2)
80004f0c:	00012903          	lw	x18,0(x2)
80004f10:	01010113          	addi	x2,x2,16
80004f14:	00008067          	jalr	x0,0(x1)

80004f18 <initialise_benchmark>:
80004f18:	00008067          	jalr	x0,0(x1)

80004f1c <warm_caches>:
80004f1c:	eedff06f          	jal	x0,80004e08 <benchmark_body>

80004f20 <benchmark>:
80004f20:	00600513          	addi	x10,x0,6
80004f24:	ee5ff06f          	jal	x0,80004e08 <benchmark_body>

80004f28 <initialise_board>:
80004f28:	00000513          	addi	x10,x0,0
80004f2c:	00008067          	jalr	x0,0(x1)

80004f30 <start_trigger>:
80004f30:	00000513          	addi	x10,x0,0
80004f34:	deadc2b7          	lui	x5,0xdeadc
80004f38:	eef28293          	addi	x5,x5,-273 # deadbeef <_end+0x5ead5f5f>
80004f3c:	00008067          	jalr	x0,0(x1)

80004f40 <stop_trigger>:
80004f40:	beefe2b7          	lui	x5,0xbeefe
80004f44:	ead28293          	addi	x5,x5,-339 # beefdead <_end+0x3eef7f1d>
80004f48:	05d00893          	addi	x17,x0,93
80004f4c:	00000513          	addi	x10,x0,0
80004f50:	020102b7          	lui	x5,0x2010
80004f54:	f1402873          	csrrs	x16,mhartid,x0
80004f58:	0102a023          	sw	x16,0(x5) # 2010000 <SYSCALL_ADDR+0x1e0f000>
80004f5c:	0112a023          	sw	x17,0(x5)
80004f60:	00008067          	jalr	x0,0(x1)

80004f64 <__mulsi3>:
80004f64:	00050613          	addi	x12,x10,0
80004f68:	00000513          	addi	x10,x0,0
80004f6c:	0015f693          	andi	x13,x11,1
80004f70:	00068463          	beq	x13,x0,80004f78 <__mulsi3+0x14>
80004f74:	00c50533          	add	x10,x10,x12
80004f78:	0015d593          	srli	x11,x11,0x1
80004f7c:	00161613          	slli	x12,x12,0x1
80004f80:	fe0596e3          	bne	x11,x0,80004f6c <__mulsi3+0x8>
80004f84:	00008067          	jalr	x0,0(x1)

Disassembly of section .text.startup:

80004f88 <main>:
80004f88:	fe010113          	addi	x2,x2,-32
80004f8c:	00112e23          	sw	x1,28(x2)
80004f90:	f99ff0ef          	jal	x1,80004f28 <initialise_board>
80004f94:	f85ff0ef          	jal	x1,80004f18 <initialise_benchmark>
80004f98:	00100513          	addi	x10,x0,1
80004f9c:	f81ff0ef          	jal	x1,80004f1c <warm_caches>
80004fa0:	f91ff0ef          	jal	x1,80004f30 <start_trigger>
80004fa4:	f7dff0ef          	jal	x1,80004f20 <benchmark>
80004fa8:	00a12623          	sw	x10,12(x2)
80004fac:	f95ff0ef          	jal	x1,80004f40 <stop_trigger>
80004fb0:	00c12503          	lw	x10,12(x2)
80004fb4:	ee1ff0ef          	jal	x1,80004e94 <verify_benchmark>
80004fb8:	01c12083          	lw	x1,28(x2)
80004fbc:	00153513          	sltiu	x10,x10,1
80004fc0:	02010113          	addi	x2,x2,32
80004fc4:	00008067          	jalr	x0,0(x1)

Disassembly of section .text.memcmp:

80004fc8 <memcmp>:
80004fc8:	00300793          	addi	x15,x0,3
80004fcc:	02c7f863          	bgeu	x15,x12,80004ffc <memcmp+0x34>
80004fd0:	00b567b3          	or	x15,x10,x11
80004fd4:	0037f793          	andi	x15,x15,3
80004fd8:	00300693          	addi	x13,x0,3
80004fdc:	04079e63          	bne	x15,x0,80005038 <memcmp+0x70>
80004fe0:	00052703          	lw	x14,0(x10)
80004fe4:	0005a783          	lw	x15,0(x11)
80004fe8:	04f71863          	bne	x14,x15,80005038 <memcmp+0x70>
80004fec:	ffc60613          	addi	x12,x12,-4
80004ff0:	00450513          	addi	x10,x10,4
80004ff4:	00458593          	addi	x11,x11,4
80004ff8:	fec6e4e3          	bltu	x13,x12,80004fe0 <memcmp+0x18>
80004ffc:	fff60693          	addi	x13,x12,-1
80005000:	02060863          	beq	x12,x0,80005030 <memcmp+0x68>
80005004:	00168693          	addi	x13,x13,1
80005008:	00d506b3          	add	x13,x10,x13
8000500c:	0080006f          	jal	x0,80005014 <memcmp+0x4c>
80005010:	02d50063          	beq	x10,x13,80005030 <memcmp+0x68>
80005014:	00054783          	lbu	x15,0(x10)
80005018:	0005c703          	lbu	x14,0(x11)
8000501c:	00150513          	addi	x10,x10,1
80005020:	00158593          	addi	x11,x11,1
80005024:	fee786e3          	beq	x15,x14,80005010 <memcmp+0x48>
80005028:	40e78533          	sub	x10,x15,x14
8000502c:	00008067          	jalr	x0,0(x1)
80005030:	00000513          	addi	x10,x0,0
80005034:	00008067          	jalr	x0,0(x1)
80005038:	fff60693          	addi	x13,x12,-1
8000503c:	fc9ff06f          	jal	x0,80005004 <memcmp+0x3c>

Disassembly of section .text.memcpy:

80005040 <memcpy>:
80005040:	00a5c7b3          	xor	x15,x11,x10
80005044:	0037f793          	andi	x15,x15,3
80005048:	00c508b3          	add	x17,x10,x12
8000504c:	06079663          	bne	x15,x0,800050b8 <memcpy+0x78>
80005050:	00300793          	addi	x15,x0,3
80005054:	06c7f263          	bgeu	x15,x12,800050b8 <memcpy+0x78>
80005058:	00357793          	andi	x15,x10,3
8000505c:	00050713          	addi	x14,x10,0
80005060:	0c079a63          	bne	x15,x0,80005134 <memcpy+0xf4>
80005064:	ffc8f613          	andi	x12,x17,-4
80005068:	40e606b3          	sub	x13,x12,x14
8000506c:	02000793          	addi	x15,x0,32
80005070:	02000293          	addi	x5,x0,32
80005074:	06d7c263          	blt	x15,x13,800050d8 <memcpy+0x98>
80005078:	00058693          	addi	x13,x11,0
8000507c:	00070793          	addi	x15,x14,0
80005080:	02c77863          	bgeu	x14,x12,800050b0 <memcpy+0x70>
80005084:	0006a803          	lw	x16,0(x13)
80005088:	00478793          	addi	x15,x15,4
8000508c:	00468693          	addi	x13,x13,4
80005090:	ff07ae23          	sw	x16,-4(x15)
80005094:	fec7e8e3          	bltu	x15,x12,80005084 <memcpy+0x44>
80005098:	fff60793          	addi	x15,x12,-1
8000509c:	40e787b3          	sub	x15,x15,x14
800050a0:	ffc7f793          	andi	x15,x15,-4
800050a4:	00478793          	addi	x15,x15,4
800050a8:	00f70733          	add	x14,x14,x15
800050ac:	00f585b3          	add	x11,x11,x15
800050b0:	01176863          	bltu	x14,x17,800050c0 <memcpy+0x80>
800050b4:	00008067          	jalr	x0,0(x1)
800050b8:	00050713          	addi	x14,x10,0
800050bc:	ff157ce3          	bgeu	x10,x17,800050b4 <memcpy+0x74>
800050c0:	0005c783          	lbu	x15,0(x11)
800050c4:	00170713          	addi	x14,x14,1
800050c8:	00158593          	addi	x11,x11,1
800050cc:	fef70fa3          	sb	x15,-1(x14)
800050d0:	ff1768e3          	bltu	x14,x17,800050c0 <memcpy+0x80>
800050d4:	00008067          	jalr	x0,0(x1)
800050d8:	0045a683          	lw	x13,4(x11)
800050dc:	01c5a783          	lw	x15,28(x11)
800050e0:	0005af83          	lw	x31,0(x11)
800050e4:	0085af03          	lw	x30,8(x11)
800050e8:	00c5ae83          	lw	x29,12(x11)
800050ec:	0105ae03          	lw	x28,16(x11)
800050f0:	0145a303          	lw	x6,20(x11)
800050f4:	0185a803          	lw	x16,24(x11)
800050f8:	00d72223          	sw	x13,4(x14)
800050fc:	0205a683          	lw	x13,32(x11)
80005100:	01f72023          	sw	x31,0(x14)
80005104:	01e72423          	sw	x30,8(x14)
80005108:	01d72623          	sw	x29,12(x14)
8000510c:	01c72823          	sw	x28,16(x14)
80005110:	00672a23          	sw	x6,20(x14)
80005114:	01072c23          	sw	x16,24(x14)
80005118:	00f72e23          	sw	x15,28(x14)
8000511c:	02470713          	addi	x14,x14,36
80005120:	40e607b3          	sub	x15,x12,x14
80005124:	fed72e23          	sw	x13,-4(x14)
80005128:	02458593          	addi	x11,x11,36
8000512c:	faf2c6e3          	blt	x5,x15,800050d8 <memcpy+0x98>
80005130:	f49ff06f          	jal	x0,80005078 <memcpy+0x38>
80005134:	0005c683          	lbu	x13,0(x11)
80005138:	00170713          	addi	x14,x14,1
8000513c:	00377793          	andi	x15,x14,3
80005140:	fed70fa3          	sb	x13,-1(x14)
80005144:	00158593          	addi	x11,x11,1
80005148:	f0078ee3          	beq	x15,x0,80005064 <memcpy+0x24>
8000514c:	0005c683          	lbu	x13,0(x11)
80005150:	00170713          	addi	x14,x14,1
80005154:	00377793          	andi	x15,x14,3
80005158:	fed70fa3          	sb	x13,-1(x14)
8000515c:	00158593          	addi	x11,x11,1
80005160:	fc079ae3          	bne	x15,x0,80005134 <memcpy+0xf4>
80005164:	f01ff06f          	jal	x0,80005064 <memcpy+0x24>

Disassembly of section .rodata:

80005168 <CSWTCH.299-0xd0>:
80005168:	2eb4                	c.fld	f13,88(x13)
8000516a:	8000                	0x8000
8000516c:	2eb4                	c.fld	f13,88(x13)
8000516e:	8000                	0x8000
80005170:	2eb4                	c.fld	f13,88(x13)
80005172:	8000                	0x8000
80005174:	2eb4                	c.fld	f13,88(x13)
80005176:	8000                	0x8000
80005178:	2ef8                	c.fld	f14,216(x13)
8000517a:	8000                	0x8000
8000517c:	2eb4                	c.fld	f13,88(x13)
8000517e:	8000                	0x8000
80005180:	2eb4                	c.fld	f13,88(x13)
80005182:	8000                	0x8000
80005184:	2eb4                	c.fld	f13,88(x13)
80005186:	8000                	0x8000
80005188:	31dc                	c.fld	f15,160(x11)
8000518a:	8000                	0x8000
8000518c:	2eb4                	c.fld	f13,88(x13)
8000518e:	8000                	0x8000
80005190:	2eb4                	c.fld	f13,88(x13)
80005192:	8000                	0x8000
80005194:	2eb4                	c.fld	f13,88(x13)
80005196:	8000                	0x8000
80005198:	31e4                	c.fld	f9,224(x11)
8000519a:	8000                	0x8000
8000519c:	2eb4                	c.fld	f13,88(x13)
8000519e:	8000                	0x8000
800051a0:	2eb4                	c.fld	f13,88(x13)
800051a2:	8000                	0x8000
800051a4:	2eb4                	c.fld	f13,88(x13)
800051a6:	8000                	0x8000
800051a8:	31dc                	c.fld	f15,160(x11)
800051aa:	8000                	0x8000
800051ac:	31dc                	c.fld	f15,160(x11)
800051ae:	8000                	0x8000
800051b0:	31dc                	c.fld	f15,160(x11)
800051b2:	8000                	0x8000
800051b4:	31dc                	c.fld	f15,160(x11)
800051b6:	8000                	0x8000
800051b8:	31dc                	c.fld	f15,160(x11)
800051ba:	8000                	0x8000
800051bc:	31dc                	c.fld	f15,160(x11)
800051be:	8000                	0x8000
800051c0:	31dc                	c.fld	f15,160(x11)
800051c2:	8000                	0x8000
800051c4:	31dc                	c.fld	f15,160(x11)
800051c6:	8000                	0x8000
800051c8:	2eb4                	c.fld	f13,88(x13)
800051ca:	8000                	0x8000
800051cc:	2eb4                	c.fld	f13,88(x13)
800051ce:	8000                	0x8000
800051d0:	2eb4                	c.fld	f13,88(x13)
800051d2:	8000                	0x8000
800051d4:	3080                	c.fld	f8,32(x9)
800051d6:	8000                	0x8000
800051d8:	31a8                	c.fld	f10,96(x11)
800051da:	8000                	0x8000
800051dc:	3184                	c.fld	f9,32(x11)
800051de:	8000                	0x8000
800051e0:	349c                	c.fld	f15,40(x9)
800051e2:	8000                	0x8000
800051e4:	34ac                	c.fld	f11,104(x9)
800051e6:	8000                	0x8000
800051e8:	36d8                	c.fld	f14,168(x13)
800051ea:	8000                	0x8000
800051ec:	3598                	c.fld	f14,40(x11)
800051ee:	8000                	0x8000
800051f0:	3818                	c.fld	f14,48(x8)
800051f2:	8000                	0x8000
800051f4:	34c0                	c.fld	f8,168(x9)
800051f6:	8000                	0x8000
800051f8:	36e8                	c.fld	f10,232(x13)
800051fa:	8000                	0x8000
800051fc:	35a8                	c.fld	f10,104(x11)
800051fe:	8000                	0x8000
80005200:	3838                	c.fld	f14,112(x8)
80005202:	8000                	0x8000
80005204:	3848                	c.fld	f10,176(x8)
80005206:	8000                	0x8000
80005208:	3910                	c.fld	f12,48(x10)
8000520a:	8000                	0x8000
8000520c:	419c                	c.lw	x15,0(x11)
8000520e:	8000                	0x8000
80005210:	4188                	c.lw	x10,0(x11)
80005212:	8000                	0x8000
80005214:	4324                	c.lw	x9,64(x14)
80005216:	8000                	0x8000
80005218:	42cc                	c.lw	x11,4(x13)
8000521a:	8000                	0x8000
8000521c:	437c                	c.lw	x15,68(x14)
8000521e:	8000                	0x8000
80005220:	419c                	c.lw	x15,0(x11)
80005222:	8000                	0x8000
80005224:	4334                	c.lw	x13,64(x14)
80005226:	8000                	0x8000
80005228:	42dc                	c.lw	x15,4(x13)
8000522a:	8000                	0x8000
8000522c:	439c                	c.lw	x15,0(x15)
8000522e:	8000                	0x8000
80005230:	43a4                	c.lw	x9,64(x15)
80005232:	8000                	0x8000
80005234:	43d8                	c.lw	x14,4(x15)
80005236:	8000                	0x8000

80005238 <CSWTCH.299>:
80005238:	0001                	c.addi	x0,0
8000523a:	0002                	c.slli64	x0
8000523c:	0004                	0x4
8000523e:	0008                	0x8
80005240:	0010                	0x10
80005242:	0020                	c.addi4spn	x8,x2,8
80005244:	0040                	c.addi4spn	x8,x2,4
80005246:	0080                	c.addi4spn	x8,x2,64
80005248:	0100                	c.addi4spn	x8,x2,128
8000524a:	0200                	c.addi4spn	x8,x2,256
8000524c:	0400                	c.addi4spn	x8,x2,512
8000524e:	0800                	c.addi4spn	x8,x2,16
80005250:	1000                	c.addi4spn	x8,x2,32
80005252:	2000                	c.fld	f8,0(x8)
80005254:	4000                	c.lw	x8,0(x8)
	...

80005258 <CSWTCH.301>:
80005258:	ffff                	0xffff
8000525a:	fffd                	c.bnez	x15,80005258 <CSWTCH.301>
8000525c:	fff9                	c.bnez	x15,8000523a <CSWTCH.299+0x2>
8000525e:	fff1                	c.bnez	x15,8000523a <CSWTCH.299+0x2>
80005260:	ffe1                	c.bnez	x15,80005238 <CSWTCH.299>
80005262:	ffc1                	c.bnez	x15,800051fa <memcpy+0x1ba>
80005264:	ff81                	c.bnez	x15,8000517c <memcpy+0x13c>
80005266:	ff01                	c.bnez	x14,8000517e <memcpy+0x13e>
80005268:	fe01                	c.bnez	x12,80005180 <memcpy+0x140>
8000526a:	fc01                	c.bnez	x8,80005182 <memcpy+0x142>
8000526c:	f801                	c.bnez	x8,8000517c <memcpy+0x13c>
8000526e:	f001                	c.bnez	x8,8000516e <memcpy+0x12e>
80005270:	e001                	c.bnez	x8,80005270 <CSWTCH.301+0x18>
80005272:	c001                	c.beqz	x8,80005272 <CSWTCH.301+0x1a>
80005274:	8001                	c.srli64	x8
	...

80005278 <CSWTCH.306>:
80005278:	5bf4                	c.lw	x13,116(x15)
8000527a:	8000                	0x8000
8000527c:	5b94                	c.lw	x13,48(x15)
8000527e:	8000                	0x8000
80005280:	5ea4                	c.lw	x9,120(x13)
80005282:	8000                	0x8000
80005284:	5e54                	c.lw	x13,60(x12)
80005286:	8000                	0x8000

80005288 <CSWTCH.308>:
80005288:	5c44                	c.lw	x9,60(x8)
8000528a:	8000                	0x8000
8000528c:	5be4                	c.lw	x9,116(x15)
8000528e:	8000                	0x8000
80005290:	5d54                	c.lw	x13,60(x10)
80005292:	8000                	0x8000
80005294:	5c54                	c.lw	x13,60(x8)
80005296:	8000                	0x8000

80005298 <gWinogradQuant>:
80005298:	b280                	c.fsd	f8,32(x13)
8000529a:	a7b2                	c.fsdsp	f12,456(x2)
8000529c:	a7f6                	c.fsdsp	f29,456(x2)
8000529e:	97e8e897          	auipc	x17,0x97e8e
800052a2:	d180                	c.sw	x8,32(x11)
800052a4:	6580d1db          	0x6580d1db
800052a8:	c5b2                	c.swsp	x12,200(x2)
800052aa:	b2c5                	c.j	80004c8a <pjpeg_decode_init+0x7b6>
800052ac:	4565                	c.li	x10,25
800052ae:	a7b1a78b          	0xa7b1a78b
800052b2:	6023458b          	0x6023458b
800052b6:	83979783          	lh	x15,-1991(x15)
800052ba:	2360                	c.fld	f8,192(x14)
800052bc:	5b31                	c.li	x22,-20
800052be:	8076                	c.mv	x0,x29
800052c0:	5b76                	c.lwsp	x22,124(x2)
800052c2:	2e31                	c.jal	800055de <b_ref.0+0xa>
800052c4:	6551                	c.lui	x10,0x14
800052c6:	5165                	c.li	x2,-7
800052c8:	2a2e                	c.fldsp	f20,200(x2)
800052ca:	4f45                	c.li	x30,17
800052cc:	2a45                	c.jal	8000547c <jpeg_data+0x164>
800052ce:	23363623          	0x23363623
800052d2:	251c                	c.fld	f15,8(x10)
800052d4:	131c                	c.addi4spn	x15,x2,416
800052d6:	          	addi	x20,x0,16

800052d8 <ZAG>:
800052d8:	0100                	c.addi4spn	x8,x2,128
800052da:	1008                	c.addi4spn	x10,x2,32
800052dc:	0209                	c.addi	x4,2
800052de:	18110a03          	lb	x20,385(x2)
800052e2:	1920                	c.addi4spn	x8,x2,184
800052e4:	0b12                	c.slli	x22,0x4
800052e6:	0504                	c.addi4spn	x9,x2,640
800052e8:	130c                	c.addi4spn	x11,x2,416
800052ea:	211a                	c.fldsp	f2,384(x2)
800052ec:	3028                	c.fld	f10,96(x8)
800052ee:	2229                	c.jal	800053f8 <jpeg_data+0xe0>
800052f0:	060d141b          	0x60d141b
800052f4:	1c150e07          	0x1c150e07
800052f8:	38312a23          	sw	x3,916(x2)
800052fc:	3239                	c.jal	80004c0a <pjpeg_decode_init+0x736>
800052fe:	161d242b          	0x161d242b
80005302:	251e170f          	0x251e170f
80005306:	332c                	c.fld	f11,96(x14)
80005308:	3b3a                	c.fldsp	f22,424(x2)
8000530a:	2d34                	c.fld	f13,88(x10)
8000530c:	1f26                	c.slli	x30,0x29
8000530e:	3c352e27          	fsw	f3,988(x10) # 143dc <SYSCALL_ADDR-0x1ecc24>
80005312:	363d                	c.jal	80004e40 <benchmark_body+0x38>
80005314:	3f3e372f          	0x3f3e372f

80005318 <jpeg_data>:
80005318:	d8ff                	0xd8ff
8000531a:	e0ff                	0xe0ff
8000531c:	1000                	c.addi4spn	x8,x2,32
8000531e:	464a                	c.lwsp	x12,144(x2)
80005320:	4649                	c.li	x12,18
80005322:	0100                	c.addi4spn	x8,x2,128
80005324:	0101                	c.addi	x2,0
80005326:	4800                	c.lw	x8,16(x8)
80005328:	4800                	c.lw	x8,16(x8)
8000532a:	0000                	c.unimp
8000532c:	dbff                	0xdbff
8000532e:	4300                	c.lw	x8,0(x14)
80005330:	5000                	c.lw	x8,32(x8)
80005332:	3c463c37          	lui	x24,0x3c463
80005336:	5032                	0x5032
80005338:	4146                	c.lwsp	x2,80(x2)
8000533a:	5a46                	c.lwsp	x20,112(x2)
8000533c:	5055                	c.li	x0,-11
8000533e:	785f 82c8 6e78      	0x6e7882c8785f
80005344:	786e                	c.flwsp	f16,248(x2)
80005346:	aff5                	c.j	80005b42 <gQuant0+0x2e>
80005348:	91b9                	c.srli	x11,0x2e
8000534a:	ffc8                	c.fsw	f10,60(x15)
8000534c:	ffff                	0xffff
8000534e:	ffff                	0xffff
80005350:	ffff                	0xffff
80005352:	ffff                	0xffff
80005354:	ffff                	0xffff
80005356:	ffff                	0xffff
80005358:	ffff                	0xffff
8000535a:	ffff                	0xffff
8000535c:	ffff                	0xffff
8000535e:	ffff                	0xffff
80005360:	ffff                	0xffff
80005362:	ffff                	0xffff
80005364:	ffff                	0xffff
80005366:	ffff                	0xffff
80005368:	ffff                	0xffff
8000536a:	ffff                	0xffff
8000536c:	ffff                	0xffff
8000536e:	ffff                	0xffff
80005370:	ffff                	0xffff
80005372:	014300db          	0x14300db
80005376:	5a55                	c.li	x20,-11
80005378:	785a                	c.flwsp	f16,180(x2)
8000537a:	7869                	c.lui	x16,0xffffa
8000537c:	eb8282eb          	0xeb8282eb
80005380:	ffff                	0xffff
80005382:	ffff                	0xffff
80005384:	ffff                	0xffff
80005386:	ffff                	0xffff
80005388:	ffff                	0xffff
8000538a:	ffff                	0xffff
8000538c:	ffff                	0xffff
8000538e:	ffff                	0xffff
80005390:	ffff                	0xffff
80005392:	ffff                	0xffff
80005394:	ffff                	0xffff
80005396:	ffff                	0xffff
80005398:	ffff                	0xffff
8000539a:	ffff                	0xffff
8000539c:	ffff                	0xffff
8000539e:	ffff                	0xffff
800053a0:	ffff                	0xffff
800053a2:	ffff                	0xffff
800053a4:	ffff                	0xffff
800053a6:	ffff                	0xffff
800053a8:	ffff                	0xffff
800053aa:	ffff                	0xffff
800053ac:	ffff                	0xffff
800053ae:	ffff                	0xffff
800053b0:	ffff                	0xffff
800053b2:	ffff                	0xffff
800053b4:	ffff                	0xffff
800053b6:	c0ff                	0xc0ff
800053b8:	1100                	c.addi4spn	x8,x2,160
800053ba:	0008                	0x8
800053bc:	0040                	c.addi4spn	x8,x2,4
800053be:	11010333          	0x11010333
800053c2:	0200                	c.addi4spn	x8,x2,256
800053c4:	0111                	c.addi	x2,4
800053c6:	ff011103          	lh	x2,-16(x2)
800053ca:	00c4                	c.addi4spn	x9,x2,68
800053cc:	0018                	0x18
800053ce:	0300                	c.addi4spn	x8,x2,384
800053d0:	0101                	c.addi	x2,0
	...
800053de:	0201                	c.addi	x4,0
800053e0:	ff040003          	lb	x0,-16(x8)
800053e4:	00c4                	c.addi4spn	x9,x2,68
800053e6:	1026                	c.slli	x0,0x29
800053e8:	0200                	c.addi4spn	x8,x2,256
800053ea:	0102                	c.slli64	x2
800053ec:	03040303          	lb	x6,48(x8)
800053f0:	0001                	c.addi	x0,0
800053f2:	0000                	c.unimp
800053f4:	0000                	c.unimp
800053f6:	0000                	c.unimp
800053f8:	0201                	c.addi	x4,0
800053fa:	1100                	c.addi4spn	x8,x2,160
800053fc:	31211203          	lh	x4,786(x2)
80005400:	6141                	c.addi16sp	x2,16
80005402:	0471                	c.addi	x8,28
80005404:	5322                	c.lwsp	x6,40(x2)
80005406:	1391                	c.addi	x7,-28
80005408:	ff625123          	0xff625123
8000540c:	00c4                	c.addi4spn	x9,x2,68
8000540e:	0115                	c.addi	x2,5
80005410:	0101                	c.addi	x2,0
	...
8000541e:	0000                	c.unimp
80005420:	0100                	c.addi4spn	x8,x2,128
80005422:	c4ff                	0xc4ff
80005424:	1400                	c.addi4spn	x8,x2,544
80005426:	0111                	c.addi	x2,4
	...
80005438:	daff                	0xdaff
8000543a:	0c00                	c.addi4spn	x8,x2,528
8000543c:	02000103          	lb	x2,32(x0) # 20 <SYSCALL_ADDR-0x200fe0>
80005440:	0311                	c.addi	x6,4
80005442:	0011                	c.addi	x0,4
80005444:	88c7003f 664d280b 	0x664d280b88c7003f
8000544c:	02e1                	c.addi	x5,24
8000544e:	450558cf          	0x450558cf
80005452:	0088                	c.addi4spn	x10,x2,64
80005454:	10a9                	c.addi	x1,-22
80005456:	0e34                	c.addi4spn	x13,x2,792
80005458:	54686faf          	0x54686faf
8000545c:	61036433          	0x61036433
80005460:	6a02                	c.flwsp	f20,0(x2)
80005462:	db49                	c.beqz	x14,800053f4 <jpeg_data+0xdc>
80005464:	8449                	c.srai	x8,0x12
80005466:	5059                	c.li	x0,-10
80005468:	5091                	c.li	x1,-28
8000546a:	3da0                	c.fld	f8,120(x11)
8000546c:	80a4                	0x80a4
8000546e:	887c                	0x887c
80005470:	d518                	c.sw	x14,40(x10)
80005472:	0548                	c.addi4spn	x10,x2,644
80005474:	4309                	c.li	x6,2
80005476:	2b00ffeb          	0x2b00ffeb
8000547a:	02f5                	c.addi	x5,29
8000547c:	d478                	c.sw	x14,108(x8)
8000547e:	ac1c                	c.fsd	f15,24(x8)
80005480:	1048                	c.addi4spn	x10,x2,36
80005482:	b58e                	c.fsdsp	f3,232(x2)
80005484:	a855                	c.j	80005538 <jpeg_data+0x220>
80005486:	a50c                	c.fsd	f11,8(x10)
80005488:	2a52db2f          	0x2a52db2f
8000548c:	5319                	c.li	x6,-26
8000548e:	82f6                	c.mv	x5,x29
80005490:	a104                	c.fsd	f9,0(x10)
80005492:	450e                	c.lwsp	x10,192(x2)
80005494:	84f8                	0x84f8
80005496:	ad0d                	c.j	80005ac8 <gQuant1+0x34>
80005498:	217e                	c.fldsp	f2,472(x2)
8000549a:	d020                	c.sw	x8,96(x8)
8000549c:	0430                	c.addi4spn	x12,x2,520
8000549e:	43995c93          	srai	x25,x18,0x39
800054a2:	c6e2                	c.swsp	x24,76(x2)
800054a4:	d7d42057          	0xd7d42057
800054a8:	207d                	c.jal	80005556 <r_ref.2+0x2>
800054aa:	e13a                	c.fswsp	f14,128(x2)
800054ac:	f640                	c.fsw	f8,44(x12)
800054ae:	f149                	c.bnez	x10,80005430 <jpeg_data+0x118>
800054b0:	a320                	c.fsd	f8,64(x14)
800054b2:	09c5178b          	0x9c5178b
800054b6:	05352647          	0x5352647
800054ba:	1eb5                	c.addi	x29,-19
800054bc:	7520                	c.flw	f8,104(x10)
800054be:	9502                	c.jalr	x10
800054c0:	fac0                	c.fsw	f8,52(x13)
800054c2:	cf81                	c.beqz	x15,800054da <jpeg_data+0x1c2>
800054c4:	0c52                	c.slli	x24,0x14
800054c6:	0d6c                	c.addi4spn	x11,x2,668
800054c8:	25a0                	c.fld	f8,72(x11)
800054ca:	ddbd                	c.beqz	x11,80005448 <jpeg_data+0x130>
800054cc:	f3d1                	c.bnez	x15,80005450 <jpeg_data+0x138>
800054ce:	282a                	c.fldsp	f16,136(x2)
800054d0:	0e04b043          	fmadd.q	f0,f9,f0,f1,rup
800054d4:	dc3a                	c.swsp	x14,56(x2)
800054d6:	b229                	c.j	80004de0 <pjpeg_need_bytes_callback+0x48>
800054d8:	116af813          	andi	x16,x21,278
800054dc:	5325                	c.li	x6,-23
800054de:	a922                	c.fsdsp	f8,144(x2)
800054e0:	e07d                	c.bnez	x8,800055c6 <g_ref.1+0x32>
800054e2:	a82e                	c.fsdsp	f11,16(x2)
800054e4:	c106                	c.swsp	x1,128(x2)
800054e6:	a0da                	c.fsdsp	f22,64(x2)
800054e8:	2129                	c.jal	800058f2 <gMCUBufB+0x5e>
800054ea:	304d                	c.jal	80004d8c <pjpeg_decode_init+0x8b8>
800054ec:	2a35                	c.jal	80005628 <gInBuf+0x14>
800054ee:	b928                	c.fsd	f10,112(x10)
800054f0:	15068517          	auipc	x10,0x15068
800054f4:	9750                	0x9750
800054f6:	d88c                	c.sw	x11,48(x9)
800054f8:	01e520ef          	jal	x1,80057516 <_end+0x51586>
800054fc:	d3f9                	c.beqz	x15,800054c2 <jpeg_data+0x1aa>
800054fe:	a152                	c.fsdsp	f20,128(x2)
80005500:	0eb5                	c.addi	x29,13
80005502:	14b0                	c.addi4spn	x12,x2,616
80005504:	3990                	c.fld	f12,48(x11)
80005506:	2832                	c.fldsp	f16,264(x2)
80005508:	60e2                	c.flwsp	f1,24(x2)
8000550a:	17d9                	c.addi	x15,-10
8000550c:	a2cc                	c.fsd	f11,128(x13)
8000550e:	b1d9                	c.j	800051d4 <memcpy+0x194>
80005510:	3502                	c.fldsp	f10,32(x2)
80005512:	1e58                	c.addi4spn	x14,x2,820
80005514:	0c60                	c.addi4spn	x8,x2,540
80005516:	9558                	0x9558
80005518:	a606                	c.fsdsp	f1,264(x2)
8000551a:	f820                	c.fsw	f8,112(x8)
8000551c:	3b90                	c.fld	f12,48(x15)
8000551e:	b3b04167          	0xb3b04167
80005522:	4f02                	c.lwsp	x30,0(x2)
80005524:	559c                	c.lw	x15,40(x11)
80005526:	8e40                	0x8e40
80005528:	feb5                	c.bnez	x13,800054a4 <jpeg_data+0x18c>
8000552a:	5109                	c.li	x2,-30
8000552c:	d712                	c.swsp	x4,172(x2)
8000552e:	fd01                	c.bnez	x10,80005446 <jpeg_data+0x12e>
80005530:	7b99113b          	0x7b99113b
80005534:	5598                	c.lw	x14,40(x11)
80005536:	4b7d                	c.li	x22,31
80005538:	ec0064bb          	0xec0064bb
8000553c:	04bd                	c.addi	x9,15
8000553e:	4505                	c.li	x10,1
80005540:	3662                	c.fldsp	f12,56(x2)
80005542:	3bb2                	c.fldsp	f23,296(x2)
80005544:	1b42                	c.slli	x22,0x30
80005546:	1c2a                	c.slli	x24,0x2a
80005548:	7440                	c.flw	f8,44(x8)
8000554a:	11b8                	c.addi4spn	x14,x2,232
8000554c:	0006                	c.slli	x0,0x1
8000554e:	1fb8                	c.addi4spn	x14,x2,1016
80005550:	d9ff                	0xd9ff
	...

80005554 <r_ref.2>:
80005554:	2121                	c.jal	8000595c <gMCUBufB+0xc8>
80005556:	2121                	c.jal	8000595e <gMCUBufB+0xca>
80005558:	2121                	c.jal	80005960 <gMCUBufB+0xcc>
8000555a:	2121                	c.jal	80005962 <gMCUBufB+0xce>
8000555c:	2020                	c.fld	f8,64(x8)
8000555e:	2020                	c.fld	f8,64(x8)
80005560:	2020                	c.fld	f8,64(x8)
80005562:	2020                	c.fld	f8,64(x8)
80005564:	1d1d                	c.addi	x26,-25
80005566:	1d1d                	c.addi	x26,-25
80005568:	1d1d                	c.addi	x26,-25
8000556a:	1d1d                	c.addi	x26,-25
8000556c:	1919                	c.addi	x18,-26
8000556e:	1919                	c.addi	x18,-26
80005570:	1919                	c.addi	x18,-26
80005572:	1919                	c.addi	x18,-26
80005574:	1515                	c.addi	x10,-27
80005576:	1515                	c.addi	x10,-27
80005578:	1515                	c.addi	x10,-27
8000557a:	1515                	c.addi	x10,-27
8000557c:	1111                	c.addi	x2,-28
8000557e:	1111                	c.addi	x2,-28
80005580:	1111                	c.addi	x2,-28
80005582:	1111                	c.addi	x2,-28
80005584:	0e0e                	c.slli	x28,0x3
80005586:	0e0e                	c.slli	x28,0x3
80005588:	0e0e                	c.slli	x28,0x3
8000558a:	0e0e                	c.slli	x28,0x3
8000558c:	0d0d                	c.addi	x26,3
8000558e:	0d0d                	c.addi	x26,3
80005590:	0d0d                	c.addi	x26,3
80005592:	0d0d                	c.addi	x26,3

80005594 <g_ref.1>:
80005594:	3535                	c.jal	800053c0 <jpeg_data+0xa8>
80005596:	3535                	c.jal	800053c2 <jpeg_data+0xaa>
80005598:	3535                	c.jal	800053c4 <jpeg_data+0xac>
8000559a:	3535                	c.jal	800053c6 <jpeg_data+0xae>
8000559c:	3434                	c.fld	f13,104(x8)
8000559e:	3434                	c.fld	f13,104(x8)
800055a0:	3434                	c.fld	f13,104(x8)
800055a2:	3434                	c.fld	f13,104(x8)
800055a4:	3131                	c.jal	800051b0 <memcpy+0x170>
800055a6:	3131                	c.jal	800051b2 <memcpy+0x172>
800055a8:	3131                	c.jal	800051b4 <memcpy+0x174>
800055aa:	3131                	c.jal	800051b6 <memcpy+0x176>
800055ac:	2d2d                	c.jal	80005be6 <gHuffVal1+0x2>
800055ae:	2d2d                	c.jal	80005be8 <gHuffVal1+0x4>
800055b0:	2d2d                	c.jal	80005bea <gHuffVal1+0x6>
800055b2:	2d2d                	c.jal	80005bec <gHuffVal1+0x8>
800055b4:	2929                	c.jal	800059ce <gMCUBufR+0x3a>
800055b6:	2929                	c.jal	800059d0 <gMCUBufR+0x3c>
800055b8:	2929                	c.jal	800059d2 <gMCUBufR+0x3e>
800055ba:	2929                	c.jal	800059d4 <gMCUBufR+0x40>
800055bc:	2525                	c.jal	80005be4 <gHuffVal1>
800055be:	2525                	c.jal	80005be6 <gHuffVal1+0x2>
800055c0:	2525                	c.jal	80005be8 <gHuffVal1+0x4>
800055c2:	2525                	c.jal	80005bea <gHuffVal1+0x6>
800055c4:	2222                	c.fldsp	f4,8(x2)
800055c6:	2222                	c.fldsp	f4,8(x2)
800055c8:	2222                	c.fldsp	f4,8(x2)
800055ca:	2222                	c.fldsp	f4,8(x2)
800055cc:	2121                	c.jal	800059d4 <gMCUBufR+0x40>
800055ce:	2121                	c.jal	800059d6 <gMCUBufR+0x42>
800055d0:	2121                	c.jal	800059d8 <gMCUBufR+0x44>
800055d2:	2121                	c.jal	800059da <gMCUBufR+0x46>

800055d4 <b_ref.0>:
800055d4:	43434343          	fmadd.d	f6,f6,f20,f8,rmm
800055d8:	43434343          	fmadd.d	f6,f6,f20,f8,rmm
800055dc:	4242                	c.lwsp	x4,16(x2)
800055de:	4242                	c.lwsp	x4,16(x2)
800055e0:	4242                	c.lwsp	x4,16(x2)
800055e2:	4242                	c.lwsp	x4,16(x2)
800055e4:	3f3f3f3f 3f3f3f3f 	0x3f3f3f3f3f3f3f3f
800055ec:	3b3b3b3b          	0x3b3b3b3b
800055f0:	3b3b3b3b          	0x3b3b3b3b
800055f4:	37373737          	lui	x14,0x37373
800055f8:	37373737          	lui	x14,0x37373
800055fc:	33333333          	0x33333333
80005600:	33333333          	0x33333333
80005604:	3030                	c.fld	f12,96(x8)
80005606:	3030                	c.fld	f12,96(x8)
80005608:	3030                	c.fld	f12,96(x8)
8000560a:	3030                	c.fld	f12,96(x8)
8000560c:	2f2f2f2f          	0x2f2f2f2f
80005610:	2f2f2f2f          	0x2f2f2f2f

Disassembly of section .bss:

80005614 <gInBuf>:
	...

80005714 <gCoeffBuf>:
	...

80005794 <gMCUBufG>:
	...

80005894 <gMCUBufB>:
	...

80005994 <gMCUBufR>:
	...

80005a94 <gQuant1>:
	...

80005b14 <gQuant0>:
	...

80005b94 <gHuffTab1>:
	...

80005be4 <gHuffVal1>:
	...

80005bf4 <gHuffTab0>:
	...

80005c44 <gHuffVal0>:
	...

80005c54 <gHuffVal3>:
	...

80005d54 <gHuffVal2>:
	...

80005e54 <gHuffTab3>:
	...

80005ea4 <gHuffTab2>:
	...

80005ef4 <pInfo>:
	...

Disassembly of section .sbss:

80005f20 <successive_low>:
	...

80005f21 <successive_high>:
	...

80005f22 <spectral_end>:
	...

80005f23 <spectral_start>:
	...

80005f24 <gReduce>:
	...

80005f25 <gCallbackStatus>:
80005f25:	0000                	c.unimp
	...

80005f28 <g_pCallback_data>:
80005f28:	0000                	c.unimp
	...

80005f2c <g_pNeedBytesCallback>:
80005f2c:	0000                	c.unimp
	...

80005f30 <gMCUOrg>:
80005f30:	0000                	c.unimp
80005f32:	0000                	c.unimp
	...

80005f36 <gNumMCUSRemaining>:
	...

80005f38 <gMaxMCUSPerCol>:
	...

80005f3a <gMaxMCUSPerRow>:
	...

80005f3c <gMaxMCUYSize>:
	...

80005f3d <gMaxMCUXSize>:
	...

80005f3e <gMaxBlocksPerMCU>:
	...

80005f40 <gScanType>:
80005f40:	0000                	c.unimp
	...

80005f44 <gCompACTab>:
80005f44:	0000                	c.unimp
	...

80005f48 <gCompDCTab>:
80005f48:	0000                	c.unimp
	...

80005f4c <gCompList>:
80005f4c:	0000                	c.unimp
	...

80005f4f <gCompsInScan>:
	...

80005f50 <gRestartsLeft>:
	...

80005f52 <gNextRestartNum>:
	...

80005f54 <gRestartInterval>:
80005f54:	0000                	c.unimp
	...

80005f58 <gCompQuant>:
80005f58:	0000                	c.unimp
	...

80005f5c <gCompVSamp>:
80005f5c:	0000                	c.unimp
	...

80005f60 <gCompHSamp>:
80005f60:	0000                	c.unimp
	...

80005f64 <gCompIdent>:
80005f64:	0000                	c.unimp
	...

80005f67 <gCompsInFrame>:
	...

80005f68 <gImageYSize>:
	...

80005f6a <gImageXSize>:
	...

80005f6c <gBitsLeft>:
	...

80005f6e <gBitBuf>:
	...

80005f70 <gInBufLeft>:
	...

80005f71 <gInBufOfs>:
	...

80005f72 <gTemFlag>:
	...

80005f73 <gValidQuantTables>:
	...

80005f74 <gValidHuffTables>:
80005f74:	0000                	c.unimp
	...

80005f78 <gLastDC>:
	...

80005f80 <jpeg_off>:
	...

Disassembly of section .comment:

00000000 <.comment>:
   0:	3a434347          	fmsub.d	f6,f6,f4,f7,rmm
   4:	2820                	c.fld	f8,80(x8)
   6:	39336367          	0x39336367
   a:	3131                	c.jal	fffffc16 <_end+0x7fff9c86>
   c:	3665                	c.jal	fffffbb4 <_end+0x7fff9c24>
   e:	3234                	c.fld	f13,96(x12)
  10:	6635                	c.lui	x12,0xd
  12:	2029                	c.jal	1c <SYSCALL_ADDR-0x200fe4>
  14:	3031                	c.jal	fffff820 <_end+0x7fff9890>
  16:	322e                	c.fldsp	f4,232(x2)
  18:	302e                	c.fldsp	f0,232(x2)
  1a:	4700                	c.lw	x8,8(x14)
  1c:	203a4343          	fmadd.s	f6,f20,f3,f4,rmm
  20:	4728                	c.lw	x10,72(x14)
  22:	554e                	c.lwsp	x10,240(x2)
  24:	2029                	c.jal	2e <SYSCALL_ADDR-0x200fd2>
  26:	3031                	c.jal	fffff832 <_end+0x7fff98a2>
  28:	322e                	c.fldsp	f4,232(x2)
  2a:	302e                	c.fldsp	f0,232(x2)
	...

Disassembly of section .riscv.attributes:

00000000 <.riscv.attributes>:
   0:	1f41                	c.addi	x30,-16
   2:	0000                	c.unimp
   4:	7200                	c.flw	f8,32(x12)
   6:	7369                	c.lui	x6,0xffffa
   8:	01007663          	bgeu	x0,x16,14 <SYSCALL_ADDR-0x200fec>
   c:	0015                	c.addi	x0,5
   e:	0000                	c.unimp
  10:	1004                	c.addi4spn	x9,x2,32
  12:	7205                	c.lui	x4,0xfffe1
  14:	3376                	c.fldsp	f6,376(x2)
  16:	6932                	c.flwsp	f18,12(x2)
  18:	7032                	c.flwsp	f0,44(x2)
  1a:	0030                	c.addi4spn	x12,x2,8
  1c:	0108                	c.addi4spn	x10,x2,128
  1e:	0b0a                	c.slli	x22,0x2

Disassembly of section .debug_line:

00000000 <.debug_line>:
   0:	0094                	c.addi4spn	x13,x2,64
   2:	0000                	c.unimp
   4:	004e0003          	lb	x0,4(x28)
   8:	0000                	c.unimp
   a:	0101                	c.addi	x2,0
   c:	000d0efb          	0xd0efb
  10:	0101                	c.addi	x2,0
  12:	0101                	c.addi	x2,0
  14:	0000                	c.unimp
  16:	0100                	c.addi4spn	x8,x2,128
  18:	0000                	c.unimp
  1a:	2e01                	c.jal	32a <SYSCALL_ADDR-0x200cd6>
  1c:	2f2e                	c.fldsp	f30,200(x2)
  1e:	2e2e                	c.fldsp	f28,200(x2)
  20:	2f2e2e2f          	0x2f2e2e2f
  24:	2e2e                	c.fldsp	f28,200(x2)
  26:	2f2e2e2f          	0x2f2e2e2f
  2a:	2f2e                	c.fldsp	f30,200(x2)
  2c:	6972                	c.flwsp	f18,28(x2)
  2e:	2d766373          	csrrsi	x6,0x2d7,12
  32:	2f636367          	0x2f636367
  36:	696c                	c.flw	f11,84(x10)
  38:	6762                	c.flwsp	f14,24(x2)
  3a:	632f6363          	bltu	x30,x18,660 <SYSCALL_ADDR-0x2009a0>
  3e:	69666e6f          	jal	x28,666d4 <SYSCALL_ADDR-0x19a92c>
  42:	69722f67          	0x69722f67
  46:	00766373          	csrrsi	x6,0x7,12
  4a:	6d00                	c.flw	f8,24(x10)
  4c:	6c75                	c.lui	x24,0x1d
  4e:	6964                	c.flw	f9,84(x10)
  50:	00532e33          	slt	x28,x6,x5
  54:	0001                	c.addi	x0,0
  56:	0000                	c.unimp
  58:	0500                	c.addi4spn	x8,x2,640
  5a:	6402                	c.flwsp	f8,0(x2)
  5c:	0380004f          	fnmadd.d	f0,f0,f24,f0,rne
  60:	0124                	c.addi4spn	x9,x2,136
  62:	04090103          	lb	x2,64(x18)
  66:	0100                	c.addi4spn	x8,x2,128
  68:	04090203          	lb	x4,64(x18)
  6c:	0100                	c.addi4spn	x8,x2,128
  6e:	04090103          	lb	x2,64(x18)
  72:	0100                	c.addi4spn	x8,x2,128
  74:	04090103          	lb	x2,64(x18)
  78:	0100                	c.addi4spn	x8,x2,128
  7a:	04090203          	lb	x4,64(x18)
  7e:	0100                	c.addi4spn	x8,x2,128
  80:	04090103          	lb	x2,64(x18)
  84:	0100                	c.addi4spn	x8,x2,128
  86:	04090103          	lb	x2,64(x18)
  8a:	0100                	c.addi4spn	x8,x2,128
  8c:	04090103          	lb	x2,64(x18)
  90:	0100                	c.addi4spn	x8,x2,128
  92:	0409                	c.addi	x8,2
  94:	0000                	c.unimp
  96:	0101                	c.addi	x2,0

Disassembly of section .debug_info:

00000000 <.debug_info>:
   0:	0022                	c.slli	x0,0x8
   2:	0000                	c.unimp
   4:	0002                	c.slli64	x0
   6:	0000                	c.unimp
   8:	0000                	c.unimp
   a:	0104                	c.addi4spn	x9,x2,128
   c:	0000                	c.unimp
   e:	0000                	c.unimp
  10:	4f64                	c.lw	x9,92(x14)
  12:	8000                	0x8000
  14:	4f88                	c.lw	x10,24(x15)
  16:	8000                	0x8000
  18:	0000                	c.unimp
  1a:	0000                	c.unimp
  1c:	0038                	c.addi4spn	x14,x2,8
  1e:	0000                	c.unimp
  20:	009e                	c.slli	x1,0x7
  22:	0000                	c.unimp
  24:	8001                	c.srli64	x8

Disassembly of section .debug_abbrev:

00000000 <.debug_abbrev>:
   0:	1101                	c.addi	x2,-32
   2:	1000                	c.addi4spn	x8,x2,32
   4:	1106                	c.slli	x2,0x21
   6:	1201                	c.addi	x4,-32
   8:	0301                	c.addi	x6,0
   a:	1b0e                	c.slli	x22,0x23
   c:	250e                	c.fldsp	f10,192(x2)
   e:	130e                	c.slli	x6,0x23
  10:	0005                	c.addi	x0,1
	...

Disassembly of section .debug_aranges:

00000000 <.debug_aranges>:
   0:	001c                	0x1c
   2:	0000                	c.unimp
   4:	0002                	c.slli64	x0
   6:	0000                	c.unimp
   8:	0000                	c.unimp
   a:	0004                	0x4
   c:	0000                	c.unimp
   e:	0000                	c.unimp
  10:	4f64                	c.lw	x9,92(x14)
  12:	8000                	0x8000
  14:	0024                	c.addi4spn	x9,x2,8
	...

Disassembly of section .debug_str:

00000000 <.debug_str>:
   0:	2e2e                	c.fldsp	f28,200(x2)
   2:	2f2e2e2f          	0x2f2e2e2f
   6:	2e2e                	c.fldsp	f28,200(x2)
   8:	2f2e2e2f          	0x2f2e2e2f
   c:	2e2e                	c.fldsp	f28,200(x2)
   e:	722f2e2f          	0x722f2e2f
  12:	7369                	c.lui	x6,0xffffa
  14:	672d7663          	bgeu	x26,x18,680 <SYSCALL_ADDR-0x200980>
  18:	6c2f6363          	bltu	x30,x2,6de <SYSCALL_ADDR-0x200922>
  1c:	6269                	c.lui	x4,0x1a
  1e:	2f636367          	0x2f636367
  22:	666e6f63          	bltu	x28,x6,6a0 <SYSCALL_ADDR-0x200960>
  26:	6769                	c.lui	x14,0x1a
  28:	7369722f          	0x7369722f
  2c:	6d2f7663          	bgeu	x30,x18,6f8 <SYSCALL_ADDR-0x200908>
  30:	6c75                	c.lui	x24,0x1d
  32:	6964                	c.flw	f9,84(x10)
  34:	00532e33          	slt	x28,x6,x5
  38:	6d6f682f          	0x6d6f682f
  3c:	2f65                	c.jal	7f4 <SYSCALL_ADDR-0x20080c>
  3e:	6c6c6173          	csrrsi	x2,0x6c6,24
  42:	7261                	c.lui	x4,0xffff8
  44:	6f6f742f          	0x6f6f742f
  48:	736c                	c.flw	f11,100(x14)
  4a:	7369722f          	0x7369722f
  4e:	672d7663          	bgeu	x26,x18,6ba <SYSCALL_ADDR-0x200946>
  52:	756e                	c.flwsp	f10,248(x2)
  54:	742d                	c.lui	x8,0xfffeb
  56:	636c6f6f          	jal	x30,c668c <SYSCALL_ADDR-0x13a974>
  5a:	6168                	c.flw	f10,68(x10)
  5c:	6e69                	c.lui	x28,0x1a
  5e:	6975622f          	0x6975622f
  62:	646c                	c.flw	f11,76(x8)
  64:	672d                	c.lui	x14,0xb
  66:	6e2d6363          	bltu	x26,x2,74c <SYSCALL_ADDR-0x2008b4>
  6a:	7765                	c.lui	x14,0xffff9
  6c:	696c                	c.flw	f11,84(x10)
  6e:	2d62                	c.fldsp	f26,24(x2)
  70:	67617473          	csrrci	x8,0x676,2
  74:	3265                	c.jal	fffffa1c <_end+0x7fff9a8c>
  76:	7369722f          	0x7369722f
  7a:	34367663          	bgeu	x12,x3,3c6 <SYSCALL_ADDR-0x200c3a>
  7e:	752d                	c.lui	x10,0xfffeb
  80:	6b6e                	c.flwsp	f22,216(x2)
  82:	6f6e                	c.flwsp	f30,216(x2)
  84:	652d6e77          	0x652d6e77
  88:	666c                	c.flw	f11,76(x12)
  8a:	3376722f          	0x3376722f
  8e:	6932                	c.flwsp	f18,12(x2)
  90:	706c692f          	0x706c692f
  94:	6c2f3233          	0x6c2f3233
  98:	6269                	c.lui	x4,0x1a
  9a:	00636367          	0x636367
  9e:	20554e47          	fmsub.s	f28,f10,f5,f4,rmm
  a2:	5341                	c.li	x6,-16
  a4:	3220                	c.fld	f8,96(x12)
  a6:	332e                	c.fldsp	f6,232(x2)
  a8:	0035                	c.addi	x0,13
