
slre.elf:     Dateiformat elf32-littleriscv


Disassembly of section .text.init:

80000000 <initSection>:
80000000:	000070b3          	and	x1,x0,x0
80000004:	00007133          	and	x2,x0,x0
80000008:	000071b3          	and	x3,x0,x0
8000000c:	00007233          	and	x4,x0,x0
80000010:	000072b3          	and	x5,x0,x0
80000014:	00007333          	and	x6,x0,x0
80000018:	000073b3          	and	x7,x0,x0
8000001c:	00007433          	and	x8,x0,x0
80000020:	000074b3          	and	x9,x0,x0
80000024:	00007533          	and	x10,x0,x0
80000028:	000075b3          	and	x11,x0,x0
8000002c:	00007633          	and	x12,x0,x0
80000030:	000076b3          	and	x13,x0,x0
80000034:	00007733          	and	x14,x0,x0
80000038:	000077b3          	and	x15,x0,x0
8000003c:	00007833          	and	x16,x0,x0
80000040:	000078b3          	and	x17,x0,x0
80000044:	00007933          	and	x18,x0,x0
80000048:	000079b3          	and	x19,x0,x0
8000004c:	00007a33          	and	x20,x0,x0
80000050:	00007ab3          	and	x21,x0,x0
80000054:	00007b33          	and	x22,x0,x0
80000058:	00007bb3          	and	x23,x0,x0
8000005c:	00007c33          	and	x24,x0,x0
80000060:	00007cb3          	and	x25,x0,x0
80000064:	00007d33          	and	x26,x0,x0
80000068:	00007db3          	and	x27,x0,x0
8000006c:	00007e33          	and	x28,x0,x0
80000070:	00007eb3          	and	x29,x0,x0
80000074:	00007f33          	and	x30,x0,x0
80000078:	00007fb3          	and	x31,x0,x0
8000007c:	00002117          	auipc	x2,0x2
80000080:	03410113          	addi	x2,x2,52 # 800020b0 <stack_end>
80000084:	639020ef          	jal	x1,80002ebc <main>

80000088 <sys_end>:
80000088:	05d00893          	addi	x17,x0,93
8000008c:	00000513          	addi	x10,x0,0
80000090:	002012b7          	lui	x5,0x201
80000094:	f1402873          	csrrs	x16,mhartid,x0
80000098:	0102a023          	sw	x16,0(x5) # 201000 <SYSCALL_ADDR>
8000009c:	0112a023          	sw	x17,0(x5)
800000a0:	fe9ff06f          	jal	x0,80000088 <sys_end>
800000a4:	00000013          	addi	x0,x0,0
800000a8:	00000013          	addi	x0,x0,0
800000ac:	00000013          	addi	x0,x0,0

800000b0 <stack_begin>:
	...

800020b0 <stack_end>:
800020b0:	0000                	c.unimp
	...

Disassembly of section .text:

800020b4 <op_len>:
800020b4:	00054703          	lbu	x14,0(x10)
800020b8:	05c00793          	addi	x15,x0,92
800020bc:	00f71e63          	bne	x14,x15,800020d8 <op_len+0x24>
800020c0:	00154703          	lbu	x14,1(x10)
800020c4:	07800793          	addi	x15,x0,120
800020c8:	00400513          	addi	x10,x0,4
800020cc:	00f70863          	beq	x14,x15,800020dc <op_len+0x28>
800020d0:	00200513          	addi	x10,x0,2
800020d4:	00008067          	jalr	x0,0(x1)
800020d8:	00100513          	addi	x10,x0,1
800020dc:	00008067          	jalr	x0,0(x1)

800020e0 <get_op_len>:
800020e0:	00054703          	lbu	x14,0(x10)
800020e4:	05b00793          	addi	x15,x0,91
800020e8:	06f71e63          	bne	x14,x15,80002164 <get_op_len+0x84>
800020ec:	fe010113          	addi	x2,x2,-32
800020f0:	00812c23          	sw	x8,24(x2)
800020f4:	00912a23          	sw	x9,20(x2)
800020f8:	01212823          	sw	x18,16(x2)
800020fc:	01312623          	sw	x19,12(x2)
80002100:	00112e23          	sw	x1,28(x2)
80002104:	00050913          	addi	x18,x10,0
80002108:	fff58493          	addi	x9,x11,-1
8000210c:	00000413          	addi	x8,x0,0
80002110:	05d00993          	addi	x19,x0,93
80002114:	04945263          	bge	x8,x9,80002158 <get_op_len+0x78>
80002118:	00140513          	addi	x10,x8,1
8000211c:	00a90533          	add	x10,x18,x10
80002120:	00054783          	lbu	x15,0(x10)
80002124:	03379463          	bne	x15,x19,8000214c <get_op_len+0x6c>
80002128:	00140413          	addi	x8,x8,1
8000212c:	01c12083          	lw	x1,28(x2)
80002130:	00140513          	addi	x10,x8,1
80002134:	01812403          	lw	x8,24(x2)
80002138:	01412483          	lw	x9,20(x2)
8000213c:	01012903          	lw	x18,16(x2)
80002140:	00c12983          	lw	x19,12(x2)
80002144:	02010113          	addi	x2,x2,32
80002148:	00008067          	jalr	x0,0(x1)
8000214c:	f69ff0ef          	jal	x1,800020b4 <op_len>
80002150:	00a40433          	add	x8,x8,x10
80002154:	fc1ff06f          	jal	x0,80002114 <get_op_len+0x34>
80002158:	fc8488e3          	beq	x9,x8,80002128 <get_op_len+0x48>
8000215c:	fff00413          	addi	x8,x0,-1
80002160:	fcdff06f          	jal	x0,8000212c <get_op_len+0x4c>
80002164:	f51ff06f          	jal	x0,800020b4 <op_len>

80002168 <match_op>:
80002168:	00054783          	lbu	x15,0(x10)
8000216c:	05c00713          	addi	x14,x0,92
80002170:	08e78463          	beq	x15,x14,800021f8 <match_op+0x90>
80002174:	06f76c63          	bltu	x14,x15,800021ec <match_op+0x84>
80002178:	02400713          	addi	x14,x0,36
8000217c:	fff00513          	addi	x10,x0,-1
80002180:	16e78c63          	beq	x15,x14,800022f8 <match_op+0x190>
80002184:	02e00713          	addi	x14,x0,46
80002188:	00100513          	addi	x10,x0,1
8000218c:	16e78663          	beq	x15,x14,800022f8 <match_op+0x190>
80002190:	00001737          	lui	x14,0x1
80002194:	00e60633          	add	x12,x12,x14
80002198:	97062503          	lw	x10,-1680(x12)
8000219c:	0005c703          	lbu	x14,0(x11)
800021a0:	00157513          	andi	x10,x10,1
800021a4:	16050863          	beq	x10,x0,80002314 <match_op+0x1ac>
800021a8:	800036b7          	lui	x13,0x80003
800021ac:	1c168613          	addi	x12,x13,449 # 800031c1 <_end+0xfffffef1>
800021b0:	00f60633          	add	x12,x12,x15
800021b4:	00064603          	lbu	x12,0(x12)
800021b8:	00100593          	addi	x11,x0,1
800021bc:	1c168693          	addi	x13,x13,449
800021c0:	00367613          	andi	x12,x12,3
800021c4:	00b61463          	bne	x12,x11,800021cc <match_op+0x64>
800021c8:	02078793          	addi	x15,x15,32
800021cc:	00e686b3          	add	x13,x13,x14
800021d0:	0006c683          	lbu	x13,0(x13)
800021d4:	00100613          	addi	x12,x0,1
800021d8:	0036f693          	andi	x13,x13,3
800021dc:	00c69463          	bne	x13,x12,800021e4 <match_op+0x7c>
800021e0:	02070713          	addi	x14,x14,32 # 1020 <SYSCALL_ADDR-0x1fffe0>
800021e4:	10e78a63          	beq	x15,x14,800022f8 <match_op+0x190>
800021e8:	0ec0006f          	jal	x0,800022d4 <match_op+0x16c>
800021ec:	07c00713          	addi	x14,x0,124
800021f0:	ffc00513          	addi	x10,x0,-4
800021f4:	f99ff06f          	jal	x0,8000218c <match_op+0x24>
800021f8:	00154783          	lbu	x15,1(x10)
800021fc:	07300713          	addi	x14,x0,115
80002200:	0005c603          	lbu	x12,0(x11)
80002204:	0ce78c63          	beq	x15,x14,800022dc <match_op+0x174>
80002208:	02f76063          	bltu	x14,x15,80002228 <match_op+0xc0>
8000220c:	05300713          	addi	x14,x0,83
80002210:	0ae78463          	beq	x15,x14,800022b8 <match_op+0x150>
80002214:	06400713          	addi	x14,x0,100
80002218:	0ee78263          	beq	x15,x14,800022fc <match_op+0x194>
8000221c:	00100513          	addi	x10,x0,1
80002220:	0cc78c63          	beq	x15,x12,800022f8 <match_op+0x190>
80002224:	0b00006f          	jal	x0,800022d4 <match_op+0x16c>
80002228:	07800713          	addi	x14,x0,120
8000222c:	fee798e3          	bne	x15,x14,8000221c <match_op+0xb4>
80002230:	00254683          	lbu	x13,2(x10)
80002234:	800037b7          	lui	x15,0x80003
80002238:	1c178713          	addi	x14,x15,449 # 800031c1 <_end+0xfffffef1>
8000223c:	00e68733          	add	x14,x13,x14
80002240:	00074703          	lbu	x14,0(x14)
80002244:	00100593          	addi	x11,x0,1
80002248:	1c178793          	addi	x15,x15,449
8000224c:	00377713          	andi	x14,x14,3
80002250:	00b71463          	bne	x14,x11,80002258 <match_op+0xf0>
80002254:	02068693          	addi	x13,x13,32
80002258:	00d78733          	add	x14,x15,x13
8000225c:	00074583          	lbu	x11,0(x14)
80002260:	fa968713          	addi	x14,x13,-87
80002264:	0045f593          	andi	x11,x11,4
80002268:	00058463          	beq	x11,x0,80002270 <match_op+0x108>
8000226c:	fd068713          	addi	x14,x13,-48
80002270:	00354683          	lbu	x13,3(x10)
80002274:	00100513          	addi	x10,x0,1
80002278:	00471713          	slli	x14,x14,0x4
8000227c:	00d785b3          	add	x11,x15,x13
80002280:	0005c583          	lbu	x11,0(x11)
80002284:	0035f593          	andi	x11,x11,3
80002288:	00a59463          	bne	x11,x10,80002290 <match_op+0x128>
8000228c:	02068693          	addi	x13,x13,32
80002290:	00d787b3          	add	x15,x15,x13
80002294:	0007c783          	lbu	x15,0(x15)
80002298:	fa968593          	addi	x11,x13,-87
8000229c:	0047f793          	andi	x15,x15,4
800022a0:	00078463          	beq	x15,x0,800022a8 <match_op+0x140>
800022a4:	fd068593          	addi	x11,x13,-48
800022a8:	00b76733          	or	x14,x14,x11
800022ac:	00100513          	addi	x10,x0,1
800022b0:	04e60463          	beq	x12,x14,800022f8 <match_op+0x190>
800022b4:	0200006f          	jal	x0,800022d4 <match_op+0x16c>
800022b8:	800037b7          	lui	x15,0x80003
800022bc:	1c178793          	addi	x15,x15,449 # 800031c1 <_end+0xfffffef1>
800022c0:	00f60633          	add	x12,x12,x15
800022c4:	00064783          	lbu	x15,0(x12)
800022c8:	00100513          	addi	x10,x0,1
800022cc:	0087f793          	andi	x15,x15,8
800022d0:	02078463          	beq	x15,x0,800022f8 <match_op+0x190>
800022d4:	fff00513          	addi	x10,x0,-1
800022d8:	0200006f          	jal	x0,800022f8 <match_op+0x190>
800022dc:	800037b7          	lui	x15,0x80003
800022e0:	1c178793          	addi	x15,x15,449 # 800031c1 <_end+0xfffffef1>
800022e4:	00f60633          	add	x12,x12,x15
800022e8:	00064783          	lbu	x15,0(x12)
800022ec:	0087f793          	andi	x15,x15,8
800022f0:	00100513          	addi	x10,x0,1
800022f4:	fe0780e3          	beq	x15,x0,800022d4 <match_op+0x16c>
800022f8:	00008067          	jalr	x0,0(x1)
800022fc:	800037b7          	lui	x15,0x80003
80002300:	1c178793          	addi	x15,x15,449 # 800031c1 <_end+0xfffffef1>
80002304:	00f60633          	add	x12,x12,x15
80002308:	00064783          	lbu	x15,0(x12)
8000230c:	0047f793          	andi	x15,x15,4
80002310:	fe1ff06f          	jal	x0,800022f0 <match_op+0x188>
80002314:	00100513          	addi	x10,x0,1
80002318:	ecdff06f          	jal	x0,800021e4 <match_op+0x7c>

8000231c <bar>:
8000231c:	fa010113          	addi	x2,x2,-96
80002320:	04912a23          	sw	x9,84(x2)
80002324:	00078493          	addi	x9,x15,0
80002328:	000017b7          	lui	x15,0x1
8000232c:	03712e23          	sw	x23,60(x2)
80002330:	00f707b3          	add	x15,x14,x15
80002334:	80003bb7          	lui	x23,0x80003
80002338:	04812c23          	sw	x8,88(x2)
8000233c:	05212823          	sw	x18,80(x2)
80002340:	05312623          	sw	x19,76(x2)
80002344:	05512223          	sw	x21,68(x2)
80002348:	05612023          	sw	x22,64(x2)
8000234c:	03812c23          	sw	x24,56(x2)
80002350:	04112e23          	sw	x1,92(x2)
80002354:	05412423          	sw	x20,72(x2)
80002358:	03912a23          	sw	x25,52(x2)
8000235c:	03a12823          	sw	x26,48(x2)
80002360:	03b12623          	sw	x27,44(x2)
80002364:	00a12423          	sw	x10,8(x2)
80002368:	00058413          	addi	x8,x11,0
8000236c:	00060a93          	addi	x21,x12,0
80002370:	00068913          	addi	x18,x13,0
80002374:	00070b13          	addi	x22,x14,0
80002378:	00000c13          	addi	x24,x0,0
8000237c:	00000993          	addi	x19,x0,0
80002380:	00f12823          	sw	x15,16(x2)
80002384:	1c1b8b93          	addi	x23,x23,449 # 800031c1 <_end+0xfffffef1>
80002388:	0089d463          	bge	x19,x8,80002390 <bar+0x74>
8000238c:	01895663          	bge	x18,x24,80002398 <bar+0x7c>
80002390:	000c0d13          	addi	x26,x24,0
80002394:	1e80006f          	jal	x0,8000257c <bar+0x260>
80002398:	00812783          	lw	x15,8(x2)
8000239c:	01378cb3          	add	x25,x15,x19
800023a0:	000ccd83          	lbu	x27,0(x25)
800023a4:	02800793          	addi	x15,x0,40
800023a8:	08fd9063          	bne	x27,x15,80002428 <bar+0x10c>
800023ac:	00148793          	addi	x15,x9,1
800023b0:	00479793          	slli	x15,x15,0x4
800023b4:	00fb07b3          	add	x15,x22,x15
800023b8:	0047aa03          	lw	x20,4(x15) # 1004 <SYSCALL_ADDR-0x1ffffc>
800023bc:	002a0a13          	addi	x20,x20,2
800023c0:	49405e63          	bge	x0,x20,8000285c <bar+0x540>
800023c4:	014986b3          	add	x13,x19,x20
800023c8:	2086d663          	bge	x13,x8,800025d4 <bar+0x2b8>
800023cc:	00812783          	lw	x15,8(x2)
800023d0:	00100593          	addi	x11,x0,1
800023d4:	00d787b3          	add	x15,x15,x13
800023d8:	0007c603          	lbu	x12,0(x15)
800023dc:	00f12623          	sw	x15,12(x2)
800023e0:	fd660793          	addi	x15,x12,-42
800023e4:	0ff7f793          	andi	x15,x15,255
800023e8:	06f5f863          	bgeu	x11,x15,80002458 <bar+0x13c>
800023ec:	03f00793          	addi	x15,x0,63
800023f0:	1ef61263          	bne	x12,x15,800025d4 <bar+0x2b8>
800023f4:	00048793          	addi	x15,x9,0
800023f8:	000b0713          	addi	x14,x22,0
800023fc:	418906b3          	sub	x13,x18,x24
80002400:	018a8633          	add	x12,x21,x24
80002404:	000a0593          	addi	x11,x20,0
80002408:	000c8513          	addi	x10,x25,0
8000240c:	f11ff0ef          	jal	x1,8000231c <bar>
80002410:	00055463          	bge	x10,x0,80002418 <bar+0xfc>
80002414:	00000513          	addi	x10,x0,0
80002418:	00ac0c33          	add	x24,x24,x10
8000241c:	00198993          	addi	x19,x19,1
80002420:	014989b3          	add	x19,x19,x20
80002424:	f65ff06f          	jal	x0,80002388 <bar+0x6c>
80002428:	413405b3          	sub	x11,x8,x19
8000242c:	000c8513          	addi	x10,x25,0
80002430:	cb1ff0ef          	jal	x1,800020e0 <get_op_len>
80002434:	fd6d8793          	addi	x15,x27,-42
80002438:	0ff7f793          	andi	x15,x15,255
8000243c:	00100693          	addi	x13,x0,1
80002440:	00050a13          	addi	x20,x10,0
80002444:	00f6f663          	bgeu	x13,x15,80002450 <bar+0x134>
80002448:	03f00793          	addi	x15,x0,63
8000244c:	f6fd9ae3          	bne	x27,x15,800023c0 <bar+0xa4>
80002450:	ffe00d13          	addi	x26,x0,-2
80002454:	1280006f          	jal	x0,8000257c <bar+0x260>
80002458:	00168b93          	addi	x23,x13,1
8000245c:	00012823          	sw	x0,16(x2)
80002460:	028bd263          	bge	x23,x8,80002484 <bar+0x168>
80002464:	00812783          	lw	x15,8(x2)
80002468:	017787b3          	add	x15,x15,x23
8000246c:	0007c603          	lbu	x12,0(x15)
80002470:	03f00793          	addi	x15,x0,63
80002474:	00f61863          	bne	x12,x15,80002484 <bar+0x168>
80002478:	00100793          	addi	x15,x0,1
8000247c:	00268b93          	addi	x23,x13,2
80002480:	00f12823          	sw	x15,16(x2)
80002484:	417407b3          	sub	x15,x8,x23
80002488:	00f12a23          	sw	x15,20(x2)
8000248c:	00812783          	lw	x15,8(x2)
80002490:	000c0d13          	addi	x26,x24,0
80002494:	000c0993          	addi	x19,x24,0
80002498:	017787b3          	add	x15,x15,x23
8000249c:	fff00d93          	addi	x27,x0,-1
800024a0:	00f12c23          	sw	x15,24(x2)
800024a4:	00048793          	addi	x15,x9,0
800024a8:	000b0713          	addi	x14,x22,0
800024ac:	413906b3          	sub	x13,x18,x19
800024b0:	013a8633          	add	x12,x21,x19
800024b4:	000a0593          	addi	x11,x20,0
800024b8:	000c8513          	addi	x10,x25,0
800024bc:	e61ff0ef          	jal	x1,8000231c <bar>
800024c0:	00050e93          	addi	x29,x10,0
800024c4:	00a05463          	bge	x0,x10,800024cc <bar+0x1b0>
800024c8:	00a989b3          	add	x19,x19,x10
800024cc:	00c12783          	lw	x15,12(x2)
800024d0:	02b00713          	addi	x14,x0,43
800024d4:	0007c783          	lbu	x15,0(x15)
800024d8:	00e79463          	bne	x15,x14,800024e0 <bar+0x1c4>
800024dc:	080ec463          	blt	x29,x0,80002564 <bar+0x248>
800024e0:	0c8bde63          	bge	x23,x8,800025bc <bar+0x2a0>
800024e4:	01412583          	lw	x11,20(x2)
800024e8:	01812503          	lw	x10,24(x2)
800024ec:	00048793          	addi	x15,x9,0
800024f0:	000b0713          	addi	x14,x22,0
800024f4:	413906b3          	sub	x13,x18,x19
800024f8:	013a8633          	add	x12,x21,x19
800024fc:	01d12e23          	sw	x29,28(x2)
80002500:	e1dff0ef          	jal	x1,8000231c <bar>
80002504:	01c12e83          	lw	x29,28(x2)
80002508:	00050d93          	addi	x27,x10,0
8000250c:	00054463          	blt	x10,x0,80002514 <bar+0x1f8>
80002510:	00a98d33          	add	x26,x19,x10
80002514:	01ac5663          	bge	x24,x26,80002520 <bar+0x204>
80002518:	01012783          	lw	x15,16(x2)
8000251c:	00079463          	bne	x15,x0,80002524 <bar+0x208>
80002520:	f9d042e3          	blt	x0,x29,800024a4 <bar+0x188>
80002524:	040ed063          	bge	x29,x0,80002564 <bar+0x248>
80002528:	00c12783          	lw	x15,12(x2)
8000252c:	0007c683          	lbu	x13,0(x15)
80002530:	02a00793          	addi	x15,x0,42
80002534:	02f69863          	bne	x13,x15,80002564 <bar+0x248>
80002538:	00812503          	lw	x10,8(x2)
8000253c:	00048793          	addi	x15,x9,0
80002540:	000b0713          	addi	x14,x22,0
80002544:	418906b3          	sub	x13,x18,x24
80002548:	018a8633          	add	x12,x21,x24
8000254c:	417405b3          	sub	x11,x8,x23
80002550:	01750533          	add	x10,x10,x23
80002554:	dc9ff0ef          	jal	x1,8000231c <bar>
80002558:	00050d93          	addi	x27,x10,0
8000255c:	00a05463          	bge	x0,x10,80002564 <bar+0x248>
80002560:	00ac0d33          	add	x26,x24,x10
80002564:	00c12783          	lw	x15,12(x2)
80002568:	0007c703          	lbu	x14,0(x15)
8000256c:	02b00793          	addi	x15,x0,43
80002570:	04f71a63          	bne	x14,x15,800025c4 <bar+0x2a8>
80002574:	01ac1463          	bne	x24,x26,8000257c <bar+0x260>
80002578:	fff00d13          	addi	x26,x0,-1
8000257c:	05c12083          	lw	x1,92(x2)
80002580:	05812403          	lw	x8,88(x2)
80002584:	05412483          	lw	x9,84(x2)
80002588:	05012903          	lw	x18,80(x2)
8000258c:	04c12983          	lw	x19,76(x2)
80002590:	04812a03          	lw	x20,72(x2)
80002594:	04412a83          	lw	x21,68(x2)
80002598:	04012b03          	lw	x22,64(x2)
8000259c:	03c12b83          	lw	x23,60(x2)
800025a0:	03812c03          	lw	x24,56(x2)
800025a4:	03412c83          	lw	x25,52(x2)
800025a8:	02c12d83          	lw	x27,44(x2)
800025ac:	000d0513          	addi	x10,x26,0
800025b0:	03012d03          	lw	x26,48(x2)
800025b4:	06010113          	addi	x2,x2,96
800025b8:	00008067          	jalr	x0,0(x1)
800025bc:	00098d13          	addi	x26,x19,0
800025c0:	f55ff06f          	jal	x0,80002514 <bar+0x1f8>
800025c4:	fbac1ce3          	bne	x24,x26,8000257c <bar+0x260>
800025c8:	fa8bdae3          	bge	x23,x8,8000257c <bar+0x260>
800025cc:	fa0dd8e3          	bge	x27,x0,8000257c <bar+0x260>
800025d0:	fa9ff06f          	jal	x0,80002578 <bar+0x25c>
800025d4:	05b00793          	addi	x15,x0,91
800025d8:	14fd9a63          	bne	x27,x15,8000272c <bar+0x410>
800025dc:	00812783          	lw	x15,8(x2)
800025e0:	00198d93          	addi	x27,x19,1
800025e4:	00298313          	addi	x6,x19,2
800025e8:	01b78db3          	add	x27,x15,x27
800025ec:	000dcd03          	lbu	x26,0(x27)
800025f0:	05e00793          	addi	x15,x0,94
800025f4:	40640333          	sub	x6,x8,x6
800025f8:	018a85b3          	add	x11,x21,x24
800025fc:	00fd1663          	bne	x26,x15,80002608 <bar+0x2ec>
80002600:	001d8d93          	addi	x27,x27,1
80002604:	fff30313          	addi	x6,x6,-1
80002608:	fff00c93          	addi	x25,x0,-1
8000260c:	00000813          	addi	x16,x0,0
80002610:	0f40006f          	jal	x0,80002704 <bar+0x3e8>
80002614:	0be68a63          	beq	x13,x30,800026c8 <bar+0x3ac>
80002618:	0017c603          	lbu	x12,1(x15)
8000261c:	0be61663          	bne	x12,x30,800026c8 <bar+0x3ac>
80002620:	0027c503          	lbu	x10,2(x15)
80002624:	05d00713          	addi	x14,x0,93
80002628:	0ae50063          	beq	x10,x14,800026c8 <bar+0x3ac>
8000262c:	08050e63          	beq	x10,x0,800026c8 <bar+0x3ac>
80002630:	01012783          	lw	x15,16(x2)
80002634:	9707ac83          	lw	x25,-1680(x15)
80002638:	0005c783          	lbu	x15,0(x11)
8000263c:	020c8e63          	beq	x25,x0,80002678 <bar+0x35c>
80002640:	00000c93          	addi	x25,x0,0
80002644:	00d7e663          	bltu	x15,x13,80002650 <bar+0x334>
80002648:	00f537b3          	sltu	x15,x10,x15
8000264c:	0017cc93          	xori	x25,x15,1
80002650:	00380813          	addi	x16,x16,3
80002654:	0b034e63          	blt	x6,x16,80002710 <bar+0x3f4>
80002658:	010d87b3          	add	x15,x27,x16
8000265c:	0007c683          	lbu	x13,0(x15)
80002660:	05d00713          	addi	x14,x0,93
80002664:	0ae68663          	beq	x13,x14,80002710 <bar+0x3f4>
80002668:	fb9056e3          	bge	x0,x25,80002614 <bar+0x2f8>
8000266c:	05e00793          	addi	x15,x0,94
80002670:	0afd1663          	bne	x26,x15,8000271c <bar+0x400>
80002674:	f05ff06f          	jal	x0,80002578 <bar+0x25c>
80002678:	00fb8633          	add	x12,x23,x15
8000267c:	00064603          	lbu	x12,0(x12)
80002680:	00367613          	andi	x12,x12,3
80002684:	01d61463          	bne	x12,x29,8000268c <bar+0x370>
80002688:	02078793          	addi	x15,x15,32
8000268c:	00db8633          	add	x12,x23,x13
80002690:	00064603          	lbu	x12,0(x12)
80002694:	00367613          	andi	x12,x12,3
80002698:	01d61463          	bne	x12,x29,800026a0 <bar+0x384>
8000269c:	02068693          	addi	x13,x13,32
800026a0:	fad7c8e3          	blt	x15,x13,80002650 <bar+0x334>
800026a4:	00ab86b3          	add	x13,x23,x10
800026a8:	0006c683          	lbu	x13,0(x13)
800026ac:	00050c93          	addi	x25,x10,0
800026b0:	0036f693          	andi	x13,x13,3
800026b4:	01d69463          	bne	x13,x29,800026bc <bar+0x3a0>
800026b8:	02050c93          	addi	x25,x10,32
800026bc:	00fcacb3          	slt	x25,x25,x15
800026c0:	001ccc93          	xori	x25,x25,1
800026c4:	f8dff06f          	jal	x0,80002650 <bar+0x334>
800026c8:	000b0613          	addi	x12,x22,0
800026cc:	00078513          	addi	x10,x15,0
800026d0:	01012e23          	sw	x16,28(x2)
800026d4:	00612c23          	sw	x6,24(x2)
800026d8:	00b12a23          	sw	x11,20(x2)
800026dc:	00f12623          	sw	x15,12(x2)
800026e0:	a89ff0ef          	jal	x1,80002168 <match_op>
800026e4:	00c12783          	lw	x15,12(x2)
800026e8:	00050c93          	addi	x25,x10,0
800026ec:	00078513          	addi	x10,x15,0
800026f0:	9c5ff0ef          	jal	x1,800020b4 <op_len>
800026f4:	01c12803          	lw	x16,28(x2)
800026f8:	01412583          	lw	x11,20(x2)
800026fc:	01812303          	lw	x6,24(x2)
80002700:	00a80833          	add	x16,x16,x10
80002704:	02d00f13          	addi	x30,x0,45
80002708:	00100e93          	addi	x29,x0,1
8000270c:	f49ff06f          	jal	x0,80002654 <bar+0x338>
80002710:	05e00793          	addi	x15,x0,94
80002714:	00fd0863          	beq	x26,x15,80002724 <bar+0x408>
80002718:	e79050e3          	bge	x0,x25,80002578 <bar+0x25c>
8000271c:	001c0c13          	addi	x24,x24,1
80002720:	d01ff06f          	jal	x0,80002420 <bar+0x104>
80002724:	ff905ce3          	bge	x0,x25,8000271c <bar+0x400>
80002728:	e51ff06f          	jal	x0,80002578 <bar+0x25c>
8000272c:	02800793          	addi	x15,x0,40
80002730:	0efd9463          	bne	x27,x15,80002818 <bar+0x4fc>
80002734:	640b2603          	lw	x12,1600(x22)
80002738:	00148d93          	addi	x27,x9,1
8000273c:	12cdd463          	bge	x27,x12,80002864 <bar+0x548>
80002740:	40d407b3          	sub	x15,x8,x13
80002744:	00f12623          	sw	x15,12(x2)
80002748:	41890e33          	sub	x28,x18,x24
8000274c:	018a8cb3          	add	x25,x21,x24
80002750:	02f04263          	blt	x0,x15,80002774 <bar+0x458>
80002754:	000d8693          	addi	x13,x27,0
80002758:	000b0613          	addi	x12,x22,0
8000275c:	000e0593          	addi	x11,x28,0
80002760:	000c8513          	addi	x10,x25,0
80002764:	108000ef          	jal	x1,8000286c <doh>
80002768:	00050d13          	addi	x26,x10,0
8000276c:	080d5263          	bge	x26,x0,800027f0 <bar+0x4d4>
80002770:	e0dff06f          	jal	x0,8000257c <bar+0x260>
80002774:	00812783          	lw	x15,8(x2)
80002778:	00000313          	addi	x6,x0,0
8000277c:	00d787b3          	add	x15,x15,x13
80002780:	00f12a23          	sw	x15,20(x2)
80002784:	406e05b3          	sub	x11,x28,x6
80002788:	000d8693          	addi	x13,x27,0
8000278c:	000b0613          	addi	x12,x22,0
80002790:	000c8513          	addi	x10,x25,0
80002794:	00612e23          	sw	x6,28(x2)
80002798:	01c12c23          	sw	x28,24(x2)
8000279c:	0d0000ef          	jal	x1,8000286c <doh>
800027a0:	01812e03          	lw	x28,24(x2)
800027a4:	01c12303          	lw	x6,28(x2)
800027a8:	00050d13          	addi	x26,x10,0
800027ac:	00055863          	bge	x10,x0,800027bc <bar+0x4a0>
800027b0:	00130313          	addi	x6,x6,1
800027b4:	fc6e58e3          	bge	x28,x6,80002784 <bar+0x468>
800027b8:	fb5ff06f          	jal	x0,8000276c <bar+0x450>
800027bc:	00ac0633          	add	x12,x24,x10
800027c0:	00c12583          	lw	x11,12(x2)
800027c4:	01412503          	lw	x10,20(x2)
800027c8:	40c906b3          	sub	x13,x18,x12
800027cc:	000d8793          	addi	x15,x27,0
800027d0:	000b0713          	addi	x14,x22,0
800027d4:	00ca8633          	add	x12,x21,x12
800027d8:	01c12e23          	sw	x28,28(x2)
800027dc:	00612c23          	sw	x6,24(x2)
800027e0:	b3dff0ef          	jal	x1,8000231c <bar>
800027e4:	01812303          	lw	x6,24(x2)
800027e8:	01c12e03          	lw	x28,28(x2)
800027ec:	fc0542e3          	blt	x10,x0,800027b0 <bar+0x494>
800027f0:	01012783          	lw	x15,16(x2)
800027f4:	9687a683          	lw	x13,-1688(x15)
800027f8:	00068a63          	beq	x13,x0,8000280c <bar+0x4f0>
800027fc:	00349493          	slli	x9,x9,0x3
80002800:	009684b3          	add	x9,x13,x9
80002804:	0194a023          	sw	x25,0(x9)
80002808:	01a4a223          	sw	x26,4(x9)
8000280c:	01ac0c33          	add	x24,x24,x26
80002810:	000d8493          	addi	x9,x27,0
80002814:	c0dff06f          	jal	x0,80002420 <bar+0x104>
80002818:	05e00793          	addi	x15,x0,94
8000281c:	00fd9663          	bne	x27,x15,80002828 <bar+0x50c>
80002820:	c00c00e3          	beq	x24,x0,80002420 <bar+0x104>
80002824:	d55ff06f          	jal	x0,80002578 <bar+0x25c>
80002828:	02400793          	addi	x15,x0,36
8000282c:	00fd9663          	bne	x27,x15,80002838 <bar+0x51c>
80002830:	bf2c08e3          	beq	x24,x18,80002420 <bar+0x104>
80002834:	d45ff06f          	jal	x0,80002578 <bar+0x25c>
80002838:	d52c00e3          	beq	x24,x18,80002578 <bar+0x25c>
8000283c:	000b0613          	addi	x12,x22,0
80002840:	018a85b3          	add	x11,x21,x24
80002844:	000c8513          	addi	x10,x25,0
80002848:	921ff0ef          	jal	x1,80002168 <match_op>
8000284c:	00050d13          	addi	x26,x10,0
80002850:	d2a056e3          	bge	x0,x10,8000257c <bar+0x260>
80002854:	00ac0c33          	add	x24,x24,x10
80002858:	bc9ff06f          	jal	x0,80002420 <bar+0x104>
8000285c:	ffb00d13          	addi	x26,x0,-5
80002860:	d1dff06f          	jal	x0,8000257c <bar+0x260>
80002864:	ffc00d13          	addi	x26,x0,-4
80002868:	d15ff06f          	jal	x0,8000257c <bar+0x260>

8000286c <doh>:
8000286c:	fe010113          	addi	x2,x2,-32
80002870:	00812c23          	sw	x8,24(x2)
80002874:	00469413          	slli	x8,x13,0x4
80002878:	00912a23          	sw	x9,20(x2)
8000287c:	01212823          	sw	x18,16(x2)
80002880:	01312623          	sw	x19,12(x2)
80002884:	01412423          	sw	x20,8(x2)
80002888:	01512223          	sw	x21,4(x2)
8000288c:	00112e23          	sw	x1,28(x2)
80002890:	00050993          	addi	x19,x10,0
80002894:	00058a13          	addi	x20,x11,0
80002898:	00060913          	addi	x18,x12,0
8000289c:	00068a93          	addi	x21,x13,0
800028a0:	00000493          	addi	x9,x0,0
800028a4:	00860433          	add	x8,x12,x8
800028a8:	06049263          	bne	x9,x0,8000290c <doh+0xa0>
800028ac:	00042503          	lw	x10,0(x8)
800028b0:	00c42783          	lw	x15,12(x8)
800028b4:	06079c63          	bne	x15,x0,8000292c <doh+0xc0>
800028b8:	00442583          	lw	x11,4(x8)
800028bc:	000a8793          	addi	x15,x21,0
800028c0:	00090713          	addi	x14,x18,0
800028c4:	000a0693          	addi	x13,x20,0
800028c8:	00098613          	addi	x12,x19,0
800028cc:	a51ff0ef          	jal	x1,8000231c <bar>
800028d0:	00a04863          	blt	x0,x10,800028e0 <doh+0x74>
800028d4:	00c42783          	lw	x15,12(x8)
800028d8:	00148713          	addi	x14,x9,1
800028dc:	02f4c463          	blt	x9,x15,80002904 <doh+0x98>
800028e0:	01c12083          	lw	x1,28(x2)
800028e4:	01812403          	lw	x8,24(x2)
800028e8:	01412483          	lw	x9,20(x2)
800028ec:	01012903          	lw	x18,16(x2)
800028f0:	00c12983          	lw	x19,12(x2)
800028f4:	00812a03          	lw	x20,8(x2)
800028f8:	00412a83          	lw	x21,4(x2)
800028fc:	02010113          	addi	x2,x2,32
80002900:	00008067          	jalr	x0,0(x1)
80002904:	00070493          	addi	x9,x14,0
80002908:	fa1ff06f          	jal	x0,800028a8 <doh+0x3c>
8000290c:	00842803          	lw	x16,8(x8)
80002910:	01048833          	add	x16,x9,x16
80002914:	0c780813          	addi	x16,x16,199
80002918:	00381813          	slli	x16,x16,0x3
8000291c:	01090833          	add	x16,x18,x16
80002920:	00882703          	lw	x14,8(x16)
80002924:	00170513          	addi	x10,x14,1
80002928:	f89ff06f          	jal	x0,800028b0 <doh+0x44>
8000292c:	00979c63          	bne	x15,x9,80002944 <doh+0xd8>
80002930:	00042803          	lw	x16,0(x8)
80002934:	00442583          	lw	x11,4(x8)
80002938:	00b80833          	add	x16,x16,x11
8000293c:	40a805b3          	sub	x11,x16,x10
80002940:	f7dff06f          	jal	x0,800028bc <doh+0x50>
80002944:	00842803          	lw	x16,8(x8)
80002948:	01048833          	add	x16,x9,x16
8000294c:	0c880813          	addi	x16,x16,200
80002950:	00381813          	slli	x16,x16,0x3
80002954:	01090833          	add	x16,x18,x16
80002958:	00882803          	lw	x16,8(x16)
8000295c:	fe1ff06f          	jal	x0,8000293c <doh+0xd0>

80002960 <slre_match>:
80002960:	81010113          	addi	x2,x2,-2032
80002964:	7e812423          	sw	x8,2024(x2)
80002968:	7f212023          	sw	x18,2016(x2)
8000296c:	7d312e23          	sw	x19,2012(x2)
80002970:	7d412c23          	sw	x20,2008(x2)
80002974:	7e112623          	sw	x1,2028(x2)
80002978:	7e912223          	sw	x9,2020(x2)
8000297c:	7d512a23          	sw	x21,2004(x2)
80002980:	7d612823          	sw	x22,2000(x2)
80002984:	7d712623          	sw	x23,1996(x2)
80002988:	7d812423          	sw	x24,1992(x2)
8000298c:	7d912223          	sw	x25,1988(x2)
80002990:	7da12023          	sw	x26,1984(x2)
80002994:	7bb12e23          	sw	x27,1980(x2)
80002998:	00001437          	lui	x8,0x1
8000299c:	e2010113          	addi	x2,x2,-480
800029a0:	00070993          	addi	x19,x14,0
800029a4:	97040793          	addi	x15,x8,-1680 # 970 <SYSCALL_ADDR-0x200690>
800029a8:	01010713          	addi	x14,x2,16
800029ac:	00e787b3          	add	x15,x15,x14
800029b0:	0007a023          	sw	x0,0(x15)
800029b4:	97c40793          	addi	x15,x8,-1668
800029b8:	00e787b3          	add	x15,x15,x14
800029bc:	0007a023          	sw	x0,0(x15)
800029c0:	97840793          	addi	x15,x8,-1672
800029c4:	00e787b3          	add	x15,x15,x14
800029c8:	0137a023          	sw	x19,0(x15)
800029cc:	00b12423          	sw	x11,8(x2)
800029d0:	97440793          	addi	x15,x8,-1676
800029d4:	800035b7          	lui	x11,0x80003
800029d8:	00060a13          	addi	x20,x12,0
800029dc:	00e787b3          	add	x15,x15,x14
800029e0:	00400613          	addi	x12,x0,4
800029e4:	18058593          	addi	x11,x11,384 # 80003180 <_end+0xfffffeb0>
800029e8:	00050913          	addi	x18,x10,0
800029ec:	64012e23          	sw	x0,1628(x2)
800029f0:	00d7a023          	sw	x13,0(x15)
800029f4:	508000ef          	jal	x1,80002efc <memcmp>
800029f8:	00051e63          	bne	x10,x0,80002a14 <slre_match+0xb4>
800029fc:	97c40713          	addi	x14,x8,-1668
80002a00:	01010693          	addi	x13,x2,16
80002a04:	00100793          	addi	x15,x0,1
80002a08:	00d70733          	add	x14,x14,x13
80002a0c:	00f72023          	sw	x15,0(x14)
80002a10:	00490913          	addi	x18,x18,4
80002a14:	00090513          	addi	x10,x18,0
80002a18:	69c000ef          	jal	x1,800030b4 <strlen>
80002a1c:	000017b7          	lui	x15,0x1
80002a20:	98078793          	addi	x15,x15,-1664 # 980 <SYSCALL_ADDR-0x200680>
80002a24:	01010713          	addi	x14,x2,16
80002a28:	00e787b3          	add	x15,x15,x14
80002a2c:	fffff4b7          	lui	x9,0xfffff
80002a30:	009784b3          	add	x9,x15,x9
80002a34:	80003b37          	lui	x22,0x80003
80002a38:	00100793          	addi	x15,x0,1
80002a3c:	00050a93          	addi	x21,x10,0
80002a40:	6924a623          	sw	x18,1676(x9) # fffff68c <_end+0x7fffc3bc>
80002a44:	68a4a823          	sw	x10,1680(x9)
80002a48:	64f12e23          	sw	x15,1628(x2)
80002a4c:	00000413          	addi	x8,x0,0
80002a50:	00000d93          	addi	x27,x0,0
80002a54:	07c00b93          	addi	x23,x0,124
80002a58:	fff50c13          	addi	x24,x10,-1
80002a5c:	80003cb7          	lui	x25,0x80003
80002a60:	ffd50d13          	addi	x26,x10,-3
80002a64:	1c1b0b13          	addi	x22,x22,449 # 800031c1 <_end+0xfffffef1>
80002a68:	0d5dc263          	blt	x27,x21,80002b2c <slre_match+0x1cc>
80002a6c:	24041663          	bne	x8,x0,80002cb8 <slre_match+0x358>
80002a70:	00001737          	lui	x14,0x1
80002a74:	fffff7b7          	lui	x15,0xfffff
80002a78:	98070713          	addi	x14,x14,-1664 # 980 <SYSCALL_ADDR-0x200680>
80002a7c:	01010693          	addi	x13,x2,16
80002a80:	00d70733          	add	x14,x14,x13
80002a84:	68c78793          	addi	x15,x15,1676 # fffff68c <_end+0x7fffc3bc>
80002a88:	00f707b3          	add	x15,x14,x15
80002a8c:	00078713          	addi	x14,x15,0
80002a90:	00000613          	addi	x12,x0,0
80002a94:	000016b7          	lui	x13,0x1
80002a98:	01010593          	addi	x11,x2,16
80002a9c:	97068693          	addi	x13,x13,-1680 # 970 <SYSCALL_ADDR-0x200690>
80002aa0:	00b686b3          	add	x13,x13,x11
80002aa4:	0006a583          	lw	x11,0(x13)
80002aa8:	26b64663          	blt	x12,x11,80002d14 <slre_match+0x3b4>
80002aac:	00001537          	lui	x10,0x1
80002ab0:	fffff6b7          	lui	x13,0xfffff
80002ab4:	98050513          	addi	x10,x10,-1664 # 980 <SYSCALL_ADDR-0x200680>
80002ab8:	01010893          	addi	x17,x2,16
80002abc:	65c12803          	lw	x16,1628(x2)
80002ac0:	68c68693          	addi	x13,x13,1676 # fffff68c <_end+0x7fffc3bc>
80002ac4:	01150533          	add	x10,x10,x17
80002ac8:	00000713          	addi	x14,x0,0
80002acc:	00000613          	addi	x12,x0,0
80002ad0:	00d506b3          	add	x13,x10,x13
80002ad4:	29064463          	blt	x12,x16,80002d5c <slre_match+0x3fc>
80002ad8:	01c12783          	lw	x15,28(x2)
80002adc:	fffff637          	lui	x12,0xfffff
80002ae0:	01010713          	addi	x14,x2,16
80002ae4:	0007c903          	lbu	x18,0(x15)
80002ae8:	000017b7          	lui	x15,0x1
80002aec:	98078793          	addi	x15,x15,-1664 # 980 <SYSCALL_ADDR-0x200680>
80002af0:	68c60613          	addi	x12,x12,1676 # fffff68c <_end+0x7fffc3bc>
80002af4:	00e787b3          	add	x15,x15,x14
80002af8:	fff00513          	addi	x10,x0,-1
80002afc:	00c784b3          	add	x9,x15,x12
80002b00:	05e00993          	addi	x19,x0,94
80002b04:	1a8a4c63          	blt	x20,x8,80002cbc <slre_match+0x35c>
80002b08:	00812783          	lw	x15,8(x2)
80002b0c:	00000693          	addi	x13,x0,0
80002b10:	00048613          	addi	x12,x9,0
80002b14:	408a05b3          	sub	x11,x20,x8
80002b18:	00878533          	add	x10,x15,x8
80002b1c:	d51ff0ef          	jal	x1,8000286c <doh>
80002b20:	26054c63          	blt	x10,x0,80002d98 <slre_match+0x438>
80002b24:	00850533          	add	x10,x10,x8
80002b28:	1940006f          	jal	x0,80002cbc <slre_match+0x35c>
80002b2c:	01b90733          	add	x14,x18,x27
80002b30:	00070513          	addi	x10,x14,0
80002b34:	41ba85b3          	sub	x11,x21,x27
80002b38:	00e12623          	sw	x14,12(x2)
80002b3c:	da4ff0ef          	jal	x1,800020e0 <get_op_len>
80002b40:	00c12703          	lw	x14,12(x2)
80002b44:	00050813          	addi	x16,x10,0
80002b48:	00074783          	lbu	x15,0(x14)
80002b4c:	07779a63          	bne	x15,x23,80002bc0 <slre_match+0x260>
80002b50:	000017b7          	lui	x15,0x1
80002b54:	97078793          	addi	x15,x15,-1680 # 970 <SYSCALL_ADDR-0x200690>
80002b58:	01010693          	addi	x13,x2,16
80002b5c:	00d787b3          	add	x15,x15,x13
80002b60:	0007a603          	lw	x12,0(x15)
80002b64:	06300793          	addi	x15,x0,99
80002b68:	22c7ce63          	blt	x15,x12,80002da4 <slre_match+0x444>
80002b6c:	65c12583          	lw	x11,1628(x2)
80002b70:	fff58593          	addi	x11,x11,-1
80002b74:	00459793          	slli	x15,x11,0x4
80002b78:	00f487b3          	add	x15,x9,x15
80002b7c:	6907a503          	lw	x10,1680(x15)
80002b80:	fff00793          	addi	x15,x0,-1
80002b84:	00f50463          	beq	x10,x15,80002b8c <slre_match+0x22c>
80002b88:	00040593          	addi	x11,x8,0
80002b8c:	0c860793          	addi	x15,x12,200
80002b90:	00379793          	slli	x15,x15,0x3
80002b94:	00f487b3          	add	x15,x9,x15
80002b98:	68e7aa23          	sw	x14,1684(x15)
80002b9c:	68b7a823          	sw	x11,1680(x15)
80002ba0:	000017b7          	lui	x15,0x1
80002ba4:	97078793          	addi	x15,x15,-1680 # 970 <SYSCALL_ADDR-0x200690>
80002ba8:	01010713          	addi	x14,x2,16
80002bac:	00160613          	addi	x12,x12,1
80002bb0:	00e787b3          	add	x15,x15,x14
80002bb4:	00c7a023          	sw	x12,0(x15)
80002bb8:	010d8db3          	add	x27,x27,x16
80002bbc:	eadff06f          	jal	x0,80002a68 <slre_match+0x108>
80002bc0:	05c00613          	addi	x12,x0,92
80002bc4:	06c79063          	bne	x15,x12,80002c24 <slre_match+0x2c4>
80002bc8:	038dde63          	bge	x27,x24,80002c04 <slre_match+0x2a4>
80002bcc:	00174583          	lbu	x11,1(x14)
80002bd0:	07800793          	addi	x15,x0,120
80002bd4:	02f59c63          	bne	x11,x15,80002c0c <slre_match+0x2ac>
80002bd8:	03add663          	bge	x27,x26,80002c04 <slre_match+0x2a4>
80002bdc:	00274783          	lbu	x15,2(x14)
80002be0:	016787b3          	add	x15,x15,x22
80002be4:	0007c783          	lbu	x15,0(x15)
80002be8:	0447f793          	andi	x15,x15,68
80002bec:	00078c63          	beq	x15,x0,80002c04 <slre_match+0x2a4>
80002bf0:	00374783          	lbu	x15,3(x14)
80002bf4:	016787b3          	add	x15,x15,x22
80002bf8:	0007c783          	lbu	x15,0(x15)
80002bfc:	0447f793          	andi	x15,x15,68
80002c00:	fa079ce3          	bne	x15,x0,80002bb8 <slre_match+0x258>
80002c04:	ffa00513          	addi	x10,x0,-6
80002c08:	0b40006f          	jal	x0,80002cbc <slre_match+0x35c>
80002c0c:	00a12623          	sw	x10,12(x2)
80002c10:	188c8513          	addi	x10,x25,392 # 80003188 <_end+0xfffffeb8>
80002c14:	360000ef          	jal	x1,80002f74 <strchr>
80002c18:	00c12803          	lw	x16,12(x2)
80002c1c:	f8051ee3          	bne	x10,x0,80002bb8 <slre_match+0x258>
80002c20:	fe5ff06f          	jal	x0,80002c04 <slre_match+0x2a4>
80002c24:	02800613          	addi	x12,x0,40
80002c28:	04c79463          	bne	x15,x12,80002c70 <slre_match+0x310>
80002c2c:	65c12783          	lw	x15,1628(x2)
80002c30:	06300713          	addi	x14,x0,99
80002c34:	16f74c63          	blt	x14,x15,80002dac <slre_match+0x44c>
80002c38:	00479713          	slli	x14,x15,0x4
80002c3c:	001d8613          	addi	x12,x27,1
80002c40:	00e48733          	add	x14,x9,x14
80002c44:	00c90633          	add	x12,x18,x12
80002c48:	68c72623          	sw	x12,1676(x14)
80002c4c:	fff00613          	addi	x12,x0,-1
80002c50:	68c72823          	sw	x12,1680(x14)
80002c54:	00178713          	addi	x14,x15,1
80002c58:	64e12e23          	sw	x14,1628(x2)
80002c5c:	00140413          	addi	x8,x8,1
80002c60:	f5305ce3          	bge	x0,x19,80002bb8 <slre_match+0x258>
80002c64:	f4f9dae3          	bge	x19,x15,80002bb8 <slre_match+0x258>
80002c68:	ff900513          	addi	x10,x0,-7
80002c6c:	0500006f          	jal	x0,80002cbc <slre_match+0x35c>
80002c70:	02900613          	addi	x12,x0,41
80002c74:	f4c792e3          	bne	x15,x12,80002bb8 <slre_match+0x258>
80002c78:	65c12783          	lw	x15,1628(x2)
80002c7c:	fff78793          	addi	x15,x15,-1
80002c80:	00479613          	slli	x12,x15,0x4
80002c84:	00c48633          	add	x12,x9,x12
80002c88:	69062583          	lw	x11,1680(x12)
80002c8c:	fff00613          	addi	x12,x0,-1
80002c90:	00c58463          	beq	x11,x12,80002c98 <slre_match+0x338>
80002c94:	00040793          	addi	x15,x8,0
80002c98:	00479793          	slli	x15,x15,0x4
80002c9c:	00f487b3          	add	x15,x9,x15
80002ca0:	68c7a603          	lw	x12,1676(x15)
80002ca4:	fff40413          	addi	x8,x8,-1
80002ca8:	40c70633          	sub	x12,x14,x12
80002cac:	68c7a823          	sw	x12,1680(x15)
80002cb0:	fff00793          	addi	x15,x0,-1
80002cb4:	04f41463          	bne	x8,x15,80002cfc <slre_match+0x39c>
80002cb8:	ffd00513          	addi	x10,x0,-3
80002cbc:	1e010113          	addi	x2,x2,480
80002cc0:	7ec12083          	lw	x1,2028(x2)
80002cc4:	7e812403          	lw	x8,2024(x2)
80002cc8:	7e412483          	lw	x9,2020(x2)
80002ccc:	7e012903          	lw	x18,2016(x2)
80002cd0:	7dc12983          	lw	x19,2012(x2)
80002cd4:	7d812a03          	lw	x20,2008(x2)
80002cd8:	7d412a83          	lw	x21,2004(x2)
80002cdc:	7d012b03          	lw	x22,2000(x2)
80002ce0:	7cc12b83          	lw	x23,1996(x2)
80002ce4:	7c812c03          	lw	x24,1992(x2)
80002ce8:	7c412c83          	lw	x25,1988(x2)
80002cec:	7c012d03          	lw	x26,1984(x2)
80002cf0:	7bc12d83          	lw	x27,1980(x2)
80002cf4:	7f010113          	addi	x2,x2,2032
80002cf8:	00008067          	jalr	x0,0(x1)
80002cfc:	ebb05ee3          	bge	x0,x27,80002bb8 <slre_match+0x258>
80002d00:	fff74703          	lbu	x14,-1(x14)
80002d04:	02800793          	addi	x15,x0,40
80002d08:	eaf718e3          	bne	x14,x15,80002bb8 <slre_match+0x258>
80002d0c:	fff00513          	addi	x10,x0,-1
80002d10:	fadff06f          	jal	x0,80002cbc <slre_match+0x35c>
80002d14:	00160613          	addi	x12,x12,1
80002d18:	00070693          	addi	x13,x14,0
80002d1c:	00060513          	addi	x10,x12,0
80002d20:	00b51663          	bne	x10,x11,80002d2c <slre_match+0x3cc>
80002d24:	00870713          	addi	x14,x14,8
80002d28:	d6dff06f          	jal	x0,80002a94 <slre_match+0x134>
80002d2c:	64472803          	lw	x16,1604(x14)
80002d30:	64c6a883          	lw	x17,1612(x13)
80002d34:	0108de63          	bge	x17,x16,80002d50 <slre_match+0x3f0>
80002d38:	65172223          	sw	x17,1604(x14)
80002d3c:	6506a883          	lw	x17,1616(x13)
80002d40:	64872303          	lw	x6,1608(x14)
80002d44:	65172423          	sw	x17,1608(x14)
80002d48:	6506a623          	sw	x16,1612(x13)
80002d4c:	6466a823          	sw	x6,1616(x13)
80002d50:	00150513          	addi	x10,x10,1
80002d54:	00868693          	addi	x13,x13,8
80002d58:	fc9ff06f          	jal	x0,80002d20 <slre_match+0x3c0>
80002d5c:	0007a623          	sw	x0,12(x15)
80002d60:	00e7a423          	sw	x14,8(x15)
80002d64:	00b74863          	blt	x14,x11,80002d74 <slre_match+0x414>
80002d68:	00160613          	addi	x12,x12,1
80002d6c:	01078793          	addi	x15,x15,16
80002d70:	d65ff06f          	jal	x0,80002ad4 <slre_match+0x174>
80002d74:	00371513          	slli	x10,x14,0x3
80002d78:	00a68533          	add	x10,x13,x10
80002d7c:	64452503          	lw	x10,1604(x10)
80002d80:	fea614e3          	bne	x12,x10,80002d68 <slre_match+0x408>
80002d84:	00c7a503          	lw	x10,12(x15)
80002d88:	00170713          	addi	x14,x14,1
80002d8c:	00150513          	addi	x10,x10,1
80002d90:	00a7a623          	sw	x10,12(x15)
80002d94:	fd1ff06f          	jal	x0,80002d64 <slre_match+0x404>
80002d98:	f33902e3          	beq	x18,x19,80002cbc <slre_match+0x35c>
80002d9c:	00140413          	addi	x8,x8,1
80002da0:	d65ff06f          	jal	x0,80002b04 <slre_match+0x1a4>
80002da4:	ff800513          	addi	x10,x0,-8
80002da8:	f15ff06f          	jal	x0,80002cbc <slre_match+0x35c>
80002dac:	ff700513          	addi	x10,x0,-9
80002db0:	f0dff06f          	jal	x0,80002cbc <slre_match+0x35c>

80002db4 <benchmark_body>:
80002db4:	fd010113          	addi	x2,x2,-48
80002db8:	01512a23          	sw	x21,20(x2)
80002dbc:	80003ab7          	lui	x21,0x80003
80002dc0:	01312e23          	sw	x19,28(x2)
80002dc4:	140a8993          	addi	x19,x21,320 # 80003140 <_end+0xfffffe70>
80002dc8:	02912223          	sw	x9,36(x2)
80002dcc:	03212023          	sw	x18,32(x2)
80002dd0:	01612823          	sw	x22,16(x2)
80002dd4:	02112623          	sw	x1,44(x2)
80002dd8:	02812423          	sw	x8,40(x2)
80002ddc:	01412c23          	sw	x20,24(x2)
80002de0:	00050493          	addi	x9,x10,0
80002de4:	00000913          	addi	x18,x0,0
80002de8:	04098b13          	addi	x22,x19,64
80002dec:	02994863          	blt	x18,x9,80002e1c <benchmark_body+0x68>
80002df0:	02c12083          	lw	x1,44(x2)
80002df4:	02812403          	lw	x8,40(x2)
80002df8:	00412503          	lw	x10,4(x2)
80002dfc:	02412483          	lw	x9,36(x2)
80002e00:	02012903          	lw	x18,32(x2)
80002e04:	01c12983          	lw	x19,28(x2)
80002e08:	01812a03          	lw	x20,24(x2)
80002e0c:	01412a83          	lw	x21,20(x2)
80002e10:	01012b03          	lw	x22,16(x2)
80002e14:	03010113          	addi	x2,x2,48
80002e18:	00008067          	jalr	x0,0(x1)
80002e1c:	00098513          	addi	x10,x19,0
80002e20:	294000ef          	jal	x1,800030b4 <strlen>
80002e24:	00050a13          	addi	x20,x10,0
80002e28:	00012223          	sw	x0,4(x2)
80002e2c:	03098413          	addi	x8,x19,48
80002e30:	00042503          	lw	x10,0(x8)
80002e34:	00100713          	addi	x14,x0,1
80002e38:	00810693          	addi	x13,x2,8
80002e3c:	000a0613          	addi	x12,x20,0
80002e40:	140a8593          	addi	x11,x21,320
80002e44:	b1dff0ef          	jal	x1,80002960 <slre_match>
80002e48:	00412783          	lw	x15,4(x2)
80002e4c:	00440413          	addi	x8,x8,4
80002e50:	00a787b3          	add	x15,x15,x10
80002e54:	00f12223          	sw	x15,4(x2)
80002e58:	fd641ce3          	bne	x8,x22,80002e30 <benchmark_body+0x7c>
80002e5c:	00190913          	addi	x18,x18,1
80002e60:	f8dff06f          	jal	x0,80002dec <benchmark_body+0x38>

80002e64 <initialise_benchmark>:
80002e64:	00008067          	jalr	x0,0(x1)

80002e68 <warm_caches>:
80002e68:	f4dff06f          	jal	x0,80002db4 <benchmark_body>

80002e6c <benchmark>:
80002e6c:	06e00513          	addi	x10,x0,110
80002e70:	f45ff06f          	jal	x0,80002db4 <benchmark_body>

80002e74 <verify_benchmark>:
80002e74:	f9a50513          	addi	x10,x10,-102
80002e78:	00153513          	sltiu	x10,x10,1
80002e7c:	00008067          	jalr	x0,0(x1)

80002e80 <initialise_board>:
80002e80:	00000513          	addi	x10,x0,0
80002e84:	00008067          	jalr	x0,0(x1)

80002e88 <start_trigger>:
80002e88:	00000513          	addi	x10,x0,0
80002e8c:	deadc2b7          	lui	x5,0xdeadc
80002e90:	eef28293          	addi	x5,x5,-273 # deadbeef <_end+0x5ead8c1f>
80002e94:	00008067          	jalr	x0,0(x1)

80002e98 <stop_trigger>:
80002e98:	beefe2b7          	lui	x5,0xbeefe
80002e9c:	ead28293          	addi	x5,x5,-339 # beefdead <_end+0x3eefabdd>
80002ea0:	05d00893          	addi	x17,x0,93
80002ea4:	00000513          	addi	x10,x0,0
80002ea8:	020102b7          	lui	x5,0x2010
80002eac:	f1402873          	csrrs	x16,mhartid,x0
80002eb0:	0102a023          	sw	x16,0(x5) # 2010000 <SYSCALL_ADDR+0x1e0f000>
80002eb4:	0112a023          	sw	x17,0(x5)
80002eb8:	00008067          	jalr	x0,0(x1)

Disassembly of section .text.startup:

80002ebc <main>:
80002ebc:	fe010113          	addi	x2,x2,-32
80002ec0:	00112e23          	sw	x1,28(x2)
80002ec4:	fbdff0ef          	jal	x1,80002e80 <initialise_board>
80002ec8:	f9dff0ef          	jal	x1,80002e64 <initialise_benchmark>
80002ecc:	00100513          	addi	x10,x0,1
80002ed0:	f99ff0ef          	jal	x1,80002e68 <warm_caches>
80002ed4:	fb5ff0ef          	jal	x1,80002e88 <start_trigger>
80002ed8:	f95ff0ef          	jal	x1,80002e6c <benchmark>
80002edc:	00a12623          	sw	x10,12(x2)
80002ee0:	fb9ff0ef          	jal	x1,80002e98 <stop_trigger>
80002ee4:	00c12503          	lw	x10,12(x2)
80002ee8:	f8dff0ef          	jal	x1,80002e74 <verify_benchmark>
80002eec:	01c12083          	lw	x1,28(x2)
80002ef0:	00153513          	sltiu	x10,x10,1
80002ef4:	02010113          	addi	x2,x2,32
80002ef8:	00008067          	jalr	x0,0(x1)

Disassembly of section .text.memcmp:

80002efc <memcmp>:
80002efc:	00300793          	addi	x15,x0,3
80002f00:	02c7f863          	bgeu	x15,x12,80002f30 <memcmp+0x34>
80002f04:	00b567b3          	or	x15,x10,x11
80002f08:	0037f793          	andi	x15,x15,3
80002f0c:	00300693          	addi	x13,x0,3
80002f10:	04079e63          	bne	x15,x0,80002f6c <memcmp+0x70>
80002f14:	00052703          	lw	x14,0(x10)
80002f18:	0005a783          	lw	x15,0(x11)
80002f1c:	04f71863          	bne	x14,x15,80002f6c <memcmp+0x70>
80002f20:	ffc60613          	addi	x12,x12,-4
80002f24:	00450513          	addi	x10,x10,4
80002f28:	00458593          	addi	x11,x11,4
80002f2c:	fec6e4e3          	bltu	x13,x12,80002f14 <memcmp+0x18>
80002f30:	fff60693          	addi	x13,x12,-1
80002f34:	02060863          	beq	x12,x0,80002f64 <memcmp+0x68>
80002f38:	00168693          	addi	x13,x13,1
80002f3c:	00d506b3          	add	x13,x10,x13
80002f40:	0080006f          	jal	x0,80002f48 <memcmp+0x4c>
80002f44:	02d50063          	beq	x10,x13,80002f64 <memcmp+0x68>
80002f48:	00054783          	lbu	x15,0(x10)
80002f4c:	0005c703          	lbu	x14,0(x11)
80002f50:	00150513          	addi	x10,x10,1
80002f54:	00158593          	addi	x11,x11,1
80002f58:	fee786e3          	beq	x15,x14,80002f44 <memcmp+0x48>
80002f5c:	40e78533          	sub	x10,x15,x14
80002f60:	00008067          	jalr	x0,0(x1)
80002f64:	00000513          	addi	x10,x0,0
80002f68:	00008067          	jalr	x0,0(x1)
80002f6c:	fff60693          	addi	x13,x12,-1
80002f70:	fc9ff06f          	jal	x0,80002f38 <memcmp+0x3c>

Disassembly of section .text.strchr:

80002f74 <strchr>:
80002f74:	0ff5f693          	andi	x13,x11,255
80002f78:	00357793          	andi	x15,x10,3
80002f7c:	0c068063          	beq	x13,x0,8000303c <strchr+0xc8>
80002f80:	00078e63          	beq	x15,x0,80002f9c <strchr+0x28>
80002f84:	00054783          	lbu	x15,0(x10)
80002f88:	0a078663          	beq	x15,x0,80003034 <strchr+0xc0>
80002f8c:	0ad78663          	beq	x15,x13,80003038 <strchr+0xc4>
80002f90:	00150513          	addi	x10,x10,1
80002f94:	00357793          	andi	x15,x10,3
80002f98:	fe0796e3          	bne	x15,x0,80002f84 <strchr+0x10>
80002f9c:	0ff5f593          	andi	x11,x11,255
80002fa0:	00859793          	slli	x15,x11,0x8
80002fa4:	00f5e5b3          	or	x11,x11,x15
80002fa8:	00052703          	lw	x14,0(x10)
80002fac:	01059313          	slli	x6,x11,0x10
80002fb0:	00b36333          	or	x6,x6,x11
80002fb4:	feff0837          	lui	x16,0xfeff0
80002fb8:	00e34633          	xor	x12,x6,x14
80002fbc:	eff80813          	addi	x16,x16,-257 # fefefeff <_end+0x7efecc2f>
80002fc0:	010607b3          	add	x15,x12,x16
80002fc4:	010705b3          	add	x11,x14,x16
80002fc8:	fff64613          	xori	x12,x12,-1
80002fcc:	fff74713          	xori	x14,x14,-1
80002fd0:	00c7f7b3          	and	x15,x15,x12
80002fd4:	00e5f733          	and	x14,x11,x14
80002fd8:	808088b7          	lui	x17,0x80808
80002fdc:	00e7e7b3          	or	x15,x15,x14
80002fe0:	08088893          	addi	x17,x17,128 # 80808080 <_end+0x804db0>
80002fe4:	0117f7b3          	and	x15,x15,x17
80002fe8:	02079a63          	bne	x15,x0,8000301c <strchr+0xa8>
80002fec:	00452703          	lw	x14,4(x10)
80002ff0:	00450513          	addi	x10,x10,4
80002ff4:	00674633          	xor	x12,x14,x6
80002ff8:	010707b3          	add	x15,x14,x16
80002ffc:	010605b3          	add	x11,x12,x16
80003000:	fff74713          	xori	x14,x14,-1
80003004:	fff64613          	xori	x12,x12,-1
80003008:	00e7f7b3          	and	x15,x15,x14
8000300c:	00c5f633          	and	x12,x11,x12
80003010:	00c7e7b3          	or	x15,x15,x12
80003014:	0117f7b3          	and	x15,x15,x17
80003018:	fc078ae3          	beq	x15,x0,80002fec <strchr+0x78>
8000301c:	00054783          	lbu	x15,0(x10)
80003020:	00078a63          	beq	x15,x0,80003034 <strchr+0xc0>
80003024:	08f68663          	beq	x13,x15,800030b0 <strchr+0x13c>
80003028:	00154783          	lbu	x15,1(x10)
8000302c:	00150513          	addi	x10,x10,1
80003030:	fe079ae3          	bne	x15,x0,80003024 <strchr+0xb0>
80003034:	00000513          	addi	x10,x0,0
80003038:	00008067          	jalr	x0,0(x1)
8000303c:	00078c63          	beq	x15,x0,80003054 <strchr+0xe0>
80003040:	00054783          	lbu	x15,0(x10)
80003044:	fe078ae3          	beq	x15,x0,80003038 <strchr+0xc4>
80003048:	00150513          	addi	x10,x10,1
8000304c:	00357793          	andi	x15,x10,3
80003050:	fe0798e3          	bne	x15,x0,80003040 <strchr+0xcc>
80003054:	00052703          	lw	x14,0(x10)
80003058:	feff0637          	lui	x12,0xfeff0
8000305c:	eff60613          	addi	x12,x12,-257 # fefefeff <_end+0x7efecc2f>
80003060:	00c707b3          	add	x15,x14,x12
80003064:	808086b7          	lui	x13,0x80808
80003068:	fff74713          	xori	x14,x14,-1
8000306c:	00e7f7b3          	and	x15,x15,x14
80003070:	08068693          	addi	x13,x13,128 # 80808080 <_end+0x804db0>
80003074:	00d7f7b3          	and	x15,x15,x13
80003078:	02079063          	bne	x15,x0,80003098 <strchr+0x124>
8000307c:	00452703          	lw	x14,4(x10)
80003080:	00450513          	addi	x10,x10,4
80003084:	00c707b3          	add	x15,x14,x12
80003088:	fff74713          	xori	x14,x14,-1
8000308c:	00e7f7b3          	and	x15,x15,x14
80003090:	00d7f7b3          	and	x15,x15,x13
80003094:	fe0784e3          	beq	x15,x0,8000307c <strchr+0x108>
80003098:	00054783          	lbu	x15,0(x10)
8000309c:	f8078ee3          	beq	x15,x0,80003038 <strchr+0xc4>
800030a0:	00154783          	lbu	x15,1(x10)
800030a4:	00150513          	addi	x10,x10,1
800030a8:	fe079ce3          	bne	x15,x0,800030a0 <strchr+0x12c>
800030ac:	00008067          	jalr	x0,0(x1)
800030b0:	00008067          	jalr	x0,0(x1)

Disassembly of section .text.strlen:

800030b4 <strlen>:
800030b4:	00357793          	andi	x15,x10,3
800030b8:	00050713          	addi	x14,x10,0
800030bc:	04079c63          	bne	x15,x0,80003114 <strlen+0x60>
800030c0:	7f7f86b7          	lui	x13,0x7f7f8
800030c4:	f7f68693          	addi	x13,x13,-129 # 7f7f7f7f <SYSCALL_ADDR+0x7f5f6f7f>
800030c8:	fff00593          	addi	x11,x0,-1
800030cc:	00072603          	lw	x12,0(x14)
800030d0:	00470713          	addi	x14,x14,4
800030d4:	00d677b3          	and	x15,x12,x13
800030d8:	00d787b3          	add	x15,x15,x13
800030dc:	00c7e7b3          	or	x15,x15,x12
800030e0:	00d7e7b3          	or	x15,x15,x13
800030e4:	feb784e3          	beq	x15,x11,800030cc <strlen+0x18>
800030e8:	ffc74683          	lbu	x13,-4(x14)
800030ec:	ffd74603          	lbu	x12,-3(x14)
800030f0:	ffe74783          	lbu	x15,-2(x14)
800030f4:	40a70733          	sub	x14,x14,x10
800030f8:	04068063          	beq	x13,x0,80003138 <strlen+0x84>
800030fc:	02060a63          	beq	x12,x0,80003130 <strlen+0x7c>
80003100:	00f03533          	sltu	x10,x0,x15
80003104:	00e50533          	add	x10,x10,x14
80003108:	ffe50513          	addi	x10,x10,-2
8000310c:	00008067          	jalr	x0,0(x1)
80003110:	fa0688e3          	beq	x13,x0,800030c0 <strlen+0xc>
80003114:	00074783          	lbu	x15,0(x14)
80003118:	00170713          	addi	x14,x14,1
8000311c:	00377693          	andi	x13,x14,3
80003120:	fe0798e3          	bne	x15,x0,80003110 <strlen+0x5c>
80003124:	40a70733          	sub	x14,x14,x10
80003128:	fff70513          	addi	x10,x14,-1
8000312c:	00008067          	jalr	x0,0(x1)
80003130:	ffd70513          	addi	x10,x14,-3
80003134:	00008067          	jalr	x0,0(x1)
80003138:	ffc70513          	addi	x10,x14,-4
8000313c:	00008067          	jalr	x0,0(x1)

Disassembly of section .data:

80003140 <text>:
80003140:	6261                	c.lui	x4,0x18
80003142:	6262                	c.flwsp	f4,24(x2)
80003144:	6261                	c.lui	x4,0x18
80003146:	6261                	c.lui	x4,0x18
80003148:	6161                	c.addi16sp	x2,80
8000314a:	6362                	c.flwsp	f6,24(x2)
8000314c:	61626163          	bltu	x4,x22,8000374e <_end+0x47e>
80003150:	6362                	c.flwsp	f6,24(x2)
80003152:	6361                	c.lui	x6,0x18
80003154:	6362                	c.flwsp	f6,24(x2)
80003156:	6362                	c.flwsp	f6,24(x2)
80003158:	6162                	c.flwsp	f2,24(x2)
8000315a:	6262                	c.flwsp	f4,24(x2)
8000315c:	6261                	c.lui	x4,0x18
8000315e:	62616263          	bltu	x2,x6,80003782 <_end+0x4b2>
80003162:	63626163          	bltu	x4,x22,80003784 <_end+0x4b4>
80003166:	6262                	c.flwsp	f4,24(x2)
80003168:	61626263          	bltu	x4,x22,8000376c <_end+0x49c>
8000316c:	00000063          	beq	x0,x0,8000316c <text+0x2c>

80003170 <regexes>:
80003170:	3198                	c.fld	f14,32(x11)
80003172:	8000                	0x8000
80003174:	31a0                	c.fld	f8,96(x11)
80003176:	8000                	0x8000
80003178:	31a8                	c.fld	f10,96(x11)
8000317a:	8000                	0x8000
8000317c:	31b0                	c.fld	f12,96(x11)
8000317e:	8000                	0x8000

Disassembly of section .rodata.str1.4:

80003180 <.rodata.str1.4>:
80003180:	3f28                	c.fld	f10,120(x14)
80003182:	2969                	c.jal	8000361c <_end+0x34c>
80003184:	0000                	c.unimp
80003186:	0000                	c.unimp
80003188:	245e                	c.fldsp	f8,464(x2)
8000318a:	2928                	c.fld	f10,80(x10)
8000318c:	5b2e                	c.lwsp	x22,232(x2)
8000318e:	2a5d                	c.jal	80003344 <_end+0x74>
80003190:	5c7c3f2b          	0x5c7c3f2b
80003194:	00647353          	fadd.s	f6,f8,f6
80003198:	6128                	c.flw	f10,64(x10)
8000319a:	2962                	c.fldsp	f18,24(x2)
8000319c:	0000002b          	0x2b
800031a0:	6228                	c.flw	f10,64(x12)
800031a2:	2b2e                	c.fldsp	f22,200(x2)
800031a4:	2b29                	c.jal	800036be <_end+0x3ee>
800031a6:	0000                	c.unimp
800031a8:	5b61                	c.li	x22,-8
800031aa:	6261                	c.lui	x4,0x18
800031ac:	2a5d                	c.jal	80003362 <_end+0x92>
800031ae:	0000                	c.unimp
800031b0:	5b28                	c.lw	x10,112(x14)
800031b2:	6261                	c.lui	x4,0x18
800031b4:	635e                	c.flwsp	f6,212(x2)
800031b6:	5b5d                	c.li	x22,-9
800031b8:	6261                	c.lui	x4,0x18
800031ba:	635e                	c.flwsp	f6,212(x2)
800031bc:	295d                	c.jal	80003672 <_end+0x3a2>
800031be:	          	0x2b

Disassembly of section .rodata._ctype_:

800031c0 <_ctype_>:
800031c0:	2000                	c.fld	f8,0(x8)
800031c2:	2020                	c.fld	f8,64(x8)
800031c4:	2020                	c.fld	f8,64(x8)
800031c6:	2020                	c.fld	f8,64(x8)
800031c8:	2020                	c.fld	f8,64(x8)
800031ca:	2828                	c.fld	f10,80(x8)
800031cc:	2828                	c.fld	f10,80(x8)
800031ce:	2028                	c.fld	f10,64(x8)
800031d0:	2020                	c.fld	f8,64(x8)
800031d2:	2020                	c.fld	f8,64(x8)
800031d4:	2020                	c.fld	f8,64(x8)
800031d6:	2020                	c.fld	f8,64(x8)
800031d8:	2020                	c.fld	f8,64(x8)
800031da:	2020                	c.fld	f8,64(x8)
800031dc:	2020                	c.fld	f8,64(x8)
800031de:	2020                	c.fld	f8,64(x8)
800031e0:	8820                	0x8820
800031e2:	1010                	c.addi4spn	x12,x2,32
800031e4:	1010                	c.addi4spn	x12,x2,32
800031e6:	1010                	c.addi4spn	x12,x2,32
800031e8:	1010                	c.addi4spn	x12,x2,32
800031ea:	1010                	c.addi4spn	x12,x2,32
800031ec:	1010                	c.addi4spn	x12,x2,32
800031ee:	1010                	c.addi4spn	x12,x2,32
800031f0:	0410                	c.addi4spn	x12,x2,512
800031f2:	0404                	c.addi4spn	x9,x2,512
800031f4:	0404                	c.addi4spn	x9,x2,512
800031f6:	0404                	c.addi4spn	x9,x2,512
800031f8:	0404                	c.addi4spn	x9,x2,512
800031fa:	1004                	c.addi4spn	x9,x2,32
800031fc:	1010                	c.addi4spn	x12,x2,32
800031fe:	1010                	c.addi4spn	x12,x2,32
80003200:	1010                	c.addi4spn	x12,x2,32
80003202:	4141                	c.li	x2,16
80003204:	4141                	c.li	x2,16
80003206:	4141                	c.li	x2,16
80003208:	0101                	c.addi	x2,0
8000320a:	0101                	c.addi	x2,0
8000320c:	0101                	c.addi	x2,0
8000320e:	0101                	c.addi	x2,0
80003210:	0101                	c.addi	x2,0
80003212:	0101                	c.addi	x2,0
80003214:	0101                	c.addi	x2,0
80003216:	0101                	c.addi	x2,0
80003218:	0101                	c.addi	x2,0
8000321a:	0101                	c.addi	x2,0
8000321c:	1010                	c.addi4spn	x12,x2,32
8000321e:	1010                	c.addi4spn	x12,x2,32
80003220:	1010                	c.addi4spn	x12,x2,32
80003222:	4242                	c.lwsp	x4,16(x2)
80003224:	4242                	c.lwsp	x4,16(x2)
80003226:	4242                	c.lwsp	x4,16(x2)
80003228:	0202                	c.slli64	x4
8000322a:	0202                	c.slli64	x4
8000322c:	0202                	c.slli64	x4
8000322e:	0202                	c.slli64	x4
80003230:	0202                	c.slli64	x4
80003232:	0202                	c.slli64	x4
80003234:	0202                	c.slli64	x4
80003236:	0202                	c.slli64	x4
80003238:	0202                	c.slli64	x4
8000323a:	0202                	c.slli64	x4
8000323c:	1010                	c.addi4spn	x12,x2,32
8000323e:	1010                	c.addi4spn	x12,x2,32
80003240:	0020                	c.addi4spn	x8,x2,8
	...

Disassembly of section .sbss:

800032c1 <_end-0xf>:
	...

Disassembly of section .comment:

00000000 <.comment>:
   0:	3a434347          	fmsub.d	f6,f6,f4,f7,rmm
   4:	2820                	c.fld	f8,80(x8)
   6:	39336367          	0x39336367
   a:	3131                	c.jal	fffffc16 <_end+0x7fffc946>
   c:	3665                	c.jal	fffffbb4 <_end+0x7fffc8e4>
   e:	3234                	c.fld	f13,96(x12)
  10:	6635                	c.lui	x12,0xd
  12:	2029                	c.jal	1c <SYSCALL_ADDR-0x200fe4>
  14:	3031                	c.jal	fffff820 <_end+0x7fffc550>
  16:	322e                	c.fldsp	f4,232(x2)
  18:	302e                	c.fldsp	f0,232(x2)
  1a:	4700                	c.lw	x8,8(x14)
  1c:	203a4343          	fmadd.s	f6,f20,f3,f4,rmm
  20:	4728                	c.lw	x10,72(x14)
  22:	554e                	c.lwsp	x10,240(x2)
  24:	2029                	c.jal	2e <SYSCALL_ADDR-0x200fd2>
  26:	3031                	c.jal	fffff832 <_end+0x7fffc562>
  28:	322e                	c.fldsp	f4,232(x2)
  2a:	302e                	c.fldsp	f0,232(x2)
	...

Disassembly of section .riscv.attributes:

00000000 <.riscv.attributes>:
   0:	1f41                	c.addi	x30,-16
   2:	0000                	c.unimp
   4:	7200                	c.flw	f8,32(x12)
   6:	7369                	c.lui	x6,0xffffa
   8:	01007663          	bgeu	x0,x16,14 <SYSCALL_ADDR-0x200fec>
   c:	0015                	c.addi	x0,5
   e:	0000                	c.unimp
  10:	1004                	c.addi4spn	x9,x2,32
  12:	7205                	c.lui	x4,0xfffe1
  14:	3376                	c.fldsp	f6,376(x2)
  16:	6932                	c.flwsp	f18,12(x2)
  18:	7032                	c.flwsp	f0,44(x2)
  1a:	0030                	c.addi4spn	x12,x2,8
  1c:	0108                	c.addi4spn	x10,x2,128
  1e:	0b0a                	c.slli	x22,0x2
