
tarfind.elf:     Dateiformat elf32-littleriscv


Disassembly of section .text.init:

80000000 <initSection>:
80000000:	000070b3          	and	x1,x0,x0
80000004:	00007133          	and	x2,x0,x0
80000008:	000071b3          	and	x3,x0,x0
8000000c:	00007233          	and	x4,x0,x0
80000010:	000072b3          	and	x5,x0,x0
80000014:	00007333          	and	x6,x0,x0
80000018:	000073b3          	and	x7,x0,x0
8000001c:	00007433          	and	x8,x0,x0
80000020:	000074b3          	and	x9,x0,x0
80000024:	00007533          	and	x10,x0,x0
80000028:	000075b3          	and	x11,x0,x0
8000002c:	00007633          	and	x12,x0,x0
80000030:	000076b3          	and	x13,x0,x0
80000034:	00007733          	and	x14,x0,x0
80000038:	000077b3          	and	x15,x0,x0
8000003c:	00007833          	and	x16,x0,x0
80000040:	000078b3          	and	x17,x0,x0
80000044:	00007933          	and	x18,x0,x0
80000048:	000079b3          	and	x19,x0,x0
8000004c:	00007a33          	and	x20,x0,x0
80000050:	00007ab3          	and	x21,x0,x0
80000054:	00007b33          	and	x22,x0,x0
80000058:	00007bb3          	and	x23,x0,x0
8000005c:	00007c33          	and	x24,x0,x0
80000060:	00007cb3          	and	x25,x0,x0
80000064:	00007d33          	and	x26,x0,x0
80000068:	00007db3          	and	x27,x0,x0
8000006c:	00007e33          	and	x28,x0,x0
80000070:	00007eb3          	and	x29,x0,x0
80000074:	00007f33          	and	x30,x0,x0
80000078:	00007fb3          	and	x31,x0,x0
8000007c:	00002117          	auipc	x2,0x2
80000080:	03410113          	addi	x2,x2,52 # 800020b0 <stack_end>
80000084:	05c030ef          	jal	x1,800030e0 <main>

80000088 <sys_end>:
80000088:	05d00893          	addi	x17,x0,93
8000008c:	00000513          	addi	x10,x0,0
80000090:	002012b7          	lui	x5,0x201
80000094:	f1402873          	csrrs	x16,mhartid,x0
80000098:	0102a023          	sw	x16,0(x5) # 201000 <SYSCALL_ADDR>
8000009c:	0112a023          	sw	x17,0(x5)
800000a0:	fe9ff06f          	jal	x0,80000088 <sys_end>
800000a4:	00000013          	addi	x0,x0,0
800000a8:	00000013          	addi	x0,x0,0
800000ac:	00000013          	addi	x0,x0,0

800000b0 <stack_begin>:
	...

800020b0 <stack_end>:
800020b0:	0000                	c.unimp
	...

Disassembly of section .text:

800020b4 <benchmark_body>:
800020b4:	fb010113          	addi	x2,x2,-80
800020b8:	05212023          	sw	x18,64(x2)
800020bc:	03512a23          	sw	x21,52(x2)
800020c0:	00001937          	lui	x18,0x1
800020c4:	00002ab7          	lui	x21,0x2
800020c8:	03312e23          	sw	x19,60(x2)
800020cc:	03612823          	sw	x22,48(x2)
800020d0:	03712623          	sw	x23,44(x2)
800020d4:	03812423          	sw	x24,40(x2)
800020d8:	03912223          	sw	x25,36(x2)
800020dc:	04112623          	sw	x1,76(x2)
800020e0:	11190c93          	addi	x25,x18,273 # 1111 <SYSCALL_ADDR-0x1ffeef>
800020e4:	04812423          	sw	x8,72(x2)
800020e8:	04912223          	sw	x9,68(x2)
800020ec:	03412c23          	sw	x20,56(x2)
800020f0:	03a12023          	sw	x26,32(x2)
800020f4:	01b12e23          	sw	x27,28(x2)
800020f8:	00a12423          	sw	x10,8(x2)
800020fc:	00000993          	addi	x19,x0,0
80002100:	324a8b93          	addi	x23,x21,804 # 2324 <SYSCALL_ADDR-0x1fecdc>
80002104:	80008c37          	lui	x24,0x80008
80002108:	03000b13          	addi	x22,x0,48
8000210c:	61690913          	addi	x18,x18,1558
80002110:	00812783          	lw	x15,8(x2)
80002114:	04f9c463          	blt	x19,x15,8000215c <benchmark_body+0xa8>
80002118:	04c12083          	lw	x1,76(x2)
8000211c:	04812403          	lw	x8,72(x2)
80002120:	ffb48513          	addi	x10,x9,-5
80002124:	04012903          	lw	x18,64(x2)
80002128:	04412483          	lw	x9,68(x2)
8000212c:	03c12983          	lw	x19,60(x2)
80002130:	03812a03          	lw	x20,56(x2)
80002134:	03412a83          	lw	x21,52(x2)
80002138:	03012b03          	lw	x22,48(x2)
8000213c:	02c12b83          	lw	x23,44(x2)
80002140:	02812c03          	lw	x24,40(x2)
80002144:	02412c83          	lw	x25,36(x2)
80002148:	02012d03          	lw	x26,32(x2)
8000214c:	01c12d83          	lw	x27,28(x2)
80002150:	00153513          	sltiu	x10,x10,1
80002154:	05010113          	addi	x2,x2,80
80002158:	00008067          	jalr	x0,0(x1)
8000215c:	000b8593          	addi	x11,x23,0
80002160:	494c0513          	addi	x10,x24,1172 # 80008494 <_end+0xffffdc84>
80002164:	188000ef          	jal	x1,800022ec <init_heap_beebs>
80002168:	323a8513          	addi	x10,x21,803
8000216c:	1f0000ef          	jal	x1,8000235c <malloc_beebs>
80002170:	00050413          	addi	x8,x10,0
80002174:	00050493          	addi	x9,x10,0
80002178:	00500d13          	addi	x26,x0,5
8000217c:	02800d93          	addi	x27,x0,40
80002180:	10100613          	addi	x12,x0,257
80002184:	00000593          	addi	x11,x0,0
80002188:	00048513          	addi	x10,x9,0
8000218c:	3b0000ef          	jal	x1,8000253c <memset>
80002190:	00000a13          	addi	x20,x0,0
80002194:	09648e23          	sb	x22,156(x9)
80002198:	0fc000ef          	jal	x1,80002294 <rand_beebs>
8000219c:	01448733          	add	x14,x9,x20
800021a0:	01a00593          	addi	x11,x0,26
800021a4:	00e12623          	sw	x14,12(x2)
800021a8:	364000ef          	jal	x1,8000250c <__modsi3>
800021ac:	00c12703          	lw	x14,12(x2)
800021b0:	04150513          	addi	x10,x10,65
800021b4:	001a0a13          	addi	x20,x20,1
800021b8:	00a70023          	sb	x10,0(x14)
800021bc:	fdaa4ee3          	blt	x20,x26,80002198 <benchmark_body+0xe4>
800021c0:	07648e23          	sb	x22,124(x9)
800021c4:	001d0d13          	addi	x26,x26,1
800021c8:	10148493          	addi	x9,x9,257
800021cc:	fbbd1ae3          	bne	x26,x27,80002180 <benchmark_body+0xcc>
800021d0:	323a8693          	addi	x13,x21,803
800021d4:	019407b3          	add	x15,x8,x25
800021d8:	012408b3          	add	x17,x8,x18
800021dc:	00000493          	addi	x9,x0,0
800021e0:	00d406b3          	add	x13,x8,x13
800021e4:	00040713          	addi	x14,x8,0
800021e8:	00070593          	addi	x11,x14,0
800021ec:	00078513          	addi	x10,x15,0
800021f0:	0005c803          	lbu	x16,0(x11)
800021f4:	00054603          	lbu	x12,0(x10)
800021f8:	02080263          	beq	x16,x0,8000221c <benchmark_body+0x168>
800021fc:	00060463          	beq	x12,x0,80002204 <benchmark_body+0x150>
80002200:	00c80863          	beq	x16,x12,80002210 <benchmark_body+0x15c>
80002204:	10170713          	addi	x14,x14,257
80002208:	fee690e3          	bne	x13,x14,800021e8 <benchmark_body+0x134>
8000220c:	0180006f          	jal	x0,80002224 <benchmark_body+0x170>
80002210:	00158593          	addi	x11,x11,1
80002214:	00150513          	addi	x10,x10,1
80002218:	fd9ff06f          	jal	x0,800021f0 <benchmark_body+0x13c>
8000221c:	fe0614e3          	bne	x12,x0,80002204 <benchmark_body+0x150>
80002220:	00148493          	addi	x9,x9,1
80002224:	10178793          	addi	x15,x15,257
80002228:	fb179ee3          	bne	x15,x17,800021e4 <benchmark_body+0x130>
8000222c:	00040513          	addi	x10,x8,0
80002230:	230000ef          	jal	x1,80002460 <free_beebs>
80002234:	00198993          	addi	x19,x19,1
80002238:	ed9ff06f          	jal	x0,80002110 <benchmark_body+0x5c>

8000223c <initialise_benchmark>:
8000223c:	00008067          	jalr	x0,0(x1)

80002240 <warm_caches>:
80002240:	e75ff06f          	jal	x0,800020b4 <benchmark_body>

80002244 <benchmark>:
80002244:	02f00513          	addi	x10,x0,47
80002248:	e6dff06f          	jal	x0,800020b4 <benchmark_body>

8000224c <verify_benchmark>:
8000224c:	fff50513          	addi	x10,x10,-1
80002250:	00153513          	sltiu	x10,x10,1
80002254:	00008067          	jalr	x0,0(x1)

80002258 <initialise_board>:
80002258:	00000513          	addi	x10,x0,0
8000225c:	00008067          	jalr	x0,0(x1)

80002260 <start_trigger>:
80002260:	00000513          	addi	x10,x0,0
80002264:	deadc2b7          	lui	x5,0xdeadc
80002268:	eef28293          	addi	x5,x5,-273 # deadbeef <_end+0x5ead16df>
8000226c:	00008067          	jalr	x0,0(x1)

80002270 <stop_trigger>:
80002270:	beefe2b7          	lui	x5,0xbeefe
80002274:	ead28293          	addi	x5,x5,-339 # beefdead <_end+0x3eef369d>
80002278:	05d00893          	addi	x17,x0,93
8000227c:	00000513          	addi	x10,x0,0
80002280:	020102b7          	lui	x5,0x2010
80002284:	f1402873          	csrrs	x16,mhartid,x0
80002288:	0102a023          	sw	x16,0(x5) # 2010000 <SYSCALL_ADDR+0x1e0f000>
8000228c:	0112a023          	sw	x17,0(x5)
80002290:	00008067          	jalr	x0,0(x1)

80002294 <rand_beebs>:
80002294:	ff010113          	addi	x2,x2,-16
80002298:	00812423          	sw	x8,8(x2)
8000229c:	8000b437          	lui	x8,0x8000b
800022a0:	80042503          	lw	x10,-2048(x8) # 8000a800 <_end+0xfffffff0>
800022a4:	41c655b7          	lui	x11,0x41c65
800022a8:	e6d58593          	addi	x11,x11,-403 # 41c64e6d <SYSCALL_ADDR+0x41a63e6d>
800022ac:	00112623          	sw	x1,12(x2)
800022b0:	1b4000ef          	jal	x1,80002464 <__mulsi3>
800022b4:	000037b7          	lui	x15,0x3
800022b8:	03978793          	addi	x15,x15,57 # 3039 <SYSCALL_ADDR-0x1fdfc7>
800022bc:	00f50533          	add	x10,x10,x15
800022c0:	00151513          	slli	x10,x10,0x1
800022c4:	00155513          	srli	x10,x10,0x1
800022c8:	80a42023          	sw	x10,-2048(x8)
800022cc:	00c12083          	lw	x1,12(x2)
800022d0:	00812403          	lw	x8,8(x2)
800022d4:	01055513          	srli	x10,x10,0x10
800022d8:	01010113          	addi	x2,x2,16
800022dc:	00008067          	jalr	x0,0(x1)

800022e0 <srand_beebs>:
800022e0:	8000b7b7          	lui	x15,0x8000b
800022e4:	80a7a023          	sw	x10,-2048(x15) # 8000a800 <_end+0xfffffff0>
800022e8:	00008067          	jalr	x0,0(x1)

800022ec <init_heap_beebs>:
800022ec:	0035f793          	andi	x15,x11,3
800022f0:	02078663          	beq	x15,x0,8000231c <init_heap_beebs+0x30>
800022f4:	800086b7          	lui	x13,0x80008
800022f8:	80008637          	lui	x12,0x80008
800022fc:	80008537          	lui	x10,0x80008
80002300:	ff010113          	addi	x2,x2,-16
80002304:	13068693          	addi	x13,x13,304 # 80008130 <_end+0xffffd920>
80002308:	02060613          	addi	x12,x12,32 # 80008020 <_end+0xffffd810>
8000230c:	04100593          	addi	x11,x0,65
80002310:	15050513          	addi	x10,x10,336 # 80008150 <_end+0xffffd940>
80002314:	00112623          	sw	x1,12(x2)
80002318:	609000ef          	jal	x1,80003120 <__assert_func>
8000231c:	8000a7b7          	lui	x15,0x8000a
80002320:	7ea7ae23          	sw	x10,2044(x15) # 8000a7fc <_end+0xffffffec>
80002324:	8000a7b7          	lui	x15,0x8000a
80002328:	00b50533          	add	x10,x10,x11
8000232c:	7ea7ac23          	sw	x10,2040(x15) # 8000a7f8 <_end+0xffffffe8>
80002330:	8000a7b7          	lui	x15,0x8000a
80002334:	7e07aa23          	sw	x0,2036(x15) # 8000a7f4 <_end+0xffffffe4>
80002338:	00008067          	jalr	x0,0(x1)

8000233c <check_heap_beebs>:
8000233c:	8000a7b7          	lui	x15,0x8000a
80002340:	7f47a783          	lw	x15,2036(x15) # 8000a7f4 <_end+0xffffffe4>
80002344:	8000a737          	lui	x14,0x8000a
80002348:	00f507b3          	add	x15,x10,x15
8000234c:	7f872503          	lw	x10,2040(x14) # 8000a7f8 <_end+0xffffffe8>
80002350:	00f53533          	sltu	x10,x10,x15
80002354:	00154513          	xori	x10,x10,1
80002358:	00008067          	jalr	x0,0(x1)

8000235c <malloc_beebs>:
8000235c:	00050793          	addi	x15,x10,0
80002360:	00051663          	bne	x10,x0,8000236c <malloc_beebs+0x10>
80002364:	00000513          	addi	x10,x0,0
80002368:	00008067          	jalr	x0,0(x1)
8000236c:	8000a6b7          	lui	x13,0x8000a
80002370:	7fc6a503          	lw	x10,2044(x13) # 8000a7fc <_end+0xffffffec>
80002374:	8000a5b7          	lui	x11,0x8000a
80002378:	7f45a603          	lw	x12,2036(x11) # 8000a7f4 <_end+0xffffffe4>
8000237c:	00f50733          	add	x14,x10,x15
80002380:	00377813          	andi	x16,x14,3
80002384:	00c787b3          	add	x15,x15,x12
80002388:	00081e63          	bne	x16,x0,800023a4 <malloc_beebs+0x48>
8000238c:	7ef5aa23          	sw	x15,2036(x11)
80002390:	8000a7b7          	lui	x15,0x8000a
80002394:	7f87a783          	lw	x15,2040(x15) # 8000a7f8 <_end+0xffffffe8>
80002398:	fce7e6e3          	bltu	x15,x14,80002364 <malloc_beebs+0x8>
8000239c:	7ee6ae23          	sw	x14,2044(x13)
800023a0:	00008067          	jalr	x0,0(x1)
800023a4:	00400613          	addi	x12,x0,4
800023a8:	41060633          	sub	x12,x12,x16
800023ac:	00c70733          	add	x14,x14,x12
800023b0:	00c787b3          	add	x15,x15,x12
800023b4:	fd9ff06f          	jal	x0,8000238c <malloc_beebs+0x30>

800023b8 <calloc_beebs>:
800023b8:	fe010113          	addi	x2,x2,-32
800023bc:	00112e23          	sw	x1,28(x2)
800023c0:	00812c23          	sw	x8,24(x2)
800023c4:	0a0000ef          	jal	x1,80002464 <__mulsi3>
800023c8:	00a12623          	sw	x10,12(x2)
800023cc:	f91ff0ef          	jal	x1,8000235c <malloc_beebs>
800023d0:	00050413          	addi	x8,x10,0
800023d4:	00050863          	beq	x10,x0,800023e4 <calloc_beebs+0x2c>
800023d8:	00c12603          	lw	x12,12(x2)
800023dc:	00000593          	addi	x11,x0,0
800023e0:	15c000ef          	jal	x1,8000253c <memset>
800023e4:	01c12083          	lw	x1,28(x2)
800023e8:	00040513          	addi	x10,x8,0
800023ec:	01812403          	lw	x8,24(x2)
800023f0:	02010113          	addi	x2,x2,32
800023f4:	00008067          	jalr	x0,0(x1)

800023f8 <realloc_beebs>:
800023f8:	00051663          	bne	x10,x0,80002404 <realloc_beebs+0xc>
800023fc:	00000513          	addi	x10,x0,0
80002400:	00008067          	jalr	x0,0(x1)
80002404:	ff010113          	addi	x2,x2,-16
80002408:	00912223          	sw	x9,4(x2)
8000240c:	00050493          	addi	x9,x10,0
80002410:	00058513          	addi	x10,x11,0
80002414:	00812423          	sw	x8,8(x2)
80002418:	00112623          	sw	x1,12(x2)
8000241c:	00058413          	addi	x8,x11,0
80002420:	f3dff0ef          	jal	x1,8000235c <malloc_beebs>
80002424:	00000793          	addi	x15,x0,0
80002428:	02051863          	bne	x10,x0,80002458 <realloc_beebs+0x60>
8000242c:	00000513          	addi	x10,x0,0
80002430:	00c12083          	lw	x1,12(x2)
80002434:	00812403          	lw	x8,8(x2)
80002438:	00412483          	lw	x9,4(x2)
8000243c:	01010113          	addi	x2,x2,16
80002440:	00008067          	jalr	x0,0(x1)
80002444:	00f48733          	add	x14,x9,x15
80002448:	00074683          	lbu	x13,0(x14)
8000244c:	00f50733          	add	x14,x10,x15
80002450:	00178793          	addi	x15,x15,1
80002454:	00d70023          	sb	x13,0(x14)
80002458:	fe8796e3          	bne	x15,x8,80002444 <realloc_beebs+0x4c>
8000245c:	fd5ff06f          	jal	x0,80002430 <realloc_beebs+0x38>

80002460 <free_beebs>:
80002460:	00008067          	jalr	x0,0(x1)

80002464 <__mulsi3>:
80002464:	00050613          	addi	x12,x10,0
80002468:	00000513          	addi	x10,x0,0
8000246c:	0015f693          	andi	x13,x11,1
80002470:	00068463          	beq	x13,x0,80002478 <__mulsi3+0x14>
80002474:	00c50533          	add	x10,x10,x12
80002478:	0015d593          	srli	x11,x11,0x1
8000247c:	00161613          	slli	x12,x12,0x1
80002480:	fe0596e3          	bne	x11,x0,8000246c <__mulsi3+0x8>
80002484:	00008067          	jalr	x0,0(x1)

80002488 <__divsi3>:
80002488:	06054063          	blt	x10,x0,800024e8 <__umodsi3+0x10>
8000248c:	0605c663          	blt	x11,x0,800024f8 <__umodsi3+0x20>

80002490 <__udivsi3>:
80002490:	00058613          	addi	x12,x11,0
80002494:	00050593          	addi	x11,x10,0
80002498:	fff00513          	addi	x10,x0,-1
8000249c:	02060c63          	beq	x12,x0,800024d4 <__udivsi3+0x44>
800024a0:	00100693          	addi	x13,x0,1
800024a4:	00b67a63          	bgeu	x12,x11,800024b8 <__udivsi3+0x28>
800024a8:	00c05863          	bge	x0,x12,800024b8 <__udivsi3+0x28>
800024ac:	00161613          	slli	x12,x12,0x1
800024b0:	00169693          	slli	x13,x13,0x1
800024b4:	feb66ae3          	bltu	x12,x11,800024a8 <__udivsi3+0x18>
800024b8:	00000513          	addi	x10,x0,0
800024bc:	00c5e663          	bltu	x11,x12,800024c8 <__udivsi3+0x38>
800024c0:	40c585b3          	sub	x11,x11,x12
800024c4:	00d56533          	or	x10,x10,x13
800024c8:	0016d693          	srli	x13,x13,0x1
800024cc:	00165613          	srli	x12,x12,0x1
800024d0:	fe0696e3          	bne	x13,x0,800024bc <__udivsi3+0x2c>
800024d4:	00008067          	jalr	x0,0(x1)

800024d8 <__umodsi3>:
800024d8:	00008293          	addi	x5,x1,0
800024dc:	fb5ff0ef          	jal	x1,80002490 <__udivsi3>
800024e0:	00058513          	addi	x10,x11,0
800024e4:	00028067          	jalr	x0,0(x5)
800024e8:	40a00533          	sub	x10,x0,x10
800024ec:	00b04863          	blt	x0,x11,800024fc <__umodsi3+0x24>
800024f0:	40b005b3          	sub	x11,x0,x11
800024f4:	f9dff06f          	jal	x0,80002490 <__udivsi3>
800024f8:	40b005b3          	sub	x11,x0,x11
800024fc:	00008293          	addi	x5,x1,0
80002500:	f91ff0ef          	jal	x1,80002490 <__udivsi3>
80002504:	40a00533          	sub	x10,x0,x10
80002508:	00028067          	jalr	x0,0(x5)

8000250c <__modsi3>:
8000250c:	00008293          	addi	x5,x1,0
80002510:	0005ca63          	blt	x11,x0,80002524 <__modsi3+0x18>
80002514:	00054c63          	blt	x10,x0,8000252c <__modsi3+0x20>
80002518:	f79ff0ef          	jal	x1,80002490 <__udivsi3>
8000251c:	00058513          	addi	x10,x11,0
80002520:	00028067          	jalr	x0,0(x5)
80002524:	40b005b3          	sub	x11,x0,x11
80002528:	fe0558e3          	bge	x10,x0,80002518 <__modsi3+0xc>
8000252c:	40a00533          	sub	x10,x0,x10
80002530:	f61ff0ef          	jal	x1,80002490 <__udivsi3>
80002534:	40b00533          	sub	x10,x0,x11
80002538:	00028067          	jalr	x0,0(x5)

8000253c <memset>:
8000253c:	00f00313          	addi	x6,x0,15
80002540:	00050713          	addi	x14,x10,0
80002544:	02c37e63          	bgeu	x6,x12,80002580 <memset+0x44>
80002548:	00f77793          	andi	x15,x14,15
8000254c:	0a079063          	bne	x15,x0,800025ec <memset+0xb0>
80002550:	08059263          	bne	x11,x0,800025d4 <memset+0x98>
80002554:	ff067693          	andi	x13,x12,-16
80002558:	00f67613          	andi	x12,x12,15
8000255c:	00e686b3          	add	x13,x13,x14
80002560:	00b72023          	sw	x11,0(x14)
80002564:	00b72223          	sw	x11,4(x14)
80002568:	00b72423          	sw	x11,8(x14)
8000256c:	00b72623          	sw	x11,12(x14)
80002570:	01070713          	addi	x14,x14,16
80002574:	fed766e3          	bltu	x14,x13,80002560 <memset+0x24>
80002578:	00061463          	bne	x12,x0,80002580 <memset+0x44>
8000257c:	00008067          	jalr	x0,0(x1)
80002580:	40c306b3          	sub	x13,x6,x12
80002584:	00269693          	slli	x13,x13,0x2
80002588:	00000297          	auipc	x5,0x0
8000258c:	005686b3          	add	x13,x13,x5
80002590:	00c68067          	jalr	x0,12(x13)
80002594:	00b70723          	sb	x11,14(x14)
80002598:	00b706a3          	sb	x11,13(x14)
8000259c:	00b70623          	sb	x11,12(x14)
800025a0:	00b705a3          	sb	x11,11(x14)
800025a4:	00b70523          	sb	x11,10(x14)
800025a8:	00b704a3          	sb	x11,9(x14)
800025ac:	00b70423          	sb	x11,8(x14)
800025b0:	00b703a3          	sb	x11,7(x14)
800025b4:	00b70323          	sb	x11,6(x14)
800025b8:	00b702a3          	sb	x11,5(x14)
800025bc:	00b70223          	sb	x11,4(x14)
800025c0:	00b701a3          	sb	x11,3(x14)
800025c4:	00b70123          	sb	x11,2(x14)
800025c8:	00b700a3          	sb	x11,1(x14)
800025cc:	00b70023          	sb	x11,0(x14)
800025d0:	00008067          	jalr	x0,0(x1)
800025d4:	0ff5f593          	andi	x11,x11,255
800025d8:	00859693          	slli	x13,x11,0x8
800025dc:	00d5e5b3          	or	x11,x11,x13
800025e0:	01059693          	slli	x13,x11,0x10
800025e4:	00d5e5b3          	or	x11,x11,x13
800025e8:	f6dff06f          	jal	x0,80002554 <memset+0x18>
800025ec:	00279693          	slli	x13,x15,0x2
800025f0:	00000297          	auipc	x5,0x0
800025f4:	005686b3          	add	x13,x13,x5
800025f8:	00008293          	addi	x5,x1,0
800025fc:	fa0680e7          	jalr	x1,-96(x13)
80002600:	00028093          	addi	x1,x5,0 # 800025f0 <memset+0xb4>
80002604:	ff078793          	addi	x15,x15,-16
80002608:	40f70733          	sub	x14,x14,x15
8000260c:	00f60633          	add	x12,x12,x15
80002610:	f6c378e3          	bgeu	x6,x12,80002580 <memset+0x44>
80002614:	f3dff06f          	jal	x0,80002550 <memset+0x14>

80002618 <__udivdi3>:
80002618:	fd010113          	addi	x2,x2,-48
8000261c:	02812423          	sw	x8,40(x2)
80002620:	01712623          	sw	x23,12(x2)
80002624:	02112623          	sw	x1,44(x2)
80002628:	02912223          	sw	x9,36(x2)
8000262c:	03212023          	sw	x18,32(x2)
80002630:	01312e23          	sw	x19,28(x2)
80002634:	01412c23          	sw	x20,24(x2)
80002638:	01512a23          	sw	x21,20(x2)
8000263c:	01612823          	sw	x22,16(x2)
80002640:	01812423          	sw	x24,8(x2)
80002644:	01912223          	sw	x25,4(x2)
80002648:	00050b93          	addi	x23,x10,0
8000264c:	00058413          	addi	x8,x11,0
80002650:	38069c63          	bne	x13,x0,800029e8 <__udivdi3+0x3d0>
80002654:	800084b7          	lui	x9,0x80008
80002658:	00060913          	addi	x18,x12,0
8000265c:	00050a13          	addi	x20,x10,0
80002660:	03048493          	addi	x9,x9,48 # 80008030 <_end+0xffffd820>
80002664:	12c5f863          	bgeu	x11,x12,80002794 <__udivdi3+0x17c>
80002668:	000107b7          	lui	x15,0x10
8000266c:	00058c13          	addi	x24,x11,0
80002670:	10f67863          	bgeu	x12,x15,80002780 <__udivdi3+0x168>
80002674:	0ff00713          	addi	x14,x0,255
80002678:	00c73733          	sltu	x14,x14,x12
8000267c:	00371713          	slli	x14,x14,0x3
80002680:	00e657b3          	srl	x15,x12,x14
80002684:	00f484b3          	add	x9,x9,x15
80002688:	0004c683          	lbu	x13,0(x9)
8000268c:	00e68733          	add	x14,x13,x14
80002690:	02000693          	addi	x13,x0,32
80002694:	40e687b3          	sub	x15,x13,x14
80002698:	00e68c63          	beq	x13,x14,800026b0 <__udivdi3+0x98>
8000269c:	00f41433          	sll	x8,x8,x15
800026a0:	00ebd733          	srl	x14,x23,x14
800026a4:	00f61933          	sll	x18,x12,x15
800026a8:	00876c33          	or	x24,x14,x8
800026ac:	00fb9a33          	sll	x20,x23,x15
800026b0:	01095b13          	srli	x22,x18,0x10
800026b4:	000b0593          	addi	x11,x22,0
800026b8:	000c0513          	addi	x10,x24,0
800026bc:	e1dff0ef          	jal	x1,800024d8 <__umodsi3>
800026c0:	00050493          	addi	x9,x10,0
800026c4:	000b0593          	addi	x11,x22,0
800026c8:	01091a93          	slli	x21,x18,0x10
800026cc:	000c0513          	addi	x10,x24,0
800026d0:	dc1ff0ef          	jal	x1,80002490 <__udivsi3>
800026d4:	010ada93          	srli	x21,x21,0x10
800026d8:	00050413          	addi	x8,x10,0
800026dc:	00050593          	addi	x11,x10,0
800026e0:	000a8513          	addi	x10,x21,0
800026e4:	d81ff0ef          	jal	x1,80002464 <__mulsi3>
800026e8:	01049493          	slli	x9,x9,0x10
800026ec:	010a5713          	srli	x14,x20,0x10
800026f0:	00e4e733          	or	x14,x9,x14
800026f4:	00040993          	addi	x19,x8,0
800026f8:	00a77e63          	bgeu	x14,x10,80002714 <__udivdi3+0xfc>
800026fc:	01270733          	add	x14,x14,x18
80002700:	fff40993          	addi	x19,x8,-1
80002704:	01276863          	bltu	x14,x18,80002714 <__udivdi3+0xfc>
80002708:	00a77663          	bgeu	x14,x10,80002714 <__udivdi3+0xfc>
8000270c:	ffe40993          	addi	x19,x8,-2
80002710:	01270733          	add	x14,x14,x18
80002714:	40a70433          	sub	x8,x14,x10
80002718:	000b0593          	addi	x11,x22,0
8000271c:	00040513          	addi	x10,x8,0
80002720:	db9ff0ef          	jal	x1,800024d8 <__umodsi3>
80002724:	00050493          	addi	x9,x10,0
80002728:	000b0593          	addi	x11,x22,0
8000272c:	00040513          	addi	x10,x8,0
80002730:	d61ff0ef          	jal	x1,80002490 <__udivsi3>
80002734:	010a1a13          	slli	x20,x20,0x10
80002738:	00050413          	addi	x8,x10,0
8000273c:	00050593          	addi	x11,x10,0
80002740:	01049493          	slli	x9,x9,0x10
80002744:	000a8513          	addi	x10,x21,0
80002748:	010a5a13          	srli	x20,x20,0x10
8000274c:	d19ff0ef          	jal	x1,80002464 <__mulsi3>
80002750:	0144ea33          	or	x20,x9,x20
80002754:	00040613          	addi	x12,x8,0
80002758:	00aa7c63          	bgeu	x20,x10,80002770 <__udivdi3+0x158>
8000275c:	01490a33          	add	x20,x18,x20
80002760:	fff40613          	addi	x12,x8,-1
80002764:	012a6663          	bltu	x20,x18,80002770 <__udivdi3+0x158>
80002768:	00aa7463          	bgeu	x20,x10,80002770 <__udivdi3+0x158>
8000276c:	ffe40613          	addi	x12,x8,-2
80002770:	01099793          	slli	x15,x19,0x10
80002774:	00c7e7b3          	or	x15,x15,x12
80002778:	00000493          	addi	x9,x0,0
8000277c:	1300006f          	jal	x0,800028ac <__udivdi3+0x294>
80002780:	010007b7          	lui	x15,0x1000
80002784:	01000713          	addi	x14,x0,16
80002788:	eef66ce3          	bltu	x12,x15,80002680 <__udivdi3+0x68>
8000278c:	01800713          	addi	x14,x0,24
80002790:	ef1ff06f          	jal	x0,80002680 <__udivdi3+0x68>
80002794:	00068993          	addi	x19,x13,0
80002798:	00061a63          	bne	x12,x0,800027ac <__udivdi3+0x194>
8000279c:	00000593          	addi	x11,x0,0
800027a0:	00100513          	addi	x10,x0,1
800027a4:	cedff0ef          	jal	x1,80002490 <__udivsi3>
800027a8:	00050913          	addi	x18,x10,0
800027ac:	000107b7          	lui	x15,0x10
800027b0:	12f97c63          	bgeu	x18,x15,800028e8 <__udivdi3+0x2d0>
800027b4:	0ff00793          	addi	x15,x0,255
800027b8:	0127f463          	bgeu	x15,x18,800027c0 <__udivdi3+0x1a8>
800027bc:	00800993          	addi	x19,x0,8
800027c0:	013957b3          	srl	x15,x18,x19
800027c4:	00f484b3          	add	x9,x9,x15
800027c8:	0004c783          	lbu	x15,0(x9)
800027cc:	02000693          	addi	x13,x0,32
800027d0:	013787b3          	add	x15,x15,x19
800027d4:	40f68733          	sub	x14,x13,x15
800027d8:	12f69263          	bne	x13,x15,800028fc <__udivdi3+0x2e4>
800027dc:	41240433          	sub	x8,x8,x18
800027e0:	00100493          	addi	x9,x0,1
800027e4:	01095a93          	srli	x21,x18,0x10
800027e8:	000a8593          	addi	x11,x21,0
800027ec:	00040513          	addi	x10,x8,0
800027f0:	ce9ff0ef          	jal	x1,800024d8 <__umodsi3>
800027f4:	00050993          	addi	x19,x10,0
800027f8:	000a8593          	addi	x11,x21,0
800027fc:	00040513          	addi	x10,x8,0
80002800:	01091b13          	slli	x22,x18,0x10
80002804:	c8dff0ef          	jal	x1,80002490 <__udivsi3>
80002808:	010b5b13          	srli	x22,x22,0x10
8000280c:	00050413          	addi	x8,x10,0
80002810:	00050593          	addi	x11,x10,0
80002814:	000b0513          	addi	x10,x22,0
80002818:	c4dff0ef          	jal	x1,80002464 <__mulsi3>
8000281c:	01099993          	slli	x19,x19,0x10
80002820:	010a5713          	srli	x14,x20,0x10
80002824:	00e9e733          	or	x14,x19,x14
80002828:	00040b93          	addi	x23,x8,0
8000282c:	00a77e63          	bgeu	x14,x10,80002848 <__udivdi3+0x230>
80002830:	01270733          	add	x14,x14,x18
80002834:	fff40b93          	addi	x23,x8,-1
80002838:	01276863          	bltu	x14,x18,80002848 <__udivdi3+0x230>
8000283c:	00a77663          	bgeu	x14,x10,80002848 <__udivdi3+0x230>
80002840:	ffe40b93          	addi	x23,x8,-2
80002844:	01270733          	add	x14,x14,x18
80002848:	40a70433          	sub	x8,x14,x10
8000284c:	000a8593          	addi	x11,x21,0
80002850:	00040513          	addi	x10,x8,0
80002854:	c85ff0ef          	jal	x1,800024d8 <__umodsi3>
80002858:	00050993          	addi	x19,x10,0
8000285c:	000a8593          	addi	x11,x21,0
80002860:	00040513          	addi	x10,x8,0
80002864:	c2dff0ef          	jal	x1,80002490 <__udivsi3>
80002868:	010a1a13          	slli	x20,x20,0x10
8000286c:	00050413          	addi	x8,x10,0
80002870:	00050593          	addi	x11,x10,0
80002874:	01099993          	slli	x19,x19,0x10
80002878:	000b0513          	addi	x10,x22,0
8000287c:	010a5a13          	srli	x20,x20,0x10
80002880:	be5ff0ef          	jal	x1,80002464 <__mulsi3>
80002884:	0149ea33          	or	x20,x19,x20
80002888:	00040613          	addi	x12,x8,0
8000288c:	00aa7c63          	bgeu	x20,x10,800028a4 <__udivdi3+0x28c>
80002890:	01490a33          	add	x20,x18,x20
80002894:	fff40613          	addi	x12,x8,-1
80002898:	012a6663          	bltu	x20,x18,800028a4 <__udivdi3+0x28c>
8000289c:	00aa7463          	bgeu	x20,x10,800028a4 <__udivdi3+0x28c>
800028a0:	ffe40613          	addi	x12,x8,-2
800028a4:	010b9793          	slli	x15,x23,0x10
800028a8:	00c7e7b3          	or	x15,x15,x12
800028ac:	00078513          	addi	x10,x15,0 # 10000 <SYSCALL_ADDR-0x1f1000>
800028b0:	00048593          	addi	x11,x9,0
800028b4:	02c12083          	lw	x1,44(x2)
800028b8:	02812403          	lw	x8,40(x2)
800028bc:	02412483          	lw	x9,36(x2)
800028c0:	02012903          	lw	x18,32(x2)
800028c4:	01c12983          	lw	x19,28(x2)
800028c8:	01812a03          	lw	x20,24(x2)
800028cc:	01412a83          	lw	x21,20(x2)
800028d0:	01012b03          	lw	x22,16(x2)
800028d4:	00c12b83          	lw	x23,12(x2)
800028d8:	00812c03          	lw	x24,8(x2)
800028dc:	00412c83          	lw	x25,4(x2)
800028e0:	03010113          	addi	x2,x2,48
800028e4:	00008067          	jalr	x0,0(x1)
800028e8:	010007b7          	lui	x15,0x1000
800028ec:	01000993          	addi	x19,x0,16
800028f0:	ecf968e3          	bltu	x18,x15,800027c0 <__udivdi3+0x1a8>
800028f4:	01800993          	addi	x19,x0,24
800028f8:	ec9ff06f          	jal	x0,800027c0 <__udivdi3+0x1a8>
800028fc:	00e91933          	sll	x18,x18,x14
80002900:	00f459b3          	srl	x19,x8,x15
80002904:	00fbd7b3          	srl	x15,x23,x15
80002908:	00e41433          	sll	x8,x8,x14
8000290c:	0087eab3          	or	x21,x15,x8
80002910:	01095413          	srli	x8,x18,0x10
80002914:	00040593          	addi	x11,x8,0
80002918:	00098513          	addi	x10,x19,0
8000291c:	00eb9a33          	sll	x20,x23,x14
80002920:	bb9ff0ef          	jal	x1,800024d8 <__umodsi3>
80002924:	00050493          	addi	x9,x10,0
80002928:	00040593          	addi	x11,x8,0
8000292c:	00098513          	addi	x10,x19,0
80002930:	01091b13          	slli	x22,x18,0x10
80002934:	b5dff0ef          	jal	x1,80002490 <__udivsi3>
80002938:	010b5b13          	srli	x22,x22,0x10
8000293c:	00050993          	addi	x19,x10,0
80002940:	00050593          	addi	x11,x10,0
80002944:	000b0513          	addi	x10,x22,0
80002948:	b1dff0ef          	jal	x1,80002464 <__mulsi3>
8000294c:	01049493          	slli	x9,x9,0x10
80002950:	010ad793          	srli	x15,x21,0x10
80002954:	00f4e7b3          	or	x15,x9,x15
80002958:	00098b93          	addi	x23,x19,0
8000295c:	00a7fe63          	bgeu	x15,x10,80002978 <__udivdi3+0x360>
80002960:	012787b3          	add	x15,x15,x18
80002964:	fff98b93          	addi	x23,x19,-1
80002968:	0127e863          	bltu	x15,x18,80002978 <__udivdi3+0x360>
8000296c:	00a7f663          	bgeu	x15,x10,80002978 <__udivdi3+0x360>
80002970:	ffe98b93          	addi	x23,x19,-2
80002974:	012787b3          	add	x15,x15,x18
80002978:	40a789b3          	sub	x19,x15,x10
8000297c:	00040593          	addi	x11,x8,0
80002980:	00098513          	addi	x10,x19,0
80002984:	b55ff0ef          	jal	x1,800024d8 <__umodsi3>
80002988:	00040593          	addi	x11,x8,0
8000298c:	00050493          	addi	x9,x10,0
80002990:	00098513          	addi	x10,x19,0
80002994:	afdff0ef          	jal	x1,80002490 <__udivsi3>
80002998:	010a9413          	slli	x8,x21,0x10
8000299c:	00050993          	addi	x19,x10,0
800029a0:	00050593          	addi	x11,x10,0
800029a4:	01049493          	slli	x9,x9,0x10
800029a8:	000b0513          	addi	x10,x22,0
800029ac:	01045413          	srli	x8,x8,0x10
800029b0:	ab5ff0ef          	jal	x1,80002464 <__mulsi3>
800029b4:	0084e433          	or	x8,x9,x8
800029b8:	00098793          	addi	x15,x19,0
800029bc:	00a47e63          	bgeu	x8,x10,800029d8 <__udivdi3+0x3c0>
800029c0:	01240433          	add	x8,x8,x18
800029c4:	fff98793          	addi	x15,x19,-1
800029c8:	01246863          	bltu	x8,x18,800029d8 <__udivdi3+0x3c0>
800029cc:	00a47663          	bgeu	x8,x10,800029d8 <__udivdi3+0x3c0>
800029d0:	ffe98793          	addi	x15,x19,-2
800029d4:	01240433          	add	x8,x8,x18
800029d8:	010b9493          	slli	x9,x23,0x10
800029dc:	40a40433          	sub	x8,x8,x10
800029e0:	00f4e4b3          	or	x9,x9,x15
800029e4:	e01ff06f          	jal	x0,800027e4 <__udivdi3+0x1cc>
800029e8:	1ed5ee63          	bltu	x11,x13,80002be4 <__udivdi3+0x5cc>
800029ec:	000107b7          	lui	x15,0x10
800029f0:	04f6f463          	bgeu	x13,x15,80002a38 <__udivdi3+0x420>
800029f4:	0ff00a93          	addi	x21,x0,255
800029f8:	00dab733          	sltu	x14,x21,x13
800029fc:	00371713          	slli	x14,x14,0x3
80002a00:	800087b7          	lui	x15,0x80008
80002a04:	00e6d5b3          	srl	x11,x13,x14
80002a08:	03078793          	addi	x15,x15,48 # 80008030 <_end+0xffffd820>
80002a0c:	00b787b3          	add	x15,x15,x11
80002a10:	0007ca83          	lbu	x21,0(x15)
80002a14:	02000793          	addi	x15,x0,32
80002a18:	00ea8ab3          	add	x21,x21,x14
80002a1c:	415784b3          	sub	x9,x15,x21
80002a20:	03579663          	bne	x15,x21,80002a4c <__udivdi3+0x434>
80002a24:	00100793          	addi	x15,x0,1
80002a28:	e886e2e3          	bltu	x13,x8,800028ac <__udivdi3+0x294>
80002a2c:	00cbb633          	sltu	x12,x23,x12
80002a30:	00164793          	xori	x15,x12,1
80002a34:	e79ff06f          	jal	x0,800028ac <__udivdi3+0x294>
80002a38:	010007b7          	lui	x15,0x1000
80002a3c:	01000713          	addi	x14,x0,16
80002a40:	fcf6e0e3          	bltu	x13,x15,80002a00 <__udivdi3+0x3e8>
80002a44:	01800713          	addi	x14,x0,24
80002a48:	fb9ff06f          	jal	x0,80002a00 <__udivdi3+0x3e8>
80002a4c:	01565cb3          	srl	x25,x12,x21
80002a50:	009696b3          	sll	x13,x13,x9
80002a54:	00dcecb3          	or	x25,x25,x13
80002a58:	015459b3          	srl	x19,x8,x21
80002a5c:	00941433          	sll	x8,x8,x9
80002a60:	015bdab3          	srl	x21,x23,x21
80002a64:	008aeab3          	or	x21,x21,x8
80002a68:	010cd413          	srli	x8,x25,0x10
80002a6c:	00040593          	addi	x11,x8,0
80002a70:	00098513          	addi	x10,x19,0
80002a74:	00961933          	sll	x18,x12,x9
80002a78:	a61ff0ef          	jal	x1,800024d8 <__umodsi3>
80002a7c:	00050a13          	addi	x20,x10,0
80002a80:	00040593          	addi	x11,x8,0
80002a84:	00098513          	addi	x10,x19,0
80002a88:	010c9b13          	slli	x22,x25,0x10
80002a8c:	a05ff0ef          	jal	x1,80002490 <__udivsi3>
80002a90:	010b5b13          	srli	x22,x22,0x10
80002a94:	00050993          	addi	x19,x10,0
80002a98:	00050593          	addi	x11,x10,0
80002a9c:	000b0513          	addi	x10,x22,0
80002aa0:	9c5ff0ef          	jal	x1,80002464 <__mulsi3>
80002aa4:	010a1a13          	slli	x20,x20,0x10
80002aa8:	010ad713          	srli	x14,x21,0x10
80002aac:	00ea6733          	or	x14,x20,x14
80002ab0:	00098c13          	addi	x24,x19,0
80002ab4:	00a77e63          	bgeu	x14,x10,80002ad0 <__udivdi3+0x4b8>
80002ab8:	01970733          	add	x14,x14,x25
80002abc:	fff98c13          	addi	x24,x19,-1
80002ac0:	01976863          	bltu	x14,x25,80002ad0 <__udivdi3+0x4b8>
80002ac4:	00a77663          	bgeu	x14,x10,80002ad0 <__udivdi3+0x4b8>
80002ac8:	ffe98c13          	addi	x24,x19,-2
80002acc:	01970733          	add	x14,x14,x25
80002ad0:	40a709b3          	sub	x19,x14,x10
80002ad4:	00040593          	addi	x11,x8,0
80002ad8:	00098513          	addi	x10,x19,0
80002adc:	9fdff0ef          	jal	x1,800024d8 <__umodsi3>
80002ae0:	00040593          	addi	x11,x8,0
80002ae4:	00050a13          	addi	x20,x10,0
80002ae8:	00098513          	addi	x10,x19,0
80002aec:	9a5ff0ef          	jal	x1,80002490 <__udivsi3>
80002af0:	010a9413          	slli	x8,x21,0x10
80002af4:	00050993          	addi	x19,x10,0
80002af8:	00050593          	addi	x11,x10,0
80002afc:	010a1a13          	slli	x20,x20,0x10
80002b00:	000b0513          	addi	x10,x22,0
80002b04:	01045413          	srli	x8,x8,0x10
80002b08:	95dff0ef          	jal	x1,80002464 <__mulsi3>
80002b0c:	008a6433          	or	x8,x20,x8
80002b10:	00098613          	addi	x12,x19,0
80002b14:	00a47e63          	bgeu	x8,x10,80002b30 <__udivdi3+0x518>
80002b18:	01940433          	add	x8,x8,x25
80002b1c:	fff98613          	addi	x12,x19,-1
80002b20:	01946863          	bltu	x8,x25,80002b30 <__udivdi3+0x518>
80002b24:	00a47663          	bgeu	x8,x10,80002b30 <__udivdi3+0x518>
80002b28:	ffe98613          	addi	x12,x19,-2
80002b2c:	01940433          	add	x8,x8,x25
80002b30:	010c1793          	slli	x15,x24,0x10
80002b34:	00010e37          	lui	x28,0x10
80002b38:	00c7e7b3          	or	x15,x15,x12
80002b3c:	fffe0313          	addi	x6,x28,-1 # ffff <SYSCALL_ADDR-0x1f1001>
80002b40:	0067f8b3          	and	x17,x15,x6
80002b44:	00697333          	and	x6,x18,x6
80002b48:	40a40433          	sub	x8,x8,x10
80002b4c:	0107de93          	srli	x29,x15,0x10
80002b50:	01095913          	srli	x18,x18,0x10
80002b54:	00088513          	addi	x10,x17,0
80002b58:	00030593          	addi	x11,x6,0
80002b5c:	909ff0ef          	jal	x1,80002464 <__mulsi3>
80002b60:	00050813          	addi	x16,x10,0
80002b64:	00090593          	addi	x11,x18,0
80002b68:	00088513          	addi	x10,x17,0
80002b6c:	8f9ff0ef          	jal	x1,80002464 <__mulsi3>
80002b70:	00050893          	addi	x17,x10,0
80002b74:	00030593          	addi	x11,x6,0
80002b78:	000e8513          	addi	x10,x29,0
80002b7c:	8e9ff0ef          	jal	x1,80002464 <__mulsi3>
80002b80:	00050313          	addi	x6,x10,0
80002b84:	00090593          	addi	x11,x18,0
80002b88:	000e8513          	addi	x10,x29,0
80002b8c:	8d9ff0ef          	jal	x1,80002464 <__mulsi3>
80002b90:	01085713          	srli	x14,x16,0x10
80002b94:	006888b3          	add	x17,x17,x6
80002b98:	01170733          	add	x14,x14,x17
80002b9c:	00050693          	addi	x13,x10,0
80002ba0:	00677463          	bgeu	x14,x6,80002ba8 <__udivdi3+0x590>
80002ba4:	01c506b3          	add	x13,x10,x28
80002ba8:	01075513          	srli	x10,x14,0x10
80002bac:	00d506b3          	add	x13,x10,x13
80002bb0:	02d46663          	bltu	x8,x13,80002bdc <__udivdi3+0x5c4>
80002bb4:	bcd412e3          	bne	x8,x13,80002778 <__udivdi3+0x160>
80002bb8:	00010537          	lui	x10,0x10
80002bbc:	fff50513          	addi	x10,x10,-1 # ffff <SYSCALL_ADDR-0x1f1001>
80002bc0:	00a77733          	and	x14,x14,x10
80002bc4:	01071713          	slli	x14,x14,0x10
80002bc8:	00a87833          	and	x16,x16,x10
80002bcc:	009b9bb3          	sll	x23,x23,x9
80002bd0:	01070733          	add	x14,x14,x16
80002bd4:	00000493          	addi	x9,x0,0
80002bd8:	ccebfae3          	bgeu	x23,x14,800028ac <__udivdi3+0x294>
80002bdc:	fff78793          	addi	x15,x15,-1 # ffffff <SYSCALL_ADDR+0xdfefff>
80002be0:	b99ff06f          	jal	x0,80002778 <__udivdi3+0x160>
80002be4:	00000493          	addi	x9,x0,0
80002be8:	00000793          	addi	x15,x0,0
80002bec:	cc1ff06f          	jal	x0,800028ac <__udivdi3+0x294>

80002bf0 <__umoddi3>:
80002bf0:	fd010113          	addi	x2,x2,-48
80002bf4:	02812423          	sw	x8,40(x2)
80002bf8:	02912223          	sw	x9,36(x2)
80002bfc:	03212023          	sw	x18,32(x2)
80002c00:	01612823          	sw	x22,16(x2)
80002c04:	02112623          	sw	x1,44(x2)
80002c08:	01312e23          	sw	x19,28(x2)
80002c0c:	01412c23          	sw	x20,24(x2)
80002c10:	01512a23          	sw	x21,20(x2)
80002c14:	01712623          	sw	x23,12(x2)
80002c18:	01812423          	sw	x24,8(x2)
80002c1c:	01912223          	sw	x25,4(x2)
80002c20:	01a12023          	sw	x26,0(x2)
80002c24:	00050913          	addi	x18,x10,0
80002c28:	00058b13          	addi	x22,x11,0
80002c2c:	00050413          	addi	x8,x10,0
80002c30:	00058493          	addi	x9,x11,0
80002c34:	26069c63          	bne	x13,x0,80002eac <__umoddi3+0x2bc>
80002c38:	80008ab7          	lui	x21,0x80008
80002c3c:	00060a13          	addi	x20,x12,0
80002c40:	00068993          	addi	x19,x13,0
80002c44:	030a8a93          	addi	x21,x21,48 # 80008030 <_end+0xffffd820>
80002c48:	14c5f263          	bgeu	x11,x12,80002d8c <__umoddi3+0x19c>
80002c4c:	000107b7          	lui	x15,0x10
80002c50:	12f67463          	bgeu	x12,x15,80002d78 <__umoddi3+0x188>
80002c54:	0ff00793          	addi	x15,x0,255
80002c58:	00c7f463          	bgeu	x15,x12,80002c60 <__umoddi3+0x70>
80002c5c:	00800993          	addi	x19,x0,8
80002c60:	013657b3          	srl	x15,x12,x19
80002c64:	00fa8ab3          	add	x21,x21,x15
80002c68:	000ac783          	lbu	x15,0(x21)
80002c6c:	02000713          	addi	x14,x0,32
80002c70:	013787b3          	add	x15,x15,x19
80002c74:	40f709b3          	sub	x19,x14,x15
80002c78:	00f70c63          	beq	x14,x15,80002c90 <__umoddi3+0xa0>
80002c7c:	013b15b3          	sll	x11,x22,x19
80002c80:	00f957b3          	srl	x15,x18,x15
80002c84:	01361a33          	sll	x20,x12,x19
80002c88:	00b7e4b3          	or	x9,x15,x11
80002c8c:	01391433          	sll	x8,x18,x19
80002c90:	010a5a93          	srli	x21,x20,0x10
80002c94:	000a8593          	addi	x11,x21,0
80002c98:	00048513          	addi	x10,x9,0
80002c9c:	83dff0ef          	jal	x1,800024d8 <__umodsi3>
80002ca0:	00050913          	addi	x18,x10,0
80002ca4:	000a8593          	addi	x11,x21,0
80002ca8:	010a1b13          	slli	x22,x20,0x10
80002cac:	00048513          	addi	x10,x9,0
80002cb0:	fe0ff0ef          	jal	x1,80002490 <__udivsi3>
80002cb4:	010b5b13          	srli	x22,x22,0x10
80002cb8:	00050593          	addi	x11,x10,0
80002cbc:	000b0513          	addi	x10,x22,0
80002cc0:	fa4ff0ef          	jal	x1,80002464 <__mulsi3>
80002cc4:	01091913          	slli	x18,x18,0x10
80002cc8:	01045793          	srli	x15,x8,0x10
80002ccc:	00f967b3          	or	x15,x18,x15
80002cd0:	00a7fa63          	bgeu	x15,x10,80002ce4 <__umoddi3+0xf4>
80002cd4:	014787b3          	add	x15,x15,x20
80002cd8:	0147e663          	bltu	x15,x20,80002ce4 <__umoddi3+0xf4>
80002cdc:	00a7f463          	bgeu	x15,x10,80002ce4 <__umoddi3+0xf4>
80002ce0:	014787b3          	add	x15,x15,x20
80002ce4:	40a784b3          	sub	x9,x15,x10
80002ce8:	000a8593          	addi	x11,x21,0
80002cec:	00048513          	addi	x10,x9,0
80002cf0:	fe8ff0ef          	jal	x1,800024d8 <__umodsi3>
80002cf4:	00050913          	addi	x18,x10,0
80002cf8:	000a8593          	addi	x11,x21,0
80002cfc:	00048513          	addi	x10,x9,0
80002d00:	f90ff0ef          	jal	x1,80002490 <__udivsi3>
80002d04:	01041413          	slli	x8,x8,0x10
80002d08:	00050593          	addi	x11,x10,0
80002d0c:	01091913          	slli	x18,x18,0x10
80002d10:	000b0513          	addi	x10,x22,0
80002d14:	01045413          	srli	x8,x8,0x10
80002d18:	f4cff0ef          	jal	x1,80002464 <__mulsi3>
80002d1c:	00896433          	or	x8,x18,x8
80002d20:	00a47a63          	bgeu	x8,x10,80002d34 <__umoddi3+0x144>
80002d24:	01440433          	add	x8,x8,x20
80002d28:	01446663          	bltu	x8,x20,80002d34 <__umoddi3+0x144>
80002d2c:	00a47463          	bgeu	x8,x10,80002d34 <__umoddi3+0x144>
80002d30:	01440433          	add	x8,x8,x20
80002d34:	40a40433          	sub	x8,x8,x10
80002d38:	01345533          	srl	x10,x8,x19
80002d3c:	00000593          	addi	x11,x0,0
80002d40:	02c12083          	lw	x1,44(x2)
80002d44:	02812403          	lw	x8,40(x2)
80002d48:	02412483          	lw	x9,36(x2)
80002d4c:	02012903          	lw	x18,32(x2)
80002d50:	01c12983          	lw	x19,28(x2)
80002d54:	01812a03          	lw	x20,24(x2)
80002d58:	01412a83          	lw	x21,20(x2)
80002d5c:	01012b03          	lw	x22,16(x2)
80002d60:	00c12b83          	lw	x23,12(x2)
80002d64:	00812c03          	lw	x24,8(x2)
80002d68:	00412c83          	lw	x25,4(x2)
80002d6c:	00012d03          	lw	x26,0(x2)
80002d70:	03010113          	addi	x2,x2,48
80002d74:	00008067          	jalr	x0,0(x1)
80002d78:	010007b7          	lui	x15,0x1000
80002d7c:	01000993          	addi	x19,x0,16
80002d80:	eef660e3          	bltu	x12,x15,80002c60 <__umoddi3+0x70>
80002d84:	01800993          	addi	x19,x0,24
80002d88:	ed9ff06f          	jal	x0,80002c60 <__umoddi3+0x70>
80002d8c:	00061a63          	bne	x12,x0,80002da0 <__umoddi3+0x1b0>
80002d90:	00000593          	addi	x11,x0,0
80002d94:	00100513          	addi	x10,x0,1
80002d98:	ef8ff0ef          	jal	x1,80002490 <__udivsi3>
80002d9c:	00050a13          	addi	x20,x10,0
80002da0:	000107b7          	lui	x15,0x10
80002da4:	0efa7a63          	bgeu	x20,x15,80002e98 <__umoddi3+0x2a8>
80002da8:	0ff00793          	addi	x15,x0,255
80002dac:	0147f463          	bgeu	x15,x20,80002db4 <__umoddi3+0x1c4>
80002db0:	00800993          	addi	x19,x0,8
80002db4:	013a57b3          	srl	x15,x20,x19
80002db8:	00fa8ab3          	add	x21,x21,x15
80002dbc:	000ac783          	lbu	x15,0(x21)
80002dc0:	02000713          	addi	x14,x0,32
80002dc4:	414b04b3          	sub	x9,x22,x20
80002dc8:	013787b3          	add	x15,x15,x19
80002dcc:	40f709b3          	sub	x19,x14,x15
80002dd0:	ecf700e3          	beq	x14,x15,80002c90 <__umoddi3+0xa0>
80002dd4:	013a1a33          	sll	x20,x20,x19
80002dd8:	00fb5ab3          	srl	x21,x22,x15
80002ddc:	013b15b3          	sll	x11,x22,x19
80002de0:	00f957b3          	srl	x15,x18,x15
80002de4:	010a5493          	srli	x9,x20,0x10
80002de8:	00b7eb33          	or	x22,x15,x11
80002dec:	000a8513          	addi	x10,x21,0
80002df0:	00048593          	addi	x11,x9,0
80002df4:	ee4ff0ef          	jal	x1,800024d8 <__umodsi3>
80002df8:	00048593          	addi	x11,x9,0
80002dfc:	01391433          	sll	x8,x18,x19
80002e00:	010a1b93          	slli	x23,x20,0x10
80002e04:	00050913          	addi	x18,x10,0
80002e08:	000a8513          	addi	x10,x21,0
80002e0c:	e84ff0ef          	jal	x1,80002490 <__udivsi3>
80002e10:	010bdb93          	srli	x23,x23,0x10
80002e14:	00050593          	addi	x11,x10,0
80002e18:	000b8513          	addi	x10,x23,0
80002e1c:	e48ff0ef          	jal	x1,80002464 <__mulsi3>
80002e20:	01091913          	slli	x18,x18,0x10
80002e24:	010b5793          	srli	x15,x22,0x10
80002e28:	00f967b3          	or	x15,x18,x15
80002e2c:	00a7fa63          	bgeu	x15,x10,80002e40 <__umoddi3+0x250>
80002e30:	014787b3          	add	x15,x15,x20
80002e34:	0147e663          	bltu	x15,x20,80002e40 <__umoddi3+0x250>
80002e38:	00a7f463          	bgeu	x15,x10,80002e40 <__umoddi3+0x250>
80002e3c:	014787b3          	add	x15,x15,x20
80002e40:	40a78ab3          	sub	x21,x15,x10
80002e44:	00048593          	addi	x11,x9,0
80002e48:	000a8513          	addi	x10,x21,0
80002e4c:	e8cff0ef          	jal	x1,800024d8 <__umodsi3>
80002e50:	00050913          	addi	x18,x10,0
80002e54:	00048593          	addi	x11,x9,0
80002e58:	000a8513          	addi	x10,x21,0
80002e5c:	e34ff0ef          	jal	x1,80002490 <__udivsi3>
80002e60:	00050593          	addi	x11,x10,0
80002e64:	000b8513          	addi	x10,x23,0
80002e68:	dfcff0ef          	jal	x1,80002464 <__mulsi3>
80002e6c:	010b1593          	slli	x11,x22,0x10
80002e70:	01091913          	slli	x18,x18,0x10
80002e74:	0105d593          	srli	x11,x11,0x10
80002e78:	00b965b3          	or	x11,x18,x11
80002e7c:	00a5fa63          	bgeu	x11,x10,80002e90 <__umoddi3+0x2a0>
80002e80:	014585b3          	add	x11,x11,x20
80002e84:	0145e663          	bltu	x11,x20,80002e90 <__umoddi3+0x2a0>
80002e88:	00a5f463          	bgeu	x11,x10,80002e90 <__umoddi3+0x2a0>
80002e8c:	014585b3          	add	x11,x11,x20
80002e90:	40a584b3          	sub	x9,x11,x10
80002e94:	dfdff06f          	jal	x0,80002c90 <__umoddi3+0xa0>
80002e98:	010007b7          	lui	x15,0x1000
80002e9c:	01000993          	addi	x19,x0,16
80002ea0:	f0fa6ae3          	bltu	x20,x15,80002db4 <__umoddi3+0x1c4>
80002ea4:	01800993          	addi	x19,x0,24
80002ea8:	f0dff06f          	jal	x0,80002db4 <__umoddi3+0x1c4>
80002eac:	e8d5eae3          	bltu	x11,x13,80002d40 <__umoddi3+0x150>
80002eb0:	000107b7          	lui	x15,0x10
80002eb4:	04f6fc63          	bgeu	x13,x15,80002f0c <__umoddi3+0x31c>
80002eb8:	0ff00a93          	addi	x21,x0,255
80002ebc:	00dab533          	sltu	x10,x21,x13
80002ec0:	00351513          	slli	x10,x10,0x3
80002ec4:	800087b7          	lui	x15,0x80008
80002ec8:	00a6d733          	srl	x14,x13,x10
80002ecc:	03078793          	addi	x15,x15,48 # 80008030 <_end+0xffffd820>
80002ed0:	00e787b3          	add	x15,x15,x14
80002ed4:	0007ca83          	lbu	x21,0(x15)
80002ed8:	02000793          	addi	x15,x0,32
80002edc:	00aa8ab3          	add	x21,x21,x10
80002ee0:	41578a33          	sub	x20,x15,x21
80002ee4:	03579e63          	bne	x15,x21,80002f20 <__umoddi3+0x330>
80002ee8:	0166e463          	bltu	x13,x22,80002ef0 <__umoddi3+0x300>
80002eec:	00c96a63          	bltu	x18,x12,80002f00 <__umoddi3+0x310>
80002ef0:	40c90433          	sub	x8,x18,x12
80002ef4:	40db05b3          	sub	x11,x22,x13
80002ef8:	00893533          	sltu	x10,x18,x8
80002efc:	40a584b3          	sub	x9,x11,x10
80002f00:	00040513          	addi	x10,x8,0
80002f04:	00048593          	addi	x11,x9,0
80002f08:	e39ff06f          	jal	x0,80002d40 <__umoddi3+0x150>
80002f0c:	010007b7          	lui	x15,0x1000
80002f10:	01000513          	addi	x10,x0,16
80002f14:	faf6e8e3          	bltu	x13,x15,80002ec4 <__umoddi3+0x2d4>
80002f18:	01800513          	addi	x10,x0,24
80002f1c:	fa9ff06f          	jal	x0,80002ec4 <__umoddi3+0x2d4>
80002f20:	014696b3          	sll	x13,x13,x20
80002f24:	015657b3          	srl	x15,x12,x21
80002f28:	00d7ec33          	or	x24,x15,x13
80002f2c:	015b5d33          	srl	x26,x22,x21
80002f30:	014b15b3          	sll	x11,x22,x20
80002f34:	015954b3          	srl	x9,x18,x21
80002f38:	010c5b13          	srli	x22,x24,0x10
80002f3c:	00b4e4b3          	or	x9,x9,x11
80002f40:	000d0513          	addi	x10,x26,0
80002f44:	000b0593          	addi	x11,x22,0
80002f48:	01461cb3          	sll	x25,x12,x20
80002f4c:	d8cff0ef          	jal	x1,800024d8 <__umodsi3>
80002f50:	00050993          	addi	x19,x10,0
80002f54:	000b0593          	addi	x11,x22,0
80002f58:	000d0513          	addi	x10,x26,0
80002f5c:	010c1b93          	slli	x23,x24,0x10
80002f60:	d30ff0ef          	jal	x1,80002490 <__udivsi3>
80002f64:	010bdb93          	srli	x23,x23,0x10
80002f68:	00050593          	addi	x11,x10,0
80002f6c:	01491433          	sll	x8,x18,x20
80002f70:	00050913          	addi	x18,x10,0
80002f74:	000b8513          	addi	x10,x23,0
80002f78:	cecff0ef          	jal	x1,80002464 <__mulsi3>
80002f7c:	01099993          	slli	x19,x19,0x10
80002f80:	0104d713          	srli	x14,x9,0x10
80002f84:	00e9e733          	or	x14,x19,x14
80002f88:	00090d13          	addi	x26,x18,0
80002f8c:	00a77e63          	bgeu	x14,x10,80002fa8 <__umoddi3+0x3b8>
80002f90:	01870733          	add	x14,x14,x24
80002f94:	fff90d13          	addi	x26,x18,-1
80002f98:	01876863          	bltu	x14,x24,80002fa8 <__umoddi3+0x3b8>
80002f9c:	00a77663          	bgeu	x14,x10,80002fa8 <__umoddi3+0x3b8>
80002fa0:	ffe90d13          	addi	x26,x18,-2
80002fa4:	01870733          	add	x14,x14,x24
80002fa8:	40a70933          	sub	x18,x14,x10
80002fac:	000b0593          	addi	x11,x22,0
80002fb0:	00090513          	addi	x10,x18,0
80002fb4:	d24ff0ef          	jal	x1,800024d8 <__umodsi3>
80002fb8:	00050993          	addi	x19,x10,0
80002fbc:	000b0593          	addi	x11,x22,0
80002fc0:	00090513          	addi	x10,x18,0
80002fc4:	cccff0ef          	jal	x1,80002490 <__udivsi3>
80002fc8:	00050913          	addi	x18,x10,0
80002fcc:	00050593          	addi	x11,x10,0
80002fd0:	000b8513          	addi	x10,x23,0
80002fd4:	c90ff0ef          	jal	x1,80002464 <__mulsi3>
80002fd8:	01049713          	slli	x14,x9,0x10
80002fdc:	01099993          	slli	x19,x19,0x10
80002fe0:	01075713          	srli	x14,x14,0x10
80002fe4:	00e9e733          	or	x14,x19,x14
80002fe8:	00090793          	addi	x15,x18,0
80002fec:	00a77e63          	bgeu	x14,x10,80003008 <__umoddi3+0x418>
80002ff0:	01870733          	add	x14,x14,x24
80002ff4:	fff90793          	addi	x15,x18,-1
80002ff8:	01876863          	bltu	x14,x24,80003008 <__umoddi3+0x418>
80002ffc:	00a77663          	bgeu	x14,x10,80003008 <__umoddi3+0x418>
80003000:	ffe90793          	addi	x15,x18,-2
80003004:	01870733          	add	x14,x14,x24
80003008:	00010eb7          	lui	x29,0x10
8000300c:	010d1d13          	slli	x26,x26,0x10
80003010:	00fd6d33          	or	x26,x26,x15
80003014:	fffe8793          	addi	x15,x29,-1 # ffff <SYSCALL_ADDR-0x1f1001>
80003018:	00fd78b3          	and	x17,x26,x15
8000301c:	00fcf7b3          	and	x15,x25,x15
80003020:	40a70733          	sub	x14,x14,x10
80003024:	010d5d13          	srli	x26,x26,0x10
80003028:	010cde13          	srli	x28,x25,0x10
8000302c:	00088513          	addi	x10,x17,0
80003030:	00078593          	addi	x11,x15,0 # 1000000 <SYSCALL_ADDR+0xdff000>
80003034:	c30ff0ef          	jal	x1,80002464 <__mulsi3>
80003038:	00050813          	addi	x16,x10,0
8000303c:	000e0593          	addi	x11,x28,0
80003040:	00088513          	addi	x10,x17,0
80003044:	c20ff0ef          	jal	x1,80002464 <__mulsi3>
80003048:	00050893          	addi	x17,x10,0
8000304c:	00078593          	addi	x11,x15,0
80003050:	000d0513          	addi	x10,x26,0
80003054:	c10ff0ef          	jal	x1,80002464 <__mulsi3>
80003058:	00050313          	addi	x6,x10,0
8000305c:	000e0593          	addi	x11,x28,0
80003060:	000d0513          	addi	x10,x26,0
80003064:	c00ff0ef          	jal	x1,80002464 <__mulsi3>
80003068:	01085793          	srli	x15,x16,0x10
8000306c:	006888b3          	add	x17,x17,x6
80003070:	011787b3          	add	x15,x15,x17
80003074:	0067f463          	bgeu	x15,x6,8000307c <__umoddi3+0x48c>
80003078:	01d50533          	add	x10,x10,x29
8000307c:	0107d593          	srli	x11,x15,0x10
80003080:	00a585b3          	add	x11,x11,x10
80003084:	00010537          	lui	x10,0x10
80003088:	fff50513          	addi	x10,x10,-1 # ffff <SYSCALL_ADDR-0x1f1001>
8000308c:	00a7f7b3          	and	x15,x15,x10
80003090:	01079793          	slli	x15,x15,0x10
80003094:	00a87533          	and	x10,x16,x10
80003098:	00a78533          	add	x10,x15,x10
8000309c:	00b76663          	bltu	x14,x11,800030a8 <__umoddi3+0x4b8>
800030a0:	00b71e63          	bne	x14,x11,800030bc <__umoddi3+0x4cc>
800030a4:	00a47c63          	bgeu	x8,x10,800030bc <__umoddi3+0x4cc>
800030a8:	41950633          	sub	x12,x10,x25
800030ac:	00c537b3          	sltu	x15,x10,x12
800030b0:	018787b3          	add	x15,x15,x24
800030b4:	40f585b3          	sub	x11,x11,x15
800030b8:	00060513          	addi	x10,x12,0
800030bc:	40a40533          	sub	x10,x8,x10
800030c0:	00a43433          	sltu	x8,x8,x10
800030c4:	40b705b3          	sub	x11,x14,x11
800030c8:	408585b3          	sub	x11,x11,x8
800030cc:	01559433          	sll	x8,x11,x21
800030d0:	01455533          	srl	x10,x10,x20
800030d4:	00a46533          	or	x10,x8,x10
800030d8:	0145d5b3          	srl	x11,x11,x20
800030dc:	c65ff06f          	jal	x0,80002d40 <__umoddi3+0x150>

Disassembly of section .text.startup:

800030e0 <main>:
800030e0:	fe010113          	addi	x2,x2,-32
800030e4:	00112e23          	sw	x1,28(x2)
800030e8:	970ff0ef          	jal	x1,80002258 <initialise_board>
800030ec:	950ff0ef          	jal	x1,8000223c <initialise_benchmark>
800030f0:	00100513          	addi	x10,x0,1
800030f4:	94cff0ef          	jal	x1,80002240 <warm_caches>
800030f8:	968ff0ef          	jal	x1,80002260 <start_trigger>
800030fc:	948ff0ef          	jal	x1,80002244 <benchmark>
80003100:	00a12623          	sw	x10,12(x2)
80003104:	96cff0ef          	jal	x1,80002270 <stop_trigger>
80003108:	00c12503          	lw	x10,12(x2)
8000310c:	940ff0ef          	jal	x1,8000224c <verify_benchmark>
80003110:	01c12083          	lw	x1,28(x2)
80003114:	00153513          	sltiu	x10,x10,1
80003118:	02010113          	addi	x2,x2,32
8000311c:	00008067          	jalr	x0,0(x1)

Disassembly of section .text.__assert_func:

80003120 <__assert_func>:
80003120:	800087b7          	lui	x15,0x80008
80003124:	aa07a703          	lw	x14,-1376(x15) # 80007aa0 <_end+0xffffd290>
80003128:	ff010113          	addi	x2,x2,-16
8000312c:	00068793          	addi	x15,x13,0
80003130:	00060813          	addi	x16,x12,0
80003134:	00112623          	sw	x1,12(x2)
80003138:	00c72883          	lw	x17,12(x14)
8000313c:	00050693          	addi	x13,x10,0
80003140:	00058713          	addi	x14,x11,0
80003144:	00078613          	addi	x12,x15,0
80003148:	02080063          	beq	x16,x0,80003168 <__assert_func+0x48>
8000314c:	800087b7          	lui	x15,0x80008
80003150:	18478793          	addi	x15,x15,388 # 80008184 <_end+0xffffd974>
80003154:	800085b7          	lui	x11,0x80008
80003158:	19458593          	addi	x11,x11,404 # 80008194 <_end+0xffffd984>
8000315c:	00088513          	addi	x10,x17,0
80003160:	018000ef          	jal	x1,80003178 <fiprintf>
80003164:	5e4010ef          	jal	x1,80004748 <abort>
80003168:	80008837          	lui	x16,0x80008
8000316c:	19080793          	addi	x15,x16,400 # 80008190 <_end+0xffffd980>
80003170:	19080813          	addi	x16,x16,400
80003174:	fe1ff06f          	jal	x0,80003154 <__assert_func+0x34>

Disassembly of section .text.fiprintf:

80003178 <fiprintf>:
80003178:	00050e13          	addi	x28,x10,0
8000317c:	80008537          	lui	x10,0x80008
80003180:	fc010113          	addi	x2,x2,-64
80003184:	aa052503          	lw	x10,-1376(x10) # 80007aa0 <_end+0xffffd290>
80003188:	02810313          	addi	x6,x2,40
8000318c:	02c12423          	sw	x12,40(x2)
80003190:	02d12623          	sw	x13,44(x2)
80003194:	00058613          	addi	x12,x11,0
80003198:	00030693          	addi	x13,x6,0
8000319c:	000e0593          	addi	x11,x28,0
800031a0:	00112e23          	sw	x1,28(x2)
800031a4:	02e12823          	sw	x14,48(x2)
800031a8:	02f12a23          	sw	x15,52(x2)
800031ac:	03012c23          	sw	x16,56(x2)
800031b0:	03112e23          	sw	x17,60(x2)
800031b4:	00612623          	sw	x6,12(x2)
800031b8:	104000ef          	jal	x1,800032bc <_vfiprintf_r>
800031bc:	01c12083          	lw	x1,28(x2)
800031c0:	04010113          	addi	x2,x2,64
800031c4:	00008067          	jalr	x0,0(x1)

Disassembly of section .text.__sprint_r.part.0:

800031c8 <__sprint_r.part.0>:
800031c8:	0645a703          	lw	x14,100(x11)
800031cc:	fd010113          	addi	x2,x2,-48
800031d0:	000027b7          	lui	x15,0x2
800031d4:	01612823          	sw	x22,16(x2)
800031d8:	02112623          	sw	x1,44(x2)
800031dc:	02812423          	sw	x8,40(x2)
800031e0:	02912223          	sw	x9,36(x2)
800031e4:	03212023          	sw	x18,32(x2)
800031e8:	01312e23          	sw	x19,28(x2)
800031ec:	01412c23          	sw	x20,24(x2)
800031f0:	01512a23          	sw	x21,20(x2)
800031f4:	01712623          	sw	x23,12(x2)
800031f8:	01812423          	sw	x24,8(x2)
800031fc:	00e7f7b3          	and	x15,x15,x14
80003200:	00060b13          	addi	x22,x12,0
80003204:	0a078863          	beq	x15,x0,800032b4 <__sprint_r.part.0+0xec>
80003208:	00862783          	lw	x15,8(x12)
8000320c:	00062b83          	lw	x23,0(x12)
80003210:	00058913          	addi	x18,x11,0
80003214:	00050993          	addi	x19,x10,0
80003218:	fff00a93          	addi	x21,x0,-1
8000321c:	08078863          	beq	x15,x0,800032ac <__sprint_r.part.0+0xe4>
80003220:	004bac03          	lw	x24,4(x23)
80003224:	000ba403          	lw	x8,0(x23)
80003228:	002c5a13          	srli	x20,x24,0x2
8000322c:	060a0663          	beq	x20,x0,80003298 <__sprint_r.part.0+0xd0>
80003230:	00000493          	addi	x9,x0,0
80003234:	00c0006f          	jal	x0,80003240 <__sprint_r.part.0+0x78>
80003238:	00440413          	addi	x8,x8,4
8000323c:	049a0c63          	beq	x20,x9,80003294 <__sprint_r.part.0+0xcc>
80003240:	00042583          	lw	x11,0(x8)
80003244:	00090613          	addi	x12,x18,0
80003248:	00098513          	addi	x10,x19,0
8000324c:	2ad010ef          	jal	x1,80004cf8 <_fputwc_r>
80003250:	00148493          	addi	x9,x9,1
80003254:	ff5512e3          	bne	x10,x21,80003238 <__sprint_r.part.0+0x70>
80003258:	fff00513          	addi	x10,x0,-1
8000325c:	02c12083          	lw	x1,44(x2)
80003260:	02812403          	lw	x8,40(x2)
80003264:	000b2423          	sw	x0,8(x22)
80003268:	000b2223          	sw	x0,4(x22)
8000326c:	02412483          	lw	x9,36(x2)
80003270:	02012903          	lw	x18,32(x2)
80003274:	01c12983          	lw	x19,28(x2)
80003278:	01812a03          	lw	x20,24(x2)
8000327c:	01412a83          	lw	x21,20(x2)
80003280:	01012b03          	lw	x22,16(x2)
80003284:	00c12b83          	lw	x23,12(x2)
80003288:	00812c03          	lw	x24,8(x2)
8000328c:	03010113          	addi	x2,x2,48
80003290:	00008067          	jalr	x0,0(x1)
80003294:	008b2783          	lw	x15,8(x22)
80003298:	ffcc7c13          	andi	x24,x24,-4
8000329c:	418787b3          	sub	x15,x15,x24
800032a0:	00fb2423          	sw	x15,8(x22)
800032a4:	008b8b93          	addi	x23,x23,8
800032a8:	f6079ce3          	bne	x15,x0,80003220 <__sprint_r.part.0+0x58>
800032ac:	00000513          	addi	x10,x0,0
800032b0:	fadff06f          	jal	x0,8000325c <__sprint_r.part.0+0x94>
800032b4:	6c5010ef          	jal	x1,80005178 <__sfvwrite_r>
800032b8:	fa5ff06f          	jal	x0,8000325c <__sprint_r.part.0+0x94>

Disassembly of section .text._vfiprintf_r:

800032bc <_vfiprintf_r>:
800032bc:	ed010113          	addi	x2,x2,-304
800032c0:	11312e23          	sw	x19,284(x2)
800032c4:	11412c23          	sw	x20,280(x2)
800032c8:	11712623          	sw	x23,268(x2)
800032cc:	12112623          	sw	x1,300(x2)
800032d0:	12812423          	sw	x8,296(x2)
800032d4:	12912223          	sw	x9,292(x2)
800032d8:	13212023          	sw	x18,288(x2)
800032dc:	11512a23          	sw	x21,276(x2)
800032e0:	11612823          	sw	x22,272(x2)
800032e4:	11812423          	sw	x24,264(x2)
800032e8:	11912223          	sw	x25,260(x2)
800032ec:	11a12023          	sw	x26,256(x2)
800032f0:	0fb12e23          	sw	x27,252(x2)
800032f4:	00d12823          	sw	x13,16(x2)
800032f8:	00050a13          	addi	x20,x10,0
800032fc:	00058993          	addi	x19,x11,0
80003300:	00060b93          	addi	x23,x12,0
80003304:	00050663          	beq	x10,x0,80003310 <_vfiprintf_r+0x54>
80003308:	03852783          	lw	x15,56(x10)
8000330c:	62078663          	beq	x15,x0,80003938 <_vfiprintf_r+0x67c>
80003310:	00c99703          	lh	x14,12(x19)
80003314:	000026b7          	lui	x13,0x2
80003318:	01071793          	slli	x15,x14,0x10
8000331c:	0107d793          	srli	x15,x15,0x10
80003320:	00d7f633          	and	x12,x15,x13
80003324:	02061863          	bne	x12,x0,80003354 <_vfiprintf_r+0x98>
80003328:	0649a603          	lw	x12,100(x19)
8000332c:	00d767b3          	or	x15,x14,x13
80003330:	01079793          	slli	x15,x15,0x10
80003334:	ffffe737          	lui	x14,0xffffe
80003338:	4107d793          	srai	x15,x15,0x10
8000333c:	fff70713          	addi	x14,x14,-1 # ffffdfff <_end+0x7fff37ef>
80003340:	00e67733          	and	x14,x12,x14
80003344:	00f99623          	sh	x15,12(x19)
80003348:	01079793          	slli	x15,x15,0x10
8000334c:	06e9a223          	sw	x14,100(x19)
80003350:	0107d793          	srli	x15,x15,0x10
80003354:	0087f713          	andi	x14,x15,8
80003358:	40070063          	beq	x14,x0,80003758 <_vfiprintf_r+0x49c>
8000335c:	0109a703          	lw	x14,16(x19)
80003360:	3e070c63          	beq	x14,x0,80003758 <_vfiprintf_r+0x49c>
80003364:	01a7f793          	andi	x15,x15,26
80003368:	00a00713          	addi	x14,x0,10
8000336c:	40e78663          	beq	x15,x14,80003778 <_vfiprintf_r+0x4bc>
80003370:	800087b7          	lui	x15,0x80008
80003374:	1f478793          	addi	x15,x15,500 # 800081f4 <_end+0xffffd9e4>
80003378:	80008b37          	lui	x22,0x80008
8000337c:	04c10493          	addi	x9,x2,76
80003380:	00f12a23          	sw	x15,20(x2)
80003384:	80008937          	lui	x18,0x80008
80003388:	360b0793          	addi	x15,x22,864 # 80008360 <_end+0xffffdb50>
8000338c:	000b8c13          	addi	x24,x23,0
80003390:	04912023          	sw	x9,64(x2)
80003394:	04012423          	sw	x0,72(x2)
80003398:	04012223          	sw	x0,68(x2)
8000339c:	00012c23          	sw	x0,24(x2)
800033a0:	00012e23          	sw	x0,28(x2)
800033a4:	02012223          	sw	x0,36(x2)
800033a8:	02012023          	sw	x0,32(x2)
800033ac:	00012623          	sw	x0,12(x2)
800033b0:	00f12423          	sw	x15,8(x2)
800033b4:	37090913          	addi	x18,x18,880 # 80008370 <_end+0xffffdb60>
800033b8:	00048b93          	addi	x23,x9,0
800033bc:	000c4783          	lbu	x15,0(x24)
800033c0:	26078863          	beq	x15,x0,80003630 <_vfiprintf_r+0x374>
800033c4:	000c0413          	addi	x8,x24,0
800033c8:	02500713          	addi	x14,x0,37
800033cc:	46e78663          	beq	x15,x14,80003838 <_vfiprintf_r+0x57c>
800033d0:	00144783          	lbu	x15,1(x8)
800033d4:	00140413          	addi	x8,x8,1
800033d8:	fe079ae3          	bne	x15,x0,800033cc <_vfiprintf_r+0x110>
800033dc:	41840cb3          	sub	x25,x8,x24
800033e0:	25840863          	beq	x8,x24,80003630 <_vfiprintf_r+0x374>
800033e4:	04812703          	lw	x14,72(x2)
800033e8:	04412783          	lw	x15,68(x2)
800033ec:	018ba023          	sw	x24,0(x23)
800033f0:	00ec8733          	add	x14,x25,x14
800033f4:	00178793          	addi	x15,x15,1
800033f8:	019ba223          	sw	x25,4(x23)
800033fc:	04e12423          	sw	x14,72(x2)
80003400:	04f12223          	sw	x15,68(x2)
80003404:	00700693          	addi	x13,x0,7
80003408:	008b8b93          	addi	x23,x23,8
8000340c:	02f6d063          	bge	x13,x15,8000342c <_vfiprintf_r+0x170>
80003410:	3e070ae3          	beq	x14,x0,80004004 <_vfiprintf_r+0xd48>
80003414:	04010613          	addi	x12,x2,64
80003418:	00098593          	addi	x11,x19,0
8000341c:	000a0513          	addi	x10,x20,0
80003420:	da9ff0ef          	jal	x1,800031c8 <__sprint_r.part.0>
80003424:	20051a63          	bne	x10,x0,80003638 <_vfiprintf_r+0x37c>
80003428:	00048b93          	addi	x23,x9,0
8000342c:	00c12703          	lw	x14,12(x2)
80003430:	00044783          	lbu	x15,0(x8)
80003434:	01970733          	add	x14,x14,x25
80003438:	00e12623          	sw	x14,12(x2)
8000343c:	1e078a63          	beq	x15,x0,80003630 <_vfiprintf_r+0x374>
80003440:	00144703          	lbu	x14,1(x8)
80003444:	00140c13          	addi	x24,x8,1
80003448:	02010da3          	sb	x0,59(x2)
8000344c:	fff00a93          	addi	x21,x0,-1
80003450:	00012223          	sw	x0,4(x2)
80003454:	00000b13          	addi	x22,x0,0
80003458:	05a00c93          	addi	x25,x0,90
8000345c:	00900d13          	addi	x26,x0,9
80003460:	02a00613          	addi	x12,x0,42
80003464:	001c0c13          	addi	x24,x24,1
80003468:	fe070793          	addi	x15,x14,-32
8000346c:	04fce863          	bltu	x25,x15,800034bc <_vfiprintf_r+0x200>
80003470:	01412683          	lw	x13,20(x2)
80003474:	00279793          	slli	x15,x15,0x2
80003478:	00d787b3          	add	x15,x15,x13
8000347c:	0007a783          	lw	x15,0(x15)
80003480:	00078067          	jalr	x0,0(x15)
80003484:	00012223          	sw	x0,4(x2)
80003488:	fd070793          	addi	x15,x14,-48
8000348c:	00412583          	lw	x11,4(x2)
80003490:	000c4703          	lbu	x14,0(x24)
80003494:	001c0c13          	addi	x24,x24,1
80003498:	00259693          	slli	x13,x11,0x2
8000349c:	00b686b3          	add	x13,x13,x11
800034a0:	00169693          	slli	x13,x13,0x1
800034a4:	00d787b3          	add	x15,x15,x13
800034a8:	00f12223          	sw	x15,4(x2)
800034ac:	fd070793          	addi	x15,x14,-48
800034b0:	fcfd7ee3          	bgeu	x26,x15,8000348c <_vfiprintf_r+0x1d0>
800034b4:	fe070793          	addi	x15,x14,-32
800034b8:	fafcfce3          	bgeu	x25,x15,80003470 <_vfiprintf_r+0x1b4>
800034bc:	16070a63          	beq	x14,x0,80003630 <_vfiprintf_r+0x374>
800034c0:	08e10623          	sb	x14,140(x2)
800034c4:	02010da3          	sb	x0,59(x2)
800034c8:	00100c93          	addi	x25,x0,1
800034cc:	00100d13          	addi	x26,x0,1
800034d0:	08c10413          	addi	x8,x2,140
800034d4:	00000a93          	addi	x21,x0,0
800034d8:	002b7f93          	andi	x31,x22,2
800034dc:	000f8463          	beq	x31,x0,800034e4 <_vfiprintf_r+0x228>
800034e0:	002c8c93          	addi	x25,x25,2
800034e4:	04412703          	lw	x14,68(x2)
800034e8:	084b7f13          	andi	x30,x22,132
800034ec:	04812783          	lw	x15,72(x2)
800034f0:	00170693          	addi	x13,x14,1
800034f4:	00068613          	addi	x12,x13,0 # 2000 <SYSCALL_ADDR-0x1ff000>
800034f8:	000f1863          	bne	x30,x0,80003508 <_vfiprintf_r+0x24c>
800034fc:	00412583          	lw	x11,4(x2)
80003500:	41958db3          	sub	x27,x11,x25
80003504:	0db042e3          	blt	x0,x27,80003dc8 <_vfiprintf_r+0xb0c>
80003508:	03b14583          	lbu	x11,59(x2)
8000350c:	008b8693          	addi	x13,x23,8
80003510:	02058c63          	beq	x11,x0,80003548 <_vfiprintf_r+0x28c>
80003514:	03b10713          	addi	x14,x2,59
80003518:	00178793          	addi	x15,x15,1
8000351c:	00eba023          	sw	x14,0(x23)
80003520:	00100713          	addi	x14,x0,1
80003524:	00eba223          	sw	x14,4(x23)
80003528:	04f12423          	sw	x15,72(x2)
8000352c:	04c12223          	sw	x12,68(x2)
80003530:	00700713          	addi	x14,x0,7
80003534:	00c748e3          	blt	x14,x12,80003d44 <_vfiprintf_r+0xa88>
80003538:	00060713          	addi	x14,x12,0
8000353c:	00068b93          	addi	x23,x13,0
80003540:	00160613          	addi	x12,x12,1
80003544:	00868693          	addi	x13,x13,8
80003548:	040f8e63          	beq	x31,x0,800035a4 <_vfiprintf_r+0x2e8>
8000354c:	03c10713          	addi	x14,x2,60
80003550:	00278793          	addi	x15,x15,2
80003554:	00eba023          	sw	x14,0(x23)
80003558:	00200713          	addi	x14,x0,2
8000355c:	00eba223          	sw	x14,4(x23)
80003560:	04f12423          	sw	x15,72(x2)
80003564:	04c12223          	sw	x12,68(x2)
80003568:	00700713          	addi	x14,x0,7
8000356c:	04c750e3          	bge	x14,x12,80003dac <_vfiprintf_r+0xaf0>
80003570:	2e0784e3          	beq	x15,x0,80004058 <_vfiprintf_r+0xd9c>
80003574:	04010613          	addi	x12,x2,64
80003578:	00098593          	addi	x11,x19,0
8000357c:	000a0513          	addi	x10,x20,0
80003580:	03e12423          	sw	x30,40(x2)
80003584:	c45ff0ef          	jal	x1,800031c8 <__sprint_r.part.0>
80003588:	0a051863          	bne	x10,x0,80003638 <_vfiprintf_r+0x37c>
8000358c:	04412703          	lw	x14,68(x2)
80003590:	04812783          	lw	x15,72(x2)
80003594:	02812f03          	lw	x30,40(x2)
80003598:	05410693          	addi	x13,x2,84
8000359c:	00170613          	addi	x12,x14,1
800035a0:	00048b93          	addi	x23,x9,0
800035a4:	08000593          	addi	x11,x0,128
800035a8:	5cbf0e63          	beq	x30,x11,80003b84 <_vfiprintf_r+0x8c8>
800035ac:	41aa8ab3          	sub	x21,x21,x26
800035b0:	6b504a63          	blt	x0,x21,80003c64 <_vfiprintf_r+0x9a8>
800035b4:	00fd07b3          	add	x15,x26,x15
800035b8:	008ba023          	sw	x8,0(x23)
800035bc:	01aba223          	sw	x26,4(x23)
800035c0:	04f12423          	sw	x15,72(x2)
800035c4:	04c12223          	sw	x12,68(x2)
800035c8:	00700713          	addi	x14,x0,7
800035cc:	02c75263          	bge	x14,x12,800035f0 <_vfiprintf_r+0x334>
800035d0:	0e078ee3          	beq	x15,x0,80003ecc <_vfiprintf_r+0xc10>
800035d4:	04010613          	addi	x12,x2,64
800035d8:	00098593          	addi	x11,x19,0
800035dc:	000a0513          	addi	x10,x20,0
800035e0:	be9ff0ef          	jal	x1,800031c8 <__sprint_r.part.0>
800035e4:	04051a63          	bne	x10,x0,80003638 <_vfiprintf_r+0x37c>
800035e8:	04812783          	lw	x15,72(x2)
800035ec:	00048693          	addi	x13,x9,0
800035f0:	004b7313          	andi	x6,x22,4
800035f4:	00030863          	beq	x6,x0,80003604 <_vfiprintf_r+0x348>
800035f8:	00412703          	lw	x14,4(x2)
800035fc:	41970bb3          	sub	x23,x14,x25
80003600:	0f7044e3          	blt	x0,x23,80003ee8 <_vfiprintf_r+0xc2c>
80003604:	00412403          	lw	x8,4(x2)
80003608:	01945463          	bge	x8,x25,80003610 <_vfiprintf_r+0x354>
8000360c:	000c8413          	addi	x8,x25,0
80003610:	00c12703          	lw	x14,12(x2)
80003614:	00870733          	add	x14,x14,x8
80003618:	00e12623          	sw	x14,12(x2)
8000361c:	70079063          	bne	x15,x0,80003d1c <_vfiprintf_r+0xa60>
80003620:	000c4783          	lbu	x15,0(x24)
80003624:	04012223          	sw	x0,68(x2)
80003628:	00048b93          	addi	x23,x9,0
8000362c:	d8079ce3          	bne	x15,x0,800033c4 <_vfiprintf_r+0x108>
80003630:	04812783          	lw	x15,72(x2)
80003634:	660798e3          	bne	x15,x0,800044a4 <_vfiprintf_r+0x11e8>
80003638:	00c9d783          	lhu	x15,12(x19)
8000363c:	0407f793          	andi	x15,x15,64
80003640:	6a0790e3          	bne	x15,x0,800044e0 <_vfiprintf_r+0x1224>
80003644:	12c12083          	lw	x1,300(x2)
80003648:	12812403          	lw	x8,296(x2)
8000364c:	00c12503          	lw	x10,12(x2)
80003650:	12412483          	lw	x9,292(x2)
80003654:	12012903          	lw	x18,288(x2)
80003658:	11c12983          	lw	x19,284(x2)
8000365c:	11812a03          	lw	x20,280(x2)
80003660:	11412a83          	lw	x21,276(x2)
80003664:	11012b03          	lw	x22,272(x2)
80003668:	10c12b83          	lw	x23,268(x2)
8000366c:	10812c03          	lw	x24,264(x2)
80003670:	10412c83          	lw	x25,260(x2)
80003674:	10012d03          	lw	x26,256(x2)
80003678:	0fc12d83          	lw	x27,252(x2)
8000367c:	13010113          	addi	x2,x2,304
80003680:	00008067          	jalr	x0,0(x1)
80003684:	000a0513          	addi	x10,x20,0
80003688:	048020ef          	jal	x1,800056d0 <_localeconv_r>
8000368c:	00452783          	lw	x15,4(x10)
80003690:	00078513          	addi	x10,x15,0
80003694:	02f12023          	sw	x15,32(x2)
80003698:	5a0030ef          	jal	x1,80006c38 <strlen>
8000369c:	00050793          	addi	x15,x10,0
800036a0:	000a0513          	addi	x10,x20,0
800036a4:	00078413          	addi	x8,x15,0
800036a8:	02f12223          	sw	x15,36(x2)
800036ac:	024020ef          	jal	x1,800056d0 <_localeconv_r>
800036b0:	00852783          	lw	x15,8(x10)
800036b4:	02a00613          	addi	x12,x0,42
800036b8:	00f12e23          	sw	x15,28(x2)
800036bc:	2e0412e3          	bne	x8,x0,800041a0 <_vfiprintf_r+0xee4>
800036c0:	000c4703          	lbu	x14,0(x24)
800036c4:	da1ff06f          	jal	x0,80003464 <_vfiprintf_r+0x1a8>
800036c8:	000c4703          	lbu	x14,0(x24)
800036cc:	020b6b13          	ori	x22,x22,32
800036d0:	d95ff06f          	jal	x0,80003464 <_vfiprintf_r+0x1a8>
800036d4:	010b6b13          	ori	x22,x22,16
800036d8:	020b7793          	andi	x15,x22,32
800036dc:	18078c63          	beq	x15,x0,80003874 <_vfiprintf_r+0x5b8>
800036e0:	01012783          	lw	x15,16(x2)
800036e4:	00778793          	addi	x15,x15,7
800036e8:	ff87f793          	andi	x15,x15,-8
800036ec:	0047a703          	lw	x14,4(x15)
800036f0:	0007ad03          	lw	x26,0(x15)
800036f4:	00878793          	addi	x15,x15,8
800036f8:	00f12823          	sw	x15,16(x2)
800036fc:	00070c93          	addi	x25,x14,0
80003700:	1a074263          	blt	x14,x0,800038a4 <_vfiprintf_r+0x5e8>
80003704:	fff00713          	addi	x14,x0,-1
80003708:	000b0d93          	addi	x27,x22,0
8000370c:	00ea8863          	beq	x21,x14,8000371c <_vfiprintf_r+0x460>
80003710:	019d6733          	or	x14,x26,x25
80003714:	f7fb7d93          	andi	x27,x22,-129
80003718:	0e070ce3          	beq	x14,x0,80004010 <_vfiprintf_r+0xd54>
8000371c:	160c94e3          	bne	x25,x0,80004084 <_vfiprintf_r+0xdc8>
80003720:	00900713          	addi	x14,x0,9
80003724:	17a760e3          	bltu	x14,x26,80004084 <_vfiprintf_r+0xdc8>
80003728:	030d0793          	addi	x15,x26,48
8000372c:	0ef107a3          	sb	x15,239(x2)
80003730:	000d8b13          	addi	x22,x27,0
80003734:	00100d13          	addi	x26,x0,1
80003738:	0ef10413          	addi	x8,x2,239
8000373c:	000a8c93          	addi	x25,x21,0
80003740:	01aad463          	bge	x21,x26,80003748 <_vfiprintf_r+0x48c>
80003744:	000d0c93          	addi	x25,x26,0
80003748:	03b14783          	lbu	x15,59(x2)
8000374c:	00f037b3          	sltu	x15,x0,x15
80003750:	00fc8cb3          	add	x25,x25,x15
80003754:	d85ff06f          	jal	x0,800034d8 <_vfiprintf_r+0x21c>
80003758:	00098593          	addi	x11,x19,0
8000375c:	000a0513          	addi	x10,x20,0
80003760:	67d000ef          	jal	x1,800045dc <__swsetup_r>
80003764:	56051ee3          	bne	x10,x0,800044e0 <_vfiprintf_r+0x1224>
80003768:	00c9d783          	lhu	x15,12(x19)
8000376c:	00a00713          	addi	x14,x0,10
80003770:	01a7f793          	andi	x15,x15,26
80003774:	bee79ee3          	bne	x15,x14,80003370 <_vfiprintf_r+0xb4>
80003778:	00e99783          	lh	x15,14(x19)
8000377c:	be07cae3          	blt	x15,x0,80003370 <_vfiprintf_r+0xb4>
80003780:	12812403          	lw	x8,296(x2)
80003784:	01012683          	lw	x13,16(x2)
80003788:	12c12083          	lw	x1,300(x2)
8000378c:	12412483          	lw	x9,292(x2)
80003790:	12012903          	lw	x18,288(x2)
80003794:	11412a83          	lw	x21,276(x2)
80003798:	11012b03          	lw	x22,272(x2)
8000379c:	10812c03          	lw	x24,264(x2)
800037a0:	10412c83          	lw	x25,260(x2)
800037a4:	10012d03          	lw	x26,256(x2)
800037a8:	0fc12d83          	lw	x27,252(x2)
800037ac:	000b8613          	addi	x12,x23,0
800037b0:	00098593          	addi	x11,x19,0
800037b4:	10c12b83          	lw	x23,268(x2)
800037b8:	11c12983          	lw	x19,284(x2)
800037bc:	000a0513          	addi	x10,x20,0
800037c0:	11812a03          	lw	x20,280(x2)
800037c4:	13010113          	addi	x2,x2,304
800037c8:	5550006f          	jal	x0,8000451c <__sbprintf>
800037cc:	010b6b13          	ori	x22,x22,16
800037d0:	020b7793          	andi	x15,x22,32
800037d4:	06078a63          	beq	x15,x0,80003848 <_vfiprintf_r+0x58c>
800037d8:	01012783          	lw	x15,16(x2)
800037dc:	00778793          	addi	x15,x15,7
800037e0:	ff87f793          	andi	x15,x15,-8
800037e4:	0007ad03          	lw	x26,0(x15)
800037e8:	0047ac83          	lw	x25,4(x15)
800037ec:	00878793          	addi	x15,x15,8
800037f0:	00f12823          	sw	x15,16(x2)
800037f4:	bffb7d93          	andi	x27,x22,-1025
800037f8:	00000713          	addi	x14,x0,0
800037fc:	02010da3          	sb	x0,59(x2)
80003800:	fff00693          	addi	x13,x0,-1
80003804:	0cda8463          	beq	x21,x13,800038cc <_vfiprintf_r+0x610>
80003808:	019d66b3          	or	x13,x26,x25
8000380c:	f7fdfb13          	andi	x22,x27,-129
80003810:	5a069863          	bne	x13,x0,80003dc0 <_vfiprintf_r+0xb04>
80003814:	300a9c63          	bne	x21,x0,80003b2c <_vfiprintf_r+0x870>
80003818:	000710e3          	bne	x14,x0,80004018 <_vfiprintf_r+0xd5c>
8000381c:	001dfd13          	andi	x26,x27,1
80003820:	0f010413          	addi	x8,x2,240
80003824:	f00d0ce3          	beq	x26,x0,8000373c <_vfiprintf_r+0x480>
80003828:	03000793          	addi	x15,x0,48
8000382c:	0ef107a3          	sb	x15,239(x2)
80003830:	0ef10413          	addi	x8,x2,239
80003834:	f09ff06f          	jal	x0,8000373c <_vfiprintf_r+0x480>
80003838:	41840cb3          	sub	x25,x8,x24
8000383c:	bb8414e3          	bne	x8,x24,800033e4 <_vfiprintf_r+0x128>
80003840:	00044783          	lbu	x15,0(x8)
80003844:	bf9ff06f          	jal	x0,8000343c <_vfiprintf_r+0x180>
80003848:	01012683          	lw	x13,16(x2)
8000384c:	010b7793          	andi	x15,x22,16
80003850:	00468713          	addi	x14,x13,4
80003854:	16079ee3          	bne	x15,x0,800041d0 <_vfiprintf_r+0xf14>
80003858:	040b7793          	andi	x15,x22,64
8000385c:	36078ee3          	beq	x15,x0,800043d8 <_vfiprintf_r+0x111c>
80003860:	01012783          	lw	x15,16(x2)
80003864:	00000c93          	addi	x25,x0,0
80003868:	00e12823          	sw	x14,16(x2)
8000386c:	0007dd03          	lhu	x26,0(x15)
80003870:	f85ff06f          	jal	x0,800037f4 <_vfiprintf_r+0x538>
80003874:	01012683          	lw	x13,16(x2)
80003878:	010b7793          	andi	x15,x22,16
8000387c:	00468713          	addi	x14,x13,4
80003880:	100796e3          	bne	x15,x0,8000418c <_vfiprintf_r+0xed0>
80003884:	040b7793          	andi	x15,x22,64
80003888:	300788e3          	beq	x15,x0,80004398 <_vfiprintf_r+0x10dc>
8000388c:	01012783          	lw	x15,16(x2)
80003890:	00e12823          	sw	x14,16(x2)
80003894:	00079d03          	lh	x26,0(x15)
80003898:	41fd5c93          	srai	x25,x26,0x1f
8000389c:	000c8713          	addi	x14,x25,0
800038a0:	e60752e3          	bge	x14,x0,80003704 <_vfiprintf_r+0x448>
800038a4:	01a03733          	sltu	x14,x0,x26
800038a8:	41900eb3          	sub	x29,x0,x25
800038ac:	40ee8cb3          	sub	x25,x29,x14
800038b0:	02d00713          	addi	x14,x0,45
800038b4:	02e10da3          	sb	x14,59(x2)
800038b8:	fff00693          	addi	x13,x0,-1
800038bc:	41a00d33          	sub	x26,x0,x26
800038c0:	000b0d93          	addi	x27,x22,0
800038c4:	00100713          	addi	x14,x0,1
800038c8:	f4da90e3          	bne	x21,x13,80003808 <_vfiprintf_r+0x54c>
800038cc:	00100693          	addi	x13,x0,1
800038d0:	e4d706e3          	beq	x14,x13,8000371c <_vfiprintf_r+0x460>
800038d4:	00200693          	addi	x13,x0,2
800038d8:	26d70463          	beq	x14,x13,80003b40 <_vfiprintf_r+0x884>
800038dc:	0f010413          	addi	x8,x2,240
800038e0:	01dc9793          	slli	x15,x25,0x1d
800038e4:	007d7713          	andi	x14,x26,7
800038e8:	003d5d13          	srli	x26,x26,0x3
800038ec:	03070713          	addi	x14,x14,48
800038f0:	01a7ed33          	or	x26,x15,x26
800038f4:	003cdc93          	srli	x25,x25,0x3
800038f8:	fee40fa3          	sb	x14,-1(x8)
800038fc:	019d67b3          	or	x15,x26,x25
80003900:	00040613          	addi	x12,x8,0
80003904:	fff40413          	addi	x8,x8,-1
80003908:	fc079ce3          	bne	x15,x0,800038e0 <_vfiprintf_r+0x624>
8000390c:	001df793          	andi	x15,x27,1
80003910:	26078263          	beq	x15,x0,80003b74 <_vfiprintf_r+0x8b8>
80003914:	03000793          	addi	x15,x0,48
80003918:	24f70e63          	beq	x14,x15,80003b74 <_vfiprintf_r+0x8b8>
8000391c:	ffe60613          	addi	x12,x12,-2
80003920:	fef40fa3          	sb	x15,-1(x8)
80003924:	0f010793          	addi	x15,x2,240
80003928:	40c78d33          	sub	x26,x15,x12
8000392c:	000d8b13          	addi	x22,x27,0
80003930:	00060413          	addi	x8,x12,0
80003934:	e09ff06f          	jal	x0,8000373c <_vfiprintf_r+0x480>
80003938:	27c010ef          	jal	x1,80004bb4 <__sinit>
8000393c:	9d5ff06f          	jal	x0,80003310 <_vfiprintf_r+0x54>
80003940:	01012783          	lw	x15,16(x2)
80003944:	02010da3          	sb	x0,59(x2)
80003948:	0007a403          	lw	x8,0(x15)
8000394c:	00478d93          	addi	x27,x15,4
80003950:	200406e3          	beq	x8,x0,8000435c <_vfiprintf_r+0x10a0>
80003954:	fff00793          	addi	x15,x0,-1
80003958:	12fa8ee3          	beq	x21,x15,80004294 <_vfiprintf_r+0xfd8>
8000395c:	000a8613          	addi	x12,x21,0
80003960:	00000593          	addi	x11,x0,0
80003964:	00040513          	addi	x10,x8,0
80003968:	744020ef          	jal	x1,800060ac <memchr>
8000396c:	340506e3          	beq	x10,x0,800044b8 <_vfiprintf_r+0x11fc>
80003970:	40850d33          	sub	x26,x10,x8
80003974:	01b12823          	sw	x27,16(x2)
80003978:	00000a93          	addi	x21,x0,0
8000397c:	dc1ff06f          	jal	x0,8000373c <_vfiprintf_r+0x480>
80003980:	01012703          	lw	x14,16(x2)
80003984:	02010da3          	sb	x0,59(x2)
80003988:	00100c93          	addi	x25,x0,1
8000398c:	00072783          	lw	x15,0(x14)
80003990:	00470713          	addi	x14,x14,4
80003994:	00e12823          	sw	x14,16(x2)
80003998:	08f10623          	sb	x15,140(x2)
8000399c:	00100d13          	addi	x26,x0,1
800039a0:	08c10413          	addi	x8,x2,140
800039a4:	b31ff06f          	jal	x0,800034d4 <_vfiprintf_r+0x218>
800039a8:	01012783          	lw	x15,16(x2)
800039ac:	ffff8737          	lui	x14,0xffff8
800039b0:	83074713          	xori	x14,x14,-2000
800039b4:	0007ad03          	lw	x26,0(x15)
800039b8:	00478793          	addi	x15,x15,4
800039bc:	00f12823          	sw	x15,16(x2)
800039c0:	800087b7          	lui	x15,0x80008
800039c4:	1d878793          	addi	x15,x15,472 # 800081d8 <_end+0xffffd9c8>
800039c8:	02e11e23          	sh	x14,60(x2)
800039cc:	00000c93          	addi	x25,x0,0
800039d0:	002b6d93          	ori	x27,x22,2
800039d4:	00f12c23          	sw	x15,24(x2)
800039d8:	00200713          	addi	x14,x0,2
800039dc:	e21ff06f          	jal	x0,800037fc <_vfiprintf_r+0x540>
800039e0:	000c4703          	lbu	x14,0(x24)
800039e4:	06c00793          	addi	x15,x0,108
800039e8:	14f70ce3          	beq	x14,x15,80004340 <_vfiprintf_r+0x1084>
800039ec:	010b6b13          	ori	x22,x22,16
800039f0:	a75ff06f          	jal	x0,80003464 <_vfiprintf_r+0x1a8>
800039f4:	000c4703          	lbu	x14,0(x24)
800039f8:	06800793          	addi	x15,x0,104
800039fc:	12f70ae3          	beq	x14,x15,80004330 <_vfiprintf_r+0x1074>
80003a00:	040b6b13          	ori	x22,x22,64
80003a04:	a61ff06f          	jal	x0,80003464 <_vfiprintf_r+0x1a8>
80003a08:	010b6d93          	ori	x27,x22,16
80003a0c:	020df793          	andi	x15,x27,32
80003a10:	60078c63          	beq	x15,x0,80004028 <_vfiprintf_r+0xd6c>
80003a14:	01012783          	lw	x15,16(x2)
80003a18:	00100713          	addi	x14,x0,1
80003a1c:	00778793          	addi	x15,x15,7
80003a20:	ff87f793          	andi	x15,x15,-8
80003a24:	0007ad03          	lw	x26,0(x15)
80003a28:	0047ac83          	lw	x25,4(x15)
80003a2c:	00878793          	addi	x15,x15,8
80003a30:	00f12823          	sw	x15,16(x2)
80003a34:	dc9ff06f          	jal	x0,800037fc <_vfiprintf_r+0x540>
80003a38:	000c4703          	lbu	x14,0(x24)
80003a3c:	080b6b13          	ori	x22,x22,128
80003a40:	a25ff06f          	jal	x0,80003464 <_vfiprintf_r+0x1a8>
80003a44:	01012683          	lw	x13,16(x2)
80003a48:	000c4703          	lbu	x14,0(x24)
80003a4c:	0006a783          	lw	x15,0(x13)
80003a50:	00468693          	addi	x13,x13,4
80003a54:	00d12823          	sw	x13,16(x2)
80003a58:	00f12223          	sw	x15,4(x2)
80003a5c:	a007d4e3          	bge	x15,x0,80003464 <_vfiprintf_r+0x1a8>
80003a60:	40f007b3          	sub	x15,x0,x15
80003a64:	00f12223          	sw	x15,4(x2)
80003a68:	004b6b13          	ori	x22,x22,4
80003a6c:	9f9ff06f          	jal	x0,80003464 <_vfiprintf_r+0x1a8>
80003a70:	000c4703          	lbu	x14,0(x24)
80003a74:	001b6b13          	ori	x22,x22,1
80003a78:	9edff06f          	jal	x0,80003464 <_vfiprintf_r+0x1a8>
80003a7c:	03b14783          	lbu	x15,59(x2)
80003a80:	000c4703          	lbu	x14,0(x24)
80003a84:	9e0790e3          	bne	x15,x0,80003464 <_vfiprintf_r+0x1a8>
80003a88:	02000793          	addi	x15,x0,32
80003a8c:	02f10da3          	sb	x15,59(x2)
80003a90:	9d5ff06f          	jal	x0,80003464 <_vfiprintf_r+0x1a8>
80003a94:	000c4703          	lbu	x14,0(x24)
80003a98:	004b6b13          	ori	x22,x22,4
80003a9c:	9c9ff06f          	jal	x0,80003464 <_vfiprintf_r+0x1a8>
80003aa0:	02b00793          	addi	x15,x0,43
80003aa4:	000c4703          	lbu	x14,0(x24)
80003aa8:	02f10da3          	sb	x15,59(x2)
80003aac:	9b9ff06f          	jal	x0,80003464 <_vfiprintf_r+0x1a8>
80003ab0:	000c4703          	lbu	x14,0(x24)
80003ab4:	001c0693          	addi	x13,x24,1
80003ab8:	24c700e3          	beq	x14,x12,800044f8 <_vfiprintf_r+0x123c>
80003abc:	fd070793          	addi	x15,x14,-48 # ffff7fd0 <_end+0x7ffed7c0>
80003ac0:	00068c13          	addi	x24,x13,0
80003ac4:	00000a93          	addi	x21,x0,0
80003ac8:	9afd60e3          	bltu	x26,x15,80003468 <_vfiprintf_r+0x1ac>
80003acc:	000c4703          	lbu	x14,0(x24)
80003ad0:	002a9693          	slli	x13,x21,0x2
80003ad4:	01568ab3          	add	x21,x13,x21
80003ad8:	001a9a93          	slli	x21,x21,0x1
80003adc:	00fa8ab3          	add	x21,x21,x15
80003ae0:	fd070793          	addi	x15,x14,-48
80003ae4:	001c0c13          	addi	x24,x24,1
80003ae8:	fefd72e3          	bgeu	x26,x15,80003acc <_vfiprintf_r+0x810>
80003aec:	97dff06f          	jal	x0,80003468 <_vfiprintf_r+0x1ac>
80003af0:	01012683          	lw	x13,16(x2)
80003af4:	020b7793          	andi	x15,x22,32
80003af8:	0006a703          	lw	x14,0(x13)
80003afc:	00468693          	addi	x13,x13,4
80003b00:	00d12823          	sw	x13,16(x2)
80003b04:	6a079c63          	bne	x15,x0,800041bc <_vfiprintf_r+0xf00>
80003b08:	010b7793          	andi	x15,x22,16
80003b0c:	040792e3          	bne	x15,x0,80004350 <_vfiprintf_r+0x1094>
80003b10:	040b7793          	andi	x15,x22,64
80003b14:	120796e3          	bne	x15,x0,80004440 <_vfiprintf_r+0x1184>
80003b18:	200b7313          	andi	x6,x22,512
80003b1c:	02030ae3          	beq	x6,x0,80004350 <_vfiprintf_r+0x1094>
80003b20:	00c12783          	lw	x15,12(x2)
80003b24:	00f70023          	sb	x15,0(x14)
80003b28:	895ff06f          	jal	x0,800033bc <_vfiprintf_r+0x100>
80003b2c:	00100693          	addi	x13,x0,1
80003b30:	1ad704e3          	beq	x14,x13,800044d8 <_vfiprintf_r+0x121c>
80003b34:	00200693          	addi	x13,x0,2
80003b38:	000b0d93          	addi	x27,x22,0
80003b3c:	dad710e3          	bne	x14,x13,800038dc <_vfiprintf_r+0x620>
80003b40:	01812683          	lw	x13,24(x2)
80003b44:	0f010413          	addi	x8,x2,240
80003b48:	00fd7793          	andi	x15,x26,15
80003b4c:	00f687b3          	add	x15,x13,x15
80003b50:	0007c703          	lbu	x14,0(x15)
80003b54:	004d5d13          	srli	x26,x26,0x4
80003b58:	01cc9793          	slli	x15,x25,0x1c
80003b5c:	01a7ed33          	or	x26,x15,x26
80003b60:	004cdc93          	srli	x25,x25,0x4
80003b64:	fee40fa3          	sb	x14,-1(x8)
80003b68:	019d67b3          	or	x15,x26,x25
80003b6c:	fff40413          	addi	x8,x8,-1
80003b70:	fc079ce3          	bne	x15,x0,80003b48 <_vfiprintf_r+0x88c>
80003b74:	0f010793          	addi	x15,x2,240
80003b78:	40878d33          	sub	x26,x15,x8
80003b7c:	000d8b13          	addi	x22,x27,0
80003b80:	bbdff06f          	jal	x0,8000373c <_vfiprintf_r+0x480>
80003b84:	00412583          	lw	x11,4(x2)
80003b88:	41958db3          	sub	x27,x11,x25
80003b8c:	a3b050e3          	bge	x0,x27,800035ac <_vfiprintf_r+0x2f0>
80003b90:	01000593          	addi	x11,x0,16
80003b94:	15b5dce3          	bge	x11,x27,800044ec <_vfiprintf_r+0x1230>
80003b98:	01000e93          	addi	x29,x0,16
80003b9c:	00700f13          	addi	x30,x0,7
80003ba0:	0180006f          	jal	x0,80003bb8 <_vfiprintf_r+0x8fc>
80003ba4:	00270613          	addi	x12,x14,2
80003ba8:	008b8b93          	addi	x23,x23,8
80003bac:	00068713          	addi	x14,x13,0
80003bb0:	ff0d8d93          	addi	x27,x27,-16
80003bb4:	05bedc63          	bge	x29,x27,80003c0c <_vfiprintf_r+0x950>
80003bb8:	01078793          	addi	x15,x15,16
80003bbc:	00170693          	addi	x13,x14,1
80003bc0:	012ba023          	sw	x18,0(x23)
80003bc4:	01dba223          	sw	x29,4(x23)
80003bc8:	04f12423          	sw	x15,72(x2)
80003bcc:	04d12223          	sw	x13,68(x2)
80003bd0:	fcdf5ae3          	bge	x30,x13,80003ba4 <_vfiprintf_r+0x8e8>
80003bd4:	16078063          	beq	x15,x0,80003d34 <_vfiprintf_r+0xa78>
80003bd8:	04010613          	addi	x12,x2,64
80003bdc:	00098593          	addi	x11,x19,0
80003be0:	000a0513          	addi	x10,x20,0
80003be4:	de4ff0ef          	jal	x1,800031c8 <__sprint_r.part.0>
80003be8:	a40518e3          	bne	x10,x0,80003638 <_vfiprintf_r+0x37c>
80003bec:	04412703          	lw	x14,68(x2)
80003bf0:	01000e93          	addi	x29,x0,16
80003bf4:	ff0d8d93          	addi	x27,x27,-16
80003bf8:	04812783          	lw	x15,72(x2)
80003bfc:	00048b93          	addi	x23,x9,0
80003c00:	00170613          	addi	x12,x14,1
80003c04:	00700f13          	addi	x30,x0,7
80003c08:	fbbec8e3          	blt	x29,x27,80003bb8 <_vfiprintf_r+0x8fc>
80003c0c:	00060593          	addi	x11,x12,0
80003c10:	008b8513          	addi	x10,x23,8
80003c14:	01b787b3          	add	x15,x15,x27
80003c18:	012ba023          	sw	x18,0(x23)
80003c1c:	01bba223          	sw	x27,4(x23)
80003c20:	04f12423          	sw	x15,72(x2)
80003c24:	04b12223          	sw	x11,68(x2)
80003c28:	00700713          	addi	x14,x0,7
80003c2c:	52b75c63          	bge	x14,x11,80004164 <_vfiprintf_r+0xea8>
80003c30:	7c078c63          	beq	x15,x0,80004408 <_vfiprintf_r+0x114c>
80003c34:	04010613          	addi	x12,x2,64
80003c38:	00098593          	addi	x11,x19,0
80003c3c:	000a0513          	addi	x10,x20,0
80003c40:	d88ff0ef          	jal	x1,800031c8 <__sprint_r.part.0>
80003c44:	9e051ae3          	bne	x10,x0,80003638 <_vfiprintf_r+0x37c>
80003c48:	04412703          	lw	x14,68(x2)
80003c4c:	41aa8ab3          	sub	x21,x21,x26
80003c50:	04812783          	lw	x15,72(x2)
80003c54:	05410693          	addi	x13,x2,84
80003c58:	00170613          	addi	x12,x14,1
80003c5c:	00048b93          	addi	x23,x9,0
80003c60:	95505ae3          	bge	x0,x21,800035b4 <_vfiprintf_r+0x2f8>
80003c64:	01000593          	addi	x11,x0,16
80003c68:	7955d663          	bge	x11,x21,800043f4 <_vfiprintf_r+0x1138>
80003c6c:	01000893          	addi	x17,x0,16
80003c70:	00700d93          	addi	x27,x0,7
80003c74:	0180006f          	jal	x0,80003c8c <_vfiprintf_r+0x9d0>
80003c78:	00270613          	addi	x12,x14,2
80003c7c:	008b8b93          	addi	x23,x23,8
80003c80:	00068713          	addi	x14,x13,0
80003c84:	ff0a8a93          	addi	x21,x21,-16
80003c88:	0558da63          	bge	x17,x21,80003cdc <_vfiprintf_r+0xa20>
80003c8c:	01078793          	addi	x15,x15,16
80003c90:	00170693          	addi	x13,x14,1
80003c94:	012ba023          	sw	x18,0(x23)
80003c98:	011ba223          	sw	x17,4(x23)
80003c9c:	04f12423          	sw	x15,72(x2)
80003ca0:	04d12223          	sw	x13,68(x2)
80003ca4:	fcdddae3          	bge	x27,x13,80003c78 <_vfiprintf_r+0x9bc>
80003ca8:	06078263          	beq	x15,x0,80003d0c <_vfiprintf_r+0xa50>
80003cac:	04010613          	addi	x12,x2,64
80003cb0:	00098593          	addi	x11,x19,0
80003cb4:	000a0513          	addi	x10,x20,0
80003cb8:	d10ff0ef          	jal	x1,800031c8 <__sprint_r.part.0>
80003cbc:	96051ee3          	bne	x10,x0,80003638 <_vfiprintf_r+0x37c>
80003cc0:	04412703          	lw	x14,68(x2)
80003cc4:	01000893          	addi	x17,x0,16
80003cc8:	ff0a8a93          	addi	x21,x21,-16
80003ccc:	04812783          	lw	x15,72(x2)
80003cd0:	00048b93          	addi	x23,x9,0
80003cd4:	00170613          	addi	x12,x14,1
80003cd8:	fb58cae3          	blt	x17,x21,80003c8c <_vfiprintf_r+0x9d0>
80003cdc:	008b8593          	addi	x11,x23,8
80003ce0:	015787b3          	add	x15,x15,x21
80003ce4:	012ba023          	sw	x18,0(x23)
80003ce8:	015ba223          	sw	x21,4(x23)
80003cec:	04f12423          	sw	x15,72(x2)
80003cf0:	04c12223          	sw	x12,68(x2)
80003cf4:	00700713          	addi	x14,x0,7
80003cf8:	2cc74e63          	blt	x14,x12,80003fd4 <_vfiprintf_r+0xd18>
80003cfc:	00160613          	addi	x12,x12,1
80003d00:	00858693          	addi	x13,x11,8
80003d04:	00058b93          	addi	x23,x11,0
80003d08:	8adff06f          	jal	x0,800035b4 <_vfiprintf_r+0x2f8>
80003d0c:	00100613          	addi	x12,x0,1
80003d10:	00000713          	addi	x14,x0,0
80003d14:	00048b93          	addi	x23,x9,0
80003d18:	f6dff06f          	jal	x0,80003c84 <_vfiprintf_r+0x9c8>
80003d1c:	04010613          	addi	x12,x2,64
80003d20:	00098593          	addi	x11,x19,0
80003d24:	000a0513          	addi	x10,x20,0
80003d28:	ca0ff0ef          	jal	x1,800031c8 <__sprint_r.part.0>
80003d2c:	8e050ae3          	beq	x10,x0,80003620 <_vfiprintf_r+0x364>
80003d30:	909ff06f          	jal	x0,80003638 <_vfiprintf_r+0x37c>
80003d34:	00100613          	addi	x12,x0,1
80003d38:	00000713          	addi	x14,x0,0
80003d3c:	00048b93          	addi	x23,x9,0
80003d40:	e71ff06f          	jal	x0,80003bb0 <_vfiprintf_r+0x8f4>
80003d44:	32078463          	beq	x15,x0,8000406c <_vfiprintf_r+0xdb0>
80003d48:	04010613          	addi	x12,x2,64
80003d4c:	00098593          	addi	x11,x19,0
80003d50:	000a0513          	addi	x10,x20,0
80003d54:	03e12623          	sw	x30,44(x2)
80003d58:	03f12423          	sw	x31,40(x2)
80003d5c:	c6cff0ef          	jal	x1,800031c8 <__sprint_r.part.0>
80003d60:	8c051ce3          	bne	x10,x0,80003638 <_vfiprintf_r+0x37c>
80003d64:	04412703          	lw	x14,68(x2)
80003d68:	04812783          	lw	x15,72(x2)
80003d6c:	02c12f03          	lw	x30,44(x2)
80003d70:	02812f83          	lw	x31,40(x2)
80003d74:	05410693          	addi	x13,x2,84
80003d78:	00170613          	addi	x12,x14,1
80003d7c:	00048b93          	addi	x23,x9,0
80003d80:	fc8ff06f          	jal	x0,80003548 <_vfiprintf_r+0x28c>
80003d84:	3a079463          	bne	x15,x0,8000412c <_vfiprintf_r+0xe70>
80003d88:	03b14703          	lbu	x14,59(x2)
80003d8c:	68071c63          	bne	x14,x0,80004424 <_vfiprintf_r+0x1168>
80003d90:	2e0f8063          	beq	x31,x0,80004070 <_vfiprintf_r+0xdb4>
80003d94:	03c10793          	addi	x15,x2,60
80003d98:	04f12623          	sw	x15,76(x2)
80003d9c:	00200793          	addi	x15,x0,2
80003da0:	04f12823          	sw	x15,80(x2)
80003da4:	05410693          	addi	x13,x2,84
80003da8:	00100613          	addi	x12,x0,1
80003dac:	00068b93          	addi	x23,x13,0
80003db0:	00060713          	addi	x14,x12,0
80003db4:	00170613          	addi	x12,x14,1
80003db8:	008b8693          	addi	x13,x23,8
80003dbc:	fe8ff06f          	jal	x0,800035a4 <_vfiprintf_r+0x2e8>
80003dc0:	000b0d93          	addi	x27,x22,0
80003dc4:	b09ff06f          	jal	x0,800038cc <_vfiprintf_r+0x610>
80003dc8:	01000613          	addi	x12,x0,16
80003dcc:	6fb65e63          	bge	x12,x27,800044c8 <_vfiprintf_r+0x120c>
80003dd0:	000b8613          	addi	x12,x23,0
80003dd4:	01000e93          	addi	x29,x0,16
80003dd8:	00040b93          	addi	x23,x8,0
80003ddc:	00700293          	addi	x5,x0,7
80003de0:	00098413          	addi	x8,x19,0
80003de4:	03f12423          	sw	x31,40(x2)
80003de8:	000d8993          	addi	x19,x27,0
80003dec:	000c0d93          	addi	x27,x24,0
80003df0:	000a8c13          	addi	x24,x21,0
80003df4:	000f0a93          	addi	x21,x30,0
80003df8:	01c0006f          	jal	x0,80003e14 <_vfiprintf_r+0xb58>
80003dfc:	00270513          	addi	x10,x14,2
80003e00:	00860613          	addi	x12,x12,8
80003e04:	00068713          	addi	x14,x13,0
80003e08:	ff098993          	addi	x19,x19,-16
80003e0c:	053ede63          	bge	x29,x19,80003e68 <_vfiprintf_r+0xbac>
80003e10:	00170693          	addi	x13,x14,1
80003e14:	00812583          	lw	x11,8(x2)
80003e18:	01078793          	addi	x15,x15,16
80003e1c:	01d62223          	sw	x29,4(x12)
80003e20:	00b62023          	sw	x11,0(x12)
80003e24:	04f12423          	sw	x15,72(x2)
80003e28:	04d12223          	sw	x13,68(x2)
80003e2c:	fcd2d8e3          	bge	x5,x13,80003dfc <_vfiprintf_r+0xb40>
80003e30:	08078663          	beq	x15,x0,80003ebc <_vfiprintf_r+0xc00>
80003e34:	04010613          	addi	x12,x2,64
80003e38:	00040593          	addi	x11,x8,0
80003e3c:	000a0513          	addi	x10,x20,0
80003e40:	b88ff0ef          	jal	x1,800031c8 <__sprint_r.part.0>
80003e44:	4a051463          	bne	x10,x0,800042ec <_vfiprintf_r+0x1030>
80003e48:	04412703          	lw	x14,68(x2)
80003e4c:	01000e93          	addi	x29,x0,16
80003e50:	ff098993          	addi	x19,x19,-16
80003e54:	04812783          	lw	x15,72(x2)
80003e58:	00048613          	addi	x12,x9,0
80003e5c:	00170513          	addi	x10,x14,1
80003e60:	00700293          	addi	x5,x0,7
80003e64:	fb3ec6e3          	blt	x29,x19,80003e10 <_vfiprintf_r+0xb54>
80003e68:	02812f83          	lw	x31,40(x2)
80003e6c:	000a8f13          	addi	x30,x21,0
80003e70:	00050593          	addi	x11,x10,0
80003e74:	000c0a93          	addi	x21,x24,0
80003e78:	000d8c13          	addi	x24,x27,0
80003e7c:	00098d93          	addi	x27,x19,0
80003e80:	00040993          	addi	x19,x8,0
80003e84:	000b8413          	addi	x8,x23,0
80003e88:	00060b93          	addi	x23,x12,0
80003e8c:	00812703          	lw	x14,8(x2)
80003e90:	01b787b3          	add	x15,x15,x27
80003e94:	01bba223          	sw	x27,4(x23)
80003e98:	00eba023          	sw	x14,0(x23)
80003e9c:	04f12423          	sw	x15,72(x2)
80003ea0:	04b12223          	sw	x11,68(x2)
80003ea4:	00700713          	addi	x14,x0,7
80003ea8:	ecb74ee3          	blt	x14,x11,80003d84 <_vfiprintf_r+0xac8>
80003eac:	008b8b93          	addi	x23,x23,8
80003eb0:	00158613          	addi	x12,x11,1
80003eb4:	00058713          	addi	x14,x11,0
80003eb8:	e50ff06f          	jal	x0,80003508 <_vfiprintf_r+0x24c>
80003ebc:	00000713          	addi	x14,x0,0
80003ec0:	00100513          	addi	x10,x0,1
80003ec4:	00048613          	addi	x12,x9,0
80003ec8:	f41ff06f          	jal	x0,80003e08 <_vfiprintf_r+0xb4c>
80003ecc:	04012223          	sw	x0,68(x2)
80003ed0:	004b7313          	andi	x6,x22,4
80003ed4:	0e030263          	beq	x6,x0,80003fb8 <_vfiprintf_r+0xcfc>
80003ed8:	00412703          	lw	x14,4(x2)
80003edc:	41970bb3          	sub	x23,x14,x25
80003ee0:	0d705c63          	bge	x0,x23,80003fb8 <_vfiprintf_r+0xcfc>
80003ee4:	00048693          	addi	x13,x9,0
80003ee8:	01000713          	addi	x14,x0,16
80003eec:	04412603          	lw	x12,68(x2)
80003ef0:	5f775063          	bge	x14,x23,800044d0 <_vfiprintf_r+0x1214>
80003ef4:	01000d13          	addi	x26,x0,16
80003ef8:	00700d93          	addi	x27,x0,7
80003efc:	0180006f          	jal	x0,80003f14 <_vfiprintf_r+0xc58>
80003f00:	00260513          	addi	x10,x12,2
80003f04:	00868693          	addi	x13,x13,8
80003f08:	00070613          	addi	x12,x14,0
80003f0c:	ff0b8b93          	addi	x23,x23,-16
80003f10:	057d5a63          	bge	x26,x23,80003f64 <_vfiprintf_r+0xca8>
80003f14:	00812583          	lw	x11,8(x2)
80003f18:	01078793          	addi	x15,x15,16
80003f1c:	00160713          	addi	x14,x12,1
80003f20:	00b6a023          	sw	x11,0(x13)
80003f24:	01a6a223          	sw	x26,4(x13)
80003f28:	04f12423          	sw	x15,72(x2)
80003f2c:	04e12223          	sw	x14,68(x2)
80003f30:	fcedd8e3          	bge	x27,x14,80003f00 <_vfiprintf_r+0xc44>
80003f34:	06078a63          	beq	x15,x0,80003fa8 <_vfiprintf_r+0xcec>
80003f38:	04010613          	addi	x12,x2,64
80003f3c:	00098593          	addi	x11,x19,0
80003f40:	000a0513          	addi	x10,x20,0
80003f44:	a84ff0ef          	jal	x1,800031c8 <__sprint_r.part.0>
80003f48:	ee051863          	bne	x10,x0,80003638 <_vfiprintf_r+0x37c>
80003f4c:	04412603          	lw	x12,68(x2)
80003f50:	ff0b8b93          	addi	x23,x23,-16
80003f54:	04812783          	lw	x15,72(x2)
80003f58:	00048693          	addi	x13,x9,0
80003f5c:	00160513          	addi	x10,x12,1
80003f60:	fb7d4ae3          	blt	x26,x23,80003f14 <_vfiprintf_r+0xc58>
80003f64:	00050593          	addi	x11,x10,0
80003f68:	00812703          	lw	x14,8(x2)
80003f6c:	017787b3          	add	x15,x15,x23
80003f70:	0176a223          	sw	x23,4(x13)
80003f74:	00e6a023          	sw	x14,0(x13)
80003f78:	04f12423          	sw	x15,72(x2)
80003f7c:	04b12223          	sw	x11,68(x2)
80003f80:	00700713          	addi	x14,x0,7
80003f84:	e8b75063          	bge	x14,x11,80003604 <_vfiprintf_r+0x348>
80003f88:	02078863          	beq	x15,x0,80003fb8 <_vfiprintf_r+0xcfc>
80003f8c:	04010613          	addi	x12,x2,64
80003f90:	00098593          	addi	x11,x19,0
80003f94:	000a0513          	addi	x10,x20,0
80003f98:	a30ff0ef          	jal	x1,800031c8 <__sprint_r.part.0>
80003f9c:	e8051e63          	bne	x10,x0,80003638 <_vfiprintf_r+0x37c>
80003fa0:	04812783          	lw	x15,72(x2)
80003fa4:	e60ff06f          	jal	x0,80003604 <_vfiprintf_r+0x348>
80003fa8:	00100513          	addi	x10,x0,1
80003fac:	00000613          	addi	x12,x0,0
80003fb0:	00048693          	addi	x13,x9,0
80003fb4:	f59ff06f          	jal	x0,80003f0c <_vfiprintf_r+0xc50>
80003fb8:	00412403          	lw	x8,4(x2)
80003fbc:	01945463          	bge	x8,x25,80003fc4 <_vfiprintf_r+0xd08>
80003fc0:	000c8413          	addi	x8,x25,0
80003fc4:	00c12783          	lw	x15,12(x2)
80003fc8:	008787b3          	add	x15,x15,x8
80003fcc:	00f12623          	sw	x15,12(x2)
80003fd0:	e50ff06f          	jal	x0,80003620 <_vfiprintf_r+0x364>
80003fd4:	32078063          	beq	x15,x0,800042f4 <_vfiprintf_r+0x1038>
80003fd8:	04010613          	addi	x12,x2,64
80003fdc:	00098593          	addi	x11,x19,0
80003fe0:	000a0513          	addi	x10,x20,0
80003fe4:	9e4ff0ef          	jal	x1,800031c8 <__sprint_r.part.0>
80003fe8:	e4051863          	bne	x10,x0,80003638 <_vfiprintf_r+0x37c>
80003fec:	04412603          	lw	x12,68(x2)
80003ff0:	04812783          	lw	x15,72(x2)
80003ff4:	05410693          	addi	x13,x2,84
80003ff8:	00160613          	addi	x12,x12,1
80003ffc:	00048b93          	addi	x23,x9,0
80004000:	db4ff06f          	jal	x0,800035b4 <_vfiprintf_r+0x2f8>
80004004:	04012223          	sw	x0,68(x2)
80004008:	00048b93          	addi	x23,x9,0
8000400c:	c20ff06f          	jal	x0,8000342c <_vfiprintf_r+0x170>
80004010:	f00a9c63          	bne	x21,x0,80003728 <_vfiprintf_r+0x46c>
80004014:	000d8b13          	addi	x22,x27,0
80004018:	00000a93          	addi	x21,x0,0
8000401c:	00000d13          	addi	x26,x0,0
80004020:	0f010413          	addi	x8,x2,240
80004024:	f18ff06f          	jal	x0,8000373c <_vfiprintf_r+0x480>
80004028:	01012683          	lw	x13,16(x2)
8000402c:	010df793          	andi	x15,x27,16
80004030:	00468713          	addi	x14,x13,4
80004034:	14079263          	bne	x15,x0,80004178 <_vfiprintf_r+0xebc>
80004038:	040df793          	andi	x15,x27,64
8000403c:	36078e63          	beq	x15,x0,800043b8 <_vfiprintf_r+0x10fc>
80004040:	01012783          	lw	x15,16(x2)
80004044:	00000c93          	addi	x25,x0,0
80004048:	00e12823          	sw	x14,16(x2)
8000404c:	0007dd03          	lhu	x26,0(x15)
80004050:	00100713          	addi	x14,x0,1
80004054:	fa8ff06f          	jal	x0,800037fc <_vfiprintf_r+0x540>
80004058:	05410693          	addi	x13,x2,84
8000405c:	00100613          	addi	x12,x0,1
80004060:	00000713          	addi	x14,x0,0
80004064:	00048b93          	addi	x23,x9,0
80004068:	d3cff06f          	jal	x0,800035a4 <_vfiprintf_r+0x2e8>
8000406c:	160f9a63          	bne	x31,x0,800041e0 <_vfiprintf_r+0xf24>
80004070:	00000713          	addi	x14,x0,0
80004074:	05410693          	addi	x13,x2,84
80004078:	00100613          	addi	x12,x0,1
8000407c:	00048b93          	addi	x23,x9,0
80004080:	d24ff06f          	jal	x0,800035a4 <_vfiprintf_r+0x2e8>
80004084:	400df793          	andi	x15,x27,1024
80004088:	03412423          	sw	x20,40(x2)
8000408c:	03312623          	sw	x19,44(x2)
80004090:	000c8a13          	addi	x20,x25,0
80004094:	000d0993          	addi	x19,x26,0
80004098:	00000b13          	addi	x22,x0,0
8000409c:	01c12d03          	lw	x26,28(x2)
800040a0:	0f010413          	addi	x8,x2,240
800040a4:	00078c93          	addi	x25,x15,0
800040a8:	0240006f          	jal	x0,800040cc <_vfiprintf_r+0xe10>
800040ac:	00a00613          	addi	x12,x0,10
800040b0:	00000693          	addi	x13,x0,0
800040b4:	00098513          	addi	x10,x19,0
800040b8:	000a0593          	addi	x11,x20,0
800040bc:	d5cfe0ef          	jal	x1,80002618 <__udivdi3>
800040c0:	320a0e63          	beq	x20,x0,800043fc <_vfiprintf_r+0x1140>
800040c4:	00050993          	addi	x19,x10,0
800040c8:	00058a13          	addi	x20,x11,0
800040cc:	00a00613          	addi	x12,x0,10
800040d0:	00000693          	addi	x13,x0,0
800040d4:	00098513          	addi	x10,x19,0
800040d8:	000a0593          	addi	x11,x20,0
800040dc:	b15fe0ef          	jal	x1,80002bf0 <__umoddi3>
800040e0:	03050513          	addi	x10,x10,48
800040e4:	fea40fa3          	sb	x10,-1(x8)
800040e8:	001b0b13          	addi	x22,x22,1
800040ec:	fff40413          	addi	x8,x8,-1
800040f0:	fa0c8ee3          	beq	x25,x0,800040ac <_vfiprintf_r+0xdf0>
800040f4:	000d4683          	lbu	x13,0(x26)
800040f8:	fb669ae3          	bne	x13,x22,800040ac <_vfiprintf_r+0xdf0>
800040fc:	0ff00793          	addi	x15,x0,255
80004100:	fafb06e3          	beq	x22,x15,800040ac <_vfiprintf_r+0xdf0>
80004104:	1a0a1463          	bne	x20,x0,800042ac <_vfiprintf_r+0xff0>
80004108:	00900793          	addi	x15,x0,9
8000410c:	1b37e063          	bltu	x15,x19,800042ac <_vfiprintf_r+0xff0>
80004110:	0f010793          	addi	x15,x2,240
80004114:	01a12e23          	sw	x26,28(x2)
80004118:	02812a03          	lw	x20,40(x2)
8000411c:	02c12983          	lw	x19,44(x2)
80004120:	40878d33          	sub	x26,x15,x8
80004124:	000d8b13          	addi	x22,x27,0
80004128:	e14ff06f          	jal	x0,8000373c <_vfiprintf_r+0x480>
8000412c:	04010613          	addi	x12,x2,64
80004130:	00098593          	addi	x11,x19,0
80004134:	000a0513          	addi	x10,x20,0
80004138:	03e12623          	sw	x30,44(x2)
8000413c:	03f12423          	sw	x31,40(x2)
80004140:	888ff0ef          	jal	x1,800031c8 <__sprint_r.part.0>
80004144:	ce051a63          	bne	x10,x0,80003638 <_vfiprintf_r+0x37c>
80004148:	04412703          	lw	x14,68(x2)
8000414c:	04812783          	lw	x15,72(x2)
80004150:	02c12f03          	lw	x30,44(x2)
80004154:	02812f83          	lw	x31,40(x2)
80004158:	00048b93          	addi	x23,x9,0
8000415c:	00170613          	addi	x12,x14,1
80004160:	ba8ff06f          	jal	x0,80003508 <_vfiprintf_r+0x24c>
80004164:	00158613          	addi	x12,x11,1
80004168:	00850693          	addi	x13,x10,8
8000416c:	00058713          	addi	x14,x11,0
80004170:	00050b93          	addi	x23,x10,0
80004174:	c38ff06f          	jal	x0,800035ac <_vfiprintf_r+0x2f0>
80004178:	00e12823          	sw	x14,16(x2)
8000417c:	0006ad03          	lw	x26,0(x13)
80004180:	00000c93          	addi	x25,x0,0
80004184:	00100713          	addi	x14,x0,1
80004188:	e74ff06f          	jal	x0,800037fc <_vfiprintf_r+0x540>
8000418c:	0006ad03          	lw	x26,0(x13)
80004190:	00e12823          	sw	x14,16(x2)
80004194:	41fd5c93          	srai	x25,x26,0x1f
80004198:	000c8713          	addi	x14,x25,0
8000419c:	d64ff06f          	jal	x0,80003700 <_vfiprintf_r+0x444>
800041a0:	01c12783          	lw	x15,28(x2)
800041a4:	000c4703          	lbu	x14,0(x24)
800041a8:	aa078e63          	beq	x15,x0,80003464 <_vfiprintf_r+0x1a8>
800041ac:	0007c783          	lbu	x15,0(x15)
800041b0:	aa078a63          	beq	x15,x0,80003464 <_vfiprintf_r+0x1a8>
800041b4:	400b6b13          	ori	x22,x22,1024
800041b8:	aacff06f          	jal	x0,80003464 <_vfiprintf_r+0x1a8>
800041bc:	00c12683          	lw	x13,12(x2)
800041c0:	41f6d793          	srai	x15,x13,0x1f
800041c4:	00d72023          	sw	x13,0(x14)
800041c8:	00f72223          	sw	x15,4(x14)
800041cc:	9f0ff06f          	jal	x0,800033bc <_vfiprintf_r+0x100>
800041d0:	0006ad03          	lw	x26,0(x13)
800041d4:	00000c93          	addi	x25,x0,0
800041d8:	00e12823          	sw	x14,16(x2)
800041dc:	e18ff06f          	jal	x0,800037f4 <_vfiprintf_r+0x538>
800041e0:	03c10793          	addi	x15,x2,60
800041e4:	04f12623          	sw	x15,76(x2)
800041e8:	00200793          	addi	x15,x0,2
800041ec:	04f12823          	sw	x15,80(x2)
800041f0:	05410b93          	addi	x23,x2,84
800041f4:	00100713          	addi	x14,x0,1
800041f8:	bbdff06f          	jal	x0,80003db4 <_vfiprintf_r+0xaf8>
800041fc:	000b0d93          	addi	x27,x22,0
80004200:	80dff06f          	jal	x0,80003a0c <_vfiprintf_r+0x750>
80004204:	800087b7          	lui	x15,0x80008
80004208:	1c478793          	addi	x15,x15,452 # 800081c4 <_end+0xffffd9b4>
8000420c:	00f12c23          	sw	x15,24(x2)
80004210:	020b7793          	andi	x15,x22,32
80004214:	06078063          	beq	x15,x0,80004274 <_vfiprintf_r+0xfb8>
80004218:	01012783          	lw	x15,16(x2)
8000421c:	00778793          	addi	x15,x15,7
80004220:	ff87f793          	andi	x15,x15,-8
80004224:	0007ad03          	lw	x26,0(x15)
80004228:	0047ac83          	lw	x25,4(x15)
8000422c:	00878793          	addi	x15,x15,8
80004230:	00f12823          	sw	x15,16(x2)
80004234:	001b7693          	andi	x13,x22,1
80004238:	00068e63          	beq	x13,x0,80004254 <_vfiprintf_r+0xf98>
8000423c:	019d66b3          	or	x13,x26,x25
80004240:	00068a63          	beq	x13,x0,80004254 <_vfiprintf_r+0xf98>
80004244:	03000693          	addi	x13,x0,48
80004248:	02d10e23          	sb	x13,60(x2)
8000424c:	02e10ea3          	sb	x14,61(x2)
80004250:	002b6b13          	ori	x22,x22,2
80004254:	bffb7d93          	andi	x27,x22,-1025
80004258:	00200713          	addi	x14,x0,2
8000425c:	da0ff06f          	jal	x0,800037fc <_vfiprintf_r+0x540>
80004260:	800087b7          	lui	x15,0x80008
80004264:	1d878793          	addi	x15,x15,472 # 800081d8 <_end+0xffffd9c8>
80004268:	00f12c23          	sw	x15,24(x2)
8000426c:	020b7793          	andi	x15,x22,32
80004270:	fa0794e3          	bne	x15,x0,80004218 <_vfiprintf_r+0xf5c>
80004274:	01012603          	lw	x12,16(x2)
80004278:	010b7793          	andi	x15,x22,16
8000427c:	00460693          	addi	x13,x12,4
80004280:	08078a63          	beq	x15,x0,80004314 <_vfiprintf_r+0x1058>
80004284:	00062d03          	lw	x26,0(x12)
80004288:	00000c93          	addi	x25,x0,0
8000428c:	00d12823          	sw	x13,16(x2)
80004290:	fa5ff06f          	jal	x0,80004234 <_vfiprintf_r+0xf78>
80004294:	00040513          	addi	x10,x8,0
80004298:	1a1020ef          	jal	x1,80006c38 <strlen>
8000429c:	00050d13          	addi	x26,x10,0
800042a0:	01b12823          	sw	x27,16(x2)
800042a4:	00000a93          	addi	x21,x0,0
800042a8:	c94ff06f          	jal	x0,8000373c <_vfiprintf_r+0x480>
800042ac:	02412783          	lw	x15,36(x2)
800042b0:	02012583          	lw	x11,32(x2)
800042b4:	00000b13          	addi	x22,x0,0
800042b8:	40f40433          	sub	x8,x8,x15
800042bc:	00078613          	addi	x12,x15,0
800042c0:	00040513          	addi	x10,x8,0
800042c4:	201020ef          	jal	x1,80006cc4 <strncpy>
800042c8:	001d4583          	lbu	x11,1(x26)
800042cc:	00a00613          	addi	x12,x0,10
800042d0:	00000693          	addi	x13,x0,0
800042d4:	00b03733          	sltu	x14,x0,x11
800042d8:	00098513          	addi	x10,x19,0
800042dc:	000a0593          	addi	x11,x20,0
800042e0:	00ed0d33          	add	x26,x26,x14
800042e4:	b34fe0ef          	jal	x1,80002618 <__udivdi3>
800042e8:	dddff06f          	jal	x0,800040c4 <_vfiprintf_r+0xe08>
800042ec:	00040993          	addi	x19,x8,0
800042f0:	b48ff06f          	jal	x0,80003638 <_vfiprintf_r+0x37c>
800042f4:	00100713          	addi	x14,x0,1
800042f8:	000d0793          	addi	x15,x26,0
800042fc:	04812623          	sw	x8,76(x2)
80004300:	05a12823          	sw	x26,80(x2)
80004304:	05a12423          	sw	x26,72(x2)
80004308:	04e12223          	sw	x14,68(x2)
8000430c:	05410693          	addi	x13,x2,84
80004310:	ae0ff06f          	jal	x0,800035f0 <_vfiprintf_r+0x334>
80004314:	040b7793          	andi	x15,x22,64
80004318:	06078263          	beq	x15,x0,8000437c <_vfiprintf_r+0x10c0>
8000431c:	01012783          	lw	x15,16(x2)
80004320:	00000c93          	addi	x25,x0,0
80004324:	00d12823          	sw	x13,16(x2)
80004328:	0007dd03          	lhu	x26,0(x15)
8000432c:	f09ff06f          	jal	x0,80004234 <_vfiprintf_r+0xf78>
80004330:	001c4703          	lbu	x14,1(x24)
80004334:	200b6b13          	ori	x22,x22,512
80004338:	001c0c13          	addi	x24,x24,1
8000433c:	928ff06f          	jal	x0,80003464 <_vfiprintf_r+0x1a8>
80004340:	001c4703          	lbu	x14,1(x24)
80004344:	020b6b13          	ori	x22,x22,32
80004348:	001c0c13          	addi	x24,x24,1
8000434c:	918ff06f          	jal	x0,80003464 <_vfiprintf_r+0x1a8>
80004350:	00c12783          	lw	x15,12(x2)
80004354:	00f72023          	sw	x15,0(x14)
80004358:	864ff06f          	jal	x0,800033bc <_vfiprintf_r+0x100>
8000435c:	00600793          	addi	x15,x0,6
80004360:	000a8d13          	addi	x26,x21,0
80004364:	0b57ec63          	bltu	x15,x21,8000441c <_vfiprintf_r+0x1160>
80004368:	80008e37          	lui	x28,0x80008
8000436c:	000d0c93          	addi	x25,x26,0
80004370:	01b12823          	sw	x27,16(x2)
80004374:	1ece0413          	addi	x8,x28,492 # 800081ec <_end+0xffffd9dc>
80004378:	95cff06f          	jal	x0,800034d4 <_vfiprintf_r+0x218>
8000437c:	200b7793          	andi	x15,x22,512
80004380:	10078863          	beq	x15,x0,80004490 <_vfiprintf_r+0x11d4>
80004384:	01012783          	lw	x15,16(x2)
80004388:	00000c93          	addi	x25,x0,0
8000438c:	00d12823          	sw	x13,16(x2)
80004390:	0007cd03          	lbu	x26,0(x15)
80004394:	ea1ff06f          	jal	x0,80004234 <_vfiprintf_r+0xf78>
80004398:	200b7793          	andi	x15,x22,512
8000439c:	0c078e63          	beq	x15,x0,80004478 <_vfiprintf_r+0x11bc>
800043a0:	01012783          	lw	x15,16(x2)
800043a4:	00e12823          	sw	x14,16(x2)
800043a8:	00078d03          	lb	x26,0(x15)
800043ac:	41fd5c93          	srai	x25,x26,0x1f
800043b0:	000c8713          	addi	x14,x25,0
800043b4:	b4cff06f          	jal	x0,80003700 <_vfiprintf_r+0x444>
800043b8:	200df793          	andi	x15,x27,512
800043bc:	0a078263          	beq	x15,x0,80004460 <_vfiprintf_r+0x11a4>
800043c0:	01012783          	lw	x15,16(x2)
800043c4:	00000c93          	addi	x25,x0,0
800043c8:	00e12823          	sw	x14,16(x2)
800043cc:	0007cd03          	lbu	x26,0(x15)
800043d0:	00100713          	addi	x14,x0,1
800043d4:	c28ff06f          	jal	x0,800037fc <_vfiprintf_r+0x540>
800043d8:	200b7793          	andi	x15,x22,512
800043dc:	06078863          	beq	x15,x0,8000444c <_vfiprintf_r+0x1190>
800043e0:	01012783          	lw	x15,16(x2)
800043e4:	00000c93          	addi	x25,x0,0
800043e8:	00e12823          	sw	x14,16(x2)
800043ec:	0007cd03          	lbu	x26,0(x15)
800043f0:	c04ff06f          	jal	x0,800037f4 <_vfiprintf_r+0x538>
800043f4:	00068593          	addi	x11,x13,0
800043f8:	8e9ff06f          	jal	x0,80003ce0 <_vfiprintf_r+0xa24>
800043fc:	00900793          	addi	x15,x0,9
80004400:	cd37e2e3          	bltu	x15,x19,800040c4 <_vfiprintf_r+0xe08>
80004404:	d0dff06f          	jal	x0,80004110 <_vfiprintf_r+0xe54>
80004408:	05410693          	addi	x13,x2,84
8000440c:	00100613          	addi	x12,x0,1
80004410:	00000713          	addi	x14,x0,0
80004414:	00048b93          	addi	x23,x9,0
80004418:	994ff06f          	jal	x0,800035ac <_vfiprintf_r+0x2f0>
8000441c:	00600d13          	addi	x26,x0,6
80004420:	f49ff06f          	jal	x0,80004368 <_vfiprintf_r+0x10ac>
80004424:	03b10793          	addi	x15,x2,59
80004428:	04f12623          	sw	x15,76(x2)
8000442c:	00100793          	addi	x15,x0,1
80004430:	04f12823          	sw	x15,80(x2)
80004434:	05410693          	addi	x13,x2,84
80004438:	00100613          	addi	x12,x0,1
8000443c:	8fcff06f          	jal	x0,80003538 <_vfiprintf_r+0x27c>
80004440:	00c12783          	lw	x15,12(x2)
80004444:	00f71023          	sh	x15,0(x14)
80004448:	f75fe06f          	jal	x0,800033bc <_vfiprintf_r+0x100>
8000444c:	01012783          	lw	x15,16(x2)
80004450:	00000c93          	addi	x25,x0,0
80004454:	00e12823          	sw	x14,16(x2)
80004458:	0007ad03          	lw	x26,0(x15)
8000445c:	b98ff06f          	jal	x0,800037f4 <_vfiprintf_r+0x538>
80004460:	01012783          	lw	x15,16(x2)
80004464:	00000c93          	addi	x25,x0,0
80004468:	00e12823          	sw	x14,16(x2)
8000446c:	0007ad03          	lw	x26,0(x15)
80004470:	00100713          	addi	x14,x0,1
80004474:	b88ff06f          	jal	x0,800037fc <_vfiprintf_r+0x540>
80004478:	01012783          	lw	x15,16(x2)
8000447c:	00e12823          	sw	x14,16(x2)
80004480:	0007ad03          	lw	x26,0(x15)
80004484:	41fd5c93          	srai	x25,x26,0x1f
80004488:	000c8713          	addi	x14,x25,0
8000448c:	a74ff06f          	jal	x0,80003700 <_vfiprintf_r+0x444>
80004490:	01012783          	lw	x15,16(x2)
80004494:	00000c93          	addi	x25,x0,0
80004498:	00d12823          	sw	x13,16(x2)
8000449c:	0007ad03          	lw	x26,0(x15)
800044a0:	d95ff06f          	jal	x0,80004234 <_vfiprintf_r+0xf78>
800044a4:	04010613          	addi	x12,x2,64
800044a8:	00098593          	addi	x11,x19,0
800044ac:	000a0513          	addi	x10,x20,0
800044b0:	d19fe0ef          	jal	x1,800031c8 <__sprint_r.part.0>
800044b4:	984ff06f          	jal	x0,80003638 <_vfiprintf_r+0x37c>
800044b8:	000a8d13          	addi	x26,x21,0
800044bc:	01b12823          	sw	x27,16(x2)
800044c0:	00000a93          	addi	x21,x0,0
800044c4:	a78ff06f          	jal	x0,8000373c <_vfiprintf_r+0x480>
800044c8:	00068593          	addi	x11,x13,0
800044cc:	9c1ff06f          	jal	x0,80003e8c <_vfiprintf_r+0xbd0>
800044d0:	00160593          	addi	x11,x12,1
800044d4:	a95ff06f          	jal	x0,80003f68 <_vfiprintf_r+0xcac>
800044d8:	000b0d93          	addi	x27,x22,0
800044dc:	a4cff06f          	jal	x0,80003728 <_vfiprintf_r+0x46c>
800044e0:	fff00793          	addi	x15,x0,-1
800044e4:	00f12623          	sw	x15,12(x2)
800044e8:	95cff06f          	jal	x0,80003644 <_vfiprintf_r+0x388>
800044ec:	00068513          	addi	x10,x13,0
800044f0:	00060593          	addi	x11,x12,0
800044f4:	f20ff06f          	jal	x0,80003c14 <_vfiprintf_r+0x958>
800044f8:	01012783          	lw	x15,16(x2)
800044fc:	0007aa83          	lw	x21,0(x15)
80004500:	00478793          	addi	x15,x15,4
80004504:	000ad463          	bge	x21,x0,8000450c <_vfiprintf_r+0x1250>
80004508:	fff00a93          	addi	x21,x0,-1
8000450c:	001c4703          	lbu	x14,1(x24)
80004510:	00f12823          	sw	x15,16(x2)
80004514:	00068c13          	addi	x24,x13,0
80004518:	f4dfe06f          	jal	x0,80003464 <_vfiprintf_r+0x1a8>

Disassembly of section .text.__sbprintf:

8000451c <__sbprintf>:
8000451c:	00c5d783          	lhu	x15,12(x11)
80004520:	0645ae03          	lw	x28,100(x11)
80004524:	00e5d303          	lhu	x6,14(x11)
80004528:	01c5a883          	lw	x17,28(x11)
8000452c:	0245a803          	lw	x16,36(x11)
80004530:	b8010113          	addi	x2,x2,-1152
80004534:	ffd7f793          	andi	x15,x15,-3
80004538:	40000713          	addi	x14,x0,1024
8000453c:	46812c23          	sw	x8,1144(x2)
80004540:	00f11a23          	sh	x15,20(x2)
80004544:	00058413          	addi	x8,x11,0
80004548:	07010793          	addi	x15,x2,112
8000454c:	00810593          	addi	x11,x2,8
80004550:	46912a23          	sw	x9,1140(x2)
80004554:	47212823          	sw	x18,1136(x2)
80004558:	46112e23          	sw	x1,1148(x2)
8000455c:	00050913          	addi	x18,x10,0
80004560:	07c12623          	sw	x28,108(x2)
80004564:	00611b23          	sh	x6,22(x2)
80004568:	03112223          	sw	x17,36(x2)
8000456c:	03012623          	sw	x16,44(x2)
80004570:	00f12423          	sw	x15,8(x2)
80004574:	00f12c23          	sw	x15,24(x2)
80004578:	00e12823          	sw	x14,16(x2)
8000457c:	00e12e23          	sw	x14,28(x2)
80004580:	02012023          	sw	x0,32(x2)
80004584:	d39fe0ef          	jal	x1,800032bc <_vfiprintf_r>
80004588:	00050493          	addi	x9,x10,0
8000458c:	02055c63          	bge	x10,x0,800045c4 <__sbprintf+0xa8>
80004590:	01415783          	lhu	x15,20(x2)
80004594:	0407f793          	andi	x15,x15,64
80004598:	00078863          	beq	x15,x0,800045a8 <__sbprintf+0x8c>
8000459c:	00c45783          	lhu	x15,12(x8)
800045a0:	0407e793          	ori	x15,x15,64
800045a4:	00f41623          	sh	x15,12(x8)
800045a8:	47c12083          	lw	x1,1148(x2)
800045ac:	47812403          	lw	x8,1144(x2)
800045b0:	47012903          	lw	x18,1136(x2)
800045b4:	00048513          	addi	x10,x9,0
800045b8:	47412483          	lw	x9,1140(x2)
800045bc:	48010113          	addi	x2,x2,1152
800045c0:	00008067          	jalr	x0,0(x1)
800045c4:	00810593          	addi	x11,x2,8
800045c8:	00090513          	addi	x10,x18,0
800045cc:	3f8000ef          	jal	x1,800049c4 <_fflush_r>
800045d0:	fc0500e3          	beq	x10,x0,80004590 <__sbprintf+0x74>
800045d4:	fff00493          	addi	x9,x0,-1
800045d8:	fb9ff06f          	jal	x0,80004590 <__sbprintf+0x74>

Disassembly of section .text.__swsetup_r:

800045dc <__swsetup_r>:
800045dc:	800087b7          	lui	x15,0x80008
800045e0:	aa07a783          	lw	x15,-1376(x15) # 80007aa0 <_end+0xffffd290>
800045e4:	ff010113          	addi	x2,x2,-16
800045e8:	00812423          	sw	x8,8(x2)
800045ec:	00912223          	sw	x9,4(x2)
800045f0:	00112623          	sw	x1,12(x2)
800045f4:	00050493          	addi	x9,x10,0
800045f8:	00058413          	addi	x8,x11,0
800045fc:	00078663          	beq	x15,x0,80004608 <__swsetup_r+0x2c>
80004600:	0387a703          	lw	x14,56(x15)
80004604:	08070463          	beq	x14,x0,8000468c <__swsetup_r+0xb0>
80004608:	00c41703          	lh	x14,12(x8)
8000460c:	01071793          	slli	x15,x14,0x10
80004610:	00877693          	andi	x13,x14,8
80004614:	0107d793          	srli	x15,x15,0x10
80004618:	08068863          	beq	x13,x0,800046a8 <__swsetup_r+0xcc>
8000461c:	01042683          	lw	x13,16(x8)
80004620:	0a068863          	beq	x13,x0,800046d0 <__swsetup_r+0xf4>
80004624:	0017f613          	andi	x12,x15,1
80004628:	02060863          	beq	x12,x0,80004658 <__swsetup_r+0x7c>
8000462c:	01442603          	lw	x12,20(x8)
80004630:	00042423          	sw	x0,8(x8)
80004634:	00000513          	addi	x10,x0,0
80004638:	40c00633          	sub	x12,x0,x12
8000463c:	00c42c23          	sw	x12,24(x8)
80004640:	02068a63          	beq	x13,x0,80004674 <__swsetup_r+0x98>
80004644:	00c12083          	lw	x1,12(x2)
80004648:	00812403          	lw	x8,8(x2)
8000464c:	00412483          	lw	x9,4(x2)
80004650:	01010113          	addi	x2,x2,16
80004654:	00008067          	jalr	x0,0(x1)
80004658:	0027f613          	andi	x12,x15,2
8000465c:	00000593          	addi	x11,x0,0
80004660:	00061463          	bne	x12,x0,80004668 <__swsetup_r+0x8c>
80004664:	01442583          	lw	x11,20(x8)
80004668:	00b42423          	sw	x11,8(x8)
8000466c:	00000513          	addi	x10,x0,0
80004670:	fc069ae3          	bne	x13,x0,80004644 <__swsetup_r+0x68>
80004674:	0807f793          	andi	x15,x15,128
80004678:	fc0786e3          	beq	x15,x0,80004644 <__swsetup_r+0x68>
8000467c:	04076713          	ori	x14,x14,64
80004680:	00e41623          	sh	x14,12(x8)
80004684:	fff00513          	addi	x10,x0,-1
80004688:	fbdff06f          	jal	x0,80004644 <__swsetup_r+0x68>
8000468c:	00078513          	addi	x10,x15,0
80004690:	524000ef          	jal	x1,80004bb4 <__sinit>
80004694:	00c41703          	lh	x14,12(x8)
80004698:	01071793          	slli	x15,x14,0x10
8000469c:	00877693          	andi	x13,x14,8
800046a0:	0107d793          	srli	x15,x15,0x10
800046a4:	f6069ce3          	bne	x13,x0,8000461c <__swsetup_r+0x40>
800046a8:	0107f693          	andi	x13,x15,16
800046ac:	08068263          	beq	x13,x0,80004730 <__swsetup_r+0x154>
800046b0:	0047f793          	andi	x15,x15,4
800046b4:	04079463          	bne	x15,x0,800046fc <__swsetup_r+0x120>
800046b8:	01042683          	lw	x13,16(x8)
800046bc:	00876713          	ori	x14,x14,8
800046c0:	01071793          	slli	x15,x14,0x10
800046c4:	00e41623          	sh	x14,12(x8)
800046c8:	0107d793          	srli	x15,x15,0x10
800046cc:	f4069ce3          	bne	x13,x0,80004624 <__swsetup_r+0x48>
800046d0:	2807f613          	andi	x12,x15,640
800046d4:	20000593          	addi	x11,x0,512
800046d8:	f4b606e3          	beq	x12,x11,80004624 <__swsetup_r+0x48>
800046dc:	00040593          	addi	x11,x8,0
800046e0:	00048513          	addi	x10,x9,0
800046e4:	004010ef          	jal	x1,800056e8 <__smakebuf_r>
800046e8:	00c41703          	lh	x14,12(x8)
800046ec:	01042683          	lw	x13,16(x8)
800046f0:	01071793          	slli	x15,x14,0x10
800046f4:	0107d793          	srli	x15,x15,0x10
800046f8:	f2dff06f          	jal	x0,80004624 <__swsetup_r+0x48>
800046fc:	03042583          	lw	x11,48(x8)
80004700:	00058e63          	beq	x11,x0,8000471c <__swsetup_r+0x140>
80004704:	04040793          	addi	x15,x8,64
80004708:	00f58863          	beq	x11,x15,80004718 <__swsetup_r+0x13c>
8000470c:	00048513          	addi	x10,x9,0
80004710:	754000ef          	jal	x1,80004e64 <_free_r>
80004714:	00c41703          	lh	x14,12(x8)
80004718:	02042823          	sw	x0,48(x8)
8000471c:	01042683          	lw	x13,16(x8)
80004720:	fdb77713          	andi	x14,x14,-37
80004724:	00042223          	sw	x0,4(x8)
80004728:	00d42023          	sw	x13,0(x8)
8000472c:	f91ff06f          	jal	x0,800046bc <__swsetup_r+0xe0>
80004730:	00900793          	addi	x15,x0,9
80004734:	00f4a023          	sw	x15,0(x9)
80004738:	04076713          	ori	x14,x14,64
8000473c:	00e41623          	sh	x14,12(x8)
80004740:	fff00513          	addi	x10,x0,-1
80004744:	f01ff06f          	jal	x0,80004644 <__swsetup_r+0x68>

Disassembly of section .text.abort:

80004748 <abort>:
80004748:	ff010113          	addi	x2,x2,-16
8000474c:	00600513          	addi	x10,x0,6
80004750:	00112623          	sw	x1,12(x2)
80004754:	248020ef          	jal	x1,8000699c <raise>
80004758:	00100513          	addi	x10,x0,1
8000475c:	421020ef          	jal	x1,8000737c <_exit>

Disassembly of section .text.__sflush_r:

80004760 <__sflush_r>:
80004760:	00c59783          	lh	x15,12(x11)
80004764:	fe010113          	addi	x2,x2,-32
80004768:	00812c23          	sw	x8,24(x2)
8000476c:	01312623          	sw	x19,12(x2)
80004770:	00112e23          	sw	x1,28(x2)
80004774:	00912a23          	sw	x9,20(x2)
80004778:	01212823          	sw	x18,16(x2)
8000477c:	0087f693          	andi	x13,x15,8
80004780:	00058413          	addi	x8,x11,0
80004784:	00050993          	addi	x19,x10,0
80004788:	10069c63          	bne	x13,x0,800048a0 <__sflush_r+0x140>
8000478c:	00001737          	lui	x14,0x1
80004790:	80070713          	addi	x14,x14,-2048 # 800 <SYSCALL_ADDR-0x200800>
80004794:	0045a683          	lw	x13,4(x11)
80004798:	00e7e7b3          	or	x15,x15,x14
8000479c:	00f59623          	sh	x15,12(x11)
800047a0:	18d05663          	bge	x0,x13,8000492c <__sflush_r+0x1cc>
800047a4:	02842703          	lw	x14,40(x8)
800047a8:	0c070c63          	beq	x14,x0,80004880 <__sflush_r+0x120>
800047ac:	01079793          	slli	x15,x15,0x10
800047b0:	0107d793          	srli	x15,x15,0x10
800047b4:	000016b7          	lui	x13,0x1
800047b8:	0009a483          	lw	x9,0(x19)
800047bc:	00d7f6b3          	and	x13,x15,x13
800047c0:	0009a023          	sw	x0,0(x19)
800047c4:	01c42583          	lw	x11,28(x8)
800047c8:	16069863          	bne	x13,x0,80004938 <__sflush_r+0x1d8>
800047cc:	00100693          	addi	x13,x0,1
800047d0:	00000613          	addi	x12,x0,0
800047d4:	00098513          	addi	x10,x19,0
800047d8:	000700e7          	jalr	x1,0(x14)
800047dc:	fff00793          	addi	x15,x0,-1
800047e0:	18f50e63          	beq	x10,x15,8000497c <__sflush_r+0x21c>
800047e4:	00c45783          	lhu	x15,12(x8)
800047e8:	02842703          	lw	x14,40(x8)
800047ec:	01c42583          	lw	x11,28(x8)
800047f0:	0047f793          	andi	x15,x15,4
800047f4:	00078e63          	beq	x15,x0,80004810 <__sflush_r+0xb0>
800047f8:	00442683          	lw	x13,4(x8)
800047fc:	03042783          	lw	x15,48(x8)
80004800:	40d50533          	sub	x10,x10,x13
80004804:	00078663          	beq	x15,x0,80004810 <__sflush_r+0xb0>
80004808:	03c42783          	lw	x15,60(x8)
8000480c:	40f50533          	sub	x10,x10,x15
80004810:	00050613          	addi	x12,x10,0
80004814:	00000693          	addi	x13,x0,0
80004818:	00098513          	addi	x10,x19,0
8000481c:	000700e7          	jalr	x1,0(x14)
80004820:	fff00793          	addi	x15,x0,-1
80004824:	10f51e63          	bne	x10,x15,80004940 <__sflush_r+0x1e0>
80004828:	0009a703          	lw	x14,0(x19)
8000482c:	00c41783          	lh	x15,12(x8)
80004830:	16070a63          	beq	x14,x0,800049a4 <__sflush_r+0x244>
80004834:	01d00693          	addi	x13,x0,29
80004838:	00d70663          	beq	x14,x13,80004844 <__sflush_r+0xe4>
8000483c:	01600693          	addi	x13,x0,22
80004840:	0cd71463          	bne	x14,x13,80004908 <__sflush_r+0x1a8>
80004844:	01042683          	lw	x13,16(x8)
80004848:	fffff737          	lui	x14,0xfffff
8000484c:	7ff70713          	addi	x14,x14,2047 # fffff7ff <_end+0x7fff4fef>
80004850:	00e7f7b3          	and	x15,x15,x14
80004854:	00f41623          	sh	x15,12(x8)
80004858:	00042223          	sw	x0,4(x8)
8000485c:	00d42023          	sw	x13,0(x8)
80004860:	03042583          	lw	x11,48(x8)
80004864:	0099a023          	sw	x9,0(x19)
80004868:	00058c63          	beq	x11,x0,80004880 <__sflush_r+0x120>
8000486c:	04040793          	addi	x15,x8,64
80004870:	00f58663          	beq	x11,x15,8000487c <__sflush_r+0x11c>
80004874:	00098513          	addi	x10,x19,0
80004878:	5ec000ef          	jal	x1,80004e64 <_free_r>
8000487c:	02042823          	sw	x0,48(x8)
80004880:	00000513          	addi	x10,x0,0
80004884:	01c12083          	lw	x1,28(x2)
80004888:	01812403          	lw	x8,24(x2)
8000488c:	01412483          	lw	x9,20(x2)
80004890:	01012903          	lw	x18,16(x2)
80004894:	00c12983          	lw	x19,12(x2)
80004898:	02010113          	addi	x2,x2,32
8000489c:	00008067          	jalr	x0,0(x1)
800048a0:	0105a903          	lw	x18,16(x11)
800048a4:	fc090ee3          	beq	x18,x0,80004880 <__sflush_r+0x120>
800048a8:	0005a483          	lw	x9,0(x11)
800048ac:	01079713          	slli	x14,x15,0x10
800048b0:	01075713          	srli	x14,x14,0x10
800048b4:	00377713          	andi	x14,x14,3
800048b8:	0125a023          	sw	x18,0(x11)
800048bc:	412484b3          	sub	x9,x9,x18
800048c0:	00000793          	addi	x15,x0,0
800048c4:	00071463          	bne	x14,x0,800048cc <__sflush_r+0x16c>
800048c8:	0145a783          	lw	x15,20(x11)
800048cc:	00f42423          	sw	x15,8(x8)
800048d0:	00904863          	blt	x0,x9,800048e0 <__sflush_r+0x180>
800048d4:	fadff06f          	jal	x0,80004880 <__sflush_r+0x120>
800048d8:	00a90933          	add	x18,x18,x10
800048dc:	fa9052e3          	bge	x0,x9,80004880 <__sflush_r+0x120>
800048e0:	02442783          	lw	x15,36(x8)
800048e4:	01c42583          	lw	x11,28(x8)
800048e8:	00048693          	addi	x13,x9,0
800048ec:	00090613          	addi	x12,x18,0
800048f0:	00098513          	addi	x10,x19,0
800048f4:	000780e7          	jalr	x1,0(x15)
800048f8:	40a484b3          	sub	x9,x9,x10
800048fc:	fca04ee3          	blt	x0,x10,800048d8 <__sflush_r+0x178>
80004900:	00c45783          	lhu	x15,12(x8)
80004904:	fff00513          	addi	x10,x0,-1
80004908:	0407e793          	ori	x15,x15,64
8000490c:	01c12083          	lw	x1,28(x2)
80004910:	00f41623          	sh	x15,12(x8)
80004914:	01812403          	lw	x8,24(x2)
80004918:	01412483          	lw	x9,20(x2)
8000491c:	01012903          	lw	x18,16(x2)
80004920:	00c12983          	lw	x19,12(x2)
80004924:	02010113          	addi	x2,x2,32
80004928:	00008067          	jalr	x0,0(x1)
8000492c:	03c5a703          	lw	x14,60(x11)
80004930:	e6e04ae3          	blt	x0,x14,800047a4 <__sflush_r+0x44>
80004934:	f4dff06f          	jal	x0,80004880 <__sflush_r+0x120>
80004938:	05042503          	lw	x10,80(x8)
8000493c:	eb5ff06f          	jal	x0,800047f0 <__sflush_r+0x90>
80004940:	00c45783          	lhu	x15,12(x8)
80004944:	fffff737          	lui	x14,0xfffff
80004948:	7ff70713          	addi	x14,x14,2047 # fffff7ff <_end+0x7fff4fef>
8000494c:	00e7f7b3          	and	x15,x15,x14
80004950:	01042683          	lw	x13,16(x8)
80004954:	01079793          	slli	x15,x15,0x10
80004958:	4107d793          	srai	x15,x15,0x10
8000495c:	00c7d713          	srli	x14,x15,0xc
80004960:	00f41623          	sh	x15,12(x8)
80004964:	00042223          	sw	x0,4(x8)
80004968:	00d42023          	sw	x13,0(x8)
8000496c:	00177793          	andi	x15,x14,1
80004970:	ee0788e3          	beq	x15,x0,80004860 <__sflush_r+0x100>
80004974:	04a42823          	sw	x10,80(x8)
80004978:	ee9ff06f          	jal	x0,80004860 <__sflush_r+0x100>
8000497c:	0009a783          	lw	x15,0(x19)
80004980:	e60782e3          	beq	x15,x0,800047e4 <__sflush_r+0x84>
80004984:	01d00713          	addi	x14,x0,29
80004988:	02e78863          	beq	x15,x14,800049b8 <__sflush_r+0x258>
8000498c:	01600713          	addi	x14,x0,22
80004990:	02e78463          	beq	x15,x14,800049b8 <__sflush_r+0x258>
80004994:	00c45783          	lhu	x15,12(x8)
80004998:	0407e793          	ori	x15,x15,64
8000499c:	00f41623          	sh	x15,12(x8)
800049a0:	ee5ff06f          	jal	x0,80004884 <__sflush_r+0x124>
800049a4:	fffff737          	lui	x14,0xfffff
800049a8:	7ff70713          	addi	x14,x14,2047 # fffff7ff <_end+0x7fff4fef>
800049ac:	01042683          	lw	x13,16(x8)
800049b0:	00e7f7b3          	and	x15,x15,x14
800049b4:	fa9ff06f          	jal	x0,8000495c <__sflush_r+0x1fc>
800049b8:	0099a023          	sw	x9,0(x19)
800049bc:	00000513          	addi	x10,x0,0
800049c0:	ec5ff06f          	jal	x0,80004884 <__sflush_r+0x124>

Disassembly of section .text._fflush_r:

800049c4 <_fflush_r>:
800049c4:	fe010113          	addi	x2,x2,-32
800049c8:	00812c23          	sw	x8,24(x2)
800049cc:	00112e23          	sw	x1,28(x2)
800049d0:	00050413          	addi	x8,x10,0
800049d4:	00050663          	beq	x10,x0,800049e0 <_fflush_r+0x1c>
800049d8:	03852783          	lw	x15,56(x10)
800049dc:	02078063          	beq	x15,x0,800049fc <_fflush_r+0x38>
800049e0:	00c59783          	lh	x15,12(x11)
800049e4:	02079663          	bne	x15,x0,80004a10 <_fflush_r+0x4c>
800049e8:	01c12083          	lw	x1,28(x2)
800049ec:	01812403          	lw	x8,24(x2)
800049f0:	00000513          	addi	x10,x0,0
800049f4:	02010113          	addi	x2,x2,32
800049f8:	00008067          	jalr	x0,0(x1)
800049fc:	00b12623          	sw	x11,12(x2)
80004a00:	1b4000ef          	jal	x1,80004bb4 <__sinit>
80004a04:	00c12583          	lw	x11,12(x2)
80004a08:	00c59783          	lh	x15,12(x11)
80004a0c:	fc078ee3          	beq	x15,x0,800049e8 <_fflush_r+0x24>
80004a10:	00040513          	addi	x10,x8,0
80004a14:	01812403          	lw	x8,24(x2)
80004a18:	01c12083          	lw	x1,28(x2)
80004a1c:	02010113          	addi	x2,x2,32
80004a20:	d41ff06f          	jal	x0,80004760 <__sflush_r>

Disassembly of section .text._cleanup_r:

80004a24 <_cleanup_r>:
80004a24:	800075b7          	lui	x11,0x80007
80004a28:	12858593          	addi	x11,x11,296 # 80007128 <_end+0xffffc918>
80004a2c:	3f10006f          	jal	x0,8000561c <_fwalk_reent>

Disassembly of section .text.__sinit.part.0:

80004a30 <__sinit.part.0>:
80004a30:	fe010113          	addi	x2,x2,-32
80004a34:	800057b7          	lui	x15,0x80005
80004a38:	00112e23          	sw	x1,28(x2)
80004a3c:	00812c23          	sw	x8,24(x2)
80004a40:	00912a23          	sw	x9,20(x2)
80004a44:	01212823          	sw	x18,16(x2)
80004a48:	01312623          	sw	x19,12(x2)
80004a4c:	01412423          	sw	x20,8(x2)
80004a50:	01512223          	sw	x21,4(x2)
80004a54:	01612023          	sw	x22,0(x2)
80004a58:	00452403          	lw	x8,4(x10)
80004a5c:	a2478793          	addi	x15,x15,-1500 # 80004a24 <_end+0xffffa214>
80004a60:	02f52e23          	sw	x15,60(x10)
80004a64:	2ec50713          	addi	x14,x10,748
80004a68:	00300793          	addi	x15,x0,3
80004a6c:	2ee52423          	sw	x14,744(x10)
80004a70:	2ef52223          	sw	x15,740(x10)
80004a74:	2e052023          	sw	x0,736(x10)
80004a78:	00400793          	addi	x15,x0,4
80004a7c:	00050913          	addi	x18,x10,0
80004a80:	00f42623          	sw	x15,12(x8)
80004a84:	00800613          	addi	x12,x0,8
80004a88:	00000593          	addi	x11,x0,0
80004a8c:	06042223          	sw	x0,100(x8)
80004a90:	00042023          	sw	x0,0(x8)
80004a94:	00042223          	sw	x0,4(x8)
80004a98:	00042423          	sw	x0,8(x8)
80004a9c:	00042823          	sw	x0,16(x8)
80004aa0:	00042a23          	sw	x0,20(x8)
80004aa4:	00042c23          	sw	x0,24(x8)
80004aa8:	05c40513          	addi	x10,x8,92
80004aac:	a91fd0ef          	jal	x1,8000253c <memset>
80004ab0:	80007b37          	lui	x22,0x80007
80004ab4:	00892483          	lw	x9,8(x18)
80004ab8:	80007ab7          	lui	x21,0x80007
80004abc:	80007a37          	lui	x20,0x80007
80004ac0:	800079b7          	lui	x19,0x80007
80004ac4:	ae4b0b13          	addi	x22,x22,-1308 # 80006ae4 <_end+0xffffc2d4>
80004ac8:	b40a8a93          	addi	x21,x21,-1216 # 80006b40 <_end+0xffffc330>
80004acc:	bc8a0a13          	addi	x20,x20,-1080 # 80006bc8 <_end+0xffffc3b8>
80004ad0:	c3098993          	addi	x19,x19,-976 # 80006c30 <_end+0xffffc420>
80004ad4:	000107b7          	lui	x15,0x10
80004ad8:	03642023          	sw	x22,32(x8)
80004adc:	03542223          	sw	x21,36(x8)
80004ae0:	03442423          	sw	x20,40(x8)
80004ae4:	03342623          	sw	x19,44(x8)
80004ae8:	00842e23          	sw	x8,28(x8)
80004aec:	00978793          	addi	x15,x15,9 # 10009 <SYSCALL_ADDR-0x1f0ff7>
80004af0:	00f4a623          	sw	x15,12(x9)
80004af4:	00800613          	addi	x12,x0,8
80004af8:	00000593          	addi	x11,x0,0
80004afc:	0604a223          	sw	x0,100(x9)
80004b00:	0004a023          	sw	x0,0(x9)
80004b04:	0004a223          	sw	x0,4(x9)
80004b08:	0004a423          	sw	x0,8(x9)
80004b0c:	0004a823          	sw	x0,16(x9)
80004b10:	0004aa23          	sw	x0,20(x9)
80004b14:	0004ac23          	sw	x0,24(x9)
80004b18:	05c48513          	addi	x10,x9,92
80004b1c:	a21fd0ef          	jal	x1,8000253c <memset>
80004b20:	00c92403          	lw	x8,12(x18)
80004b24:	000207b7          	lui	x15,0x20
80004b28:	0364a023          	sw	x22,32(x9)
80004b2c:	0354a223          	sw	x21,36(x9)
80004b30:	0344a423          	sw	x20,40(x9)
80004b34:	0334a623          	sw	x19,44(x9)
80004b38:	0094ae23          	sw	x9,28(x9)
80004b3c:	01278793          	addi	x15,x15,18 # 20012 <SYSCALL_ADDR-0x1e0fee>
80004b40:	00f42623          	sw	x15,12(x8)
80004b44:	06042223          	sw	x0,100(x8)
80004b48:	00042023          	sw	x0,0(x8)
80004b4c:	00042223          	sw	x0,4(x8)
80004b50:	00042423          	sw	x0,8(x8)
80004b54:	00042823          	sw	x0,16(x8)
80004b58:	00042a23          	sw	x0,20(x8)
80004b5c:	00042c23          	sw	x0,24(x8)
80004b60:	05c40513          	addi	x10,x8,92
80004b64:	00800613          	addi	x12,x0,8
80004b68:	00000593          	addi	x11,x0,0
80004b6c:	9d1fd0ef          	jal	x1,8000253c <memset>
80004b70:	01c12083          	lw	x1,28(x2)
80004b74:	03642023          	sw	x22,32(x8)
80004b78:	03542223          	sw	x21,36(x8)
80004b7c:	03442423          	sw	x20,40(x8)
80004b80:	03342623          	sw	x19,44(x8)
80004b84:	00842e23          	sw	x8,28(x8)
80004b88:	01812403          	lw	x8,24(x2)
80004b8c:	00100793          	addi	x15,x0,1
80004b90:	02f92c23          	sw	x15,56(x18)
80004b94:	01412483          	lw	x9,20(x2)
80004b98:	01012903          	lw	x18,16(x2)
80004b9c:	00c12983          	lw	x19,12(x2)
80004ba0:	00812a03          	lw	x20,8(x2)
80004ba4:	00412a83          	lw	x21,4(x2)
80004ba8:	00012b03          	lw	x22,0(x2)
80004bac:	02010113          	addi	x2,x2,32
80004bb0:	00008067          	jalr	x0,0(x1)

Disassembly of section .text.__sinit:

80004bb4 <__sinit>:
80004bb4:	03852783          	lw	x15,56(x10)
80004bb8:	00078463          	beq	x15,x0,80004bc0 <__sinit+0xc>
80004bbc:	00008067          	jalr	x0,0(x1)
80004bc0:	e71ff06f          	jal	x0,80004a30 <__sinit.part.0>

Disassembly of section .text.__sfp_lock_acquire:

80004bc4 <__sfp_lock_acquire>:
80004bc4:	00008067          	jalr	x0,0(x1)

Disassembly of section .text.__sfp_lock_release:

80004bc8 <__sfp_lock_release>:
80004bc8:	00008067          	jalr	x0,0(x1)

Disassembly of section .text.__fputwc:

80004bcc <__fputwc>:
80004bcc:	fd010113          	addi	x2,x2,-48
80004bd0:	02812423          	sw	x8,40(x2)
80004bd4:	01312e23          	sw	x19,28(x2)
80004bd8:	01612823          	sw	x22,16(x2)
80004bdc:	02112623          	sw	x1,44(x2)
80004be0:	02912223          	sw	x9,36(x2)
80004be4:	03212023          	sw	x18,32(x2)
80004be8:	01412c23          	sw	x20,24(x2)
80004bec:	01512a23          	sw	x21,20(x2)
80004bf0:	00050b13          	addi	x22,x10,0
80004bf4:	00058993          	addi	x19,x11,0
80004bf8:	00060413          	addi	x8,x12,0
80004bfc:	2e1000ef          	jal	x1,800056dc <__locale_mb_cur_max>
80004c00:	00100793          	addi	x15,x0,1
80004c04:	02f51063          	bne	x10,x15,80004c24 <__fputwc+0x58>
80004c08:	fff98793          	addi	x15,x19,-1
80004c0c:	0fe00713          	addi	x14,x0,254
80004c10:	00f76a63          	bltu	x14,x15,80004c24 <__fputwc+0x58>
80004c14:	0ff9f713          	andi	x14,x19,255
80004c18:	00e10623          	sb	x14,12(x2)
80004c1c:	00100913          	addi	x18,x0,1
80004c20:	02c0006f          	jal	x0,80004c4c <__fputwc+0x80>
80004c24:	05c40693          	addi	x13,x8,92
80004c28:	00098613          	addi	x12,x19,0
80004c2c:	00c10593          	addi	x11,x2,12
80004c30:	000b0513          	addi	x10,x22,0
80004c34:	2c0020ef          	jal	x1,80006ef4 <_wcrtomb_r>
80004c38:	fff00793          	addi	x15,x0,-1
80004c3c:	00050913          	addi	x18,x10,0
80004c40:	0af50463          	beq	x10,x15,80004ce8 <__fputwc+0x11c>
80004c44:	08050e63          	beq	x10,x0,80004ce0 <__fputwc+0x114>
80004c48:	00c14703          	lbu	x14,12(x2)
80004c4c:	00000493          	addi	x9,x0,0
80004c50:	fff00a13          	addi	x20,x0,-1
80004c54:	00a00a93          	addi	x21,x0,10
80004c58:	0280006f          	jal	x0,80004c80 <__fputwc+0xb4>
80004c5c:	00042783          	lw	x15,0(x8)
80004c60:	00178693          	addi	x13,x15,1
80004c64:	00d42023          	sw	x13,0(x8)
80004c68:	00e78023          	sb	x14,0(x15)
80004c6c:	00148493          	addi	x9,x9,1
80004c70:	00c10793          	addi	x15,x2,12
80004c74:	009787b3          	add	x15,x15,x9
80004c78:	0724f463          	bgeu	x9,x18,80004ce0 <__fputwc+0x114>
80004c7c:	0007c703          	lbu	x14,0(x15)
80004c80:	00842783          	lw	x15,8(x8)
80004c84:	fff78793          	addi	x15,x15,-1
80004c88:	00f42423          	sw	x15,8(x8)
80004c8c:	fc07d8e3          	bge	x15,x0,80004c5c <__fputwc+0x90>
80004c90:	01842683          	lw	x13,24(x8)
80004c94:	00070593          	addi	x11,x14,0
80004c98:	00040613          	addi	x12,x8,0
80004c9c:	000b0513          	addi	x10,x22,0
80004ca0:	00d7c463          	blt	x15,x13,80004ca8 <__fputwc+0xdc>
80004ca4:	fb571ce3          	bne	x14,x21,80004c5c <__fputwc+0x90>
80004ca8:	0c4020ef          	jal	x1,80006d6c <__swbuf_r>
80004cac:	fd4510e3          	bne	x10,x20,80004c6c <__fputwc+0xa0>
80004cb0:	fff00913          	addi	x18,x0,-1
80004cb4:	02c12083          	lw	x1,44(x2)
80004cb8:	02812403          	lw	x8,40(x2)
80004cbc:	02412483          	lw	x9,36(x2)
80004cc0:	01c12983          	lw	x19,28(x2)
80004cc4:	01812a03          	lw	x20,24(x2)
80004cc8:	01412a83          	lw	x21,20(x2)
80004ccc:	01012b03          	lw	x22,16(x2)
80004cd0:	00090513          	addi	x10,x18,0
80004cd4:	02012903          	lw	x18,32(x2)
80004cd8:	03010113          	addi	x2,x2,48
80004cdc:	00008067          	jalr	x0,0(x1)
80004ce0:	00098913          	addi	x18,x19,0
80004ce4:	fd1ff06f          	jal	x0,80004cb4 <__fputwc+0xe8>
80004ce8:	00c45783          	lhu	x15,12(x8)
80004cec:	0407e793          	ori	x15,x15,64
80004cf0:	00f41623          	sh	x15,12(x8)
80004cf4:	fc1ff06f          	jal	x0,80004cb4 <__fputwc+0xe8>

Disassembly of section .text._fputwc_r:

80004cf8 <_fputwc_r>:
80004cf8:	00c61783          	lh	x15,12(x12)
80004cfc:	01279713          	slli	x14,x15,0x12
80004d00:	02074063          	blt	x14,x0,80004d20 <_fputwc_r+0x28>
80004d04:	06462703          	lw	x14,100(x12)
80004d08:	000026b7          	lui	x13,0x2
80004d0c:	00d7e7b3          	or	x15,x15,x13
80004d10:	000026b7          	lui	x13,0x2
80004d14:	00d76733          	or	x14,x14,x13
80004d18:	00f61623          	sh	x15,12(x12)
80004d1c:	06e62223          	sw	x14,100(x12)
80004d20:	eadff06f          	jal	x0,80004bcc <__fputwc>

Disassembly of section .text._malloc_trim_r:

80004d24 <_malloc_trim_r>:
80004d24:	fe010113          	addi	x2,x2,-32
80004d28:	01312623          	sw	x19,12(x2)
80004d2c:	800089b7          	lui	x19,0x80008
80004d30:	00812c23          	sw	x8,24(x2)
80004d34:	00912a23          	sw	x9,20(x2)
80004d38:	01212823          	sw	x18,16(x2)
80004d3c:	01412423          	sw	x20,8(x2)
80004d40:	00112e23          	sw	x1,28(x2)
80004d44:	00058a13          	addi	x20,x11,0
80004d48:	00050913          	addi	x18,x10,0
80004d4c:	c1098993          	addi	x19,x19,-1008 # 80007c10 <_end+0xffffd400>
80004d50:	66c010ef          	jal	x1,800063bc <__malloc_lock>
80004d54:	0089a703          	lw	x14,8(x19)
80004d58:	000017b7          	lui	x15,0x1
80004d5c:	fef78413          	addi	x8,x15,-17 # fef <SYSCALL_ADDR-0x200011>
80004d60:	00472483          	lw	x9,4(x14)
80004d64:	41440433          	sub	x8,x8,x20
80004d68:	ffc4f493          	andi	x9,x9,-4
80004d6c:	00940433          	add	x8,x8,x9
80004d70:	00c45413          	srli	x8,x8,0xc
80004d74:	fff40413          	addi	x8,x8,-1
80004d78:	00c41413          	slli	x8,x8,0xc
80004d7c:	00f44e63          	blt	x8,x15,80004d98 <_malloc_trim_r+0x74>
80004d80:	00000593          	addi	x11,x0,0
80004d84:	00090513          	addi	x10,x18,0
80004d88:	3b5010ef          	jal	x1,8000693c <_sbrk_r>
80004d8c:	0089a783          	lw	x15,8(x19)
80004d90:	009787b3          	add	x15,x15,x9
80004d94:	02f50863          	beq	x10,x15,80004dc4 <_malloc_trim_r+0xa0>
80004d98:	00090513          	addi	x10,x18,0
80004d9c:	624010ef          	jal	x1,800063c0 <__malloc_unlock>
80004da0:	01c12083          	lw	x1,28(x2)
80004da4:	01812403          	lw	x8,24(x2)
80004da8:	01412483          	lw	x9,20(x2)
80004dac:	01012903          	lw	x18,16(x2)
80004db0:	00c12983          	lw	x19,12(x2)
80004db4:	00812a03          	lw	x20,8(x2)
80004db8:	00000513          	addi	x10,x0,0
80004dbc:	02010113          	addi	x2,x2,32
80004dc0:	00008067          	jalr	x0,0(x1)
80004dc4:	408005b3          	sub	x11,x0,x8
80004dc8:	00090513          	addi	x10,x18,0
80004dcc:	371010ef          	jal	x1,8000693c <_sbrk_r>
80004dd0:	fff00793          	addi	x15,x0,-1
80004dd4:	04f50a63          	beq	x10,x15,80004e28 <_malloc_trim_r+0x104>
80004dd8:	8000a7b7          	lui	x15,0x8000a
80004ddc:	7b878793          	addi	x15,x15,1976 # 8000a7b8 <_end+0xffffffa8>
80004de0:	0007a703          	lw	x14,0(x15)
80004de4:	0089a683          	lw	x13,8(x19)
80004de8:	408484b3          	sub	x9,x9,x8
80004dec:	0014e493          	ori	x9,x9,1
80004df0:	40870433          	sub	x8,x14,x8
80004df4:	00090513          	addi	x10,x18,0
80004df8:	0096a223          	sw	x9,4(x13) # 2004 <SYSCALL_ADDR-0x1feffc>
80004dfc:	0087a023          	sw	x8,0(x15)
80004e00:	5c0010ef          	jal	x1,800063c0 <__malloc_unlock>
80004e04:	01c12083          	lw	x1,28(x2)
80004e08:	01812403          	lw	x8,24(x2)
80004e0c:	01412483          	lw	x9,20(x2)
80004e10:	01012903          	lw	x18,16(x2)
80004e14:	00c12983          	lw	x19,12(x2)
80004e18:	00812a03          	lw	x20,8(x2)
80004e1c:	00100513          	addi	x10,x0,1
80004e20:	02010113          	addi	x2,x2,32
80004e24:	00008067          	jalr	x0,0(x1)
80004e28:	00000593          	addi	x11,x0,0
80004e2c:	00090513          	addi	x10,x18,0
80004e30:	30d010ef          	jal	x1,8000693c <_sbrk_r>
80004e34:	0089a703          	lw	x14,8(x19)
80004e38:	00f00693          	addi	x13,x0,15
80004e3c:	40e507b3          	sub	x15,x10,x14
80004e40:	f4f6dce3          	bge	x13,x15,80004d98 <_malloc_trim_r+0x74>
80004e44:	800086b7          	lui	x13,0x80008
80004e48:	0186a683          	lw	x13,24(x13) # 80008018 <_end+0xffffd808>
80004e4c:	0017e793          	ori	x15,x15,1
80004e50:	00f72223          	sw	x15,4(x14)
80004e54:	40d50533          	sub	x10,x10,x13
80004e58:	8000a6b7          	lui	x13,0x8000a
80004e5c:	7aa6ac23          	sw	x10,1976(x13) # 8000a7b8 <_end+0xffffffa8>
80004e60:	f39ff06f          	jal	x0,80004d98 <_malloc_trim_r+0x74>

Disassembly of section .text._free_r:

80004e64 <_free_r>:
80004e64:	12058a63          	beq	x11,x0,80004f98 <_free_r+0x134>
80004e68:	ff010113          	addi	x2,x2,-16
80004e6c:	00812423          	sw	x8,8(x2)
80004e70:	00912223          	sw	x9,4(x2)
80004e74:	00058413          	addi	x8,x11,0
80004e78:	00050493          	addi	x9,x10,0
80004e7c:	00112623          	sw	x1,12(x2)
80004e80:	53c010ef          	jal	x1,800063bc <__malloc_lock>
80004e84:	ffc42803          	lw	x16,-4(x8)
80004e88:	ff840713          	addi	x14,x8,-8
80004e8c:	800085b7          	lui	x11,0x80008
80004e90:	ffe87793          	andi	x15,x16,-2
80004e94:	00f70633          	add	x12,x14,x15
80004e98:	c1058593          	addi	x11,x11,-1008 # 80007c10 <_end+0xffffd400>
80004e9c:	00462683          	lw	x13,4(x12)
80004ea0:	0085a503          	lw	x10,8(x11)
80004ea4:	ffc6f693          	andi	x13,x13,-4
80004ea8:	1ac50a63          	beq	x10,x12,8000505c <_free_r+0x1f8>
80004eac:	00d62223          	sw	x13,4(x12)
80004eb0:	00187813          	andi	x16,x16,1
80004eb4:	00d60533          	add	x10,x12,x13
80004eb8:	0a081063          	bne	x16,x0,80004f58 <_free_r+0xf4>
80004ebc:	ff842303          	lw	x6,-8(x8)
80004ec0:	00452803          	lw	x16,4(x10)
80004ec4:	80008537          	lui	x10,0x80008
80004ec8:	40670733          	sub	x14,x14,x6
80004ecc:	00872883          	lw	x17,8(x14)
80004ed0:	c1850513          	addi	x10,x10,-1000 # 80007c18 <_end+0xffffd408>
80004ed4:	006787b3          	add	x15,x15,x6
80004ed8:	00187813          	andi	x16,x16,1
80004edc:	14a88063          	beq	x17,x10,8000501c <_free_r+0x1b8>
80004ee0:	00c72303          	lw	x6,12(x14)
80004ee4:	0068a623          	sw	x6,12(x17)
80004ee8:	01132423          	sw	x17,8(x6)
80004eec:	1e080463          	beq	x16,x0,800050d4 <_free_r+0x270>
80004ef0:	0017e693          	ori	x13,x15,1
80004ef4:	00d72223          	sw	x13,4(x14)
80004ef8:	00f62023          	sw	x15,0(x12)
80004efc:	1ff00693          	addi	x13,x0,511
80004f00:	0af6e863          	bltu	x13,x15,80004fb0 <_free_r+0x14c>
80004f04:	ff87f693          	andi	x13,x15,-8
80004f08:	00868693          	addi	x13,x13,8
80004f0c:	0045a503          	lw	x10,4(x11)
80004f10:	00d586b3          	add	x13,x11,x13
80004f14:	0006a603          	lw	x12,0(x13)
80004f18:	0057d813          	srli	x16,x15,0x5
80004f1c:	00100793          	addi	x15,x0,1
80004f20:	010797b3          	sll	x15,x15,x16
80004f24:	00a7e7b3          	or	x15,x15,x10
80004f28:	ff868513          	addi	x10,x13,-8
80004f2c:	00a72623          	sw	x10,12(x14)
80004f30:	00c72423          	sw	x12,8(x14)
80004f34:	00f5a223          	sw	x15,4(x11)
80004f38:	00e6a023          	sw	x14,0(x13)
80004f3c:	00e62623          	sw	x14,12(x12)
80004f40:	00812403          	lw	x8,8(x2)
80004f44:	00c12083          	lw	x1,12(x2)
80004f48:	00048513          	addi	x10,x9,0
80004f4c:	00412483          	lw	x9,4(x2)
80004f50:	01010113          	addi	x2,x2,16
80004f54:	46c0106f          	jal	x0,800063c0 <__malloc_unlock>
80004f58:	00452503          	lw	x10,4(x10)
80004f5c:	00157513          	andi	x10,x10,1
80004f60:	02051e63          	bne	x10,x0,80004f9c <_free_r+0x138>
80004f64:	80008537          	lui	x10,0x80008
80004f68:	00d787b3          	add	x15,x15,x13
80004f6c:	c1850513          	addi	x10,x10,-1000 # 80007c18 <_end+0xffffd408>
80004f70:	00862683          	lw	x13,8(x12)
80004f74:	0017e893          	ori	x17,x15,1
80004f78:	00f70833          	add	x16,x14,x15
80004f7c:	16a68863          	beq	x13,x10,800050ec <_free_r+0x288>
80004f80:	00c62603          	lw	x12,12(x12)
80004f84:	00c6a623          	sw	x12,12(x13)
80004f88:	00d62423          	sw	x13,8(x12)
80004f8c:	01172223          	sw	x17,4(x14)
80004f90:	00f82023          	sw	x15,0(x16)
80004f94:	f69ff06f          	jal	x0,80004efc <_free_r+0x98>
80004f98:	00008067          	jalr	x0,0(x1)
80004f9c:	0017e693          	ori	x13,x15,1
80004fa0:	fed42e23          	sw	x13,-4(x8)
80004fa4:	00f62023          	sw	x15,0(x12)
80004fa8:	1ff00693          	addi	x13,x0,511
80004fac:	f4f6fce3          	bgeu	x13,x15,80004f04 <_free_r+0xa0>
80004fb0:	0097d693          	srli	x13,x15,0x9
80004fb4:	00400613          	addi	x12,x0,4
80004fb8:	0ed66c63          	bltu	x12,x13,800050b0 <_free_r+0x24c>
80004fbc:	0067d693          	srli	x13,x15,0x6
80004fc0:	03968813          	addi	x16,x13,57
80004fc4:	03868613          	addi	x12,x13,56
80004fc8:	00381813          	slli	x16,x16,0x3
80004fcc:	01058833          	add	x16,x11,x16
80004fd0:	00082683          	lw	x13,0(x16)
80004fd4:	ff880813          	addi	x16,x16,-8
80004fd8:	12d80863          	beq	x16,x13,80005108 <_free_r+0x2a4>
80004fdc:	0046a603          	lw	x12,4(x13)
80004fe0:	ffc67613          	andi	x12,x12,-4
80004fe4:	00c7f663          	bgeu	x15,x12,80004ff0 <_free_r+0x18c>
80004fe8:	0086a683          	lw	x13,8(x13)
80004fec:	fed818e3          	bne	x16,x13,80004fdc <_free_r+0x178>
80004ff0:	00c6a803          	lw	x16,12(x13)
80004ff4:	01072623          	sw	x16,12(x14)
80004ff8:	00d72423          	sw	x13,8(x14)
80004ffc:	00812403          	lw	x8,8(x2)
80005000:	00c12083          	lw	x1,12(x2)
80005004:	00e82423          	sw	x14,8(x16)
80005008:	00048513          	addi	x10,x9,0
8000500c:	00412483          	lw	x9,4(x2)
80005010:	00e6a623          	sw	x14,12(x13)
80005014:	01010113          	addi	x2,x2,16
80005018:	3a80106f          	jal	x0,800063c0 <__malloc_unlock>
8000501c:	14081663          	bne	x16,x0,80005168 <_free_r+0x304>
80005020:	00c62583          	lw	x11,12(x12)
80005024:	00862603          	lw	x12,8(x12)
80005028:	00f687b3          	add	x15,x13,x15
8000502c:	00812403          	lw	x8,8(x2)
80005030:	00b62623          	sw	x11,12(x12)
80005034:	00c5a423          	sw	x12,8(x11)
80005038:	0017e693          	ori	x13,x15,1
8000503c:	00c12083          	lw	x1,12(x2)
80005040:	00d72223          	sw	x13,4(x14)
80005044:	00048513          	addi	x10,x9,0
80005048:	00f70733          	add	x14,x14,x15
8000504c:	00412483          	lw	x9,4(x2)
80005050:	00f72023          	sw	x15,0(x14)
80005054:	01010113          	addi	x2,x2,16
80005058:	3680106f          	jal	x0,800063c0 <__malloc_unlock>
8000505c:	00187813          	andi	x16,x16,1
80005060:	00d787b3          	add	x15,x15,x13
80005064:	02081063          	bne	x16,x0,80005084 <_free_r+0x220>
80005068:	ff842503          	lw	x10,-8(x8)
8000506c:	40a70733          	sub	x14,x14,x10
80005070:	00c72683          	lw	x13,12(x14)
80005074:	00872603          	lw	x12,8(x14)
80005078:	00a787b3          	add	x15,x15,x10
8000507c:	00d62623          	sw	x13,12(x12)
80005080:	00c6a423          	sw	x12,8(x13)
80005084:	800086b7          	lui	x13,0x80008
80005088:	0017e613          	ori	x12,x15,1
8000508c:	01c6a683          	lw	x13,28(x13) # 8000801c <_end+0xffffd80c>
80005090:	00c72223          	sw	x12,4(x14)
80005094:	00e5a423          	sw	x14,8(x11)
80005098:	ead7e4e3          	bltu	x15,x13,80004f40 <_free_r+0xdc>
8000509c:	8000a7b7          	lui	x15,0x8000a
800050a0:	7e87a583          	lw	x11,2024(x15) # 8000a7e8 <_end+0xffffffd8>
800050a4:	00048513          	addi	x10,x9,0
800050a8:	c7dff0ef          	jal	x1,80004d24 <_malloc_trim_r>
800050ac:	e95ff06f          	jal	x0,80004f40 <_free_r+0xdc>
800050b0:	01400613          	addi	x12,x0,20
800050b4:	02d67463          	bgeu	x12,x13,800050dc <_free_r+0x278>
800050b8:	05400613          	addi	x12,x0,84
800050bc:	06d66463          	bltu	x12,x13,80005124 <_free_r+0x2c0>
800050c0:	00c7d693          	srli	x13,x15,0xc
800050c4:	06f68813          	addi	x16,x13,111
800050c8:	06e68613          	addi	x12,x13,110
800050cc:	00381813          	slli	x16,x16,0x3
800050d0:	efdff06f          	jal	x0,80004fcc <_free_r+0x168>
800050d4:	00d787b3          	add	x15,x15,x13
800050d8:	e99ff06f          	jal	x0,80004f70 <_free_r+0x10c>
800050dc:	05c68813          	addi	x16,x13,92
800050e0:	05b68613          	addi	x12,x13,91
800050e4:	00381813          	slli	x16,x16,0x3
800050e8:	ee5ff06f          	jal	x0,80004fcc <_free_r+0x168>
800050ec:	00e5aa23          	sw	x14,20(x11)
800050f0:	00e5a823          	sw	x14,16(x11)
800050f4:	00a72623          	sw	x10,12(x14)
800050f8:	00a72423          	sw	x10,8(x14)
800050fc:	01172223          	sw	x17,4(x14)
80005100:	00f82023          	sw	x15,0(x16)
80005104:	e3dff06f          	jal	x0,80004f40 <_free_r+0xdc>
80005108:	0045a503          	lw	x10,4(x11)
8000510c:	40265613          	srai	x12,x12,0x2
80005110:	00100793          	addi	x15,x0,1
80005114:	00c79633          	sll	x12,x15,x12
80005118:	00a66633          	or	x12,x12,x10
8000511c:	00c5a223          	sw	x12,4(x11)
80005120:	ed5ff06f          	jal	x0,80004ff4 <_free_r+0x190>
80005124:	15400613          	addi	x12,x0,340
80005128:	00d66c63          	bltu	x12,x13,80005140 <_free_r+0x2dc>
8000512c:	00f7d693          	srli	x13,x15,0xf
80005130:	07868813          	addi	x16,x13,120
80005134:	07768613          	addi	x12,x13,119
80005138:	00381813          	slli	x16,x16,0x3
8000513c:	e91ff06f          	jal	x0,80004fcc <_free_r+0x168>
80005140:	55400613          	addi	x12,x0,1364
80005144:	00d66c63          	bltu	x12,x13,8000515c <_free_r+0x2f8>
80005148:	0127d693          	srli	x13,x15,0x12
8000514c:	07d68813          	addi	x16,x13,125
80005150:	07c68613          	addi	x12,x13,124
80005154:	00381813          	slli	x16,x16,0x3
80005158:	e75ff06f          	jal	x0,80004fcc <_free_r+0x168>
8000515c:	3f800813          	addi	x16,x0,1016
80005160:	07e00613          	addi	x12,x0,126
80005164:	e69ff06f          	jal	x0,80004fcc <_free_r+0x168>
80005168:	0017e693          	ori	x13,x15,1
8000516c:	00d72223          	sw	x13,4(x14)
80005170:	00f62023          	sw	x15,0(x12)
80005174:	dcdff06f          	jal	x0,80004f40 <_free_r+0xdc>

Disassembly of section .text.__sfvwrite_r:

80005178 <__sfvwrite_r>:
80005178:	00862783          	lw	x15,8(x12)
8000517c:	30078863          	beq	x15,x0,8000548c <__sfvwrite_r+0x314>
80005180:	00c5d783          	lhu	x15,12(x11)
80005184:	fd010113          	addi	x2,x2,-48
80005188:	02812423          	sw	x8,40(x2)
8000518c:	01412c23          	sw	x20,24(x2)
80005190:	01512a23          	sw	x21,20(x2)
80005194:	02112623          	sw	x1,44(x2)
80005198:	02912223          	sw	x9,36(x2)
8000519c:	03212023          	sw	x18,32(x2)
800051a0:	01312e23          	sw	x19,28(x2)
800051a4:	01612823          	sw	x22,16(x2)
800051a8:	01712623          	sw	x23,12(x2)
800051ac:	01812423          	sw	x24,8(x2)
800051b0:	01912223          	sw	x25,4(x2)
800051b4:	01a12023          	sw	x26,0(x2)
800051b8:	0087f713          	andi	x14,x15,8
800051bc:	00060a13          	addi	x20,x12,0
800051c0:	00050a93          	addi	x21,x10,0
800051c4:	00058413          	addi	x8,x11,0
800051c8:	08070663          	beq	x14,x0,80005254 <__sfvwrite_r+0xdc>
800051cc:	0105a703          	lw	x14,16(x11)
800051d0:	08070263          	beq	x14,x0,80005254 <__sfvwrite_r+0xdc>
800051d4:	0027f713          	andi	x14,x15,2
800051d8:	000a2483          	lw	x9,0(x20)
800051dc:	08070c63          	beq	x14,x0,80005274 <__sfvwrite_r+0xfc>
800051e0:	02442783          	lw	x15,36(x8)
800051e4:	01c42583          	lw	x11,28(x8)
800051e8:	80000b37          	lui	x22,0x80000
800051ec:	00000993          	addi	x19,x0,0
800051f0:	00000913          	addi	x18,x0,0
800051f4:	c00b4b13          	xori	x22,x22,-1024
800051f8:	00098613          	addi	x12,x19,0
800051fc:	000a8513          	addi	x10,x21,0
80005200:	04090263          	beq	x18,x0,80005244 <__sfvwrite_r+0xcc>
80005204:	00090693          	addi	x13,x18,0
80005208:	012b7463          	bgeu	x22,x18,80005210 <__sfvwrite_r+0x98>
8000520c:	000b0693          	addi	x13,x22,0 # 80000000 <_end+0xffff57f0>
80005210:	000780e7          	jalr	x1,0(x15)
80005214:	26a05263          	bge	x0,x10,80005478 <__sfvwrite_r+0x300>
80005218:	008a2783          	lw	x15,8(x20)
8000521c:	00a989b3          	add	x19,x19,x10
80005220:	40a90933          	sub	x18,x18,x10
80005224:	40a78533          	sub	x10,x15,x10
80005228:	00aa2423          	sw	x10,8(x20)
8000522c:	20050063          	beq	x10,x0,8000542c <__sfvwrite_r+0x2b4>
80005230:	02442783          	lw	x15,36(x8)
80005234:	01c42583          	lw	x11,28(x8)
80005238:	00098613          	addi	x12,x19,0
8000523c:	000a8513          	addi	x10,x21,0
80005240:	fc0912e3          	bne	x18,x0,80005204 <__sfvwrite_r+0x8c>
80005244:	0004a983          	lw	x19,0(x9)
80005248:	0044a903          	lw	x18,4(x9)
8000524c:	00848493          	addi	x9,x9,8
80005250:	fa9ff06f          	jal	x0,800051f8 <__sfvwrite_r+0x80>
80005254:	00040593          	addi	x11,x8,0
80005258:	000a8513          	addi	x10,x21,0
8000525c:	b80ff0ef          	jal	x1,800045dc <__swsetup_r>
80005260:	3a051a63          	bne	x10,x0,80005614 <__sfvwrite_r+0x49c>
80005264:	00c45783          	lhu	x15,12(x8)
80005268:	000a2483          	lw	x9,0(x20)
8000526c:	0027f713          	andi	x14,x15,2
80005270:	f60718e3          	bne	x14,x0,800051e0 <__sfvwrite_r+0x68>
80005274:	0017f713          	andi	x14,x15,1
80005278:	12071663          	bne	x14,x0,800053a4 <__sfvwrite_r+0x22c>
8000527c:	00842c83          	lw	x25,8(x8)
80005280:	00042503          	lw	x10,0(x8)
80005284:	80000b37          	lui	x22,0x80000
80005288:	ffeb4b93          	xori	x23,x22,-2
8000528c:	00000c13          	addi	x24,x0,0
80005290:	00000913          	addi	x18,x0,0
80005294:	fffb4b13          	xori	x22,x22,-1
80005298:	0e090e63          	beq	x18,x0,80005394 <__sfvwrite_r+0x21c>
8000529c:	2007f713          	andi	x14,x15,512
800052a0:	24070863          	beq	x14,x0,800054f0 <__sfvwrite_r+0x378>
800052a4:	000c8d13          	addi	x26,x25,0
800052a8:	2f996463          	bltu	x18,x25,80005590 <__sfvwrite_r+0x418>
800052ac:	4807f713          	andi	x14,x15,1152
800052b0:	08070a63          	beq	x14,x0,80005344 <__sfvwrite_r+0x1cc>
800052b4:	01442983          	lw	x19,20(x8)
800052b8:	01042583          	lw	x11,16(x8)
800052bc:	00190713          	addi	x14,x18,1
800052c0:	00199693          	slli	x13,x19,0x1
800052c4:	013686b3          	add	x13,x13,x19
800052c8:	01f6d993          	srli	x19,x13,0x1f
800052cc:	40b50d33          	sub	x26,x10,x11
800052d0:	00d989b3          	add	x19,x19,x13
800052d4:	4019d993          	srai	x19,x19,0x1
800052d8:	01a70733          	add	x14,x14,x26
800052dc:	00098613          	addi	x12,x19,0
800052e0:	00e9f663          	bgeu	x19,x14,800052ec <__sfvwrite_r+0x174>
800052e4:	00070993          	addi	x19,x14,0
800052e8:	00070613          	addi	x12,x14,0
800052ec:	4007f793          	andi	x15,x15,1024
800052f0:	2c078c63          	beq	x15,x0,800055c8 <__sfvwrite_r+0x450>
800052f4:	00060593          	addi	x11,x12,0
800052f8:	000a8513          	addi	x10,x21,0
800052fc:	57c000ef          	jal	x1,80005878 <_malloc_r>
80005300:	00050c93          	addi	x25,x10,0
80005304:	30050063          	beq	x10,x0,80005604 <__sfvwrite_r+0x48c>
80005308:	01042583          	lw	x11,16(x8)
8000530c:	000d0613          	addi	x12,x26,0
80005310:	665000ef          	jal	x1,80006174 <memcpy>
80005314:	00c45783          	lhu	x15,12(x8)
80005318:	b7f7f793          	andi	x15,x15,-1153
8000531c:	0807e793          	ori	x15,x15,128
80005320:	00f41623          	sh	x15,12(x8)
80005324:	01ac8533          	add	x10,x25,x26
80005328:	41a987b3          	sub	x15,x19,x26
8000532c:	01942823          	sw	x25,16(x8)
80005330:	00a42023          	sw	x10,0(x8)
80005334:	01342a23          	sw	x19,20(x8)
80005338:	00090c93          	addi	x25,x18,0
8000533c:	00f42423          	sw	x15,8(x8)
80005340:	00090d13          	addi	x26,x18,0
80005344:	000d0613          	addi	x12,x26,0
80005348:	000c0593          	addi	x11,x24,0
8000534c:	751000ef          	jal	x1,8000629c <memmove>
80005350:	00842703          	lw	x14,8(x8)
80005354:	00042783          	lw	x15,0(x8)
80005358:	00090993          	addi	x19,x18,0
8000535c:	41970cb3          	sub	x25,x14,x25
80005360:	01a787b3          	add	x15,x15,x26
80005364:	01942423          	sw	x25,8(x8)
80005368:	00f42023          	sw	x15,0(x8)
8000536c:	00000913          	addi	x18,x0,0
80005370:	008a2603          	lw	x12,8(x20)
80005374:	013c0c33          	add	x24,x24,x19
80005378:	413609b3          	sub	x19,x12,x19
8000537c:	013a2423          	sw	x19,8(x20)
80005380:	0a098663          	beq	x19,x0,8000542c <__sfvwrite_r+0x2b4>
80005384:	00842c83          	lw	x25,8(x8)
80005388:	00042503          	lw	x10,0(x8)
8000538c:	00c45783          	lhu	x15,12(x8)
80005390:	f00916e3          	bne	x18,x0,8000529c <__sfvwrite_r+0x124>
80005394:	0004ac03          	lw	x24,0(x9)
80005398:	0044a903          	lw	x18,4(x9)
8000539c:	00848493          	addi	x9,x9,8
800053a0:	ef9ff06f          	jal	x0,80005298 <__sfvwrite_r+0x120>
800053a4:	00000b13          	addi	x22,x0,0
800053a8:	00000513          	addi	x10,x0,0
800053ac:	00000c13          	addi	x24,x0,0
800053b0:	00000993          	addi	x19,x0,0
800053b4:	0e098063          	beq	x19,x0,80005494 <__sfvwrite_r+0x31c>
800053b8:	0e050663          	beq	x10,x0,800054a4 <__sfvwrite_r+0x32c>
800053bc:	000b0793          	addi	x15,x22,0 # 80000000 <_end+0xffff57f0>
800053c0:	00098b93          	addi	x23,x19,0
800053c4:	0137f463          	bgeu	x15,x19,800053cc <__sfvwrite_r+0x254>
800053c8:	00078b93          	addi	x23,x15,0
800053cc:	00042503          	lw	x10,0(x8)
800053d0:	01042783          	lw	x15,16(x8)
800053d4:	01442683          	lw	x13,20(x8)
800053d8:	00a7f863          	bgeu	x15,x10,800053e8 <__sfvwrite_r+0x270>
800053dc:	00842903          	lw	x18,8(x8)
800053e0:	01268933          	add	x18,x13,x18
800053e4:	0f794063          	blt	x18,x23,800054c4 <__sfvwrite_r+0x34c>
800053e8:	1adbca63          	blt	x23,x13,8000559c <__sfvwrite_r+0x424>
800053ec:	02442783          	lw	x15,36(x8)
800053f0:	01c42583          	lw	x11,28(x8)
800053f4:	000c0613          	addi	x12,x24,0
800053f8:	000a8513          	addi	x10,x21,0
800053fc:	000780e7          	jalr	x1,0(x15)
80005400:	00050913          	addi	x18,x10,0
80005404:	06a05a63          	bge	x0,x10,80005478 <__sfvwrite_r+0x300>
80005408:	412b0b33          	sub	x22,x22,x18
8000540c:	00100513          	addi	x10,x0,1
80005410:	040b0c63          	beq	x22,x0,80005468 <__sfvwrite_r+0x2f0>
80005414:	008a2603          	lw	x12,8(x20)
80005418:	012c0c33          	add	x24,x24,x18
8000541c:	412989b3          	sub	x19,x19,x18
80005420:	41260933          	sub	x18,x12,x18
80005424:	012a2423          	sw	x18,8(x20)
80005428:	f80916e3          	bne	x18,x0,800053b4 <__sfvwrite_r+0x23c>
8000542c:	00000513          	addi	x10,x0,0
80005430:	02c12083          	lw	x1,44(x2)
80005434:	02812403          	lw	x8,40(x2)
80005438:	02412483          	lw	x9,36(x2)
8000543c:	02012903          	lw	x18,32(x2)
80005440:	01c12983          	lw	x19,28(x2)
80005444:	01812a03          	lw	x20,24(x2)
80005448:	01412a83          	lw	x21,20(x2)
8000544c:	01012b03          	lw	x22,16(x2)
80005450:	00c12b83          	lw	x23,12(x2)
80005454:	00812c03          	lw	x24,8(x2)
80005458:	00412c83          	lw	x25,4(x2)
8000545c:	00012d03          	lw	x26,0(x2)
80005460:	03010113          	addi	x2,x2,48
80005464:	00008067          	jalr	x0,0(x1)
80005468:	00040593          	addi	x11,x8,0
8000546c:	000a8513          	addi	x10,x21,0
80005470:	d54ff0ef          	jal	x1,800049c4 <_fflush_r>
80005474:	fa0500e3          	beq	x10,x0,80005414 <__sfvwrite_r+0x29c>
80005478:	00c41783          	lh	x15,12(x8)
8000547c:	0407e793          	ori	x15,x15,64
80005480:	00f41623          	sh	x15,12(x8)
80005484:	fff00513          	addi	x10,x0,-1
80005488:	fa9ff06f          	jal	x0,80005430 <__sfvwrite_r+0x2b8>
8000548c:	00000513          	addi	x10,x0,0
80005490:	00008067          	jalr	x0,0(x1)
80005494:	0044a983          	lw	x19,4(x9)
80005498:	0004ac03          	lw	x24,0(x9)
8000549c:	00848493          	addi	x9,x9,8
800054a0:	fe098ae3          	beq	x19,x0,80005494 <__sfvwrite_r+0x31c>
800054a4:	00098613          	addi	x12,x19,0
800054a8:	00a00593          	addi	x11,x0,10
800054ac:	000c0513          	addi	x10,x24,0
800054b0:	3fd000ef          	jal	x1,800060ac <memchr>
800054b4:	14050263          	beq	x10,x0,800055f8 <__sfvwrite_r+0x480>
800054b8:	00150513          	addi	x10,x10,1
800054bc:	41850b33          	sub	x22,x10,x24
800054c0:	efdff06f          	jal	x0,800053bc <__sfvwrite_r+0x244>
800054c4:	000c0593          	addi	x11,x24,0
800054c8:	00090613          	addi	x12,x18,0
800054cc:	5d1000ef          	jal	x1,8000629c <memmove>
800054d0:	00042783          	lw	x15,0(x8)
800054d4:	00040593          	addi	x11,x8,0
800054d8:	000a8513          	addi	x10,x21,0
800054dc:	012787b3          	add	x15,x15,x18
800054e0:	00f42023          	sw	x15,0(x8)
800054e4:	ce0ff0ef          	jal	x1,800049c4 <_fflush_r>
800054e8:	f20500e3          	beq	x10,x0,80005408 <__sfvwrite_r+0x290>
800054ec:	f8dff06f          	jal	x0,80005478 <__sfvwrite_r+0x300>
800054f0:	01042783          	lw	x15,16(x8)
800054f4:	04a7e863          	bltu	x15,x10,80005544 <__sfvwrite_r+0x3cc>
800054f8:	01442983          	lw	x19,20(x8)
800054fc:	05396463          	bltu	x18,x19,80005544 <__sfvwrite_r+0x3cc>
80005500:	00090513          	addi	x10,x18,0
80005504:	012bf463          	bgeu	x23,x18,8000550c <__sfvwrite_r+0x394>
80005508:	000b0513          	addi	x10,x22,0
8000550c:	00098593          	addi	x11,x19,0
80005510:	f79fc0ef          	jal	x1,80002488 <__divsi3>
80005514:	00098593          	addi	x11,x19,0
80005518:	f4dfc0ef          	jal	x1,80002464 <__mulsi3>
8000551c:	02442783          	lw	x15,36(x8)
80005520:	01c42583          	lw	x11,28(x8)
80005524:	00050693          	addi	x13,x10,0
80005528:	000c0613          	addi	x12,x24,0
8000552c:	000a8513          	addi	x10,x21,0
80005530:	000780e7          	jalr	x1,0(x15)
80005534:	00050993          	addi	x19,x10,0
80005538:	f4a050e3          	bge	x0,x10,80005478 <__sfvwrite_r+0x300>
8000553c:	41390933          	sub	x18,x18,x19
80005540:	e31ff06f          	jal	x0,80005370 <__sfvwrite_r+0x1f8>
80005544:	000c8993          	addi	x19,x25,0
80005548:	01997463          	bgeu	x18,x25,80005550 <__sfvwrite_r+0x3d8>
8000554c:	00090993          	addi	x19,x18,0
80005550:	00098613          	addi	x12,x19,0
80005554:	000c0593          	addi	x11,x24,0
80005558:	545000ef          	jal	x1,8000629c <memmove>
8000555c:	00842783          	lw	x15,8(x8)
80005560:	00042703          	lw	x14,0(x8)
80005564:	413787b3          	sub	x15,x15,x19
80005568:	01370733          	add	x14,x14,x19
8000556c:	00f42423          	sw	x15,8(x8)
80005570:	00e42023          	sw	x14,0(x8)
80005574:	fc0794e3          	bne	x15,x0,8000553c <__sfvwrite_r+0x3c4>
80005578:	00040593          	addi	x11,x8,0
8000557c:	000a8513          	addi	x10,x21,0
80005580:	c44ff0ef          	jal	x1,800049c4 <_fflush_r>
80005584:	ee051ae3          	bne	x10,x0,80005478 <__sfvwrite_r+0x300>
80005588:	41390933          	sub	x18,x18,x19
8000558c:	de5ff06f          	jal	x0,80005370 <__sfvwrite_r+0x1f8>
80005590:	00090c93          	addi	x25,x18,0
80005594:	00090d13          	addi	x26,x18,0
80005598:	dadff06f          	jal	x0,80005344 <__sfvwrite_r+0x1cc>
8000559c:	000b8613          	addi	x12,x23,0
800055a0:	000c0593          	addi	x11,x24,0
800055a4:	4f9000ef          	jal	x1,8000629c <memmove>
800055a8:	00842703          	lw	x14,8(x8)
800055ac:	00042783          	lw	x15,0(x8)
800055b0:	000b8913          	addi	x18,x23,0
800055b4:	41770733          	sub	x14,x14,x23
800055b8:	017787b3          	add	x15,x15,x23
800055bc:	00e42423          	sw	x14,8(x8)
800055c0:	00f42023          	sw	x15,0(x8)
800055c4:	e45ff06f          	jal	x0,80005408 <__sfvwrite_r+0x290>
800055c8:	000a8513          	addi	x10,x21,0
800055cc:	5f9000ef          	jal	x1,800063c4 <_realloc_r>
800055d0:	00050c93          	addi	x25,x10,0
800055d4:	d40518e3          	bne	x10,x0,80005324 <__sfvwrite_r+0x1ac>
800055d8:	01042583          	lw	x11,16(x8)
800055dc:	000a8513          	addi	x10,x21,0
800055e0:	885ff0ef          	jal	x1,80004e64 <_free_r>
800055e4:	00c41783          	lh	x15,12(x8)
800055e8:	00c00713          	addi	x14,x0,12
800055ec:	00eaa023          	sw	x14,0(x21)
800055f0:	f7f7f793          	andi	x15,x15,-129
800055f4:	e89ff06f          	jal	x0,8000547c <__sfvwrite_r+0x304>
800055f8:	00198793          	addi	x15,x19,1
800055fc:	00078b13          	addi	x22,x15,0
80005600:	dc1ff06f          	jal	x0,800053c0 <__sfvwrite_r+0x248>
80005604:	00c00713          	addi	x14,x0,12
80005608:	00c41783          	lh	x15,12(x8)
8000560c:	00eaa023          	sw	x14,0(x21)
80005610:	e6dff06f          	jal	x0,8000547c <__sfvwrite_r+0x304>
80005614:	fff00513          	addi	x10,x0,-1
80005618:	e19ff06f          	jal	x0,80005430 <__sfvwrite_r+0x2b8>

Disassembly of section .text._fwalk_reent:

8000561c <_fwalk_reent>:
8000561c:	fd010113          	addi	x2,x2,-48
80005620:	03212023          	sw	x18,32(x2)
80005624:	01312e23          	sw	x19,28(x2)
80005628:	01412c23          	sw	x20,24(x2)
8000562c:	01512a23          	sw	x21,20(x2)
80005630:	01612823          	sw	x22,16(x2)
80005634:	01712623          	sw	x23,12(x2)
80005638:	02112623          	sw	x1,44(x2)
8000563c:	02812423          	sw	x8,40(x2)
80005640:	02912223          	sw	x9,36(x2)
80005644:	00050a93          	addi	x21,x10,0
80005648:	00058b93          	addi	x23,x11,0
8000564c:	2e050b13          	addi	x22,x10,736
80005650:	00000a13          	addi	x20,x0,0
80005654:	00100993          	addi	x19,x0,1
80005658:	fff00913          	addi	x18,x0,-1
8000565c:	004b2483          	lw	x9,4(x22)
80005660:	008b2403          	lw	x8,8(x22)
80005664:	fff48493          	addi	x9,x9,-1
80005668:	0204c863          	blt	x9,x0,80005698 <_fwalk_reent+0x7c>
8000566c:	00c45783          	lhu	x15,12(x8)
80005670:	fff48493          	addi	x9,x9,-1
80005674:	00f9fe63          	bgeu	x19,x15,80005690 <_fwalk_reent+0x74>
80005678:	00e41783          	lh	x15,14(x8)
8000567c:	00040593          	addi	x11,x8,0
80005680:	000a8513          	addi	x10,x21,0
80005684:	01278663          	beq	x15,x18,80005690 <_fwalk_reent+0x74>
80005688:	000b80e7          	jalr	x1,0(x23)
8000568c:	00aa6a33          	or	x20,x20,x10
80005690:	06840413          	addi	x8,x8,104
80005694:	fd249ce3          	bne	x9,x18,8000566c <_fwalk_reent+0x50>
80005698:	000b2b03          	lw	x22,0(x22)
8000569c:	fc0b10e3          	bne	x22,x0,8000565c <_fwalk_reent+0x40>
800056a0:	02c12083          	lw	x1,44(x2)
800056a4:	02812403          	lw	x8,40(x2)
800056a8:	02412483          	lw	x9,36(x2)
800056ac:	02012903          	lw	x18,32(x2)
800056b0:	01c12983          	lw	x19,28(x2)
800056b4:	01412a83          	lw	x21,20(x2)
800056b8:	01012b03          	lw	x22,16(x2)
800056bc:	00c12b83          	lw	x23,12(x2)
800056c0:	000a0513          	addi	x10,x20,0
800056c4:	01812a03          	lw	x20,24(x2)
800056c8:	03010113          	addi	x2,x2,48
800056cc:	00008067          	jalr	x0,0(x1)

Disassembly of section .text._localeconv_r:

800056d0 <_localeconv_r>:
800056d0:	80008537          	lui	x10,0x80008
800056d4:	b9450513          	addi	x10,x10,-1132 # 80007b94 <_end+0xffffd384>
800056d8:	00008067          	jalr	x0,0(x1)

Disassembly of section .text.__locale_mb_cur_max:

800056dc <__locale_mb_cur_max>:
800056dc:	800087b7          	lui	x15,0x80008
800056e0:	bcc7c503          	lbu	x10,-1076(x15) # 80007bcc <_end+0xffffd3bc>
800056e4:	00008067          	jalr	x0,0(x1)

Disassembly of section .text.__smakebuf_r:

800056e8 <__smakebuf_r>:
800056e8:	00c5d783          	lhu	x15,12(x11)
800056ec:	f8010113          	addi	x2,x2,-128
800056f0:	06812c23          	sw	x8,120(x2)
800056f4:	06112e23          	sw	x1,124(x2)
800056f8:	06912a23          	sw	x9,116(x2)
800056fc:	07212823          	sw	x18,112(x2)
80005700:	07312623          	sw	x19,108(x2)
80005704:	07412423          	sw	x20,104(x2)
80005708:	0027f713          	andi	x14,x15,2
8000570c:	00058413          	addi	x8,x11,0
80005710:	02070c63          	beq	x14,x0,80005748 <__smakebuf_r+0x60>
80005714:	04358793          	addi	x15,x11,67
80005718:	00f5a023          	sw	x15,0(x11)
8000571c:	00f5a823          	sw	x15,16(x11)
80005720:	00100793          	addi	x15,x0,1
80005724:	00f5aa23          	sw	x15,20(x11)
80005728:	07c12083          	lw	x1,124(x2)
8000572c:	07812403          	lw	x8,120(x2)
80005730:	07412483          	lw	x9,116(x2)
80005734:	07012903          	lw	x18,112(x2)
80005738:	06c12983          	lw	x19,108(x2)
8000573c:	06812a03          	lw	x20,104(x2)
80005740:	08010113          	addi	x2,x2,128
80005744:	00008067          	jalr	x0,0(x1)
80005748:	00e59583          	lh	x11,14(x11)
8000574c:	00050493          	addi	x9,x10,0
80005750:	0805cc63          	blt	x11,x0,800057e8 <__smakebuf_r+0x100>
80005754:	00810613          	addi	x12,x2,8
80005758:	241010ef          	jal	x1,80007198 <_fstat_r>
8000575c:	08054463          	blt	x10,x0,800057e4 <__smakebuf_r+0xfc>
80005760:	00c12783          	lw	x15,12(x2)
80005764:	0000f937          	lui	x18,0xf
80005768:	40000a13          	addi	x20,x0,1024
8000576c:	00f97933          	and	x18,x18,x15
80005770:	ffffe7b7          	lui	x15,0xffffe
80005774:	00f90933          	add	x18,x18,x15
80005778:	000017b7          	lui	x15,0x1
8000577c:	00193913          	sltiu	x18,x18,1
80005780:	80078993          	addi	x19,x15,-2048 # 800 <SYSCALL_ADDR-0x200800>
80005784:	000a0593          	addi	x11,x20,0
80005788:	00048513          	addi	x10,x9,0
8000578c:	0ec000ef          	jal	x1,80005878 <_malloc_r>
80005790:	00c41783          	lh	x15,12(x8)
80005794:	06050e63          	beq	x10,x0,80005810 <__smakebuf_r+0x128>
80005798:	80005737          	lui	x14,0x80005
8000579c:	a2470713          	addi	x14,x14,-1500 # 80004a24 <_end+0xffffa214>
800057a0:	02e4ae23          	sw	x14,60(x9)
800057a4:	0807e793          	ori	x15,x15,128
800057a8:	00f41623          	sh	x15,12(x8)
800057ac:	00a42023          	sw	x10,0(x8)
800057b0:	00a42823          	sw	x10,16(x8)
800057b4:	01442a23          	sw	x20,20(x8)
800057b8:	08091863          	bne	x18,x0,80005848 <__smakebuf_r+0x160>
800057bc:	0137e7b3          	or	x15,x15,x19
800057c0:	07c12083          	lw	x1,124(x2)
800057c4:	00f41623          	sh	x15,12(x8)
800057c8:	07812403          	lw	x8,120(x2)
800057cc:	07412483          	lw	x9,116(x2)
800057d0:	07012903          	lw	x18,112(x2)
800057d4:	06c12983          	lw	x19,108(x2)
800057d8:	06812a03          	lw	x20,104(x2)
800057dc:	08010113          	addi	x2,x2,128
800057e0:	00008067          	jalr	x0,0(x1)
800057e4:	00c45783          	lhu	x15,12(x8)
800057e8:	0807f793          	andi	x15,x15,128
800057ec:	00000913          	addi	x18,x0,0
800057f0:	04078663          	beq	x15,x0,8000583c <__smakebuf_r+0x154>
800057f4:	04000a13          	addi	x20,x0,64
800057f8:	000a0593          	addi	x11,x20,0
800057fc:	00048513          	addi	x10,x9,0
80005800:	078000ef          	jal	x1,80005878 <_malloc_r>
80005804:	00c41783          	lh	x15,12(x8)
80005808:	00000993          	addi	x19,x0,0
8000580c:	f80516e3          	bne	x10,x0,80005798 <__smakebuf_r+0xb0>
80005810:	2007f713          	andi	x14,x15,512
80005814:	f0071ae3          	bne	x14,x0,80005728 <__smakebuf_r+0x40>
80005818:	ffc7f793          	andi	x15,x15,-4
8000581c:	0027e793          	ori	x15,x15,2
80005820:	04340713          	addi	x14,x8,67
80005824:	00f41623          	sh	x15,12(x8)
80005828:	00100793          	addi	x15,x0,1
8000582c:	00e42023          	sw	x14,0(x8)
80005830:	00e42823          	sw	x14,16(x8)
80005834:	00f42a23          	sw	x15,20(x8)
80005838:	ef1ff06f          	jal	x0,80005728 <__smakebuf_r+0x40>
8000583c:	40000a13          	addi	x20,x0,1024
80005840:	00000993          	addi	x19,x0,0
80005844:	f41ff06f          	jal	x0,80005784 <__smakebuf_r+0x9c>
80005848:	00e41583          	lh	x11,14(x8)
8000584c:	00048513          	addi	x10,x9,0
80005850:	1b1010ef          	jal	x1,80007200 <_isatty_r>
80005854:	00051663          	bne	x10,x0,80005860 <__smakebuf_r+0x178>
80005858:	00c41783          	lh	x15,12(x8)
8000585c:	f61ff06f          	jal	x0,800057bc <__smakebuf_r+0xd4>
80005860:	00c45783          	lhu	x15,12(x8)
80005864:	ffc7f793          	andi	x15,x15,-4
80005868:	0017e793          	ori	x15,x15,1
8000586c:	01079793          	slli	x15,x15,0x10
80005870:	4107d793          	srai	x15,x15,0x10
80005874:	f49ff06f          	jal	x0,800057bc <__smakebuf_r+0xd4>

Disassembly of section .text._malloc_r:

80005878 <_malloc_r>:
80005878:	fd010113          	addi	x2,x2,-48
8000587c:	01312e23          	sw	x19,28(x2)
80005880:	02112623          	sw	x1,44(x2)
80005884:	02812423          	sw	x8,40(x2)
80005888:	02912223          	sw	x9,36(x2)
8000588c:	03212023          	sw	x18,32(x2)
80005890:	01412c23          	sw	x20,24(x2)
80005894:	01512a23          	sw	x21,20(x2)
80005898:	01612823          	sw	x22,16(x2)
8000589c:	01712623          	sw	x23,12(x2)
800058a0:	01812423          	sw	x24,8(x2)
800058a4:	01912223          	sw	x25,4(x2)
800058a8:	01a12023          	sw	x26,0(x2)
800058ac:	00b58793          	addi	x15,x11,11
800058b0:	01600713          	addi	x14,x0,22
800058b4:	00050993          	addi	x19,x10,0
800058b8:	06f76663          	bltu	x14,x15,80005924 <_malloc_r+0xac>
800058bc:	01000793          	addi	x15,x0,16
800058c0:	1eb7e663          	bltu	x15,x11,80005aac <_malloc_r+0x234>
800058c4:	2f9000ef          	jal	x1,800063bc <__malloc_lock>
800058c8:	01000493          	addi	x9,x0,16
800058cc:	01800793          	addi	x15,x0,24
800058d0:	00200613          	addi	x12,x0,2
800058d4:	80008937          	lui	x18,0x80008
800058d8:	c1090913          	addi	x18,x18,-1008 # 80007c10 <_end+0xffffd400>
800058dc:	00f907b3          	add	x15,x18,x15
800058e0:	0047a403          	lw	x8,4(x15)
800058e4:	ff878713          	addi	x14,x15,-8
800058e8:	20e40c63          	beq	x8,x14,80005b00 <_malloc_r+0x288>
800058ec:	00442783          	lw	x15,4(x8)
800058f0:	00c42683          	lw	x13,12(x8)
800058f4:	00842603          	lw	x12,8(x8)
800058f8:	ffc7f793          	andi	x15,x15,-4
800058fc:	00f407b3          	add	x15,x8,x15
80005900:	0047a703          	lw	x14,4(x15)
80005904:	00d62623          	sw	x13,12(x12)
80005908:	00c6a423          	sw	x12,8(x13)
8000590c:	00176713          	ori	x14,x14,1
80005910:	00098513          	addi	x10,x19,0
80005914:	00e7a223          	sw	x14,4(x15)
80005918:	2a9000ef          	jal	x1,800063c0 <__malloc_unlock>
8000591c:	00840513          	addi	x10,x8,8
80005920:	1980006f          	jal	x0,80005ab8 <_malloc_r+0x240>
80005924:	ff87f493          	andi	x9,x15,-8
80005928:	1807c263          	blt	x15,x0,80005aac <_malloc_r+0x234>
8000592c:	18b4e063          	bltu	x9,x11,80005aac <_malloc_r+0x234>
80005930:	28d000ef          	jal	x1,800063bc <__malloc_lock>
80005934:	1f700793          	addi	x15,x0,503
80005938:	4697fe63          	bgeu	x15,x9,80005db4 <_malloc_r+0x53c>
8000593c:	0094d793          	srli	x15,x9,0x9
80005940:	1a078863          	beq	x15,x0,80005af0 <_malloc_r+0x278>
80005944:	00400713          	addi	x14,x0,4
80005948:	3ef76463          	bltu	x14,x15,80005d30 <_malloc_r+0x4b8>
8000594c:	0064d793          	srli	x15,x9,0x6
80005950:	03978613          	addi	x12,x15,57
80005954:	03878513          	addi	x10,x15,56
80005958:	00361693          	slli	x13,x12,0x3
8000595c:	80008937          	lui	x18,0x80008
80005960:	c1090913          	addi	x18,x18,-1008 # 80007c10 <_end+0xffffd400>
80005964:	00d906b3          	add	x13,x18,x13
80005968:	0046a403          	lw	x8,4(x13)
8000596c:	ff868693          	addi	x13,x13,-8
80005970:	02868663          	beq	x13,x8,8000599c <_malloc_r+0x124>
80005974:	00f00593          	addi	x11,x0,15
80005978:	0100006f          	jal	x0,80005988 <_malloc_r+0x110>
8000597c:	34075463          	bge	x14,x0,80005cc4 <_malloc_r+0x44c>
80005980:	00c42403          	lw	x8,12(x8)
80005984:	00868c63          	beq	x13,x8,8000599c <_malloc_r+0x124>
80005988:	00442783          	lw	x15,4(x8)
8000598c:	ffc7f793          	andi	x15,x15,-4
80005990:	40978733          	sub	x14,x15,x9
80005994:	fee5d4e3          	bge	x11,x14,8000597c <_malloc_r+0x104>
80005998:	00050613          	addi	x12,x10,0
8000599c:	01092403          	lw	x8,16(x18)
800059a0:	00890893          	addi	x17,x18,8
800059a4:	17140a63          	beq	x8,x17,80005b18 <_malloc_r+0x2a0>
800059a8:	00442503          	lw	x10,4(x8)
800059ac:	00f00693          	addi	x13,x0,15
800059b0:	ffc57513          	andi	x10,x10,-4
800059b4:	409507b3          	sub	x15,x10,x9
800059b8:	42f6c463          	blt	x13,x15,80005de0 <_malloc_r+0x568>
800059bc:	01192a23          	sw	x17,20(x18)
800059c0:	01192823          	sw	x17,16(x18)
800059c4:	3e07de63          	bge	x15,x0,80005dc0 <_malloc_r+0x548>
800059c8:	1ff00793          	addi	x15,x0,511
800059cc:	30a7e263          	bltu	x15,x10,80005cd0 <_malloc_r+0x458>
800059d0:	ff857793          	andi	x15,x10,-8
800059d4:	00878793          	addi	x15,x15,8
800059d8:	00492583          	lw	x11,4(x18)
800059dc:	00f907b3          	add	x15,x18,x15
800059e0:	0007a683          	lw	x13,0(x15)
800059e4:	00555513          	srli	x10,x10,0x5
800059e8:	00100713          	addi	x14,x0,1
800059ec:	00a71733          	sll	x14,x14,x10
800059f0:	00b76733          	or	x14,x14,x11
800059f4:	ff878593          	addi	x11,x15,-8
800059f8:	00b42623          	sw	x11,12(x8)
800059fc:	00d42423          	sw	x13,8(x8)
80005a00:	00e92223          	sw	x14,4(x18)
80005a04:	0087a023          	sw	x8,0(x15)
80005a08:	0086a623          	sw	x8,12(x13)
80005a0c:	40265793          	srai	x15,x12,0x2
80005a10:	00100593          	addi	x11,x0,1
80005a14:	00f595b3          	sll	x11,x11,x15
80005a18:	10b76a63          	bltu	x14,x11,80005b2c <_malloc_r+0x2b4>
80005a1c:	00e5f7b3          	and	x15,x11,x14
80005a20:	02079463          	bne	x15,x0,80005a48 <_malloc_r+0x1d0>
80005a24:	00159593          	slli	x11,x11,0x1
80005a28:	ffc67613          	andi	x12,x12,-4
80005a2c:	00e5f7b3          	and	x15,x11,x14
80005a30:	00460613          	addi	x12,x12,4
80005a34:	00079a63          	bne	x15,x0,80005a48 <_malloc_r+0x1d0>
80005a38:	00159593          	slli	x11,x11,0x1
80005a3c:	00e5f7b3          	and	x15,x11,x14
80005a40:	00460613          	addi	x12,x12,4
80005a44:	fe078ae3          	beq	x15,x0,80005a38 <_malloc_r+0x1c0>
80005a48:	00f00813          	addi	x16,x0,15
80005a4c:	00361313          	slli	x6,x12,0x3
80005a50:	00690333          	add	x6,x18,x6
80005a54:	00030513          	addi	x10,x6,0
80005a58:	00c52783          	lw	x15,12(x10)
80005a5c:	00060e13          	addi	x28,x12,0
80005a60:	2ef50a63          	beq	x10,x15,80005d54 <_malloc_r+0x4dc>
80005a64:	0047a703          	lw	x14,4(x15)
80005a68:	00078413          	addi	x8,x15,0
80005a6c:	00c7a783          	lw	x15,12(x15)
80005a70:	ffc77713          	andi	x14,x14,-4
80005a74:	409706b3          	sub	x13,x14,x9
80005a78:	2ed84a63          	blt	x16,x13,80005d6c <_malloc_r+0x4f4>
80005a7c:	fe06c2e3          	blt	x13,x0,80005a60 <_malloc_r+0x1e8>
80005a80:	00e40733          	add	x14,x8,x14
80005a84:	00472683          	lw	x13,4(x14)
80005a88:	00842603          	lw	x12,8(x8)
80005a8c:	00098513          	addi	x10,x19,0
80005a90:	0016e693          	ori	x13,x13,1
80005a94:	00d72223          	sw	x13,4(x14)
80005a98:	00f62623          	sw	x15,12(x12)
80005a9c:	00c7a423          	sw	x12,8(x15)
80005aa0:	121000ef          	jal	x1,800063c0 <__malloc_unlock>
80005aa4:	00840513          	addi	x10,x8,8
80005aa8:	0100006f          	jal	x0,80005ab8 <_malloc_r+0x240>
80005aac:	00c00793          	addi	x15,x0,12
80005ab0:	00f9a023          	sw	x15,0(x19)
80005ab4:	00000513          	addi	x10,x0,0
80005ab8:	02c12083          	lw	x1,44(x2)
80005abc:	02812403          	lw	x8,40(x2)
80005ac0:	02412483          	lw	x9,36(x2)
80005ac4:	02012903          	lw	x18,32(x2)
80005ac8:	01c12983          	lw	x19,28(x2)
80005acc:	01812a03          	lw	x20,24(x2)
80005ad0:	01412a83          	lw	x21,20(x2)
80005ad4:	01012b03          	lw	x22,16(x2)
80005ad8:	00c12b83          	lw	x23,12(x2)
80005adc:	00812c03          	lw	x24,8(x2)
80005ae0:	00412c83          	lw	x25,4(x2)
80005ae4:	00012d03          	lw	x26,0(x2)
80005ae8:	03010113          	addi	x2,x2,48
80005aec:	00008067          	jalr	x0,0(x1)
80005af0:	20000693          	addi	x13,x0,512
80005af4:	04000613          	addi	x12,x0,64
80005af8:	03f00513          	addi	x10,x0,63
80005afc:	e61ff06f          	jal	x0,8000595c <_malloc_r+0xe4>
80005b00:	00c7a403          	lw	x8,12(x15)
80005b04:	00260613          	addi	x12,x12,2
80005b08:	de8792e3          	bne	x15,x8,800058ec <_malloc_r+0x74>
80005b0c:	01092403          	lw	x8,16(x18)
80005b10:	00890893          	addi	x17,x18,8
80005b14:	e9141ae3          	bne	x8,x17,800059a8 <_malloc_r+0x130>
80005b18:	00492703          	lw	x14,4(x18)
80005b1c:	40265793          	srai	x15,x12,0x2
80005b20:	00100593          	addi	x11,x0,1
80005b24:	00f595b3          	sll	x11,x11,x15
80005b28:	eeb77ae3          	bgeu	x14,x11,80005a1c <_malloc_r+0x1a4>
80005b2c:	00892403          	lw	x8,8(x18)
80005b30:	00442a83          	lw	x21,4(x8)
80005b34:	ffcafb13          	andi	x22,x21,-4
80005b38:	009b6863          	bltu	x22,x9,80005b48 <_malloc_r+0x2d0>
80005b3c:	409b07b3          	sub	x15,x22,x9
80005b40:	00f00713          	addi	x14,x0,15
80005b44:	14f74c63          	blt	x14,x15,80005c9c <_malloc_r+0x424>
80005b48:	80008c37          	lui	x24,0x80008
80005b4c:	8000a7b7          	lui	x15,0x8000a
80005b50:	018c0c13          	addi	x24,x24,24 # 80008018 <_end+0xffffd808>
80005b54:	7e87aa83          	lw	x21,2024(x15) # 8000a7e8 <_end+0xffffffd8>
80005b58:	000c2703          	lw	x14,0(x24)
80005b5c:	fff00793          	addi	x15,x0,-1
80005b60:	01640cb3          	add	x25,x8,x22
80005b64:	01548ab3          	add	x21,x9,x21
80005b68:	34f70e63          	beq	x14,x15,80005ec4 <_malloc_r+0x64c>
80005b6c:	000017b7          	lui	x15,0x1
80005b70:	00f78793          	addi	x15,x15,15 # 100f <SYSCALL_ADDR-0x1ffff1>
80005b74:	00fa8ab3          	add	x21,x21,x15
80005b78:	fffff7b7          	lui	x15,0xfffff
80005b7c:	00fafab3          	and	x21,x21,x15
80005b80:	000a8593          	addi	x11,x21,0
80005b84:	00098513          	addi	x10,x19,0
80005b88:	5b5000ef          	jal	x1,8000693c <_sbrk_r>
80005b8c:	fff00793          	addi	x15,x0,-1
80005b90:	00050b93          	addi	x23,x10,0
80005b94:	2af50063          	beq	x10,x15,80005e34 <_malloc_r+0x5bc>
80005b98:	29956c63          	bltu	x10,x25,80005e30 <_malloc_r+0x5b8>
80005b9c:	8000ad37          	lui	x26,0x8000a
80005ba0:	7b8d0d13          	addi	x26,x26,1976 # 8000a7b8 <_end+0xffffffa8>
80005ba4:	000d2a03          	lw	x20,0(x26)
80005ba8:	014a8a33          	add	x20,x21,x20
80005bac:	014d2023          	sw	x20,0(x26)
80005bb0:	000a0793          	addi	x15,x20,0
80005bb4:	3aac8863          	beq	x25,x10,80005f64 <_malloc_r+0x6ec>
80005bb8:	000c2683          	lw	x13,0(x24)
80005bbc:	fff00713          	addi	x14,x0,-1
80005bc0:	3ce68063          	beq	x13,x14,80005f80 <_malloc_r+0x708>
80005bc4:	419b8cb3          	sub	x25,x23,x25
80005bc8:	00fc87b3          	add	x15,x25,x15
80005bcc:	00fd2023          	sw	x15,0(x26)
80005bd0:	007bfc13          	andi	x24,x23,7
80005bd4:	300c0a63          	beq	x24,x0,80005ee8 <_malloc_r+0x670>
80005bd8:	000017b7          	lui	x15,0x1
80005bdc:	418b8bb3          	sub	x23,x23,x24
80005be0:	00878a13          	addi	x20,x15,8 # 1008 <SYSCALL_ADDR-0x1ffff8>
80005be4:	008b8b93          	addi	x23,x23,8
80005be8:	418a0a33          	sub	x20,x20,x24
80005bec:	015b8ab3          	add	x21,x23,x21
80005bf0:	fff78793          	addi	x15,x15,-1
80005bf4:	415a0a33          	sub	x20,x20,x21
80005bf8:	00fa7a33          	and	x20,x20,x15
80005bfc:	000a0593          	addi	x11,x20,0
80005c00:	00098513          	addi	x10,x19,0
80005c04:	539000ef          	jal	x1,8000693c <_sbrk_r>
80005c08:	fff00793          	addi	x15,x0,-1
80005c0c:	3cf50463          	beq	x10,x15,80005fd4 <_malloc_r+0x75c>
80005c10:	41750533          	sub	x10,x10,x23
80005c14:	01450ab3          	add	x21,x10,x20
80005c18:	000d2583          	lw	x11,0(x26)
80005c1c:	01792423          	sw	x23,8(x18)
80005c20:	001aea93          	ori	x21,x21,1
80005c24:	00ba0a33          	add	x20,x20,x11
80005c28:	014d2023          	sw	x20,0(x26)
80005c2c:	015ba223          	sw	x21,4(x23)
80005c30:	35240c63          	beq	x8,x18,80005f88 <_malloc_r+0x710>
80005c34:	00f00693          	addi	x13,x0,15
80005c38:	3566fc63          	bgeu	x13,x22,80005f90 <_malloc_r+0x718>
80005c3c:	00442703          	lw	x14,4(x8)
80005c40:	ff4b0793          	addi	x15,x22,-12
80005c44:	ff87f793          	andi	x15,x15,-8
80005c48:	00177713          	andi	x14,x14,1
80005c4c:	00f76733          	or	x14,x14,x15
80005c50:	00e42223          	sw	x14,4(x8)
80005c54:	00500613          	addi	x12,x0,5
80005c58:	00f40733          	add	x14,x8,x15
80005c5c:	00c72223          	sw	x12,4(x14)
80005c60:	00c72423          	sw	x12,8(x14)
80005c64:	38f6e263          	bltu	x13,x15,80005fe8 <_malloc_r+0x770>
80005c68:	004baa83          	lw	x21,4(x23)
80005c6c:	000b8413          	addi	x8,x23,0
80005c70:	8000a7b7          	lui	x15,0x8000a
80005c74:	7e078793          	addi	x15,x15,2016 # 8000a7e0 <_end+0xffffffd0>
80005c78:	0007a703          	lw	x14,0(x15)
80005c7c:	01477463          	bgeu	x14,x20,80005c84 <_malloc_r+0x40c>
80005c80:	0147a023          	sw	x20,0(x15)
80005c84:	8000a7b7          	lui	x15,0x8000a
80005c88:	7e478793          	addi	x15,x15,2020 # 8000a7e4 <_end+0xffffffd4>
80005c8c:	0007a703          	lw	x14,0(x15)
80005c90:	1b477663          	bgeu	x14,x20,80005e3c <_malloc_r+0x5c4>
80005c94:	0147a023          	sw	x20,0(x15)
80005c98:	1a40006f          	jal	x0,80005e3c <_malloc_r+0x5c4>
80005c9c:	0014e713          	ori	x14,x9,1
80005ca0:	00e42223          	sw	x14,4(x8)
80005ca4:	009404b3          	add	x9,x8,x9
80005ca8:	00992423          	sw	x9,8(x18)
80005cac:	0017e793          	ori	x15,x15,1
80005cb0:	00098513          	addi	x10,x19,0
80005cb4:	00f4a223          	sw	x15,4(x9)
80005cb8:	708000ef          	jal	x1,800063c0 <__malloc_unlock>
80005cbc:	00840513          	addi	x10,x8,8
80005cc0:	df9ff06f          	jal	x0,80005ab8 <_malloc_r+0x240>
80005cc4:	00c42683          	lw	x13,12(x8)
80005cc8:	00842603          	lw	x12,8(x8)
80005ccc:	c31ff06f          	jal	x0,800058fc <_malloc_r+0x84>
80005cd0:	00955793          	srli	x15,x10,0x9
80005cd4:	00400713          	addi	x14,x0,4
80005cd8:	14f77263          	bgeu	x14,x15,80005e1c <_malloc_r+0x5a4>
80005cdc:	01400713          	addi	x14,x0,20
80005ce0:	22f76a63          	bltu	x14,x15,80005f14 <_malloc_r+0x69c>
80005ce4:	05c78693          	addi	x13,x15,92
80005ce8:	05b78593          	addi	x11,x15,91
80005cec:	00369693          	slli	x13,x13,0x3
80005cf0:	00d906b3          	add	x13,x18,x13
80005cf4:	0006a783          	lw	x15,0(x13)
80005cf8:	ff868693          	addi	x13,x13,-8
80005cfc:	1cf68863          	beq	x13,x15,80005ecc <_malloc_r+0x654>
80005d00:	0047a703          	lw	x14,4(x15)
80005d04:	ffc77713          	andi	x14,x14,-4
80005d08:	00e57663          	bgeu	x10,x14,80005d14 <_malloc_r+0x49c>
80005d0c:	0087a783          	lw	x15,8(x15)
80005d10:	fef698e3          	bne	x13,x15,80005d00 <_malloc_r+0x488>
80005d14:	00c7a683          	lw	x13,12(x15)
80005d18:	00492703          	lw	x14,4(x18)
80005d1c:	00d42623          	sw	x13,12(x8)
80005d20:	00f42423          	sw	x15,8(x8)
80005d24:	0086a423          	sw	x8,8(x13)
80005d28:	0087a623          	sw	x8,12(x15)
80005d2c:	ce1ff06f          	jal	x0,80005a0c <_malloc_r+0x194>
80005d30:	01400713          	addi	x14,x0,20
80005d34:	12f77663          	bgeu	x14,x15,80005e60 <_malloc_r+0x5e8>
80005d38:	05400713          	addi	x14,x0,84
80005d3c:	1ef76a63          	bltu	x14,x15,80005f30 <_malloc_r+0x6b8>
80005d40:	00c4d793          	srli	x15,x9,0xc
80005d44:	06f78613          	addi	x12,x15,111
80005d48:	06e78513          	addi	x10,x15,110
80005d4c:	00361693          	slli	x13,x12,0x3
80005d50:	c0dff06f          	jal	x0,8000595c <_malloc_r+0xe4>
80005d54:	001e0e13          	addi	x28,x28,1
80005d58:	003e7793          	andi	x15,x28,3
80005d5c:	00850513          	addi	x10,x10,8
80005d60:	10078e63          	beq	x15,x0,80005e7c <_malloc_r+0x604>
80005d64:	00c52783          	lw	x15,12(x10)
80005d68:	cf9ff06f          	jal	x0,80005a60 <_malloc_r+0x1e8>
80005d6c:	00842603          	lw	x12,8(x8)
80005d70:	0014e593          	ori	x11,x9,1
80005d74:	00b42223          	sw	x11,4(x8)
80005d78:	00f62623          	sw	x15,12(x12)
80005d7c:	00c7a423          	sw	x12,8(x15)
80005d80:	009404b3          	add	x9,x8,x9
80005d84:	00992a23          	sw	x9,20(x18)
80005d88:	00992823          	sw	x9,16(x18)
80005d8c:	0016e793          	ori	x15,x13,1
80005d90:	0114a623          	sw	x17,12(x9)
80005d94:	0114a423          	sw	x17,8(x9)
80005d98:	00f4a223          	sw	x15,4(x9)
80005d9c:	00e40733          	add	x14,x8,x14
80005da0:	00098513          	addi	x10,x19,0
80005da4:	00d72023          	sw	x13,0(x14)
80005da8:	618000ef          	jal	x1,800063c0 <__malloc_unlock>
80005dac:	00840513          	addi	x10,x8,8
80005db0:	d09ff06f          	jal	x0,80005ab8 <_malloc_r+0x240>
80005db4:	0034d613          	srli	x12,x9,0x3
80005db8:	00848793          	addi	x15,x9,8
80005dbc:	b19ff06f          	jal	x0,800058d4 <_malloc_r+0x5c>
80005dc0:	00a40733          	add	x14,x8,x10
80005dc4:	00472783          	lw	x15,4(x14)
80005dc8:	00098513          	addi	x10,x19,0
80005dcc:	0017e793          	ori	x15,x15,1
80005dd0:	00f72223          	sw	x15,4(x14)
80005dd4:	5ec000ef          	jal	x1,800063c0 <__malloc_unlock>
80005dd8:	00840513          	addi	x10,x8,8
80005ddc:	cddff06f          	jal	x0,80005ab8 <_malloc_r+0x240>
80005de0:	0014e713          	ori	x14,x9,1
80005de4:	00e42223          	sw	x14,4(x8)
80005de8:	009404b3          	add	x9,x8,x9
80005dec:	00992a23          	sw	x9,20(x18)
80005df0:	00992823          	sw	x9,16(x18)
80005df4:	0017e713          	ori	x14,x15,1
80005df8:	0114a623          	sw	x17,12(x9)
80005dfc:	0114a423          	sw	x17,8(x9)
80005e00:	00e4a223          	sw	x14,4(x9)
80005e04:	00a40533          	add	x10,x8,x10
80005e08:	00f52023          	sw	x15,0(x10)
80005e0c:	00098513          	addi	x10,x19,0
80005e10:	5b0000ef          	jal	x1,800063c0 <__malloc_unlock>
80005e14:	00840513          	addi	x10,x8,8
80005e18:	ca1ff06f          	jal	x0,80005ab8 <_malloc_r+0x240>
80005e1c:	00655793          	srli	x15,x10,0x6
80005e20:	03978693          	addi	x13,x15,57
80005e24:	03878593          	addi	x11,x15,56
80005e28:	00369693          	slli	x13,x13,0x3
80005e2c:	ec5ff06f          	jal	x0,80005cf0 <_malloc_r+0x478>
80005e30:	11240e63          	beq	x8,x18,80005f4c <_malloc_r+0x6d4>
80005e34:	00892403          	lw	x8,8(x18)
80005e38:	00442a83          	lw	x21,4(x8)
80005e3c:	ffcafa93          	andi	x21,x21,-4
80005e40:	409a87b3          	sub	x15,x21,x9
80005e44:	009ae663          	bltu	x21,x9,80005e50 <_malloc_r+0x5d8>
80005e48:	00f00713          	addi	x14,x0,15
80005e4c:	e4f748e3          	blt	x14,x15,80005c9c <_malloc_r+0x424>
80005e50:	00098513          	addi	x10,x19,0
80005e54:	56c000ef          	jal	x1,800063c0 <__malloc_unlock>
80005e58:	00000513          	addi	x10,x0,0
80005e5c:	c5dff06f          	jal	x0,80005ab8 <_malloc_r+0x240>
80005e60:	05c78613          	addi	x12,x15,92
80005e64:	05b78513          	addi	x10,x15,91
80005e68:	00361693          	slli	x13,x12,0x3
80005e6c:	af1ff06f          	jal	x0,8000595c <_malloc_r+0xe4>
80005e70:	00832783          	lw	x15,8(x6)
80005e74:	fff60613          	addi	x12,x12,-1
80005e78:	1c679263          	bne	x15,x6,8000603c <_malloc_r+0x7c4>
80005e7c:	00367793          	andi	x15,x12,3
80005e80:	ff830313          	addi	x6,x6,-8
80005e84:	fe0796e3          	bne	x15,x0,80005e70 <_malloc_r+0x5f8>
80005e88:	00492703          	lw	x14,4(x18)
80005e8c:	fff5c793          	xori	x15,x11,-1
80005e90:	00e7f7b3          	and	x15,x15,x14
80005e94:	00f92223          	sw	x15,4(x18)
80005e98:	00159593          	slli	x11,x11,0x1
80005e9c:	c8b7e8e3          	bltu	x15,x11,80005b2c <_malloc_r+0x2b4>
80005ea0:	c80586e3          	beq	x11,x0,80005b2c <_malloc_r+0x2b4>
80005ea4:	00f5f733          	and	x14,x11,x15
80005ea8:	00071a63          	bne	x14,x0,80005ebc <_malloc_r+0x644>
80005eac:	00159593          	slli	x11,x11,0x1
80005eb0:	00f5f733          	and	x14,x11,x15
80005eb4:	004e0e13          	addi	x28,x28,4
80005eb8:	fe070ae3          	beq	x14,x0,80005eac <_malloc_r+0x634>
80005ebc:	000e0613          	addi	x12,x28,0
80005ec0:	b8dff06f          	jal	x0,80005a4c <_malloc_r+0x1d4>
80005ec4:	010a8a93          	addi	x21,x21,16
80005ec8:	cb9ff06f          	jal	x0,80005b80 <_malloc_r+0x308>
80005ecc:	00492503          	lw	x10,4(x18)
80005ed0:	4025d593          	srai	x11,x11,0x2
80005ed4:	00100713          	addi	x14,x0,1
80005ed8:	00b71733          	sll	x14,x14,x11
80005edc:	00a76733          	or	x14,x14,x10
80005ee0:	00e92223          	sw	x14,4(x18)
80005ee4:	e39ff06f          	jal	x0,80005d1c <_malloc_r+0x4a4>
80005ee8:	015b8a33          	add	x20,x23,x21
80005eec:	41400a33          	sub	x20,x0,x20
80005ef0:	014a1a13          	slli	x20,x20,0x14
80005ef4:	014a5a13          	srli	x20,x20,0x14
80005ef8:	000a0593          	addi	x11,x20,0
80005efc:	00098513          	addi	x10,x19,0
80005f00:	23d000ef          	jal	x1,8000693c <_sbrk_r>
80005f04:	fff00793          	addi	x15,x0,-1
80005f08:	d0f514e3          	bne	x10,x15,80005c10 <_malloc_r+0x398>
80005f0c:	00000a13          	addi	x20,x0,0
80005f10:	d09ff06f          	jal	x0,80005c18 <_malloc_r+0x3a0>
80005f14:	05400713          	addi	x14,x0,84
80005f18:	08f76263          	bltu	x14,x15,80005f9c <_malloc_r+0x724>
80005f1c:	00c55793          	srli	x15,x10,0xc
80005f20:	06f78693          	addi	x13,x15,111
80005f24:	06e78593          	addi	x11,x15,110
80005f28:	00369693          	slli	x13,x13,0x3
80005f2c:	dc5ff06f          	jal	x0,80005cf0 <_malloc_r+0x478>
80005f30:	15400713          	addi	x14,x0,340
80005f34:	08f76263          	bltu	x14,x15,80005fb8 <_malloc_r+0x740>
80005f38:	00f4d793          	srli	x15,x9,0xf
80005f3c:	07878613          	addi	x12,x15,120
80005f40:	07778513          	addi	x10,x15,119
80005f44:	00361693          	slli	x13,x12,0x3
80005f48:	a15ff06f          	jal	x0,8000595c <_malloc_r+0xe4>
80005f4c:	8000ad37          	lui	x26,0x8000a
80005f50:	7b8d0d13          	addi	x26,x26,1976 # 8000a7b8 <_end+0xffffffa8>
80005f54:	000d2783          	lw	x15,0(x26)
80005f58:	00fa87b3          	add	x15,x21,x15
80005f5c:	00fd2023          	sw	x15,0(x26)
80005f60:	c59ff06f          	jal	x0,80005bb8 <_malloc_r+0x340>
80005f64:	014c9713          	slli	x14,x25,0x14
80005f68:	c40718e3          	bne	x14,x0,80005bb8 <_malloc_r+0x340>
80005f6c:	00892403          	lw	x8,8(x18)
80005f70:	015b0ab3          	add	x21,x22,x21
80005f74:	001aea93          	ori	x21,x21,1
80005f78:	01542223          	sw	x21,4(x8)
80005f7c:	cf5ff06f          	jal	x0,80005c70 <_malloc_r+0x3f8>
80005f80:	017c2023          	sw	x23,0(x24)
80005f84:	c4dff06f          	jal	x0,80005bd0 <_malloc_r+0x358>
80005f88:	000b8413          	addi	x8,x23,0
80005f8c:	ce5ff06f          	jal	x0,80005c70 <_malloc_r+0x3f8>
80005f90:	00100793          	addi	x15,x0,1
80005f94:	00fba223          	sw	x15,4(x23)
80005f98:	eb9ff06f          	jal	x0,80005e50 <_malloc_r+0x5d8>
80005f9c:	15400713          	addi	x14,x0,340
80005fa0:	06f76263          	bltu	x14,x15,80006004 <_malloc_r+0x78c>
80005fa4:	00f55793          	srli	x15,x10,0xf
80005fa8:	07878693          	addi	x13,x15,120
80005fac:	07778593          	addi	x11,x15,119
80005fb0:	00369693          	slli	x13,x13,0x3
80005fb4:	d3dff06f          	jal	x0,80005cf0 <_malloc_r+0x478>
80005fb8:	55400713          	addi	x14,x0,1364
80005fbc:	06f76263          	bltu	x14,x15,80006020 <_malloc_r+0x7a8>
80005fc0:	0124d793          	srli	x15,x9,0x12
80005fc4:	07d78613          	addi	x12,x15,125
80005fc8:	07c78513          	addi	x10,x15,124
80005fcc:	00361693          	slli	x13,x12,0x3
80005fd0:	98dff06f          	jal	x0,8000595c <_malloc_r+0xe4>
80005fd4:	ff8c0c13          	addi	x24,x24,-8
80005fd8:	018a8ab3          	add	x21,x21,x24
80005fdc:	417a8ab3          	sub	x21,x21,x23
80005fe0:	00000a13          	addi	x20,x0,0
80005fe4:	c35ff06f          	jal	x0,80005c18 <_malloc_r+0x3a0>
80005fe8:	00840593          	addi	x11,x8,8
80005fec:	00098513          	addi	x10,x19,0
80005ff0:	e75fe0ef          	jal	x1,80004e64 <_free_r>
80005ff4:	00892403          	lw	x8,8(x18)
80005ff8:	000d2a03          	lw	x20,0(x26)
80005ffc:	00442a83          	lw	x21,4(x8)
80006000:	c71ff06f          	jal	x0,80005c70 <_malloc_r+0x3f8>
80006004:	55400713          	addi	x14,x0,1364
80006008:	02f76463          	bltu	x14,x15,80006030 <_malloc_r+0x7b8>
8000600c:	01255793          	srli	x15,x10,0x12
80006010:	07d78693          	addi	x13,x15,125
80006014:	07c78593          	addi	x11,x15,124
80006018:	00369693          	slli	x13,x13,0x3
8000601c:	cd5ff06f          	jal	x0,80005cf0 <_malloc_r+0x478>
80006020:	3f800693          	addi	x13,x0,1016
80006024:	07f00613          	addi	x12,x0,127
80006028:	07e00513          	addi	x10,x0,126
8000602c:	931ff06f          	jal	x0,8000595c <_malloc_r+0xe4>
80006030:	3f800693          	addi	x13,x0,1016
80006034:	07e00593          	addi	x11,x0,126
80006038:	cb9ff06f          	jal	x0,80005cf0 <_malloc_r+0x478>
8000603c:	00492783          	lw	x15,4(x18)
80006040:	e59ff06f          	jal	x0,80005e98 <_malloc_r+0x620>

Disassembly of section .text.__ascii_mbtowc:

80006044 <__ascii_mbtowc>:
80006044:	02058063          	beq	x11,x0,80006064 <__ascii_mbtowc+0x20>
80006048:	04060263          	beq	x12,x0,8000608c <__ascii_mbtowc+0x48>
8000604c:	04068863          	beq	x13,x0,8000609c <__ascii_mbtowc+0x58>
80006050:	00064783          	lbu	x15,0(x12)
80006054:	00f5a023          	sw	x15,0(x11)
80006058:	00064503          	lbu	x10,0(x12)
8000605c:	00a03533          	sltu	x10,x0,x10
80006060:	00008067          	jalr	x0,0(x1)
80006064:	ff010113          	addi	x2,x2,-16
80006068:	00c10593          	addi	x11,x2,12
8000606c:	02060463          	beq	x12,x0,80006094 <__ascii_mbtowc+0x50>
80006070:	02068a63          	beq	x13,x0,800060a4 <__ascii_mbtowc+0x60>
80006074:	00064783          	lbu	x15,0(x12)
80006078:	00f5a023          	sw	x15,0(x11)
8000607c:	00064503          	lbu	x10,0(x12)
80006080:	00a03533          	sltu	x10,x0,x10
80006084:	01010113          	addi	x2,x2,16
80006088:	00008067          	jalr	x0,0(x1)
8000608c:	00000513          	addi	x10,x0,0
80006090:	00008067          	jalr	x0,0(x1)
80006094:	00000513          	addi	x10,x0,0
80006098:	fedff06f          	jal	x0,80006084 <__ascii_mbtowc+0x40>
8000609c:	ffe00513          	addi	x10,x0,-2
800060a0:	00008067          	jalr	x0,0(x1)
800060a4:	ffe00513          	addi	x10,x0,-2
800060a8:	fddff06f          	jal	x0,80006084 <__ascii_mbtowc+0x40>

Disassembly of section .text.memchr:

800060ac <memchr>:
800060ac:	00357793          	andi	x15,x10,3
800060b0:	0ff5f693          	andi	x13,x11,255
800060b4:	02078a63          	beq	x15,x0,800060e8 <memchr+0x3c>
800060b8:	fff60793          	addi	x15,x12,-1
800060bc:	02060e63          	beq	x12,x0,800060f8 <memchr+0x4c>
800060c0:	fff00613          	addi	x12,x0,-1
800060c4:	0180006f          	jal	x0,800060dc <memchr+0x30>
800060c8:	00150513          	addi	x10,x10,1
800060cc:	00357713          	andi	x14,x10,3
800060d0:	00070e63          	beq	x14,x0,800060ec <memchr+0x40>
800060d4:	fff78793          	addi	x15,x15,-1
800060d8:	02c78063          	beq	x15,x12,800060f8 <memchr+0x4c>
800060dc:	00054703          	lbu	x14,0(x10)
800060e0:	fed714e3          	bne	x14,x13,800060c8 <memchr+0x1c>
800060e4:	00008067          	jalr	x0,0(x1)
800060e8:	00060793          	addi	x15,x12,0
800060ec:	00300713          	addi	x14,x0,3
800060f0:	02f76663          	bltu	x14,x15,8000611c <memchr+0x70>
800060f4:	00079663          	bne	x15,x0,80006100 <memchr+0x54>
800060f8:	00000513          	addi	x10,x0,0
800060fc:	00008067          	jalr	x0,0(x1)
80006100:	00f507b3          	add	x15,x10,x15
80006104:	00c0006f          	jal	x0,80006110 <memchr+0x64>
80006108:	00150513          	addi	x10,x10,1
8000610c:	fea786e3          	beq	x15,x10,800060f8 <memchr+0x4c>
80006110:	00054703          	lbu	x14,0(x10)
80006114:	fed71ae3          	bne	x14,x13,80006108 <memchr+0x5c>
80006118:	00008067          	jalr	x0,0(x1)
8000611c:	0ff5f593          	andi	x11,x11,255
80006120:	00859893          	slli	x17,x11,0x8
80006124:	00b8e5b3          	or	x11,x17,x11
80006128:	01059893          	slli	x17,x11,0x10
8000612c:	00b8e8b3          	or	x17,x17,x11
80006130:	feff0837          	lui	x16,0xfeff0
80006134:	808085b7          	lui	x11,0x80808
80006138:	eff80813          	addi	x16,x16,-257 # fefefeff <_end+0x7efe56ef>
8000613c:	08058593          	addi	x11,x11,128 # 80808080 <_end+0x7fd870>
80006140:	00300313          	addi	x6,x0,3
80006144:	00052703          	lw	x14,0(x10)
80006148:	00e8c733          	xor	x14,x17,x14
8000614c:	01070633          	add	x12,x14,x16
80006150:	fff74713          	xori	x14,x14,-1
80006154:	00e67733          	and	x14,x12,x14
80006158:	00b77733          	and	x14,x14,x11
8000615c:	fa0712e3          	bne	x14,x0,80006100 <memchr+0x54>
80006160:	ffc78793          	addi	x15,x15,-4
80006164:	00450513          	addi	x10,x10,4
80006168:	fcf36ee3          	bltu	x6,x15,80006144 <memchr+0x98>
8000616c:	f8079ae3          	bne	x15,x0,80006100 <memchr+0x54>
80006170:	f89ff06f          	jal	x0,800060f8 <memchr+0x4c>

Disassembly of section .text.memcpy:

80006174 <memcpy>:
80006174:	00a5c7b3          	xor	x15,x11,x10
80006178:	0037f793          	andi	x15,x15,3
8000617c:	00c508b3          	add	x17,x10,x12
80006180:	06079663          	bne	x15,x0,800061ec <memcpy+0x78>
80006184:	00300793          	addi	x15,x0,3
80006188:	06c7f263          	bgeu	x15,x12,800061ec <memcpy+0x78>
8000618c:	00357793          	andi	x15,x10,3
80006190:	00050713          	addi	x14,x10,0
80006194:	0c079a63          	bne	x15,x0,80006268 <memcpy+0xf4>
80006198:	ffc8f613          	andi	x12,x17,-4
8000619c:	40e606b3          	sub	x13,x12,x14
800061a0:	02000793          	addi	x15,x0,32
800061a4:	02000293          	addi	x5,x0,32
800061a8:	06d7c263          	blt	x15,x13,8000620c <memcpy+0x98>
800061ac:	00058693          	addi	x13,x11,0
800061b0:	00070793          	addi	x15,x14,0
800061b4:	02c77863          	bgeu	x14,x12,800061e4 <memcpy+0x70>
800061b8:	0006a803          	lw	x16,0(x13)
800061bc:	00478793          	addi	x15,x15,4
800061c0:	00468693          	addi	x13,x13,4
800061c4:	ff07ae23          	sw	x16,-4(x15)
800061c8:	fec7e8e3          	bltu	x15,x12,800061b8 <memcpy+0x44>
800061cc:	fff60793          	addi	x15,x12,-1
800061d0:	40e787b3          	sub	x15,x15,x14
800061d4:	ffc7f793          	andi	x15,x15,-4
800061d8:	00478793          	addi	x15,x15,4
800061dc:	00f70733          	add	x14,x14,x15
800061e0:	00f585b3          	add	x11,x11,x15
800061e4:	01176863          	bltu	x14,x17,800061f4 <memcpy+0x80>
800061e8:	00008067          	jalr	x0,0(x1)
800061ec:	00050713          	addi	x14,x10,0
800061f0:	ff157ce3          	bgeu	x10,x17,800061e8 <memcpy+0x74>
800061f4:	0005c783          	lbu	x15,0(x11)
800061f8:	00170713          	addi	x14,x14,1
800061fc:	00158593          	addi	x11,x11,1
80006200:	fef70fa3          	sb	x15,-1(x14)
80006204:	ff1768e3          	bltu	x14,x17,800061f4 <memcpy+0x80>
80006208:	00008067          	jalr	x0,0(x1)
8000620c:	0045a683          	lw	x13,4(x11)
80006210:	01c5a783          	lw	x15,28(x11)
80006214:	0005af83          	lw	x31,0(x11)
80006218:	0085af03          	lw	x30,8(x11)
8000621c:	00c5ae83          	lw	x29,12(x11)
80006220:	0105ae03          	lw	x28,16(x11)
80006224:	0145a303          	lw	x6,20(x11)
80006228:	0185a803          	lw	x16,24(x11)
8000622c:	00d72223          	sw	x13,4(x14)
80006230:	0205a683          	lw	x13,32(x11)
80006234:	01f72023          	sw	x31,0(x14)
80006238:	01e72423          	sw	x30,8(x14)
8000623c:	01d72623          	sw	x29,12(x14)
80006240:	01c72823          	sw	x28,16(x14)
80006244:	00672a23          	sw	x6,20(x14)
80006248:	01072c23          	sw	x16,24(x14)
8000624c:	00f72e23          	sw	x15,28(x14)
80006250:	02470713          	addi	x14,x14,36
80006254:	40e607b3          	sub	x15,x12,x14
80006258:	fed72e23          	sw	x13,-4(x14)
8000625c:	02458593          	addi	x11,x11,36
80006260:	faf2c6e3          	blt	x5,x15,8000620c <memcpy+0x98>
80006264:	f49ff06f          	jal	x0,800061ac <memcpy+0x38>
80006268:	0005c683          	lbu	x13,0(x11)
8000626c:	00170713          	addi	x14,x14,1
80006270:	00377793          	andi	x15,x14,3
80006274:	fed70fa3          	sb	x13,-1(x14)
80006278:	00158593          	addi	x11,x11,1
8000627c:	f0078ee3          	beq	x15,x0,80006198 <memcpy+0x24>
80006280:	0005c683          	lbu	x13,0(x11)
80006284:	00170713          	addi	x14,x14,1
80006288:	00377793          	andi	x15,x14,3
8000628c:	fed70fa3          	sb	x13,-1(x14)
80006290:	00158593          	addi	x11,x11,1
80006294:	fc079ae3          	bne	x15,x0,80006268 <memcpy+0xf4>
80006298:	f01ff06f          	jal	x0,80006198 <memcpy+0x24>

Disassembly of section .text.memmove:

8000629c <memmove>:
8000629c:	02a5f663          	bgeu	x11,x10,800062c8 <memmove+0x2c>
800062a0:	00c587b3          	add	x15,x11,x12
800062a4:	02f57263          	bgeu	x10,x15,800062c8 <memmove+0x2c>
800062a8:	00c50733          	add	x14,x10,x12
800062ac:	0e060a63          	beq	x12,x0,800063a0 <memmove+0x104>
800062b0:	fff7c683          	lbu	x13,-1(x15)
800062b4:	fff78793          	addi	x15,x15,-1
800062b8:	fff70713          	addi	x14,x14,-1
800062bc:	00d70023          	sb	x13,0(x14)
800062c0:	fef598e3          	bne	x11,x15,800062b0 <memmove+0x14>
800062c4:	00008067          	jalr	x0,0(x1)
800062c8:	00f00793          	addi	x15,x0,15
800062cc:	02c7e863          	bltu	x15,x12,800062fc <memmove+0x60>
800062d0:	00050793          	addi	x15,x10,0
800062d4:	fff60693          	addi	x13,x12,-1
800062d8:	0c060c63          	beq	x12,x0,800063b0 <memmove+0x114>
800062dc:	00168693          	addi	x13,x13,1
800062e0:	00d786b3          	add	x13,x15,x13
800062e4:	0005c703          	lbu	x14,0(x11)
800062e8:	00178793          	addi	x15,x15,1
800062ec:	00158593          	addi	x11,x11,1
800062f0:	fee78fa3          	sb	x14,-1(x15)
800062f4:	fed798e3          	bne	x15,x13,800062e4 <memmove+0x48>
800062f8:	00008067          	jalr	x0,0(x1)
800062fc:	00a5e7b3          	or	x15,x11,x10
80006300:	0037f793          	andi	x15,x15,3
80006304:	0a079063          	bne	x15,x0,800063a4 <memmove+0x108>
80006308:	ff060893          	addi	x17,x12,-16
8000630c:	ff08f893          	andi	x17,x17,-16
80006310:	01088893          	addi	x17,x17,16
80006314:	01150833          	add	x16,x10,x17
80006318:	00058713          	addi	x14,x11,0
8000631c:	00050793          	addi	x15,x10,0
80006320:	00072683          	lw	x13,0(x14)
80006324:	01070713          	addi	x14,x14,16
80006328:	01078793          	addi	x15,x15,16
8000632c:	fed7a823          	sw	x13,-16(x15)
80006330:	ff472683          	lw	x13,-12(x14)
80006334:	fed7aa23          	sw	x13,-12(x15)
80006338:	ff872683          	lw	x13,-8(x14)
8000633c:	fed7ac23          	sw	x13,-8(x15)
80006340:	ffc72683          	lw	x13,-4(x14)
80006344:	fed7ae23          	sw	x13,-4(x15)
80006348:	fcf81ce3          	bne	x16,x15,80006320 <memmove+0x84>
8000634c:	00c67713          	andi	x14,x12,12
80006350:	011585b3          	add	x11,x11,x17
80006354:	00f67813          	andi	x16,x12,15
80006358:	04070e63          	beq	x14,x0,800063b4 <memmove+0x118>
8000635c:	00058713          	addi	x14,x11,0
80006360:	00078893          	addi	x17,x15,0
80006364:	00300e13          	addi	x28,x0,3
80006368:	00072303          	lw	x6,0(x14)
8000636c:	00470713          	addi	x14,x14,4
80006370:	40e806b3          	sub	x13,x16,x14
80006374:	0068a023          	sw	x6,0(x17)
80006378:	00d586b3          	add	x13,x11,x13
8000637c:	00488893          	addi	x17,x17,4
80006380:	fede64e3          	bltu	x28,x13,80006368 <memmove+0xcc>
80006384:	ffc80713          	addi	x14,x16,-4
80006388:	ffc77713          	andi	x14,x14,-4
8000638c:	00470713          	addi	x14,x14,4
80006390:	00367613          	andi	x12,x12,3
80006394:	00e787b3          	add	x15,x15,x14
80006398:	00e585b3          	add	x11,x11,x14
8000639c:	f39ff06f          	jal	x0,800062d4 <memmove+0x38>
800063a0:	00008067          	jalr	x0,0(x1)
800063a4:	fff60693          	addi	x13,x12,-1
800063a8:	00050793          	addi	x15,x10,0
800063ac:	f31ff06f          	jal	x0,800062dc <memmove+0x40>
800063b0:	00008067          	jalr	x0,0(x1)
800063b4:	00080613          	addi	x12,x16,0
800063b8:	f1dff06f          	jal	x0,800062d4 <memmove+0x38>

Disassembly of section .text.__malloc_lock:

800063bc <__malloc_lock>:
800063bc:	00008067          	jalr	x0,0(x1)

Disassembly of section .text.__malloc_unlock:

800063c0 <__malloc_unlock>:
800063c0:	00008067          	jalr	x0,0(x1)

Disassembly of section .text._realloc_r:

800063c4 <_realloc_r>:
800063c4:	fd010113          	addi	x2,x2,-48
800063c8:	03212023          	sw	x18,32(x2)
800063cc:	02112623          	sw	x1,44(x2)
800063d0:	02812423          	sw	x8,40(x2)
800063d4:	02912223          	sw	x9,36(x2)
800063d8:	01312e23          	sw	x19,28(x2)
800063dc:	01412c23          	sw	x20,24(x2)
800063e0:	01512a23          	sw	x21,20(x2)
800063e4:	01612823          	sw	x22,16(x2)
800063e8:	01712623          	sw	x23,12(x2)
800063ec:	01812423          	sw	x24,8(x2)
800063f0:	00060913          	addi	x18,x12,0
800063f4:	1c058663          	beq	x11,x0,800065c0 <_realloc_r+0x1fc>
800063f8:	00058413          	addi	x8,x11,0
800063fc:	00050993          	addi	x19,x10,0
80006400:	fbdff0ef          	jal	x1,800063bc <__malloc_lock>
80006404:	00b90493          	addi	x9,x18,11
80006408:	01600793          	addi	x15,x0,22
8000640c:	0e97fe63          	bgeu	x15,x9,80006508 <_realloc_r+0x144>
80006410:	ff84f493          	andi	x9,x9,-8
80006414:	00048713          	addi	x14,x9,0
80006418:	0e04ce63          	blt	x9,x0,80006514 <_realloc_r+0x150>
8000641c:	0f24ec63          	bltu	x9,x18,80006514 <_realloc_r+0x150>
80006420:	ffc42783          	lw	x15,-4(x8)
80006424:	ff840a93          	addi	x21,x8,-8
80006428:	ffc7fa13          	andi	x20,x15,-4
8000642c:	014a8b33          	add	x22,x21,x20
80006430:	12ea5e63          	bge	x20,x14,8000656c <_realloc_r+0x1a8>
80006434:	800086b7          	lui	x13,0x80008
80006438:	c1068b93          	addi	x23,x13,-1008 # 80007c10 <_end+0xffffd400>
8000643c:	008ba603          	lw	x12,8(x23)
80006440:	004b2683          	lw	x13,4(x22)
80006444:	1f660063          	beq	x12,x22,80006624 <_realloc_r+0x260>
80006448:	ffe6f613          	andi	x12,x13,-2
8000644c:	00cb0633          	add	x12,x22,x12
80006450:	00462603          	lw	x12,4(x12)
80006454:	00167613          	andi	x12,x12,1
80006458:	14061663          	bne	x12,x0,800065a4 <_realloc_r+0x1e0>
8000645c:	ffc6f693          	andi	x13,x13,-4
80006460:	00da0633          	add	x12,x20,x13
80006464:	0ee65863          	bge	x12,x14,80006554 <_realloc_r+0x190>
80006468:	0017f793          	andi	x15,x15,1
8000646c:	02079463          	bne	x15,x0,80006494 <_realloc_r+0xd0>
80006470:	ff842c03          	lw	x24,-8(x8)
80006474:	418a8c33          	sub	x24,x21,x24
80006478:	004c2783          	lw	x15,4(x24)
8000647c:	ffc7f793          	andi	x15,x15,-4
80006480:	00d786b3          	add	x13,x15,x13
80006484:	01468bb3          	add	x23,x13,x20
80006488:	34ebda63          	bge	x23,x14,800067dc <_realloc_r+0x418>
8000648c:	00fa0bb3          	add	x23,x20,x15
80006490:	2cebd463          	bge	x23,x14,80006758 <_realloc_r+0x394>
80006494:	00090593          	addi	x11,x18,0
80006498:	00098513          	addi	x10,x19,0
8000649c:	bdcff0ef          	jal	x1,80005878 <_malloc_r>
800064a0:	00050913          	addi	x18,x10,0
800064a4:	04050c63          	beq	x10,x0,800064fc <_realloc_r+0x138>
800064a8:	ffc42783          	lw	x15,-4(x8)
800064ac:	ff850713          	addi	x14,x10,-8
800064b0:	ffe7f793          	andi	x15,x15,-2
800064b4:	00fa87b3          	add	x15,x21,x15
800064b8:	28e78663          	beq	x15,x14,80006744 <_realloc_r+0x380>
800064bc:	ffca0613          	addi	x12,x20,-4
800064c0:	02400793          	addi	x15,x0,36
800064c4:	30c7e663          	bltu	x15,x12,800067d0 <_realloc_r+0x40c>
800064c8:	01300713          	addi	x14,x0,19
800064cc:	00042683          	lw	x13,0(x8)
800064d0:	20c76e63          	bltu	x14,x12,800066ec <_realloc_r+0x328>
800064d4:	00050793          	addi	x15,x10,0
800064d8:	00040713          	addi	x14,x8,0
800064dc:	00d7a023          	sw	x13,0(x15)
800064e0:	00472683          	lw	x13,4(x14)
800064e4:	00d7a223          	sw	x13,4(x15)
800064e8:	00872703          	lw	x14,8(x14)
800064ec:	00e7a423          	sw	x14,8(x15)
800064f0:	00040593          	addi	x11,x8,0
800064f4:	00098513          	addi	x10,x19,0
800064f8:	96dfe0ef          	jal	x1,80004e64 <_free_r>
800064fc:	00098513          	addi	x10,x19,0
80006500:	ec1ff0ef          	jal	x1,800063c0 <__malloc_unlock>
80006504:	01c0006f          	jal	x0,80006520 <_realloc_r+0x15c>
80006508:	01000493          	addi	x9,x0,16
8000650c:	01000713          	addi	x14,x0,16
80006510:	f124f8e3          	bgeu	x9,x18,80006420 <_realloc_r+0x5c>
80006514:	00c00793          	addi	x15,x0,12
80006518:	00f9a023          	sw	x15,0(x19)
8000651c:	00000913          	addi	x18,x0,0
80006520:	02c12083          	lw	x1,44(x2)
80006524:	02812403          	lw	x8,40(x2)
80006528:	02412483          	lw	x9,36(x2)
8000652c:	01c12983          	lw	x19,28(x2)
80006530:	01812a03          	lw	x20,24(x2)
80006534:	01412a83          	lw	x21,20(x2)
80006538:	01012b03          	lw	x22,16(x2)
8000653c:	00c12b83          	lw	x23,12(x2)
80006540:	00812c03          	lw	x24,8(x2)
80006544:	00090513          	addi	x10,x18,0
80006548:	02012903          	lw	x18,32(x2)
8000654c:	03010113          	addi	x2,x2,48
80006550:	00008067          	jalr	x0,0(x1)
80006554:	00cb2783          	lw	x15,12(x22)
80006558:	008b2703          	lw	x14,8(x22)
8000655c:	00060a13          	addi	x20,x12,0
80006560:	00ca8b33          	add	x22,x21,x12
80006564:	00f72623          	sw	x15,12(x14)
80006568:	00e7a423          	sw	x14,8(x15)
8000656c:	004aa783          	lw	x15,4(x21)
80006570:	409a0733          	sub	x14,x20,x9
80006574:	00f00693          	addi	x13,x0,15
80006578:	0017f793          	andi	x15,x15,1
8000657c:	06e6ec63          	bltu	x13,x14,800065f4 <_realloc_r+0x230>
80006580:	00fa67b3          	or	x15,x20,x15
80006584:	00faa223          	sw	x15,4(x21)
80006588:	004b2783          	lw	x15,4(x22)
8000658c:	0017e793          	ori	x15,x15,1
80006590:	00fb2223          	sw	x15,4(x22)
80006594:	00098513          	addi	x10,x19,0
80006598:	e29ff0ef          	jal	x1,800063c0 <__malloc_unlock>
8000659c:	00040913          	addi	x18,x8,0
800065a0:	f81ff06f          	jal	x0,80006520 <_realloc_r+0x15c>
800065a4:	0017f793          	andi	x15,x15,1
800065a8:	ee0796e3          	bne	x15,x0,80006494 <_realloc_r+0xd0>
800065ac:	ff842c03          	lw	x24,-8(x8)
800065b0:	418a8c33          	sub	x24,x21,x24
800065b4:	004c2783          	lw	x15,4(x24)
800065b8:	ffc7f793          	andi	x15,x15,-4
800065bc:	ed1ff06f          	jal	x0,8000648c <_realloc_r+0xc8>
800065c0:	02812403          	lw	x8,40(x2)
800065c4:	02c12083          	lw	x1,44(x2)
800065c8:	02412483          	lw	x9,36(x2)
800065cc:	02012903          	lw	x18,32(x2)
800065d0:	01c12983          	lw	x19,28(x2)
800065d4:	01812a03          	lw	x20,24(x2)
800065d8:	01412a83          	lw	x21,20(x2)
800065dc:	01012b03          	lw	x22,16(x2)
800065e0:	00c12b83          	lw	x23,12(x2)
800065e4:	00812c03          	lw	x24,8(x2)
800065e8:	00060593          	addi	x11,x12,0
800065ec:	03010113          	addi	x2,x2,48
800065f0:	a88ff06f          	jal	x0,80005878 <_malloc_r>
800065f4:	0097e7b3          	or	x15,x15,x9
800065f8:	00faa223          	sw	x15,4(x21)
800065fc:	009a85b3          	add	x11,x21,x9
80006600:	00176713          	ori	x14,x14,1
80006604:	00e5a223          	sw	x14,4(x11)
80006608:	004b2783          	lw	x15,4(x22)
8000660c:	00858593          	addi	x11,x11,8
80006610:	00098513          	addi	x10,x19,0
80006614:	0017e793          	ori	x15,x15,1
80006618:	00fb2223          	sw	x15,4(x22)
8000661c:	849fe0ef          	jal	x1,80004e64 <_free_r>
80006620:	f75ff06f          	jal	x0,80006594 <_realloc_r+0x1d0>
80006624:	ffc6f693          	andi	x13,x13,-4
80006628:	00da0633          	add	x12,x20,x13
8000662c:	01048593          	addi	x11,x9,16
80006630:	0eb65063          	bge	x12,x11,80006710 <_realloc_r+0x34c>
80006634:	0017f793          	andi	x15,x15,1
80006638:	e4079ee3          	bne	x15,x0,80006494 <_realloc_r+0xd0>
8000663c:	ff842c03          	lw	x24,-8(x8)
80006640:	418a8c33          	sub	x24,x21,x24
80006644:	004c2783          	lw	x15,4(x24)
80006648:	ffc7f793          	andi	x15,x15,-4
8000664c:	00d786b3          	add	x13,x15,x13
80006650:	01468b33          	add	x22,x13,x20
80006654:	e2bb4ce3          	blt	x22,x11,8000648c <_realloc_r+0xc8>
80006658:	00cc2783          	lw	x15,12(x24)
8000665c:	008c2703          	lw	x14,8(x24)
80006660:	ffca0613          	addi	x12,x20,-4
80006664:	02400693          	addi	x13,x0,36
80006668:	00f72623          	sw	x15,12(x14)
8000666c:	00e7a423          	sw	x14,8(x15)
80006670:	008c0913          	addi	x18,x24,8
80006674:	26c6ec63          	bltu	x13,x12,800068ec <_realloc_r+0x528>
80006678:	01300593          	addi	x11,x0,19
8000667c:	00042703          	lw	x14,0(x8)
80006680:	00090793          	addi	x15,x18,0
80006684:	02c5f263          	bgeu	x11,x12,800066a8 <_realloc_r+0x2e4>
80006688:	00ec2423          	sw	x14,8(x24)
8000668c:	00442703          	lw	x14,4(x8)
80006690:	01b00793          	addi	x15,x0,27
80006694:	00ec2623          	sw	x14,12(x24)
80006698:	26c7e263          	bltu	x15,x12,800068fc <_realloc_r+0x538>
8000669c:	00842703          	lw	x14,8(x8)
800066a0:	010c0793          	addi	x15,x24,16
800066a4:	00840413          	addi	x8,x8,8
800066a8:	00e7a023          	sw	x14,0(x15)
800066ac:	00442703          	lw	x14,4(x8)
800066b0:	00e7a223          	sw	x14,4(x15)
800066b4:	00842703          	lw	x14,8(x8)
800066b8:	00e7a423          	sw	x14,8(x15)
800066bc:	009c0733          	add	x14,x24,x9
800066c0:	409b07b3          	sub	x15,x22,x9
800066c4:	00eba423          	sw	x14,8(x23)
800066c8:	0017e793          	ori	x15,x15,1
800066cc:	00f72223          	sw	x15,4(x14)
800066d0:	004c2783          	lw	x15,4(x24)
800066d4:	00098513          	addi	x10,x19,0
800066d8:	0017f793          	andi	x15,x15,1
800066dc:	0097e4b3          	or	x9,x15,x9
800066e0:	009c2223          	sw	x9,4(x24)
800066e4:	cddff0ef          	jal	x1,800063c0 <__malloc_unlock>
800066e8:	e39ff06f          	jal	x0,80006520 <_realloc_r+0x15c>
800066ec:	00d52023          	sw	x13,0(x10)
800066f0:	00442683          	lw	x13,4(x8)
800066f4:	01b00713          	addi	x14,x0,27
800066f8:	00d52223          	sw	x13,4(x10)
800066fc:	16c76e63          	bltu	x14,x12,80006878 <_realloc_r+0x4b4>
80006700:	00842683          	lw	x13,8(x8)
80006704:	00840713          	addi	x14,x8,8
80006708:	00850793          	addi	x15,x10,8
8000670c:	dd1ff06f          	jal	x0,800064dc <_realloc_r+0x118>
80006710:	009a8ab3          	add	x21,x21,x9
80006714:	409607b3          	sub	x15,x12,x9
80006718:	015ba423          	sw	x21,8(x23)
8000671c:	0017e793          	ori	x15,x15,1
80006720:	00faa223          	sw	x15,4(x21)
80006724:	ffc42783          	lw	x15,-4(x8)
80006728:	00098513          	addi	x10,x19,0
8000672c:	00040913          	addi	x18,x8,0
80006730:	0017f793          	andi	x15,x15,1
80006734:	0097e4b3          	or	x9,x15,x9
80006738:	fe942e23          	sw	x9,-4(x8)
8000673c:	c85ff0ef          	jal	x1,800063c0 <__malloc_unlock>
80006740:	de1ff06f          	jal	x0,80006520 <_realloc_r+0x15c>
80006744:	ffc52783          	lw	x15,-4(x10)
80006748:	ffc7f793          	andi	x15,x15,-4
8000674c:	00fa0a33          	add	x20,x20,x15
80006750:	014a8b33          	add	x22,x21,x20
80006754:	e19ff06f          	jal	x0,8000656c <_realloc_r+0x1a8>
80006758:	00cc2783          	lw	x15,12(x24)
8000675c:	008c2703          	lw	x14,8(x24)
80006760:	ffca0613          	addi	x12,x20,-4
80006764:	02400693          	addi	x13,x0,36
80006768:	00f72623          	sw	x15,12(x14)
8000676c:	00e7a423          	sw	x14,8(x15)
80006770:	008c0913          	addi	x18,x24,8
80006774:	017c0b33          	add	x22,x24,x23
80006778:	0ec6e263          	bltu	x13,x12,8000685c <_realloc_r+0x498>
8000677c:	01300593          	addi	x11,x0,19
80006780:	00042703          	lw	x14,0(x8)
80006784:	00090793          	addi	x15,x18,0
80006788:	02c5f263          	bgeu	x11,x12,800067ac <_realloc_r+0x3e8>
8000678c:	00ec2423          	sw	x14,8(x24)
80006790:	00442703          	lw	x14,4(x8)
80006794:	01b00793          	addi	x15,x0,27
80006798:	00ec2623          	sw	x14,12(x24)
8000679c:	10c7e063          	bltu	x15,x12,8000689c <_realloc_r+0x4d8>
800067a0:	00842703          	lw	x14,8(x8)
800067a4:	010c0793          	addi	x15,x24,16
800067a8:	00840413          	addi	x8,x8,8
800067ac:	00e7a023          	sw	x14,0(x15)
800067b0:	00442703          	lw	x14,4(x8)
800067b4:	000b8a13          	addi	x20,x23,0
800067b8:	000c0a93          	addi	x21,x24,0
800067bc:	00e7a223          	sw	x14,4(x15)
800067c0:	00842703          	lw	x14,8(x8)
800067c4:	00090413          	addi	x8,x18,0
800067c8:	00e7a423          	sw	x14,8(x15)
800067cc:	da1ff06f          	jal	x0,8000656c <_realloc_r+0x1a8>
800067d0:	00040593          	addi	x11,x8,0
800067d4:	ac9ff0ef          	jal	x1,8000629c <memmove>
800067d8:	d19ff06f          	jal	x0,800064f0 <_realloc_r+0x12c>
800067dc:	00cb2783          	lw	x15,12(x22)
800067e0:	008b2703          	lw	x14,8(x22)
800067e4:	ffca0613          	addi	x12,x20,-4
800067e8:	02400693          	addi	x13,x0,36
800067ec:	00f72623          	sw	x15,12(x14)
800067f0:	00e7a423          	sw	x14,8(x15)
800067f4:	008c2703          	lw	x14,8(x24)
800067f8:	00cc2783          	lw	x15,12(x24)
800067fc:	008c0913          	addi	x18,x24,8
80006800:	017c0b33          	add	x22,x24,x23
80006804:	00f72623          	sw	x15,12(x14)
80006808:	00e7a423          	sw	x14,8(x15)
8000680c:	04c6e863          	bltu	x13,x12,8000685c <_realloc_r+0x498>
80006810:	01300693          	addi	x13,x0,19
80006814:	00042703          	lw	x14,0(x8)
80006818:	00090793          	addi	x15,x18,0
8000681c:	f8c6f8e3          	bgeu	x13,x12,800067ac <_realloc_r+0x3e8>
80006820:	00ec2423          	sw	x14,8(x24)
80006824:	00442703          	lw	x14,4(x8)
80006828:	01b00793          	addi	x15,x0,27
8000682c:	00ec2623          	sw	x14,12(x24)
80006830:	00842703          	lw	x14,8(x8)
80006834:	f6c7f8e3          	bgeu	x15,x12,800067a4 <_realloc_r+0x3e0>
80006838:	00ec2823          	sw	x14,16(x24)
8000683c:	00c42703          	lw	x14,12(x8)
80006840:	02400793          	addi	x15,x0,36
80006844:	00ec2a23          	sw	x14,20(x24)
80006848:	01042703          	lw	x14,16(x8)
8000684c:	06f60463          	beq	x12,x15,800068b4 <_realloc_r+0x4f0>
80006850:	018c0793          	addi	x15,x24,24
80006854:	01040413          	addi	x8,x8,16
80006858:	f55ff06f          	jal	x0,800067ac <_realloc_r+0x3e8>
8000685c:	00040593          	addi	x11,x8,0
80006860:	00090513          	addi	x10,x18,0
80006864:	a39ff0ef          	jal	x1,8000629c <memmove>
80006868:	00090413          	addi	x8,x18,0
8000686c:	000b8a13          	addi	x20,x23,0
80006870:	000c0a93          	addi	x21,x24,0
80006874:	cf9ff06f          	jal	x0,8000656c <_realloc_r+0x1a8>
80006878:	00842703          	lw	x14,8(x8)
8000687c:	00e52423          	sw	x14,8(x10)
80006880:	00c42703          	lw	x14,12(x8)
80006884:	00e52623          	sw	x14,12(x10)
80006888:	01042683          	lw	x13,16(x8)
8000688c:	04f60263          	beq	x12,x15,800068d0 <_realloc_r+0x50c>
80006890:	01040713          	addi	x14,x8,16
80006894:	01050793          	addi	x15,x10,16
80006898:	c45ff06f          	jal	x0,800064dc <_realloc_r+0x118>
8000689c:	00842783          	lw	x15,8(x8)
800068a0:	00fc2823          	sw	x15,16(x24)
800068a4:	00c42783          	lw	x15,12(x8)
800068a8:	00fc2a23          	sw	x15,20(x24)
800068ac:	01042703          	lw	x14,16(x8)
800068b0:	fad610e3          	bne	x12,x13,80006850 <_realloc_r+0x48c>
800068b4:	00ec2c23          	sw	x14,24(x24)
800068b8:	01442703          	lw	x14,20(x8)
800068bc:	020c0793          	addi	x15,x24,32
800068c0:	01840413          	addi	x8,x8,24
800068c4:	00ec2e23          	sw	x14,28(x24)
800068c8:	00042703          	lw	x14,0(x8)
800068cc:	ee1ff06f          	jal	x0,800067ac <_realloc_r+0x3e8>
800068d0:	00d52823          	sw	x13,16(x10)
800068d4:	01442683          	lw	x13,20(x8)
800068d8:	01840713          	addi	x14,x8,24
800068dc:	01850793          	addi	x15,x10,24
800068e0:	00d52a23          	sw	x13,20(x10)
800068e4:	01842683          	lw	x13,24(x8)
800068e8:	bf5ff06f          	jal	x0,800064dc <_realloc_r+0x118>
800068ec:	00040593          	addi	x11,x8,0
800068f0:	00090513          	addi	x10,x18,0
800068f4:	9a9ff0ef          	jal	x1,8000629c <memmove>
800068f8:	dc5ff06f          	jal	x0,800066bc <_realloc_r+0x2f8>
800068fc:	00842783          	lw	x15,8(x8)
80006900:	00fc2823          	sw	x15,16(x24)
80006904:	00c42783          	lw	x15,12(x8)
80006908:	00fc2a23          	sw	x15,20(x24)
8000690c:	01042703          	lw	x14,16(x8)
80006910:	00d60863          	beq	x12,x13,80006920 <_realloc_r+0x55c>
80006914:	018c0793          	addi	x15,x24,24
80006918:	01040413          	addi	x8,x8,16
8000691c:	d8dff06f          	jal	x0,800066a8 <_realloc_r+0x2e4>
80006920:	00ec2c23          	sw	x14,24(x24)
80006924:	01442703          	lw	x14,20(x8)
80006928:	020c0793          	addi	x15,x24,32
8000692c:	01840413          	addi	x8,x8,24
80006930:	00ec2e23          	sw	x14,28(x24)
80006934:	00042703          	lw	x14,0(x8)
80006938:	d71ff06f          	jal	x0,800066a8 <_realloc_r+0x2e4>

Disassembly of section .text._sbrk_r:

8000693c <_sbrk_r>:
8000693c:	ff010113          	addi	x2,x2,-16
80006940:	00812423          	sw	x8,8(x2)
80006944:	00912223          	sw	x9,4(x2)
80006948:	00050413          	addi	x8,x10,0
8000694c:	8000a4b7          	lui	x9,0x8000a
80006950:	00058513          	addi	x10,x11,0
80006954:	00112623          	sw	x1,12(x2)
80006958:	7e04a623          	sw	x0,2028(x9) # 8000a7ec <_end+0xffffffdc>
8000695c:	3a5000ef          	jal	x1,80007500 <_sbrk>
80006960:	fff00793          	addi	x15,x0,-1
80006964:	00f50c63          	beq	x10,x15,8000697c <_sbrk_r+0x40>
80006968:	00c12083          	lw	x1,12(x2)
8000696c:	00812403          	lw	x8,8(x2)
80006970:	00412483          	lw	x9,4(x2)
80006974:	01010113          	addi	x2,x2,16
80006978:	00008067          	jalr	x0,0(x1)
8000697c:	7ec4a783          	lw	x15,2028(x9)
80006980:	fe0784e3          	beq	x15,x0,80006968 <_sbrk_r+0x2c>
80006984:	00c12083          	lw	x1,12(x2)
80006988:	00f42023          	sw	x15,0(x8)
8000698c:	00812403          	lw	x8,8(x2)
80006990:	00412483          	lw	x9,4(x2)
80006994:	01010113          	addi	x2,x2,16
80006998:	00008067          	jalr	x0,0(x1)

Disassembly of section .text.raise:

8000699c <raise>:
8000699c:	ff010113          	addi	x2,x2,-16
800069a0:	00912223          	sw	x9,4(x2)
800069a4:	80008737          	lui	x14,0x80008
800069a8:	00112623          	sw	x1,12(x2)
800069ac:	00812423          	sw	x8,8(x2)
800069b0:	01f00793          	addi	x15,x0,31
800069b4:	aa072483          	lw	x9,-1376(x14) # 80007aa0 <_end+0xffffd290>
800069b8:	0aa7e863          	bltu	x15,x10,80006a68 <raise+0xcc>
800069bc:	2dc4a783          	lw	x15,732(x9)
800069c0:	00050413          	addi	x8,x10,0
800069c4:	04078263          	beq	x15,x0,80006a08 <raise+0x6c>
800069c8:	00251713          	slli	x14,x10,0x2
800069cc:	00e787b3          	add	x15,x15,x14
800069d0:	0007a703          	lw	x14,0(x15)
800069d4:	02070a63          	beq	x14,x0,80006a08 <raise+0x6c>
800069d8:	00100693          	addi	x13,x0,1
800069dc:	06d70a63          	beq	x14,x13,80006a50 <raise+0xb4>
800069e0:	fff00693          	addi	x13,x0,-1
800069e4:	04d70663          	beq	x14,x13,80006a30 <raise+0x94>
800069e8:	0007a023          	sw	x0,0(x15)
800069ec:	000700e7          	jalr	x1,0(x14)
800069f0:	00000513          	addi	x10,x0,0
800069f4:	00c12083          	lw	x1,12(x2)
800069f8:	00812403          	lw	x8,8(x2)
800069fc:	00412483          	lw	x9,4(x2)
80006a00:	01010113          	addi	x2,x2,16
80006a04:	00008067          	jalr	x0,0(x1)
80006a08:	00048513          	addi	x10,x9,0
80006a0c:	0d4000ef          	jal	x1,80006ae0 <_getpid_r>
80006a10:	00040613          	addi	x12,x8,0
80006a14:	00812403          	lw	x8,8(x2)
80006a18:	00c12083          	lw	x1,12(x2)
80006a1c:	00050593          	addi	x11,x10,0
80006a20:	00048513          	addi	x10,x9,0
80006a24:	00412483          	lw	x9,4(x2)
80006a28:	01010113          	addi	x2,x2,16
80006a2c:	04c0006f          	jal	x0,80006a78 <_kill_r>
80006a30:	00c12083          	lw	x1,12(x2)
80006a34:	00812403          	lw	x8,8(x2)
80006a38:	01600793          	addi	x15,x0,22
80006a3c:	00f4a023          	sw	x15,0(x9)
80006a40:	00100513          	addi	x10,x0,1
80006a44:	00412483          	lw	x9,4(x2)
80006a48:	01010113          	addi	x2,x2,16
80006a4c:	00008067          	jalr	x0,0(x1)
80006a50:	00c12083          	lw	x1,12(x2)
80006a54:	00812403          	lw	x8,8(x2)
80006a58:	00412483          	lw	x9,4(x2)
80006a5c:	00000513          	addi	x10,x0,0
80006a60:	01010113          	addi	x2,x2,16
80006a64:	00008067          	jalr	x0,0(x1)
80006a68:	01600793          	addi	x15,x0,22
80006a6c:	00f4a023          	sw	x15,0(x9)
80006a70:	fff00513          	addi	x10,x0,-1
80006a74:	f81ff06f          	jal	x0,800069f4 <raise+0x58>

Disassembly of section .text._kill_r:

80006a78 <_kill_r>:
80006a78:	ff010113          	addi	x2,x2,-16
80006a7c:	00058713          	addi	x14,x11,0
80006a80:	00812423          	sw	x8,8(x2)
80006a84:	00912223          	sw	x9,4(x2)
80006a88:	00050413          	addi	x8,x10,0
80006a8c:	8000a4b7          	lui	x9,0x8000a
80006a90:	00060593          	addi	x11,x12,0
80006a94:	00070513          	addi	x10,x14,0
80006a98:	00112623          	sw	x1,12(x2)
80006a9c:	7e04a623          	sw	x0,2028(x9) # 8000a7ec <_end+0xffffffdc>
80006aa0:	1b5000ef          	jal	x1,80007454 <_kill>
80006aa4:	fff00793          	addi	x15,x0,-1
80006aa8:	00f50c63          	beq	x10,x15,80006ac0 <_kill_r+0x48>
80006aac:	00c12083          	lw	x1,12(x2)
80006ab0:	00812403          	lw	x8,8(x2)
80006ab4:	00412483          	lw	x9,4(x2)
80006ab8:	01010113          	addi	x2,x2,16
80006abc:	00008067          	jalr	x0,0(x1)
80006ac0:	7ec4a783          	lw	x15,2028(x9)
80006ac4:	fe0784e3          	beq	x15,x0,80006aac <_kill_r+0x34>
80006ac8:	00c12083          	lw	x1,12(x2)
80006acc:	00f42023          	sw	x15,0(x8)
80006ad0:	00812403          	lw	x8,8(x2)
80006ad4:	00412483          	lw	x9,4(x2)
80006ad8:	01010113          	addi	x2,x2,16
80006adc:	00008067          	jalr	x0,0(x1)

Disassembly of section .text._getpid_r:

80006ae0 <_getpid_r>:
80006ae0:	12d0006f          	jal	x0,8000740c <_getpid>

Disassembly of section .text.__sread:

80006ae4 <__sread>:
80006ae4:	ff010113          	addi	x2,x2,-16
80006ae8:	00812423          	sw	x8,8(x2)
80006aec:	00058413          	addi	x8,x11,0
80006af0:	00e59583          	lh	x11,14(x11)
80006af4:	00112623          	sw	x1,12(x2)
80006af8:	7d4000ef          	jal	x1,800072cc <_read_r>
80006afc:	02054063          	blt	x10,x0,80006b1c <__sread+0x38>
80006b00:	05042783          	lw	x15,80(x8)
80006b04:	00c12083          	lw	x1,12(x2)
80006b08:	00a787b3          	add	x15,x15,x10
80006b0c:	04f42823          	sw	x15,80(x8)
80006b10:	00812403          	lw	x8,8(x2)
80006b14:	01010113          	addi	x2,x2,16
80006b18:	00008067          	jalr	x0,0(x1)
80006b1c:	00c45783          	lhu	x15,12(x8)
80006b20:	fffff737          	lui	x14,0xfffff
80006b24:	fff70713          	addi	x14,x14,-1 # ffffefff <_end+0x7fff47ef>
80006b28:	00e7f7b3          	and	x15,x15,x14
80006b2c:	00c12083          	lw	x1,12(x2)
80006b30:	00f41623          	sh	x15,12(x8)
80006b34:	00812403          	lw	x8,8(x2)
80006b38:	01010113          	addi	x2,x2,16
80006b3c:	00008067          	jalr	x0,0(x1)

Disassembly of section .text.__swrite:

80006b40 <__swrite>:
80006b40:	00c59783          	lh	x15,12(x11)
80006b44:	fe010113          	addi	x2,x2,-32
80006b48:	00812c23          	sw	x8,24(x2)
80006b4c:	00912a23          	sw	x9,20(x2)
80006b50:	01212823          	sw	x18,16(x2)
80006b54:	01312623          	sw	x19,12(x2)
80006b58:	00112e23          	sw	x1,28(x2)
80006b5c:	1007f713          	andi	x14,x15,256
80006b60:	00058413          	addi	x8,x11,0
80006b64:	00050493          	addi	x9,x10,0
80006b68:	00e59583          	lh	x11,14(x11)
80006b6c:	00060913          	addi	x18,x12,0
80006b70:	00068993          	addi	x19,x13,0
80006b74:	02071e63          	bne	x14,x0,80006bb0 <__swrite+0x70>
80006b78:	fffff737          	lui	x14,0xfffff
80006b7c:	fff70713          	addi	x14,x14,-1 # ffffefff <_end+0x7fff47ef>
80006b80:	00e7f7b3          	and	x15,x15,x14
80006b84:	00f41623          	sh	x15,12(x8)
80006b88:	01812403          	lw	x8,24(x2)
80006b8c:	01c12083          	lw	x1,28(x2)
80006b90:	00098693          	addi	x13,x19,0
80006b94:	00090613          	addi	x12,x18,0
80006b98:	00c12983          	lw	x19,12(x2)
80006b9c:	01012903          	lw	x18,16(x2)
80006ba0:	00048513          	addi	x10,x9,0
80006ba4:	01412483          	lw	x9,20(x2)
80006ba8:	02010113          	addi	x2,x2,32
80006bac:	3f00006f          	jal	x0,80006f9c <_write_r>
80006bb0:	00200693          	addi	x13,x0,2
80006bb4:	00000613          	addi	x12,x0,0
80006bb8:	6a8000ef          	jal	x1,80007260 <_lseek_r>
80006bbc:	00c41783          	lh	x15,12(x8)
80006bc0:	00e41583          	lh	x11,14(x8)
80006bc4:	fb5ff06f          	jal	x0,80006b78 <__swrite+0x38>

Disassembly of section .text.__sseek:

80006bc8 <__sseek>:
80006bc8:	ff010113          	addi	x2,x2,-16
80006bcc:	00812423          	sw	x8,8(x2)
80006bd0:	00058413          	addi	x8,x11,0
80006bd4:	00e59583          	lh	x11,14(x11)
80006bd8:	00112623          	sw	x1,12(x2)
80006bdc:	684000ef          	jal	x1,80007260 <_lseek_r>
80006be0:	fff00793          	addi	x15,x0,-1
80006be4:	02f50463          	beq	x10,x15,80006c0c <__sseek+0x44>
80006be8:	00c45783          	lhu	x15,12(x8)
80006bec:	00001737          	lui	x14,0x1
80006bf0:	00c12083          	lw	x1,12(x2)
80006bf4:	00e7e7b3          	or	x15,x15,x14
80006bf8:	04a42823          	sw	x10,80(x8)
80006bfc:	00f41623          	sh	x15,12(x8)
80006c00:	00812403          	lw	x8,8(x2)
80006c04:	01010113          	addi	x2,x2,16
80006c08:	00008067          	jalr	x0,0(x1)
80006c0c:	00c45783          	lhu	x15,12(x8)
80006c10:	fffff737          	lui	x14,0xfffff
80006c14:	fff70713          	addi	x14,x14,-1 # ffffefff <_end+0x7fff47ef>
80006c18:	00e7f7b3          	and	x15,x15,x14
80006c1c:	00c12083          	lw	x1,12(x2)
80006c20:	00f41623          	sh	x15,12(x8)
80006c24:	00812403          	lw	x8,8(x2)
80006c28:	01010113          	addi	x2,x2,16
80006c2c:	00008067          	jalr	x0,0(x1)

Disassembly of section .text.__sclose:

80006c30 <__sclose>:
80006c30:	00e59583          	lh	x11,14(x11)
80006c34:	3d40006f          	jal	x0,80007008 <_close_r>

Disassembly of section .text.strlen:

80006c38 <strlen>:
80006c38:	00357793          	andi	x15,x10,3
80006c3c:	00050713          	addi	x14,x10,0
80006c40:	04079c63          	bne	x15,x0,80006c98 <strlen+0x60>
80006c44:	7f7f86b7          	lui	x13,0x7f7f8
80006c48:	f7f68693          	addi	x13,x13,-129 # 7f7f7f7f <SYSCALL_ADDR+0x7f5f6f7f>
80006c4c:	fff00593          	addi	x11,x0,-1
80006c50:	00072603          	lw	x12,0(x14)
80006c54:	00470713          	addi	x14,x14,4
80006c58:	00d677b3          	and	x15,x12,x13
80006c5c:	00d787b3          	add	x15,x15,x13
80006c60:	00c7e7b3          	or	x15,x15,x12
80006c64:	00d7e7b3          	or	x15,x15,x13
80006c68:	feb784e3          	beq	x15,x11,80006c50 <strlen+0x18>
80006c6c:	ffc74683          	lbu	x13,-4(x14)
80006c70:	ffd74603          	lbu	x12,-3(x14)
80006c74:	ffe74783          	lbu	x15,-2(x14)
80006c78:	40a70733          	sub	x14,x14,x10
80006c7c:	04068063          	beq	x13,x0,80006cbc <strlen+0x84>
80006c80:	02060a63          	beq	x12,x0,80006cb4 <strlen+0x7c>
80006c84:	00f03533          	sltu	x10,x0,x15
80006c88:	00e50533          	add	x10,x10,x14
80006c8c:	ffe50513          	addi	x10,x10,-2
80006c90:	00008067          	jalr	x0,0(x1)
80006c94:	fa0688e3          	beq	x13,x0,80006c44 <strlen+0xc>
80006c98:	00074783          	lbu	x15,0(x14)
80006c9c:	00170713          	addi	x14,x14,1
80006ca0:	00377693          	andi	x13,x14,3
80006ca4:	fe0798e3          	bne	x15,x0,80006c94 <strlen+0x5c>
80006ca8:	40a70733          	sub	x14,x14,x10
80006cac:	fff70513          	addi	x10,x14,-1
80006cb0:	00008067          	jalr	x0,0(x1)
80006cb4:	ffd70513          	addi	x10,x14,-3
80006cb8:	00008067          	jalr	x0,0(x1)
80006cbc:	ffc70513          	addi	x10,x14,-4
80006cc0:	00008067          	jalr	x0,0(x1)

Disassembly of section .text.strncpy:

80006cc4 <strncpy>:
80006cc4:	00a5e7b3          	or	x15,x11,x10
80006cc8:	0037f793          	andi	x15,x15,3
80006ccc:	00050713          	addi	x14,x10,0
80006cd0:	06079863          	bne	x15,x0,80006d40 <strncpy+0x7c>
80006cd4:	00300793          	addi	x15,x0,3
80006cd8:	06c7f463          	bgeu	x15,x12,80006d40 <strncpy+0x7c>
80006cdc:	feff0337          	lui	x6,0xfeff0
80006ce0:	808088b7          	lui	x17,0x80808
80006ce4:	eff30313          	addi	x6,x6,-257 # fefefeff <_end+0x7efe56ef>
80006ce8:	08088893          	addi	x17,x17,128 # 80808080 <_end+0x7fd870>
80006cec:	00300e13          	addi	x28,x0,3
80006cf0:	0005a683          	lw	x13,0(x11)
80006cf4:	006687b3          	add	x15,x13,x6
80006cf8:	fff6c813          	xori	x16,x13,-1
80006cfc:	0107f7b3          	and	x15,x15,x16
80006d00:	0117f7b3          	and	x15,x15,x17
80006d04:	02079e63          	bne	x15,x0,80006d40 <strncpy+0x7c>
80006d08:	00d72023          	sw	x13,0(x14)
80006d0c:	ffc60613          	addi	x12,x12,-4
80006d10:	00470713          	addi	x14,x14,4
80006d14:	00458593          	addi	x11,x11,4
80006d18:	fcce6ce3          	bltu	x28,x12,80006cf0 <strncpy+0x2c>
80006d1c:	00158593          	addi	x11,x11,1
80006d20:	00170793          	addi	x15,x14,1
80006d24:	02060463          	beq	x12,x0,80006d4c <strncpy+0x88>
80006d28:	fff5c683          	lbu	x13,-1(x11)
80006d2c:	fff60813          	addi	x16,x12,-1
80006d30:	fed78fa3          	sb	x13,-1(x15)
80006d34:	00068e63          	beq	x13,x0,80006d50 <strncpy+0x8c>
80006d38:	00078713          	addi	x14,x15,0
80006d3c:	00080613          	addi	x12,x16,0
80006d40:	00158593          	addi	x11,x11,1
80006d44:	00170793          	addi	x15,x14,1
80006d48:	fe0610e3          	bne	x12,x0,80006d28 <strncpy+0x64>
80006d4c:	00008067          	jalr	x0,0(x1)
80006d50:	00c70633          	add	x12,x14,x12
80006d54:	00080a63          	beq	x16,x0,80006d68 <strncpy+0xa4>
80006d58:	00178793          	addi	x15,x15,1
80006d5c:	fe078fa3          	sb	x0,-1(x15)
80006d60:	fec79ce3          	bne	x15,x12,80006d58 <strncpy+0x94>
80006d64:	00008067          	jalr	x0,0(x1)
80006d68:	00008067          	jalr	x0,0(x1)

Disassembly of section .text.__swbuf_r:

80006d6c <__swbuf_r>:
80006d6c:	fe010113          	addi	x2,x2,-32
80006d70:	00812c23          	sw	x8,24(x2)
80006d74:	00912a23          	sw	x9,20(x2)
80006d78:	01212823          	sw	x18,16(x2)
80006d7c:	00112e23          	sw	x1,28(x2)
80006d80:	01312623          	sw	x19,12(x2)
80006d84:	00050913          	addi	x18,x10,0
80006d88:	00058493          	addi	x9,x11,0
80006d8c:	00060413          	addi	x8,x12,0
80006d90:	00050663          	beq	x10,x0,80006d9c <__swbuf_r+0x30>
80006d94:	03852783          	lw	x15,56(x10)
80006d98:	14078a63          	beq	x15,x0,80006eec <__swbuf_r+0x180>
80006d9c:	00c41703          	lh	x14,12(x8)
80006da0:	01842683          	lw	x13,24(x8)
80006da4:	00877793          	andi	x15,x14,8
80006da8:	00d42423          	sw	x13,8(x8)
80006dac:	01071693          	slli	x13,x14,0x10
80006db0:	0106d693          	srli	x13,x13,0x10
80006db4:	08078463          	beq	x15,x0,80006e3c <__swbuf_r+0xd0>
80006db8:	01042783          	lw	x15,16(x8)
80006dbc:	08078063          	beq	x15,x0,80006e3c <__swbuf_r+0xd0>
80006dc0:	00002637          	lui	x12,0x2
80006dc4:	00c6f6b3          	and	x13,x13,x12
80006dc8:	0ff4f993          	andi	x19,x9,255
80006dcc:	0ff4f493          	andi	x9,x9,255
80006dd0:	0a068063          	beq	x13,x0,80006e70 <__swbuf_r+0x104>
80006dd4:	00042703          	lw	x14,0(x8)
80006dd8:	01442683          	lw	x13,20(x8)
80006ddc:	40f707b3          	sub	x15,x14,x15
80006de0:	0ad7de63          	bge	x15,x13,80006e9c <__swbuf_r+0x130>
80006de4:	00842683          	lw	x13,8(x8)
80006de8:	00170613          	addi	x12,x14,1
80006dec:	00c42023          	sw	x12,0(x8)
80006df0:	fff68693          	addi	x13,x13,-1
80006df4:	00d42423          	sw	x13,8(x8)
80006df8:	01370023          	sb	x19,0(x14)
80006dfc:	01442703          	lw	x14,20(x8)
80006e00:	00178793          	addi	x15,x15,1
80006e04:	0cf70863          	beq	x14,x15,80006ed4 <__swbuf_r+0x168>
80006e08:	00c45783          	lhu	x15,12(x8)
80006e0c:	0017f793          	andi	x15,x15,1
80006e10:	00078663          	beq	x15,x0,80006e1c <__swbuf_r+0xb0>
80006e14:	00a00793          	addi	x15,x0,10
80006e18:	0af48e63          	beq	x9,x15,80006ed4 <__swbuf_r+0x168>
80006e1c:	01c12083          	lw	x1,28(x2)
80006e20:	01812403          	lw	x8,24(x2)
80006e24:	01012903          	lw	x18,16(x2)
80006e28:	00c12983          	lw	x19,12(x2)
80006e2c:	00048513          	addi	x10,x9,0
80006e30:	01412483          	lw	x9,20(x2)
80006e34:	02010113          	addi	x2,x2,32
80006e38:	00008067          	jalr	x0,0(x1)
80006e3c:	00040593          	addi	x11,x8,0
80006e40:	00090513          	addi	x10,x18,0
80006e44:	f98fd0ef          	jal	x1,800045dc <__swsetup_r>
80006e48:	08051e63          	bne	x10,x0,80006ee4 <__swbuf_r+0x178>
80006e4c:	00c41703          	lh	x14,12(x8)
80006e50:	00002637          	lui	x12,0x2
80006e54:	0ff4f993          	andi	x19,x9,255
80006e58:	01071693          	slli	x13,x14,0x10
80006e5c:	0106d693          	srli	x13,x13,0x10
80006e60:	00c6f6b3          	and	x13,x13,x12
80006e64:	01042783          	lw	x15,16(x8)
80006e68:	0ff4f493          	andi	x9,x9,255
80006e6c:	f60694e3          	bne	x13,x0,80006dd4 <__swbuf_r+0x68>
80006e70:	06442683          	lw	x13,100(x8)
80006e74:	00c76733          	or	x14,x14,x12
80006e78:	ffffe637          	lui	x12,0xffffe
80006e7c:	fff60613          	addi	x12,x12,-1 # ffffdfff <_end+0x7fff37ef>
80006e80:	00c6f6b3          	and	x13,x13,x12
80006e84:	00e41623          	sh	x14,12(x8)
80006e88:	00042703          	lw	x14,0(x8)
80006e8c:	06d42223          	sw	x13,100(x8)
80006e90:	01442683          	lw	x13,20(x8)
80006e94:	40f707b3          	sub	x15,x14,x15
80006e98:	f4d7c6e3          	blt	x15,x13,80006de4 <__swbuf_r+0x78>
80006e9c:	00040593          	addi	x11,x8,0
80006ea0:	00090513          	addi	x10,x18,0
80006ea4:	b21fd0ef          	jal	x1,800049c4 <_fflush_r>
80006ea8:	02051e63          	bne	x10,x0,80006ee4 <__swbuf_r+0x178>
80006eac:	00042703          	lw	x14,0(x8)
80006eb0:	00842683          	lw	x13,8(x8)
80006eb4:	00100793          	addi	x15,x0,1
80006eb8:	00170613          	addi	x12,x14,1
80006ebc:	fff68693          	addi	x13,x13,-1
80006ec0:	00c42023          	sw	x12,0(x8)
80006ec4:	00d42423          	sw	x13,8(x8)
80006ec8:	01370023          	sb	x19,0(x14)
80006ecc:	01442703          	lw	x14,20(x8)
80006ed0:	f2f71ce3          	bne	x14,x15,80006e08 <__swbuf_r+0x9c>
80006ed4:	00040593          	addi	x11,x8,0
80006ed8:	00090513          	addi	x10,x18,0
80006edc:	ae9fd0ef          	jal	x1,800049c4 <_fflush_r>
80006ee0:	f2050ee3          	beq	x10,x0,80006e1c <__swbuf_r+0xb0>
80006ee4:	fff00493          	addi	x9,x0,-1
80006ee8:	f35ff06f          	jal	x0,80006e1c <__swbuf_r+0xb0>
80006eec:	cc9fd0ef          	jal	x1,80004bb4 <__sinit>
80006ef0:	eadff06f          	jal	x0,80006d9c <__swbuf_r+0x30>

Disassembly of section .text._wcrtomb_r:

80006ef4 <_wcrtomb_r>:
80006ef4:	fe010113          	addi	x2,x2,-32
80006ef8:	00812c23          	sw	x8,24(x2)
80006efc:	00912a23          	sw	x9,20(x2)
80006f00:	800087b7          	lui	x15,0x80008
80006f04:	00112e23          	sw	x1,28(x2)
80006f08:	b847a783          	lw	x15,-1148(x15) # 80007b84 <_end+0xffffd374>
80006f0c:	00050413          	addi	x8,x10,0
80006f10:	00068493          	addi	x9,x13,0
80006f14:	02058263          	beq	x11,x0,80006f38 <_wcrtomb_r+0x44>
80006f18:	000780e7          	jalr	x1,0(x15)
80006f1c:	fff00793          	addi	x15,x0,-1
80006f20:	02f50663          	beq	x10,x15,80006f4c <_wcrtomb_r+0x58>
80006f24:	01c12083          	lw	x1,28(x2)
80006f28:	01812403          	lw	x8,24(x2)
80006f2c:	01412483          	lw	x9,20(x2)
80006f30:	02010113          	addi	x2,x2,32
80006f34:	00008067          	jalr	x0,0(x1)
80006f38:	00000613          	addi	x12,x0,0
80006f3c:	00410593          	addi	x11,x2,4
80006f40:	000780e7          	jalr	x1,0(x15)
80006f44:	fff00793          	addi	x15,x0,-1
80006f48:	fcf51ee3          	bne	x10,x15,80006f24 <_wcrtomb_r+0x30>
80006f4c:	0004a023          	sw	x0,0(x9)
80006f50:	08a00793          	addi	x15,x0,138
80006f54:	01c12083          	lw	x1,28(x2)
80006f58:	00f42023          	sw	x15,0(x8)
80006f5c:	01812403          	lw	x8,24(x2)
80006f60:	01412483          	lw	x9,20(x2)
80006f64:	02010113          	addi	x2,x2,32
80006f68:	00008067          	jalr	x0,0(x1)

Disassembly of section .text.__ascii_wctomb:

80006f6c <__ascii_wctomb>:
80006f6c:	02058463          	beq	x11,x0,80006f94 <__ascii_wctomb+0x28>
80006f70:	0ff00793          	addi	x15,x0,255
80006f74:	00c7e863          	bltu	x15,x12,80006f84 <__ascii_wctomb+0x18>
80006f78:	00c58023          	sb	x12,0(x11)
80006f7c:	00100513          	addi	x10,x0,1
80006f80:	00008067          	jalr	x0,0(x1)
80006f84:	08a00793          	addi	x15,x0,138
80006f88:	00f52023          	sw	x15,0(x10)
80006f8c:	fff00513          	addi	x10,x0,-1
80006f90:	00008067          	jalr	x0,0(x1)
80006f94:	00000513          	addi	x10,x0,0
80006f98:	00008067          	jalr	x0,0(x1)

Disassembly of section .text._write_r:

80006f9c <_write_r>:
80006f9c:	ff010113          	addi	x2,x2,-16
80006fa0:	00058713          	addi	x14,x11,0
80006fa4:	00812423          	sw	x8,8(x2)
80006fa8:	00912223          	sw	x9,4(x2)
80006fac:	00060593          	addi	x11,x12,0
80006fb0:	00050413          	addi	x8,x10,0
80006fb4:	8000a4b7          	lui	x9,0x8000a
80006fb8:	00068613          	addi	x12,x13,0
80006fbc:	00070513          	addi	x10,x14,0
80006fc0:	00112623          	sw	x1,12(x2)
80006fc4:	7e04a623          	sw	x0,2028(x9) # 8000a7ec <_end+0xffffffdc>
80006fc8:	5b8000ef          	jal	x1,80007580 <_write>
80006fcc:	fff00793          	addi	x15,x0,-1
80006fd0:	00f50c63          	beq	x10,x15,80006fe8 <_write_r+0x4c>
80006fd4:	00c12083          	lw	x1,12(x2)
80006fd8:	00812403          	lw	x8,8(x2)
80006fdc:	00412483          	lw	x9,4(x2)
80006fe0:	01010113          	addi	x2,x2,16
80006fe4:	00008067          	jalr	x0,0(x1)
80006fe8:	7ec4a783          	lw	x15,2028(x9)
80006fec:	fe0784e3          	beq	x15,x0,80006fd4 <_write_r+0x38>
80006ff0:	00c12083          	lw	x1,12(x2)
80006ff4:	00f42023          	sw	x15,0(x8)
80006ff8:	00812403          	lw	x8,8(x2)
80006ffc:	00412483          	lw	x9,4(x2)
80007000:	01010113          	addi	x2,x2,16
80007004:	00008067          	jalr	x0,0(x1)

Disassembly of section .text._close_r:

80007008 <_close_r>:
80007008:	ff010113          	addi	x2,x2,-16
8000700c:	00812423          	sw	x8,8(x2)
80007010:	00912223          	sw	x9,4(x2)
80007014:	00050413          	addi	x8,x10,0
80007018:	8000a4b7          	lui	x9,0x8000a
8000701c:	00058513          	addi	x10,x11,0
80007020:	00112623          	sw	x1,12(x2)
80007024:	7e04a623          	sw	x0,2028(x9) # 8000a7ec <_end+0xffffffdc>
80007028:	310000ef          	jal	x1,80007338 <_close>
8000702c:	fff00793          	addi	x15,x0,-1
80007030:	00f50c63          	beq	x10,x15,80007048 <_close_r+0x40>
80007034:	00c12083          	lw	x1,12(x2)
80007038:	00812403          	lw	x8,8(x2)
8000703c:	00412483          	lw	x9,4(x2)
80007040:	01010113          	addi	x2,x2,16
80007044:	00008067          	jalr	x0,0(x1)
80007048:	7ec4a783          	lw	x15,2028(x9)
8000704c:	fe0784e3          	beq	x15,x0,80007034 <_close_r+0x2c>
80007050:	00c12083          	lw	x1,12(x2)
80007054:	00f42023          	sw	x15,0(x8)
80007058:	00812403          	lw	x8,8(x2)
8000705c:	00412483          	lw	x9,4(x2)
80007060:	01010113          	addi	x2,x2,16
80007064:	00008067          	jalr	x0,0(x1)

Disassembly of section .text._fclose_r.part.0:

80007068 <_fclose_r.part.0>:
80007068:	ff010113          	addi	x2,x2,-16
8000706c:	00812423          	sw	x8,8(x2)
80007070:	00912223          	sw	x9,4(x2)
80007074:	01212023          	sw	x18,0(x2)
80007078:	00058413          	addi	x8,x11,0
8000707c:	00112623          	sw	x1,12(x2)
80007080:	00050493          	addi	x9,x10,0
80007084:	edcfd0ef          	jal	x1,80004760 <__sflush_r>
80007088:	02c42783          	lw	x15,44(x8)
8000708c:	00050913          	addi	x18,x10,0
80007090:	00078a63          	beq	x15,x0,800070a4 <_fclose_r.part.0+0x3c>
80007094:	01c42583          	lw	x11,28(x8)
80007098:	00048513          	addi	x10,x9,0
8000709c:	000780e7          	jalr	x1,0(x15)
800070a0:	06054463          	blt	x10,x0,80007108 <_fclose_r.part.0+0xa0>
800070a4:	00c45783          	lhu	x15,12(x8)
800070a8:	0807f793          	andi	x15,x15,128
800070ac:	06079663          	bne	x15,x0,80007118 <_fclose_r.part.0+0xb0>
800070b0:	03042583          	lw	x11,48(x8)
800070b4:	00058c63          	beq	x11,x0,800070cc <_fclose_r.part.0+0x64>
800070b8:	04040793          	addi	x15,x8,64
800070bc:	00f58663          	beq	x11,x15,800070c8 <_fclose_r.part.0+0x60>
800070c0:	00048513          	addi	x10,x9,0
800070c4:	da1fd0ef          	jal	x1,80004e64 <_free_r>
800070c8:	02042823          	sw	x0,48(x8)
800070cc:	04442583          	lw	x11,68(x8)
800070d0:	00058863          	beq	x11,x0,800070e0 <_fclose_r.part.0+0x78>
800070d4:	00048513          	addi	x10,x9,0
800070d8:	d8dfd0ef          	jal	x1,80004e64 <_free_r>
800070dc:	04042223          	sw	x0,68(x8)
800070e0:	ae5fd0ef          	jal	x1,80004bc4 <__sfp_lock_acquire>
800070e4:	00041623          	sh	x0,12(x8)
800070e8:	ae1fd0ef          	jal	x1,80004bc8 <__sfp_lock_release>
800070ec:	00c12083          	lw	x1,12(x2)
800070f0:	00812403          	lw	x8,8(x2)
800070f4:	00412483          	lw	x9,4(x2)
800070f8:	00090513          	addi	x10,x18,0
800070fc:	00012903          	lw	x18,0(x2)
80007100:	01010113          	addi	x2,x2,16
80007104:	00008067          	jalr	x0,0(x1)
80007108:	00c45783          	lhu	x15,12(x8)
8000710c:	fff00913          	addi	x18,x0,-1
80007110:	0807f793          	andi	x15,x15,128
80007114:	f8078ee3          	beq	x15,x0,800070b0 <_fclose_r.part.0+0x48>
80007118:	01042583          	lw	x11,16(x8)
8000711c:	00048513          	addi	x10,x9,0
80007120:	d45fd0ef          	jal	x1,80004e64 <_free_r>
80007124:	f8dff06f          	jal	x0,800070b0 <_fclose_r.part.0+0x48>

Disassembly of section .text._fclose_r:

80007128 <_fclose_r>:
80007128:	06058463          	beq	x11,x0,80007190 <_fclose_r+0x68>
8000712c:	fe010113          	addi	x2,x2,-32
80007130:	00812c23          	sw	x8,24(x2)
80007134:	00112e23          	sw	x1,28(x2)
80007138:	00050413          	addi	x8,x10,0
8000713c:	00050663          	beq	x10,x0,80007148 <_fclose_r+0x20>
80007140:	03852783          	lw	x15,56(x10)
80007144:	02078a63          	beq	x15,x0,80007178 <_fclose_r+0x50>
80007148:	00c59783          	lh	x15,12(x11)
8000714c:	00079c63          	bne	x15,x0,80007164 <_fclose_r+0x3c>
80007150:	01c12083          	lw	x1,28(x2)
80007154:	01812403          	lw	x8,24(x2)
80007158:	00000513          	addi	x10,x0,0
8000715c:	02010113          	addi	x2,x2,32
80007160:	00008067          	jalr	x0,0(x1)
80007164:	00040513          	addi	x10,x8,0
80007168:	01812403          	lw	x8,24(x2)
8000716c:	01c12083          	lw	x1,28(x2)
80007170:	02010113          	addi	x2,x2,32
80007174:	ef5ff06f          	jal	x0,80007068 <_fclose_r.part.0>
80007178:	00b12623          	sw	x11,12(x2)
8000717c:	a39fd0ef          	jal	x1,80004bb4 <__sinit>
80007180:	00c12583          	lw	x11,12(x2)
80007184:	00c59783          	lh	x15,12(x11)
80007188:	fc0784e3          	beq	x15,x0,80007150 <_fclose_r+0x28>
8000718c:	fd9ff06f          	jal	x0,80007164 <_fclose_r+0x3c>
80007190:	00000513          	addi	x10,x0,0
80007194:	00008067          	jalr	x0,0(x1)

Disassembly of section .text._fstat_r:

80007198 <_fstat_r>:
80007198:	ff010113          	addi	x2,x2,-16
8000719c:	00058713          	addi	x14,x11,0
800071a0:	00812423          	sw	x8,8(x2)
800071a4:	00912223          	sw	x9,4(x2)
800071a8:	00050413          	addi	x8,x10,0
800071ac:	8000a4b7          	lui	x9,0x8000a
800071b0:	00060593          	addi	x11,x12,0
800071b4:	00070513          	addi	x10,x14,0
800071b8:	00112623          	sw	x1,12(x2)
800071bc:	7e04a623          	sw	x0,2028(x9) # 8000a7ec <_end+0xffffffdc>
800071c0:	1ec000ef          	jal	x1,800073ac <_fstat>
800071c4:	fff00793          	addi	x15,x0,-1
800071c8:	00f50c63          	beq	x10,x15,800071e0 <_fstat_r+0x48>
800071cc:	00c12083          	lw	x1,12(x2)
800071d0:	00812403          	lw	x8,8(x2)
800071d4:	00412483          	lw	x9,4(x2)
800071d8:	01010113          	addi	x2,x2,16
800071dc:	00008067          	jalr	x0,0(x1)
800071e0:	7ec4a783          	lw	x15,2028(x9)
800071e4:	fe0784e3          	beq	x15,x0,800071cc <_fstat_r+0x34>
800071e8:	00c12083          	lw	x1,12(x2)
800071ec:	00f42023          	sw	x15,0(x8)
800071f0:	00812403          	lw	x8,8(x2)
800071f4:	00412483          	lw	x9,4(x2)
800071f8:	01010113          	addi	x2,x2,16
800071fc:	00008067          	jalr	x0,0(x1)

Disassembly of section .text._isatty_r:

80007200 <_isatty_r>:
80007200:	ff010113          	addi	x2,x2,-16
80007204:	00812423          	sw	x8,8(x2)
80007208:	00912223          	sw	x9,4(x2)
8000720c:	00050413          	addi	x8,x10,0
80007210:	8000a4b7          	lui	x9,0x8000a
80007214:	00058513          	addi	x10,x11,0
80007218:	00112623          	sw	x1,12(x2)
8000721c:	7e04a623          	sw	x0,2028(x9) # 8000a7ec <_end+0xffffffdc>
80007220:	1f4000ef          	jal	x1,80007414 <_isatty>
80007224:	fff00793          	addi	x15,x0,-1
80007228:	00f50c63          	beq	x10,x15,80007240 <_isatty_r+0x40>
8000722c:	00c12083          	lw	x1,12(x2)
80007230:	00812403          	lw	x8,8(x2)
80007234:	00412483          	lw	x9,4(x2)
80007238:	01010113          	addi	x2,x2,16
8000723c:	00008067          	jalr	x0,0(x1)
80007240:	7ec4a783          	lw	x15,2028(x9)
80007244:	fe0784e3          	beq	x15,x0,8000722c <_isatty_r+0x2c>
80007248:	00c12083          	lw	x1,12(x2)
8000724c:	00f42023          	sw	x15,0(x8)
80007250:	00812403          	lw	x8,8(x2)
80007254:	00412483          	lw	x9,4(x2)
80007258:	01010113          	addi	x2,x2,16
8000725c:	00008067          	jalr	x0,0(x1)

Disassembly of section .text._lseek_r:

80007260 <_lseek_r>:
80007260:	ff010113          	addi	x2,x2,-16
80007264:	00058713          	addi	x14,x11,0
80007268:	00812423          	sw	x8,8(x2)
8000726c:	00912223          	sw	x9,4(x2)
80007270:	00060593          	addi	x11,x12,0
80007274:	00050413          	addi	x8,x10,0
80007278:	8000a4b7          	lui	x9,0x8000a
8000727c:	00068613          	addi	x12,x13,0
80007280:	00070513          	addi	x10,x14,0
80007284:	00112623          	sw	x1,12(x2)
80007288:	7e04a623          	sw	x0,2028(x9) # 8000a7ec <_end+0xffffffdc>
8000728c:	1ec000ef          	jal	x1,80007478 <_lseek>
80007290:	fff00793          	addi	x15,x0,-1
80007294:	00f50c63          	beq	x10,x15,800072ac <_lseek_r+0x4c>
80007298:	00c12083          	lw	x1,12(x2)
8000729c:	00812403          	lw	x8,8(x2)
800072a0:	00412483          	lw	x9,4(x2)
800072a4:	01010113          	addi	x2,x2,16
800072a8:	00008067          	jalr	x0,0(x1)
800072ac:	7ec4a783          	lw	x15,2028(x9)
800072b0:	fe0784e3          	beq	x15,x0,80007298 <_lseek_r+0x38>
800072b4:	00c12083          	lw	x1,12(x2)
800072b8:	00f42023          	sw	x15,0(x8)
800072bc:	00812403          	lw	x8,8(x2)
800072c0:	00412483          	lw	x9,4(x2)
800072c4:	01010113          	addi	x2,x2,16
800072c8:	00008067          	jalr	x0,0(x1)

Disassembly of section .text._read_r:

800072cc <_read_r>:
800072cc:	ff010113          	addi	x2,x2,-16
800072d0:	00058713          	addi	x14,x11,0
800072d4:	00812423          	sw	x8,8(x2)
800072d8:	00912223          	sw	x9,4(x2)
800072dc:	00060593          	addi	x11,x12,0
800072e0:	00050413          	addi	x8,x10,0
800072e4:	8000a4b7          	lui	x9,0x8000a
800072e8:	00068613          	addi	x12,x13,0
800072ec:	00070513          	addi	x10,x14,0
800072f0:	00112623          	sw	x1,12(x2)
800072f4:	7e04a623          	sw	x0,2028(x9) # 8000a7ec <_end+0xffffffdc>
800072f8:	1c4000ef          	jal	x1,800074bc <_read>
800072fc:	fff00793          	addi	x15,x0,-1
80007300:	00f50c63          	beq	x10,x15,80007318 <_read_r+0x4c>
80007304:	00c12083          	lw	x1,12(x2)
80007308:	00812403          	lw	x8,8(x2)
8000730c:	00412483          	lw	x9,4(x2)
80007310:	01010113          	addi	x2,x2,16
80007314:	00008067          	jalr	x0,0(x1)
80007318:	7ec4a783          	lw	x15,2028(x9)
8000731c:	fe0784e3          	beq	x15,x0,80007304 <_read_r+0x38>
80007320:	00c12083          	lw	x1,12(x2)
80007324:	00f42023          	sw	x15,0(x8)
80007328:	00812403          	lw	x8,8(x2)
8000732c:	00412483          	lw	x9,4(x2)
80007330:	01010113          	addi	x2,x2,16
80007334:	00008067          	jalr	x0,0(x1)

Disassembly of section .text._close:

80007338 <_close>:
80007338:	ff010113          	addi	x2,x2,-16
8000733c:	00112623          	sw	x1,12(x2)
80007340:	00812423          	sw	x8,8(x2)
80007344:	03900893          	addi	x17,x0,57
80007348:	00000073          	ecall
8000734c:	00050413          	addi	x8,x10,0
80007350:	00054c63          	blt	x10,x0,80007368 <_close+0x30>
80007354:	00c12083          	lw	x1,12(x2)
80007358:	00040513          	addi	x10,x8,0
8000735c:	00812403          	lw	x8,8(x2)
80007360:	01010113          	addi	x2,x2,16
80007364:	00008067          	jalr	x0,0(x1)
80007368:	40800433          	sub	x8,x0,x8
8000736c:	2fc000ef          	jal	x1,80007668 <__errno>
80007370:	00852023          	sw	x8,0(x10)
80007374:	fff00413          	addi	x8,x0,-1
80007378:	fddff06f          	jal	x0,80007354 <_close+0x1c>

Disassembly of section .text._exit:

8000737c <_exit>:
8000737c:	05d00893          	addi	x17,x0,93
80007380:	00000073          	ecall
80007384:	00054463          	blt	x10,x0,8000738c <_exit+0x10>
80007388:	0000006f          	jal	x0,80007388 <_exit+0xc>
8000738c:	ff010113          	addi	x2,x2,-16
80007390:	00812423          	sw	x8,8(x2)
80007394:	00050413          	addi	x8,x10,0
80007398:	00112623          	sw	x1,12(x2)
8000739c:	40800433          	sub	x8,x0,x8
800073a0:	2c8000ef          	jal	x1,80007668 <__errno>
800073a4:	00852023          	sw	x8,0(x10)
800073a8:	0000006f          	jal	x0,800073a8 <_exit+0x2c>

Disassembly of section .text._fstat:

800073ac <_fstat>:
800073ac:	f7010113          	addi	x2,x2,-144
800073b0:	08912223          	sw	x9,132(x2)
800073b4:	08112623          	sw	x1,140(x2)
800073b8:	00058493          	addi	x9,x11,0
800073bc:	08812423          	sw	x8,136(x2)
800073c0:	05000893          	addi	x17,x0,80
800073c4:	00010593          	addi	x11,x2,0
800073c8:	00000073          	ecall
800073cc:	00050413          	addi	x8,x10,0
800073d0:	02054463          	blt	x10,x0,800073f8 <_fstat+0x4c>
800073d4:	00048513          	addi	x10,x9,0
800073d8:	00010593          	addi	x11,x2,0
800073dc:	1e8000ef          	jal	x1,800075c4 <_conv_stat>
800073e0:	08c12083          	lw	x1,140(x2)
800073e4:	00040513          	addi	x10,x8,0
800073e8:	08812403          	lw	x8,136(x2)
800073ec:	08412483          	lw	x9,132(x2)
800073f0:	09010113          	addi	x2,x2,144
800073f4:	00008067          	jalr	x0,0(x1)
800073f8:	40800433          	sub	x8,x0,x8
800073fc:	26c000ef          	jal	x1,80007668 <__errno>
80007400:	00852023          	sw	x8,0(x10)
80007404:	fff00413          	addi	x8,x0,-1
80007408:	fcdff06f          	jal	x0,800073d4 <_fstat+0x28>

Disassembly of section .text._getpid:

8000740c <_getpid>:
8000740c:	00100513          	addi	x10,x0,1
80007410:	00008067          	jalr	x0,0(x1)

Disassembly of section .text._isatty:

80007414 <_isatty>:
80007414:	f9010113          	addi	x2,x2,-112
80007418:	00810593          	addi	x11,x2,8
8000741c:	06112623          	sw	x1,108(x2)
80007420:	f8dff0ef          	jal	x1,800073ac <_fstat>
80007424:	fff00793          	addi	x15,x0,-1
80007428:	00f50e63          	beq	x10,x15,80007444 <_isatty+0x30>
8000742c:	00c12503          	lw	x10,12(x2)
80007430:	06c12083          	lw	x1,108(x2)
80007434:	00d55513          	srli	x10,x10,0xd
80007438:	00157513          	andi	x10,x10,1
8000743c:	07010113          	addi	x2,x2,112
80007440:	00008067          	jalr	x0,0(x1)
80007444:	06c12083          	lw	x1,108(x2)
80007448:	00000513          	addi	x10,x0,0
8000744c:	07010113          	addi	x2,x2,112
80007450:	00008067          	jalr	x0,0(x1)

Disassembly of section .text._kill:

80007454 <_kill>:
80007454:	ff010113          	addi	x2,x2,-16
80007458:	00112623          	sw	x1,12(x2)
8000745c:	20c000ef          	jal	x1,80007668 <__errno>
80007460:	00c12083          	lw	x1,12(x2)
80007464:	01600793          	addi	x15,x0,22
80007468:	00f52023          	sw	x15,0(x10)
8000746c:	fff00513          	addi	x10,x0,-1
80007470:	01010113          	addi	x2,x2,16
80007474:	00008067          	jalr	x0,0(x1)

Disassembly of section .text._lseek:

80007478 <_lseek>:
80007478:	ff010113          	addi	x2,x2,-16
8000747c:	00112623          	sw	x1,12(x2)
80007480:	00812423          	sw	x8,8(x2)
80007484:	03e00893          	addi	x17,x0,62
80007488:	00000073          	ecall
8000748c:	00050413          	addi	x8,x10,0
80007490:	00054c63          	blt	x10,x0,800074a8 <_lseek+0x30>
80007494:	00c12083          	lw	x1,12(x2)
80007498:	00040513          	addi	x10,x8,0
8000749c:	00812403          	lw	x8,8(x2)
800074a0:	01010113          	addi	x2,x2,16
800074a4:	00008067          	jalr	x0,0(x1)
800074a8:	40800433          	sub	x8,x0,x8
800074ac:	1bc000ef          	jal	x1,80007668 <__errno>
800074b0:	00852023          	sw	x8,0(x10)
800074b4:	fff00413          	addi	x8,x0,-1
800074b8:	fddff06f          	jal	x0,80007494 <_lseek+0x1c>

Disassembly of section .text._read:

800074bc <_read>:
800074bc:	ff010113          	addi	x2,x2,-16
800074c0:	00112623          	sw	x1,12(x2)
800074c4:	00812423          	sw	x8,8(x2)
800074c8:	03f00893          	addi	x17,x0,63
800074cc:	00000073          	ecall
800074d0:	00050413          	addi	x8,x10,0
800074d4:	00054c63          	blt	x10,x0,800074ec <_read+0x30>
800074d8:	00c12083          	lw	x1,12(x2)
800074dc:	00040513          	addi	x10,x8,0
800074e0:	00812403          	lw	x8,8(x2)
800074e4:	01010113          	addi	x2,x2,16
800074e8:	00008067          	jalr	x0,0(x1)
800074ec:	40800433          	sub	x8,x0,x8
800074f0:	178000ef          	jal	x1,80007668 <__errno>
800074f4:	00852023          	sw	x8,0(x10)
800074f8:	fff00413          	addi	x8,x0,-1
800074fc:	fddff06f          	jal	x0,800074d8 <_read+0x1c>

Disassembly of section .text._sbrk:

80007500 <_sbrk>:
80007500:	8000a6b7          	lui	x13,0x8000a
80007504:	7f068693          	addi	x13,x13,2032 # 8000a7f0 <_end+0xffffffe0>
80007508:	0006a703          	lw	x14,0(x13)
8000750c:	ff010113          	addi	x2,x2,-16
80007510:	00112623          	sw	x1,12(x2)
80007514:	00050793          	addi	x15,x10,0
80007518:	02071063          	bne	x14,x0,80007538 <_sbrk+0x38>
8000751c:	0d600893          	addi	x17,x0,214
80007520:	00000513          	addi	x10,x0,0
80007524:	00000073          	ecall
80007528:	fff00613          	addi	x12,x0,-1
8000752c:	00050713          	addi	x14,x10,0
80007530:	02c50a63          	beq	x10,x12,80007564 <_sbrk+0x64>
80007534:	00a6a023          	sw	x10,0(x13)
80007538:	0d600893          	addi	x17,x0,214
8000753c:	00e78533          	add	x10,x15,x14
80007540:	00000073          	ecall
80007544:	0006a703          	lw	x14,0(x13)
80007548:	00e787b3          	add	x15,x15,x14
8000754c:	00f51c63          	bne	x10,x15,80007564 <_sbrk+0x64>
80007550:	00c12083          	lw	x1,12(x2)
80007554:	00a6a023          	sw	x10,0(x13)
80007558:	00070513          	addi	x10,x14,0
8000755c:	01010113          	addi	x2,x2,16
80007560:	00008067          	jalr	x0,0(x1)
80007564:	104000ef          	jal	x1,80007668 <__errno>
80007568:	00c12083          	lw	x1,12(x2)
8000756c:	00c00793          	addi	x15,x0,12
80007570:	00f52023          	sw	x15,0(x10)
80007574:	fff00513          	addi	x10,x0,-1
80007578:	01010113          	addi	x2,x2,16
8000757c:	00008067          	jalr	x0,0(x1)

Disassembly of section .text._write:

80007580 <_write>:
80007580:	ff010113          	addi	x2,x2,-16
80007584:	00112623          	sw	x1,12(x2)
80007588:	00812423          	sw	x8,8(x2)
8000758c:	04000893          	addi	x17,x0,64
80007590:	00000073          	ecall
80007594:	00050413          	addi	x8,x10,0
80007598:	00054c63          	blt	x10,x0,800075b0 <_write+0x30>
8000759c:	00c12083          	lw	x1,12(x2)
800075a0:	00040513          	addi	x10,x8,0
800075a4:	00812403          	lw	x8,8(x2)
800075a8:	01010113          	addi	x2,x2,16
800075ac:	00008067          	jalr	x0,0(x1)
800075b0:	40800433          	sub	x8,x0,x8
800075b4:	0b4000ef          	jal	x1,80007668 <__errno>
800075b8:	00852023          	sw	x8,0(x10)
800075bc:	fff00413          	addi	x8,x0,-1
800075c0:	fddff06f          	jal	x0,8000759c <_write+0x1c>

Disassembly of section .text._conv_stat:

800075c4 <_conv_stat>:
800075c4:	ff010113          	addi	x2,x2,-16
800075c8:	0145a383          	lw	x7,20(x11)
800075cc:	0185a283          	lw	x5,24(x11)
800075d0:	01c5af83          	lw	x31,28(x11)
800075d4:	0205af03          	lw	x30,32(x11)
800075d8:	0305ae83          	lw	x29,48(x11)
800075dc:	0405ae03          	lw	x28,64(x11)
800075e0:	0385a303          	lw	x6,56(x11)
800075e4:	0485a803          	lw	x16,72(x11)
800075e8:	04c5a883          	lw	x17,76(x11)
800075ec:	0585a603          	lw	x12,88(x11)
800075f0:	00812623          	sw	x8,12(x2)
800075f4:	00912423          	sw	x9,8(x2)
800075f8:	0105a403          	lw	x8,16(x11)
800075fc:	0085a483          	lw	x9,8(x11)
80007600:	01212223          	sw	x18,4(x2)
80007604:	0005a903          	lw	x18,0(x11)
80007608:	05c5a683          	lw	x13,92(x11)
8000760c:	0685a703          	lw	x14,104(x11)
80007610:	06c5a783          	lw	x15,108(x11)
80007614:	01251023          	sh	x18,0(x10)
80007618:	00951123          	sh	x9,2(x10)
8000761c:	00852223          	sw	x8,4(x10)
80007620:	00751423          	sh	x7,8(x10)
80007624:	00551523          	sh	x5,10(x10)
80007628:	01f51623          	sh	x31,12(x10)
8000762c:	01e51723          	sh	x30,14(x10)
80007630:	01d52823          	sw	x29,16(x10)
80007634:	05c52623          	sw	x28,76(x10)
80007638:	04652423          	sw	x6,72(x10)
8000763c:	01052c23          	sw	x16,24(x10)
80007640:	01152e23          	sw	x17,28(x10)
80007644:	02c52423          	sw	x12,40(x10)
80007648:	02d52623          	sw	x13,44(x10)
8000764c:	00c12403          	lw	x8,12(x2)
80007650:	02e52c23          	sw	x14,56(x10)
80007654:	02f52e23          	sw	x15,60(x10)
80007658:	00812483          	lw	x9,8(x2)
8000765c:	00412903          	lw	x18,4(x2)
80007660:	01010113          	addi	x2,x2,16
80007664:	00008067          	jalr	x0,0(x1)

Disassembly of section .text.__errno:

80007668 <__errno>:
80007668:	800087b7          	lui	x15,0x80008
8000766c:	aa07a503          	lw	x10,-1376(x15) # 80007aa0 <_end+0xffffd290>
80007670:	00008067          	jalr	x0,0(x1)

Disassembly of section .data.impure_data:

80007678 <impure_data>:
80007678:	0000                	c.unimp
8000767a:	0000                	c.unimp
8000767c:	7964                	c.flw	f9,116(x10)
8000767e:	8000                	0x8000
80007680:	79cc                	c.flw	f11,52(x11)
80007682:	8000                	0x8000
80007684:	7a34                	c.flw	f13,112(x12)
80007686:	8000                	0x8000
	...
80007720:	0001                	c.addi	x0,0
80007722:	0000                	c.unimp
80007724:	0000                	c.unimp
80007726:	0000                	c.unimp
80007728:	330e                	c.fldsp	f6,224(x2)
8000772a:	abcd                	c.j	80007d1c <__malloc_av_+0x10c>
8000772c:	1234                	c.addi4spn	x13,x2,296
8000772e:	e66d                	c.bnez	x12,80007818 <impure_data+0x1a0>
80007730:	deec                	c.sw	x11,124(x13)
80007732:	0005                	c.addi	x0,1
80007734:	0000000b          	0xb
	...

Disassembly of section .sdata._impure_ptr:

80007aa0 <_impure_ptr>:
80007aa0:	7678                	c.flw	f14,108(x12)
80007aa2:	8000                	0x8000

Disassembly of section .data.__global_locale:

80007aa4 <__global_locale>:
80007aa4:	00000043          	fmadd.s	f0,f0,f0,f0,rne
	...
80007ac4:	00000043          	fmadd.s	f0,f0,f0,f0,rne
	...
80007ae4:	00000043          	fmadd.s	f0,f0,f0,f0,rne
	...
80007b04:	00000043          	fmadd.s	f0,f0,f0,f0,rne
	...
80007b24:	00000043          	fmadd.s	f0,f0,f0,f0,rne
	...
80007b44:	00000043          	fmadd.s	f0,f0,f0,f0,rne
	...
80007b64:	00000043          	fmadd.s	f0,f0,f0,f0,rne
	...
80007b84:	6f6c                	c.flw	f11,92(x14)
80007b86:	8000                	0x8000
80007b88:	6044                	c.flw	f9,4(x8)
80007b8a:	8000                	0x8000
80007b8c:	0000                	c.unimp
80007b8e:	0000                	c.unimp
80007b90:	8390                	0x8390
80007b92:	8000                	0x8000
80007b94:	8180                	0x8180
80007b96:	8000                	0x8000
80007b98:	838c                	0x838c
80007b9a:	8000                	0x8000
80007b9c:	838c                	0x838c
80007b9e:	8000                	0x8000
80007ba0:	838c                	0x838c
80007ba2:	8000                	0x8000
80007ba4:	838c                	0x838c
80007ba6:	8000                	0x8000
80007ba8:	838c                	0x838c
80007baa:	8000                	0x8000
80007bac:	838c                	0x838c
80007bae:	8000                	0x8000
80007bb0:	838c                	0x838c
80007bb2:	8000                	0x8000
80007bb4:	838c                	0x838c
80007bb6:	8000                	0x8000
80007bb8:	838c                	0x838c
80007bba:	8000                	0x8000
80007bbc:	ffff                	0xffff
80007bbe:	ffff                	0xffff
80007bc0:	ffff                	0xffff
80007bc2:	ffff                	0xffff
80007bc4:	ffff                	0xffff
80007bc6:	ffff                	0xffff
80007bc8:	ffff                	0xffff
80007bca:	0000                	c.unimp
80007bcc:	0001                	c.addi	x0,0
80007bce:	5341                	c.li	x6,-16
80007bd0:	00494943          	fmadd.s	f18,f18,f4,f0,rmm
	...
80007bec:	0000                	c.unimp
80007bee:	5341                	c.li	x6,-16
80007bf0:	00494943          	fmadd.s	f18,f18,f4,f0,rmm
	...

Disassembly of section .data.__malloc_av_:

80007c10 <__malloc_av_>:
	...
80007c18:	7c10                	c.flw	f12,56(x8)
80007c1a:	8000                	0x8000
80007c1c:	7c10                	c.flw	f12,56(x8)
80007c1e:	8000                	0x8000
80007c20:	7c18                	c.flw	f14,56(x8)
80007c22:	8000                	0x8000
80007c24:	7c18                	c.flw	f14,56(x8)
80007c26:	8000                	0x8000
80007c28:	7c20                	c.flw	f8,120(x8)
80007c2a:	8000                	0x8000
80007c2c:	7c20                	c.flw	f8,120(x8)
80007c2e:	8000                	0x8000
80007c30:	7c28                	c.flw	f10,120(x8)
80007c32:	8000                	0x8000
80007c34:	7c28                	c.flw	f10,120(x8)
80007c36:	8000                	0x8000
80007c38:	7c30                	c.flw	f12,120(x8)
80007c3a:	8000                	0x8000
80007c3c:	7c30                	c.flw	f12,120(x8)
80007c3e:	8000                	0x8000
80007c40:	7c38                	c.flw	f14,120(x8)
80007c42:	8000                	0x8000
80007c44:	7c38                	c.flw	f14,120(x8)
80007c46:	8000                	0x8000
80007c48:	7c40                	c.flw	f8,60(x8)
80007c4a:	8000                	0x8000
80007c4c:	7c40                	c.flw	f8,60(x8)
80007c4e:	8000                	0x8000
80007c50:	7c48                	c.flw	f10,60(x8)
80007c52:	8000                	0x8000
80007c54:	7c48                	c.flw	f10,60(x8)
80007c56:	8000                	0x8000
80007c58:	7c50                	c.flw	f12,60(x8)
80007c5a:	8000                	0x8000
80007c5c:	7c50                	c.flw	f12,60(x8)
80007c5e:	8000                	0x8000
80007c60:	7c58                	c.flw	f14,60(x8)
80007c62:	8000                	0x8000
80007c64:	7c58                	c.flw	f14,60(x8)
80007c66:	8000                	0x8000
80007c68:	7c60                	c.flw	f8,124(x8)
80007c6a:	8000                	0x8000
80007c6c:	7c60                	c.flw	f8,124(x8)
80007c6e:	8000                	0x8000
80007c70:	7c68                	c.flw	f10,124(x8)
80007c72:	8000                	0x8000
80007c74:	7c68                	c.flw	f10,124(x8)
80007c76:	8000                	0x8000
80007c78:	7c70                	c.flw	f12,124(x8)
80007c7a:	8000                	0x8000
80007c7c:	7c70                	c.flw	f12,124(x8)
80007c7e:	8000                	0x8000
80007c80:	7c78                	c.flw	f14,124(x8)
80007c82:	8000                	0x8000
80007c84:	7c78                	c.flw	f14,124(x8)
80007c86:	8000                	0x8000
80007c88:	7c80                	c.flw	f8,56(x9)
80007c8a:	8000                	0x8000
80007c8c:	7c80                	c.flw	f8,56(x9)
80007c8e:	8000                	0x8000
80007c90:	7c88                	c.flw	f10,56(x9)
80007c92:	8000                	0x8000
80007c94:	7c88                	c.flw	f10,56(x9)
80007c96:	8000                	0x8000
80007c98:	7c90                	c.flw	f12,56(x9)
80007c9a:	8000                	0x8000
80007c9c:	7c90                	c.flw	f12,56(x9)
80007c9e:	8000                	0x8000
80007ca0:	7c98                	c.flw	f14,56(x9)
80007ca2:	8000                	0x8000
80007ca4:	7c98                	c.flw	f14,56(x9)
80007ca6:	8000                	0x8000
80007ca8:	7ca0                	c.flw	f8,120(x9)
80007caa:	8000                	0x8000
80007cac:	7ca0                	c.flw	f8,120(x9)
80007cae:	8000                	0x8000
80007cb0:	7ca8                	c.flw	f10,120(x9)
80007cb2:	8000                	0x8000
80007cb4:	7ca8                	c.flw	f10,120(x9)
80007cb6:	8000                	0x8000
80007cb8:	7cb0                	c.flw	f12,120(x9)
80007cba:	8000                	0x8000
80007cbc:	7cb0                	c.flw	f12,120(x9)
80007cbe:	8000                	0x8000
80007cc0:	7cb8                	c.flw	f14,120(x9)
80007cc2:	8000                	0x8000
80007cc4:	7cb8                	c.flw	f14,120(x9)
80007cc6:	8000                	0x8000
80007cc8:	7cc0                	c.flw	f8,60(x9)
80007cca:	8000                	0x8000
80007ccc:	7cc0                	c.flw	f8,60(x9)
80007cce:	8000                	0x8000
80007cd0:	7cc8                	c.flw	f10,60(x9)
80007cd2:	8000                	0x8000
80007cd4:	7cc8                	c.flw	f10,60(x9)
80007cd6:	8000                	0x8000
80007cd8:	7cd0                	c.flw	f12,60(x9)
80007cda:	8000                	0x8000
80007cdc:	7cd0                	c.flw	f12,60(x9)
80007cde:	8000                	0x8000
80007ce0:	7cd8                	c.flw	f14,60(x9)
80007ce2:	8000                	0x8000
80007ce4:	7cd8                	c.flw	f14,60(x9)
80007ce6:	8000                	0x8000
80007ce8:	7ce0                	c.flw	f8,124(x9)
80007cea:	8000                	0x8000
80007cec:	7ce0                	c.flw	f8,124(x9)
80007cee:	8000                	0x8000
80007cf0:	7ce8                	c.flw	f10,124(x9)
80007cf2:	8000                	0x8000
80007cf4:	7ce8                	c.flw	f10,124(x9)
80007cf6:	8000                	0x8000
80007cf8:	7cf0                	c.flw	f12,124(x9)
80007cfa:	8000                	0x8000
80007cfc:	7cf0                	c.flw	f12,124(x9)
80007cfe:	8000                	0x8000
80007d00:	7cf8                	c.flw	f14,124(x9)
80007d02:	8000                	0x8000
80007d04:	7cf8                	c.flw	f14,124(x9)
80007d06:	8000                	0x8000
80007d08:	7d00                	c.flw	f8,56(x10)
80007d0a:	8000                	0x8000
80007d0c:	7d00                	c.flw	f8,56(x10)
80007d0e:	8000                	0x8000
80007d10:	7d08                	c.flw	f10,56(x10)
80007d12:	8000                	0x8000
80007d14:	7d08                	c.flw	f10,56(x10)
80007d16:	8000                	0x8000
80007d18:	7d10                	c.flw	f12,56(x10)
80007d1a:	8000                	0x8000
80007d1c:	7d10                	c.flw	f12,56(x10)
80007d1e:	8000                	0x8000
80007d20:	7d18                	c.flw	f14,56(x10)
80007d22:	8000                	0x8000
80007d24:	7d18                	c.flw	f14,56(x10)
80007d26:	8000                	0x8000
80007d28:	7d20                	c.flw	f8,120(x10)
80007d2a:	8000                	0x8000
80007d2c:	7d20                	c.flw	f8,120(x10)
80007d2e:	8000                	0x8000
80007d30:	7d28                	c.flw	f10,120(x10)
80007d32:	8000                	0x8000
80007d34:	7d28                	c.flw	f10,120(x10)
80007d36:	8000                	0x8000
80007d38:	7d30                	c.flw	f12,120(x10)
80007d3a:	8000                	0x8000
80007d3c:	7d30                	c.flw	f12,120(x10)
80007d3e:	8000                	0x8000
80007d40:	7d38                	c.flw	f14,120(x10)
80007d42:	8000                	0x8000
80007d44:	7d38                	c.flw	f14,120(x10)
80007d46:	8000                	0x8000
80007d48:	7d40                	c.flw	f8,60(x10)
80007d4a:	8000                	0x8000
80007d4c:	7d40                	c.flw	f8,60(x10)
80007d4e:	8000                	0x8000
80007d50:	7d48                	c.flw	f10,60(x10)
80007d52:	8000                	0x8000
80007d54:	7d48                	c.flw	f10,60(x10)
80007d56:	8000                	0x8000
80007d58:	7d50                	c.flw	f12,60(x10)
80007d5a:	8000                	0x8000
80007d5c:	7d50                	c.flw	f12,60(x10)
80007d5e:	8000                	0x8000
80007d60:	7d58                	c.flw	f14,60(x10)
80007d62:	8000                	0x8000
80007d64:	7d58                	c.flw	f14,60(x10)
80007d66:	8000                	0x8000
80007d68:	7d60                	c.flw	f8,124(x10)
80007d6a:	8000                	0x8000
80007d6c:	7d60                	c.flw	f8,124(x10)
80007d6e:	8000                	0x8000
80007d70:	7d68                	c.flw	f10,124(x10)
80007d72:	8000                	0x8000
80007d74:	7d68                	c.flw	f10,124(x10)
80007d76:	8000                	0x8000
80007d78:	7d70                	c.flw	f12,124(x10)
80007d7a:	8000                	0x8000
80007d7c:	7d70                	c.flw	f12,124(x10)
80007d7e:	8000                	0x8000
80007d80:	7d78                	c.flw	f14,124(x10)
80007d82:	8000                	0x8000
80007d84:	7d78                	c.flw	f14,124(x10)
80007d86:	8000                	0x8000
80007d88:	7d80                	c.flw	f8,56(x11)
80007d8a:	8000                	0x8000
80007d8c:	7d80                	c.flw	f8,56(x11)
80007d8e:	8000                	0x8000
80007d90:	7d88                	c.flw	f10,56(x11)
80007d92:	8000                	0x8000
80007d94:	7d88                	c.flw	f10,56(x11)
80007d96:	8000                	0x8000
80007d98:	7d90                	c.flw	f12,56(x11)
80007d9a:	8000                	0x8000
80007d9c:	7d90                	c.flw	f12,56(x11)
80007d9e:	8000                	0x8000
80007da0:	7d98                	c.flw	f14,56(x11)
80007da2:	8000                	0x8000
80007da4:	7d98                	c.flw	f14,56(x11)
80007da6:	8000                	0x8000
80007da8:	7da0                	c.flw	f8,120(x11)
80007daa:	8000                	0x8000
80007dac:	7da0                	c.flw	f8,120(x11)
80007dae:	8000                	0x8000
80007db0:	7da8                	c.flw	f10,120(x11)
80007db2:	8000                	0x8000
80007db4:	7da8                	c.flw	f10,120(x11)
80007db6:	8000                	0x8000
80007db8:	7db0                	c.flw	f12,120(x11)
80007dba:	8000                	0x8000
80007dbc:	7db0                	c.flw	f12,120(x11)
80007dbe:	8000                	0x8000
80007dc0:	7db8                	c.flw	f14,120(x11)
80007dc2:	8000                	0x8000
80007dc4:	7db8                	c.flw	f14,120(x11)
80007dc6:	8000                	0x8000
80007dc8:	7dc0                	c.flw	f8,60(x11)
80007dca:	8000                	0x8000
80007dcc:	7dc0                	c.flw	f8,60(x11)
80007dce:	8000                	0x8000
80007dd0:	7dc8                	c.flw	f10,60(x11)
80007dd2:	8000                	0x8000
80007dd4:	7dc8                	c.flw	f10,60(x11)
80007dd6:	8000                	0x8000
80007dd8:	7dd0                	c.flw	f12,60(x11)
80007dda:	8000                	0x8000
80007ddc:	7dd0                	c.flw	f12,60(x11)
80007dde:	8000                	0x8000
80007de0:	7dd8                	c.flw	f14,60(x11)
80007de2:	8000                	0x8000
80007de4:	7dd8                	c.flw	f14,60(x11)
80007de6:	8000                	0x8000
80007de8:	7de0                	c.flw	f8,124(x11)
80007dea:	8000                	0x8000
80007dec:	7de0                	c.flw	f8,124(x11)
80007dee:	8000                	0x8000
80007df0:	7de8                	c.flw	f10,124(x11)
80007df2:	8000                	0x8000
80007df4:	7de8                	c.flw	f10,124(x11)
80007df6:	8000                	0x8000
80007df8:	7df0                	c.flw	f12,124(x11)
80007dfa:	8000                	0x8000
80007dfc:	7df0                	c.flw	f12,124(x11)
80007dfe:	8000                	0x8000
80007e00:	7df8                	c.flw	f14,124(x11)
80007e02:	8000                	0x8000
80007e04:	7df8                	c.flw	f14,124(x11)
80007e06:	8000                	0x8000
80007e08:	7e00                	c.flw	f8,56(x12)
80007e0a:	8000                	0x8000
80007e0c:	7e00                	c.flw	f8,56(x12)
80007e0e:	8000                	0x8000
80007e10:	7e08                	c.flw	f10,56(x12)
80007e12:	8000                	0x8000
80007e14:	7e08                	c.flw	f10,56(x12)
80007e16:	8000                	0x8000
80007e18:	7e10                	c.flw	f12,56(x12)
80007e1a:	8000                	0x8000
80007e1c:	7e10                	c.flw	f12,56(x12)
80007e1e:	8000                	0x8000
80007e20:	7e18                	c.flw	f14,56(x12)
80007e22:	8000                	0x8000
80007e24:	7e18                	c.flw	f14,56(x12)
80007e26:	8000                	0x8000
80007e28:	7e20                	c.flw	f8,120(x12)
80007e2a:	8000                	0x8000
80007e2c:	7e20                	c.flw	f8,120(x12)
80007e2e:	8000                	0x8000
80007e30:	7e28                	c.flw	f10,120(x12)
80007e32:	8000                	0x8000
80007e34:	7e28                	c.flw	f10,120(x12)
80007e36:	8000                	0x8000
80007e38:	7e30                	c.flw	f12,120(x12)
80007e3a:	8000                	0x8000
80007e3c:	7e30                	c.flw	f12,120(x12)
80007e3e:	8000                	0x8000
80007e40:	7e38                	c.flw	f14,120(x12)
80007e42:	8000                	0x8000
80007e44:	7e38                	c.flw	f14,120(x12)
80007e46:	8000                	0x8000
80007e48:	7e40                	c.flw	f8,60(x12)
80007e4a:	8000                	0x8000
80007e4c:	7e40                	c.flw	f8,60(x12)
80007e4e:	8000                	0x8000
80007e50:	7e48                	c.flw	f10,60(x12)
80007e52:	8000                	0x8000
80007e54:	7e48                	c.flw	f10,60(x12)
80007e56:	8000                	0x8000
80007e58:	7e50                	c.flw	f12,60(x12)
80007e5a:	8000                	0x8000
80007e5c:	7e50                	c.flw	f12,60(x12)
80007e5e:	8000                	0x8000
80007e60:	7e58                	c.flw	f14,60(x12)
80007e62:	8000                	0x8000
80007e64:	7e58                	c.flw	f14,60(x12)
80007e66:	8000                	0x8000
80007e68:	7e60                	c.flw	f8,124(x12)
80007e6a:	8000                	0x8000
80007e6c:	7e60                	c.flw	f8,124(x12)
80007e6e:	8000                	0x8000
80007e70:	7e68                	c.flw	f10,124(x12)
80007e72:	8000                	0x8000
80007e74:	7e68                	c.flw	f10,124(x12)
80007e76:	8000                	0x8000
80007e78:	7e70                	c.flw	f12,124(x12)
80007e7a:	8000                	0x8000
80007e7c:	7e70                	c.flw	f12,124(x12)
80007e7e:	8000                	0x8000
80007e80:	7e78                	c.flw	f14,124(x12)
80007e82:	8000                	0x8000
80007e84:	7e78                	c.flw	f14,124(x12)
80007e86:	8000                	0x8000
80007e88:	7e80                	c.flw	f8,56(x13)
80007e8a:	8000                	0x8000
80007e8c:	7e80                	c.flw	f8,56(x13)
80007e8e:	8000                	0x8000
80007e90:	7e88                	c.flw	f10,56(x13)
80007e92:	8000                	0x8000
80007e94:	7e88                	c.flw	f10,56(x13)
80007e96:	8000                	0x8000
80007e98:	7e90                	c.flw	f12,56(x13)
80007e9a:	8000                	0x8000
80007e9c:	7e90                	c.flw	f12,56(x13)
80007e9e:	8000                	0x8000
80007ea0:	7e98                	c.flw	f14,56(x13)
80007ea2:	8000                	0x8000
80007ea4:	7e98                	c.flw	f14,56(x13)
80007ea6:	8000                	0x8000
80007ea8:	7ea0                	c.flw	f8,120(x13)
80007eaa:	8000                	0x8000
80007eac:	7ea0                	c.flw	f8,120(x13)
80007eae:	8000                	0x8000
80007eb0:	7ea8                	c.flw	f10,120(x13)
80007eb2:	8000                	0x8000
80007eb4:	7ea8                	c.flw	f10,120(x13)
80007eb6:	8000                	0x8000
80007eb8:	7eb0                	c.flw	f12,120(x13)
80007eba:	8000                	0x8000
80007ebc:	7eb0                	c.flw	f12,120(x13)
80007ebe:	8000                	0x8000
80007ec0:	7eb8                	c.flw	f14,120(x13)
80007ec2:	8000                	0x8000
80007ec4:	7eb8                	c.flw	f14,120(x13)
80007ec6:	8000                	0x8000
80007ec8:	7ec0                	c.flw	f8,60(x13)
80007eca:	8000                	0x8000
80007ecc:	7ec0                	c.flw	f8,60(x13)
80007ece:	8000                	0x8000
80007ed0:	7ec8                	c.flw	f10,60(x13)
80007ed2:	8000                	0x8000
80007ed4:	7ec8                	c.flw	f10,60(x13)
80007ed6:	8000                	0x8000
80007ed8:	7ed0                	c.flw	f12,60(x13)
80007eda:	8000                	0x8000
80007edc:	7ed0                	c.flw	f12,60(x13)
80007ede:	8000                	0x8000
80007ee0:	7ed8                	c.flw	f14,60(x13)
80007ee2:	8000                	0x8000
80007ee4:	7ed8                	c.flw	f14,60(x13)
80007ee6:	8000                	0x8000
80007ee8:	7ee0                	c.flw	f8,124(x13)
80007eea:	8000                	0x8000
80007eec:	7ee0                	c.flw	f8,124(x13)
80007eee:	8000                	0x8000
80007ef0:	7ee8                	c.flw	f10,124(x13)
80007ef2:	8000                	0x8000
80007ef4:	7ee8                	c.flw	f10,124(x13)
80007ef6:	8000                	0x8000
80007ef8:	7ef0                	c.flw	f12,124(x13)
80007efa:	8000                	0x8000
80007efc:	7ef0                	c.flw	f12,124(x13)
80007efe:	8000                	0x8000
80007f00:	7ef8                	c.flw	f14,124(x13)
80007f02:	8000                	0x8000
80007f04:	7ef8                	c.flw	f14,124(x13)
80007f06:	8000                	0x8000
80007f08:	7f00                	c.flw	f8,56(x14)
80007f0a:	8000                	0x8000
80007f0c:	7f00                	c.flw	f8,56(x14)
80007f0e:	8000                	0x8000
80007f10:	7f08                	c.flw	f10,56(x14)
80007f12:	8000                	0x8000
80007f14:	7f08                	c.flw	f10,56(x14)
80007f16:	8000                	0x8000
80007f18:	7f10                	c.flw	f12,56(x14)
80007f1a:	8000                	0x8000
80007f1c:	7f10                	c.flw	f12,56(x14)
80007f1e:	8000                	0x8000
80007f20:	7f18                	c.flw	f14,56(x14)
80007f22:	8000                	0x8000
80007f24:	7f18                	c.flw	f14,56(x14)
80007f26:	8000                	0x8000
80007f28:	7f20                	c.flw	f8,120(x14)
80007f2a:	8000                	0x8000
80007f2c:	7f20                	c.flw	f8,120(x14)
80007f2e:	8000                	0x8000
80007f30:	7f28                	c.flw	f10,120(x14)
80007f32:	8000                	0x8000
80007f34:	7f28                	c.flw	f10,120(x14)
80007f36:	8000                	0x8000
80007f38:	7f30                	c.flw	f12,120(x14)
80007f3a:	8000                	0x8000
80007f3c:	7f30                	c.flw	f12,120(x14)
80007f3e:	8000                	0x8000
80007f40:	7f38                	c.flw	f14,120(x14)
80007f42:	8000                	0x8000
80007f44:	7f38                	c.flw	f14,120(x14)
80007f46:	8000                	0x8000
80007f48:	7f40                	c.flw	f8,60(x14)
80007f4a:	8000                	0x8000
80007f4c:	7f40                	c.flw	f8,60(x14)
80007f4e:	8000                	0x8000
80007f50:	7f48                	c.flw	f10,60(x14)
80007f52:	8000                	0x8000
80007f54:	7f48                	c.flw	f10,60(x14)
80007f56:	8000                	0x8000
80007f58:	7f50                	c.flw	f12,60(x14)
80007f5a:	8000                	0x8000
80007f5c:	7f50                	c.flw	f12,60(x14)
80007f5e:	8000                	0x8000
80007f60:	7f58                	c.flw	f14,60(x14)
80007f62:	8000                	0x8000
80007f64:	7f58                	c.flw	f14,60(x14)
80007f66:	8000                	0x8000
80007f68:	7f60                	c.flw	f8,124(x14)
80007f6a:	8000                	0x8000
80007f6c:	7f60                	c.flw	f8,124(x14)
80007f6e:	8000                	0x8000
80007f70:	7f68                	c.flw	f10,124(x14)
80007f72:	8000                	0x8000
80007f74:	7f68                	c.flw	f10,124(x14)
80007f76:	8000                	0x8000
80007f78:	7f70                	c.flw	f12,124(x14)
80007f7a:	8000                	0x8000
80007f7c:	7f70                	c.flw	f12,124(x14)
80007f7e:	8000                	0x8000
80007f80:	7f78                	c.flw	f14,124(x14)
80007f82:	8000                	0x8000
80007f84:	7f78                	c.flw	f14,124(x14)
80007f86:	8000                	0x8000
80007f88:	7f80                	c.flw	f8,56(x15)
80007f8a:	8000                	0x8000
80007f8c:	7f80                	c.flw	f8,56(x15)
80007f8e:	8000                	0x8000
80007f90:	7f88                	c.flw	f10,56(x15)
80007f92:	8000                	0x8000
80007f94:	7f88                	c.flw	f10,56(x15)
80007f96:	8000                	0x8000
80007f98:	7f90                	c.flw	f12,56(x15)
80007f9a:	8000                	0x8000
80007f9c:	7f90                	c.flw	f12,56(x15)
80007f9e:	8000                	0x8000
80007fa0:	7f98                	c.flw	f14,56(x15)
80007fa2:	8000                	0x8000
80007fa4:	7f98                	c.flw	f14,56(x15)
80007fa6:	8000                	0x8000
80007fa8:	7fa0                	c.flw	f8,120(x15)
80007faa:	8000                	0x8000
80007fac:	7fa0                	c.flw	f8,120(x15)
80007fae:	8000                	0x8000
80007fb0:	7fa8                	c.flw	f10,120(x15)
80007fb2:	8000                	0x8000
80007fb4:	7fa8                	c.flw	f10,120(x15)
80007fb6:	8000                	0x8000
80007fb8:	7fb0                	c.flw	f12,120(x15)
80007fba:	8000                	0x8000
80007fbc:	7fb0                	c.flw	f12,120(x15)
80007fbe:	8000                	0x8000
80007fc0:	7fb8                	c.flw	f14,120(x15)
80007fc2:	8000                	0x8000
80007fc4:	7fb8                	c.flw	f14,120(x15)
80007fc6:	8000                	0x8000
80007fc8:	7fc0                	c.flw	f8,60(x15)
80007fca:	8000                	0x8000
80007fcc:	7fc0                	c.flw	f8,60(x15)
80007fce:	8000                	0x8000
80007fd0:	7fc8                	c.flw	f10,60(x15)
80007fd2:	8000                	0x8000
80007fd4:	7fc8                	c.flw	f10,60(x15)
80007fd6:	8000                	0x8000
80007fd8:	7fd0                	c.flw	f12,60(x15)
80007fda:	8000                	0x8000
80007fdc:	7fd0                	c.flw	f12,60(x15)
80007fde:	8000                	0x8000
80007fe0:	7fd8                	c.flw	f14,60(x15)
80007fe2:	8000                	0x8000
80007fe4:	7fd8                	c.flw	f14,60(x15)
80007fe6:	8000                	0x8000
80007fe8:	7fe0                	c.flw	f8,124(x15)
80007fea:	8000                	0x8000
80007fec:	7fe0                	c.flw	f8,124(x15)
80007fee:	8000                	0x8000
80007ff0:	7fe8                	c.flw	f10,124(x15)
80007ff2:	8000                	0x8000
80007ff4:	7fe8                	c.flw	f10,124(x15)
80007ff6:	8000                	0x8000
80007ff8:	7ff0                	c.flw	f12,124(x15)
80007ffa:	8000                	0x8000
80007ffc:	7ff0                	c.flw	f12,124(x15)
80007ffe:	8000                	0x8000
80008000:	7ff8                	c.flw	f14,124(x15)
80008002:	8000                	0x8000
80008004:	7ff8                	c.flw	f14,124(x15)
80008006:	8000                	0x8000
80008008:	8000                	0x8000
8000800a:	8000                	0x8000
8000800c:	8000                	0x8000
8000800e:	8000                	0x8000
80008010:	8008                	0x8008
80008012:	8000                	0x8000
80008014:	8008                	0x8008
80008016:	8000                	0x8000

Disassembly of section .sdata.__malloc_sbrk_base:

80008018 <__malloc_sbrk_base>:
80008018:	ffff                	0xffff
8000801a:	ffff                	0xffff

Disassembly of section .sdata.__malloc_trim_threshold:

8000801c <__malloc_trim_threshold>:
8000801c:	0000                	c.unimp
8000801e:	0002                	c.slli64	x0

Disassembly of section .rodata:

80008020 <__func__.0>:
80008020:	6e69                	c.lui	x28,0x1a
80008022:	7469                	c.lui	x8,0xffffa
80008024:	685f 6165 5f70      	0x5f706165685f
8000802a:	6562                	c.flwsp	f10,24(x2)
8000802c:	6265                	c.lui	x4,0x19
8000802e:	          	0x1000073

80008030 <__clz_tab>:
80008030:	0100                	c.addi4spn	x8,x2,128
80008032:	0202                	c.slli64	x4
80008034:	03030303          	lb	x6,48(x6)
80008038:	0404                	c.addi4spn	x9,x2,512
8000803a:	0404                	c.addi4spn	x9,x2,512
8000803c:	0404                	c.addi4spn	x9,x2,512
8000803e:	0404                	c.addi4spn	x9,x2,512
80008040:	0505                	c.addi	x10,1
80008042:	0505                	c.addi	x10,1
80008044:	0505                	c.addi	x10,1
80008046:	0505                	c.addi	x10,1
80008048:	0505                	c.addi	x10,1
8000804a:	0505                	c.addi	x10,1
8000804c:	0505                	c.addi	x10,1
8000804e:	0505                	c.addi	x10,1
80008050:	0606                	c.slli	x12,0x1
80008052:	0606                	c.slli	x12,0x1
80008054:	0606                	c.slli	x12,0x1
80008056:	0606                	c.slli	x12,0x1
80008058:	0606                	c.slli	x12,0x1
8000805a:	0606                	c.slli	x12,0x1
8000805c:	0606                	c.slli	x12,0x1
8000805e:	0606                	c.slli	x12,0x1
80008060:	0606                	c.slli	x12,0x1
80008062:	0606                	c.slli	x12,0x1
80008064:	0606                	c.slli	x12,0x1
80008066:	0606                	c.slli	x12,0x1
80008068:	0606                	c.slli	x12,0x1
8000806a:	0606                	c.slli	x12,0x1
8000806c:	0606                	c.slli	x12,0x1
8000806e:	0606                	c.slli	x12,0x1
80008070:	07070707          	0x7070707
80008074:	07070707          	0x7070707
80008078:	07070707          	0x7070707
8000807c:	07070707          	0x7070707
80008080:	07070707          	0x7070707
80008084:	07070707          	0x7070707
80008088:	07070707          	0x7070707
8000808c:	07070707          	0x7070707
80008090:	07070707          	0x7070707
80008094:	07070707          	0x7070707
80008098:	07070707          	0x7070707
8000809c:	07070707          	0x7070707
800080a0:	07070707          	0x7070707
800080a4:	07070707          	0x7070707
800080a8:	07070707          	0x7070707
800080ac:	07070707          	0x7070707
800080b0:	0808                	c.addi4spn	x10,x2,16
800080b2:	0808                	c.addi4spn	x10,x2,16
800080b4:	0808                	c.addi4spn	x10,x2,16
800080b6:	0808                	c.addi4spn	x10,x2,16
800080b8:	0808                	c.addi4spn	x10,x2,16
800080ba:	0808                	c.addi4spn	x10,x2,16
800080bc:	0808                	c.addi4spn	x10,x2,16
800080be:	0808                	c.addi4spn	x10,x2,16
800080c0:	0808                	c.addi4spn	x10,x2,16
800080c2:	0808                	c.addi4spn	x10,x2,16
800080c4:	0808                	c.addi4spn	x10,x2,16
800080c6:	0808                	c.addi4spn	x10,x2,16
800080c8:	0808                	c.addi4spn	x10,x2,16
800080ca:	0808                	c.addi4spn	x10,x2,16
800080cc:	0808                	c.addi4spn	x10,x2,16
800080ce:	0808                	c.addi4spn	x10,x2,16
800080d0:	0808                	c.addi4spn	x10,x2,16
800080d2:	0808                	c.addi4spn	x10,x2,16
800080d4:	0808                	c.addi4spn	x10,x2,16
800080d6:	0808                	c.addi4spn	x10,x2,16
800080d8:	0808                	c.addi4spn	x10,x2,16
800080da:	0808                	c.addi4spn	x10,x2,16
800080dc:	0808                	c.addi4spn	x10,x2,16
800080de:	0808                	c.addi4spn	x10,x2,16
800080e0:	0808                	c.addi4spn	x10,x2,16
800080e2:	0808                	c.addi4spn	x10,x2,16
800080e4:	0808                	c.addi4spn	x10,x2,16
800080e6:	0808                	c.addi4spn	x10,x2,16
800080e8:	0808                	c.addi4spn	x10,x2,16
800080ea:	0808                	c.addi4spn	x10,x2,16
800080ec:	0808                	c.addi4spn	x10,x2,16
800080ee:	0808                	c.addi4spn	x10,x2,16
800080f0:	0808                	c.addi4spn	x10,x2,16
800080f2:	0808                	c.addi4spn	x10,x2,16
800080f4:	0808                	c.addi4spn	x10,x2,16
800080f6:	0808                	c.addi4spn	x10,x2,16
800080f8:	0808                	c.addi4spn	x10,x2,16
800080fa:	0808                	c.addi4spn	x10,x2,16
800080fc:	0808                	c.addi4spn	x10,x2,16
800080fe:	0808                	c.addi4spn	x10,x2,16
80008100:	0808                	c.addi4spn	x10,x2,16
80008102:	0808                	c.addi4spn	x10,x2,16
80008104:	0808                	c.addi4spn	x10,x2,16
80008106:	0808                	c.addi4spn	x10,x2,16
80008108:	0808                	c.addi4spn	x10,x2,16
8000810a:	0808                	c.addi4spn	x10,x2,16
8000810c:	0808                	c.addi4spn	x10,x2,16
8000810e:	0808                	c.addi4spn	x10,x2,16
80008110:	0808                	c.addi4spn	x10,x2,16
80008112:	0808                	c.addi4spn	x10,x2,16
80008114:	0808                	c.addi4spn	x10,x2,16
80008116:	0808                	c.addi4spn	x10,x2,16
80008118:	0808                	c.addi4spn	x10,x2,16
8000811a:	0808                	c.addi4spn	x10,x2,16
8000811c:	0808                	c.addi4spn	x10,x2,16
8000811e:	0808                	c.addi4spn	x10,x2,16
80008120:	0808                	c.addi4spn	x10,x2,16
80008122:	0808                	c.addi4spn	x10,x2,16
80008124:	0808                	c.addi4spn	x10,x2,16
80008126:	0808                	c.addi4spn	x10,x2,16
80008128:	0808                	c.addi4spn	x10,x2,16
8000812a:	0808                	c.addi4spn	x10,x2,16
8000812c:	0808                	c.addi4spn	x10,x2,16
8000812e:	0808                	c.addi4spn	x10,x2,16

Disassembly of section .rodata.str1.4:

80008130 <.rodata.str1.4>:
80008130:	6568                	c.flw	f10,76(x10)
80008132:	7061                	c.lui	x0,0xffff8
80008134:	735f 7a69 2065      	0x20657a69735f
8000813a:	2025                	c.jal	80008162 <__clz_tab+0x132>
8000813c:	657a6973          	csrrsi	x18,0x657,20
80008140:	7628666f          	jal	x12,8008e8a2 <_end+0x84092>
80008144:	2064696f          	jal	x18,8004e34a <_end+0x43b3a>
80008148:	292a                	c.fldsp	f18,136(x2)
8000814a:	3d20                	c.fld	f8,120(x10)
8000814c:	203d                	c.jal	8000817a <__clz_tab+0x14a>
8000814e:	0030                	c.addi4spn	x12,x2,8
80008150:	6d6f682f          	0x6d6f682f
80008154:	2f65                	c.jal	8000890c <heap+0x478>
80008156:	6c6c6173          	csrrsi	x2,0x6c6,24
8000815a:	7261                	c.lui	x4,0xffff8
8000815c:	726f772f          	0x726f772f
80008160:	6d652f6b          	0x6d652f6b
80008164:	6562                	c.flwsp	f10,24(x2)
80008166:	636e                	c.flwsp	f6,216(x2)
80008168:	2d68                	c.fld	f10,216(x10)
8000816a:	6f69                	c.lui	x30,0x1a
8000816c:	2f74                	c.fld	f13,216(x14)
8000816e:	70707573          	csrrci	x10,0x707,0
80008172:	2f74726f          	jal	x4,8004fc68 <_end+0x45458>
80008176:	6562                	c.flwsp	f10,24(x2)
80008178:	6265                	c.lui	x4,0x19
8000817a:	632e6373          	csrrsi	x6,0x632,28
8000817e:	0000                	c.unimp
80008180:	002e                	c.slli	x0,0xb

Disassembly of section .rodata.__assert_func.str1.4:

80008184 <.rodata.__assert_func.str1.4>:
80008184:	202c                	c.fld	f11,64(x8)
80008186:	7566                	c.flwsp	f10,120(x2)
80008188:	636e                	c.flwsp	f6,216(x2)
8000818a:	6974                	c.flw	f13,84(x10)
8000818c:	203a6e6f          	jal	x28,800aeb8e <_end+0xa437e>
80008190:	0000                	c.unimp
80008192:	0000                	c.unimp
80008194:	7361                	c.lui	x6,0xffff8
80008196:	74726573          	csrrsi	x10,0x747,4
8000819a:	6f69                	c.lui	x30,0x1a
8000819c:	206e                	c.fldsp	f0,216(x2)
8000819e:	2522                	c.fldsp	f10,8(x2)
800081a0:	66202273          	csrrs	x4,0x662,x0
800081a4:	6961                	c.lui	x18,0x18
800081a6:	656c                	c.flw	f11,76(x10)
800081a8:	3a64                	c.fld	f9,240(x12)
800081aa:	6620                	c.flw	f8,72(x12)
800081ac:	6c69                	c.lui	x24,0x1a
800081ae:	2065                	c.jal	80008256 <__clz_tab+0x226>
800081b0:	2522                	c.fldsp	f10,8(x2)
800081b2:	202c2273          	csrrs	x4,0x202,x24
800081b6:	696c                	c.flw	f11,84(x10)
800081b8:	656e                	c.flwsp	f10,216(x2)
800081ba:	2520                	c.fld	f8,72(x10)
800081bc:	2564                	c.fld	f9,200(x10)
800081be:	0a732573          	csrrs	x10,0xa7,x6
	...

Disassembly of section .rodata._vfiprintf_r.str1.4:

800081c4 <.rodata._vfiprintf_r.str1.4>:
800081c4:	3130                	c.fld	f12,96(x10)
800081c6:	3332                	c.fldsp	f6,296(x2)
800081c8:	3534                	c.fld	f13,104(x10)
800081ca:	3736                	c.fldsp	f14,360(x2)
800081cc:	3938                	c.fld	f14,112(x10)
800081ce:	4241                	c.li	x4,16
800081d0:	46454443          	fmadd.q	f8,f10,f4,f8,rmm
800081d4:	0000                	c.unimp
800081d6:	0000                	c.unimp
800081d8:	3130                	c.fld	f12,96(x10)
800081da:	3332                	c.fldsp	f6,296(x2)
800081dc:	3534                	c.fld	f13,104(x10)
800081de:	3736                	c.fldsp	f14,360(x2)
800081e0:	3938                	c.fld	f14,112(x10)
800081e2:	6261                	c.lui	x4,0x18
800081e4:	66656463          	bltu	x10,x6,8000884c <heap+0x3b8>
800081e8:	0000                	c.unimp
800081ea:	0000                	c.unimp
800081ec:	6e28                	c.flw	f10,88(x12)
800081ee:	6c75                	c.lui	x24,0x1d
800081f0:	296c                	c.fld	f11,208(x10)
	...

Disassembly of section .rodata._vfiprintf_r:

800081f4 <.rodata._vfiprintf_r>:
800081f4:	3a7c                	c.fld	f15,240(x12)
800081f6:	8000                	0x8000
800081f8:	34bc                	c.fld	f15,104(x9)
800081fa:	8000                	0x8000
800081fc:	34bc                	c.fld	f15,104(x9)
800081fe:	8000                	0x8000
80008200:	3a70                	c.fld	f12,240(x12)
80008202:	8000                	0x8000
80008204:	34bc                	c.fld	f15,104(x9)
80008206:	8000                	0x8000
80008208:	34bc                	c.fld	f15,104(x9)
8000820a:	8000                	0x8000
8000820c:	34bc                	c.fld	f15,104(x9)
8000820e:	8000                	0x8000
80008210:	3684                	c.fld	f9,40(x13)
80008212:	8000                	0x8000
80008214:	34bc                	c.fld	f15,104(x9)
80008216:	8000                	0x8000
80008218:	34bc                	c.fld	f15,104(x9)
8000821a:	8000                	0x8000
8000821c:	3a44                	c.fld	f9,176(x12)
8000821e:	8000                	0x8000
80008220:	3aa0                	c.fld	f8,112(x13)
80008222:	8000                	0x8000
80008224:	34bc                	c.fld	f15,104(x9)
80008226:	8000                	0x8000
80008228:	3a94                	c.fld	f13,48(x13)
8000822a:	8000                	0x8000
8000822c:	3ab0                	c.fld	f12,112(x13)
8000822e:	8000                	0x8000
80008230:	34bc                	c.fld	f15,104(x9)
80008232:	8000                	0x8000
80008234:	3a38                	c.fld	f14,112(x12)
80008236:	8000                	0x8000
80008238:	3484                	c.fld	f9,40(x9)
8000823a:	8000                	0x8000
8000823c:	3484                	c.fld	f9,40(x9)
8000823e:	8000                	0x8000
80008240:	3484                	c.fld	f9,40(x9)
80008242:	8000                	0x8000
80008244:	3484                	c.fld	f9,40(x9)
80008246:	8000                	0x8000
80008248:	3484                	c.fld	f9,40(x9)
8000824a:	8000                	0x8000
8000824c:	3484                	c.fld	f9,40(x9)
8000824e:	8000                	0x8000
80008250:	3484                	c.fld	f9,40(x9)
80008252:	8000                	0x8000
80008254:	3484                	c.fld	f9,40(x9)
80008256:	8000                	0x8000
80008258:	3484                	c.fld	f9,40(x9)
8000825a:	8000                	0x8000
8000825c:	34bc                	c.fld	f15,104(x9)
8000825e:	8000                	0x8000
80008260:	34bc                	c.fld	f15,104(x9)
80008262:	8000                	0x8000
80008264:	34bc                	c.fld	f15,104(x9)
80008266:	8000                	0x8000
80008268:	34bc                	c.fld	f15,104(x9)
8000826a:	8000                	0x8000
8000826c:	34bc                	c.fld	f15,104(x9)
8000826e:	8000                	0x8000
80008270:	34bc                	c.fld	f15,104(x9)
80008272:	8000                	0x8000
80008274:	34bc                	c.fld	f15,104(x9)
80008276:	8000                	0x8000
80008278:	34bc                	c.fld	f15,104(x9)
8000827a:	8000                	0x8000
8000827c:	34bc                	c.fld	f15,104(x9)
8000827e:	8000                	0x8000
80008280:	3980                	c.fld	f8,48(x11)
80008282:	8000                	0x8000
80008284:	36d4                	c.fld	f13,168(x13)
80008286:	8000                	0x8000
80008288:	34bc                	c.fld	f15,104(x9)
8000828a:	8000                	0x8000
8000828c:	34bc                	c.fld	f15,104(x9)
8000828e:	8000                	0x8000
80008290:	34bc                	c.fld	f15,104(x9)
80008292:	8000                	0x8000
80008294:	34bc                	c.fld	f15,104(x9)
80008296:	8000                	0x8000
80008298:	34bc                	c.fld	f15,104(x9)
8000829a:	8000                	0x8000
8000829c:	34bc                	c.fld	f15,104(x9)
8000829e:	8000                	0x8000
800082a0:	34bc                	c.fld	f15,104(x9)
800082a2:	8000                	0x8000
800082a4:	34bc                	c.fld	f15,104(x9)
800082a6:	8000                	0x8000
800082a8:	34bc                	c.fld	f15,104(x9)
800082aa:	8000                	0x8000
800082ac:	34bc                	c.fld	f15,104(x9)
800082ae:	8000                	0x8000
800082b0:	37cc                	c.fld	f11,168(x15)
800082b2:	8000                	0x8000
800082b4:	34bc                	c.fld	f15,104(x9)
800082b6:	8000                	0x8000
800082b8:	34bc                	c.fld	f15,104(x9)
800082ba:	8000                	0x8000
800082bc:	34bc                	c.fld	f15,104(x9)
800082be:	8000                	0x8000
800082c0:	3940                	c.fld	f8,176(x10)
800082c2:	8000                	0x8000
800082c4:	34bc                	c.fld	f15,104(x9)
800082c6:	8000                	0x8000
800082c8:	3a08                	c.fld	f10,48(x12)
800082ca:	8000                	0x8000
800082cc:	34bc                	c.fld	f15,104(x9)
800082ce:	8000                	0x8000
800082d0:	34bc                	c.fld	f15,104(x9)
800082d2:	8000                	0x8000
800082d4:	4204                	c.lw	x9,0(x12)
800082d6:	8000                	0x8000
800082d8:	34bc                	c.fld	f15,104(x9)
800082da:	8000                	0x8000
800082dc:	34bc                	c.fld	f15,104(x9)
800082de:	8000                	0x8000
800082e0:	34bc                	c.fld	f15,104(x9)
800082e2:	8000                	0x8000
800082e4:	34bc                	c.fld	f15,104(x9)
800082e6:	8000                	0x8000
800082e8:	34bc                	c.fld	f15,104(x9)
800082ea:	8000                	0x8000
800082ec:	34bc                	c.fld	f15,104(x9)
800082ee:	8000                	0x8000
800082f0:	34bc                	c.fld	f15,104(x9)
800082f2:	8000                	0x8000
800082f4:	34bc                	c.fld	f15,104(x9)
800082f6:	8000                	0x8000
800082f8:	34bc                	c.fld	f15,104(x9)
800082fa:	8000                	0x8000
800082fc:	34bc                	c.fld	f15,104(x9)
800082fe:	8000                	0x8000
80008300:	3980                	c.fld	f8,48(x11)
80008302:	8000                	0x8000
80008304:	36d8                	c.fld	f14,168(x13)
80008306:	8000                	0x8000
80008308:	34bc                	c.fld	f15,104(x9)
8000830a:	8000                	0x8000
8000830c:	34bc                	c.fld	f15,104(x9)
8000830e:	8000                	0x8000
80008310:	34bc                	c.fld	f15,104(x9)
80008312:	8000                	0x8000
80008314:	39f4                	c.fld	f13,240(x11)
80008316:	8000                	0x8000
80008318:	36d8                	c.fld	f14,168(x13)
8000831a:	8000                	0x8000
8000831c:	36c8                	c.fld	f10,168(x13)
8000831e:	8000                	0x8000
80008320:	34bc                	c.fld	f15,104(x9)
80008322:	8000                	0x8000
80008324:	39e0                	c.fld	f8,240(x11)
80008326:	8000                	0x8000
80008328:	34bc                	c.fld	f15,104(x9)
8000832a:	8000                	0x8000
8000832c:	3af0                	c.fld	f12,240(x13)
8000832e:	8000                	0x8000
80008330:	37d0                	c.fld	f12,168(x15)
80008332:	8000                	0x8000
80008334:	39a8                	c.fld	f10,112(x11)
80008336:	8000                	0x8000
80008338:	36c8                	c.fld	f10,168(x13)
8000833a:	8000                	0x8000
8000833c:	34bc                	c.fld	f15,104(x9)
8000833e:	8000                	0x8000
80008340:	3940                	c.fld	f8,176(x10)
80008342:	8000                	0x8000
80008344:	36c0                	c.fld	f8,168(x13)
80008346:	8000                	0x8000
80008348:	41fc                	c.lw	x15,68(x11)
8000834a:	8000                	0x8000
8000834c:	34bc                	c.fld	f15,104(x9)
8000834e:	8000                	0x8000
80008350:	34bc                	c.fld	f15,104(x9)
80008352:	8000                	0x8000
80008354:	4260                	c.lw	x8,68(x12)
80008356:	8000                	0x8000
80008358:	34bc                	c.fld	f15,104(x9)
8000835a:	8000                	0x8000
8000835c:	36c0                	c.fld	f8,168(x13)
8000835e:	8000                	0x8000

Disassembly of section .rodata.blanks.1:

80008360 <blanks.1>:
80008360:	2020                	c.fld	f8,64(x8)
80008362:	2020                	c.fld	f8,64(x8)
80008364:	2020                	c.fld	f8,64(x8)
80008366:	2020                	c.fld	f8,64(x8)
80008368:	2020                	c.fld	f8,64(x8)
8000836a:	2020                	c.fld	f8,64(x8)
8000836c:	2020                	c.fld	f8,64(x8)
8000836e:	2020                	c.fld	f8,64(x8)

Disassembly of section .rodata.zeroes.0:

80008370 <zeroes.0>:
80008370:	3030                	c.fld	f12,96(x8)
80008372:	3030                	c.fld	f12,96(x8)
80008374:	3030                	c.fld	f12,96(x8)
80008376:	3030                	c.fld	f12,96(x8)
80008378:	3030                	c.fld	f12,96(x8)
8000837a:	3030                	c.fld	f12,96(x8)
8000837c:	3030                	c.fld	f12,96(x8)
8000837e:	3030                	c.fld	f12,96(x8)

Disassembly of section .rodata._setlocale_r.str1.4:

80008380 <.rodata._setlocale_r.str1.4>:
80008380:	00000043          	fmadd.s	f0,f0,f0,f0,rne
80008384:	4f50                	c.lw	x12,28(x14)
80008386:	00584953          	fadd.s	f18,f16,f5,rmm
8000838a:	0000                	c.unimp
	...

Disassembly of section .rodata._ctype_:

80008390 <_ctype_>:
80008390:	2000                	c.fld	f8,0(x8)
80008392:	2020                	c.fld	f8,64(x8)
80008394:	2020                	c.fld	f8,64(x8)
80008396:	2020                	c.fld	f8,64(x8)
80008398:	2020                	c.fld	f8,64(x8)
8000839a:	2828                	c.fld	f10,80(x8)
8000839c:	2828                	c.fld	f10,80(x8)
8000839e:	2028                	c.fld	f10,64(x8)
800083a0:	2020                	c.fld	f8,64(x8)
800083a2:	2020                	c.fld	f8,64(x8)
800083a4:	2020                	c.fld	f8,64(x8)
800083a6:	2020                	c.fld	f8,64(x8)
800083a8:	2020                	c.fld	f8,64(x8)
800083aa:	2020                	c.fld	f8,64(x8)
800083ac:	2020                	c.fld	f8,64(x8)
800083ae:	2020                	c.fld	f8,64(x8)
800083b0:	8820                	0x8820
800083b2:	1010                	c.addi4spn	x12,x2,32
800083b4:	1010                	c.addi4spn	x12,x2,32
800083b6:	1010                	c.addi4spn	x12,x2,32
800083b8:	1010                	c.addi4spn	x12,x2,32
800083ba:	1010                	c.addi4spn	x12,x2,32
800083bc:	1010                	c.addi4spn	x12,x2,32
800083be:	1010                	c.addi4spn	x12,x2,32
800083c0:	0410                	c.addi4spn	x12,x2,512
800083c2:	0404                	c.addi4spn	x9,x2,512
800083c4:	0404                	c.addi4spn	x9,x2,512
800083c6:	0404                	c.addi4spn	x9,x2,512
800083c8:	0404                	c.addi4spn	x9,x2,512
800083ca:	1004                	c.addi4spn	x9,x2,32
800083cc:	1010                	c.addi4spn	x12,x2,32
800083ce:	1010                	c.addi4spn	x12,x2,32
800083d0:	1010                	c.addi4spn	x12,x2,32
800083d2:	4141                	c.li	x2,16
800083d4:	4141                	c.li	x2,16
800083d6:	4141                	c.li	x2,16
800083d8:	0101                	c.addi	x2,0
800083da:	0101                	c.addi	x2,0
800083dc:	0101                	c.addi	x2,0
800083de:	0101                	c.addi	x2,0
800083e0:	0101                	c.addi	x2,0
800083e2:	0101                	c.addi	x2,0
800083e4:	0101                	c.addi	x2,0
800083e6:	0101                	c.addi	x2,0
800083e8:	0101                	c.addi	x2,0
800083ea:	0101                	c.addi	x2,0
800083ec:	1010                	c.addi4spn	x12,x2,32
800083ee:	1010                	c.addi4spn	x12,x2,32
800083f0:	1010                	c.addi4spn	x12,x2,32
800083f2:	4242                	c.lwsp	x4,16(x2)
800083f4:	4242                	c.lwsp	x4,16(x2)
800083f6:	4242                	c.lwsp	x4,16(x2)
800083f8:	0202                	c.slli64	x4
800083fa:	0202                	c.slli64	x4
800083fc:	0202                	c.slli64	x4
800083fe:	0202                	c.slli64	x4
80008400:	0202                	c.slli64	x4
80008402:	0202                	c.slli64	x4
80008404:	0202                	c.slli64	x4
80008406:	0202                	c.slli64	x4
80008408:	0202                	c.slli64	x4
8000840a:	0202                	c.slli64	x4
8000840c:	1010                	c.addi4spn	x12,x2,32
8000840e:	1010                	c.addi4spn	x12,x2,32
80008410:	0020                	c.addi4spn	x8,x2,8
	...

Disassembly of section .bss:

80008494 <heap>:
	...

Disassembly of section .bss.__malloc_current_mallinfo:

8000a7b8 <__malloc_current_mallinfo>:
	...

Disassembly of section .sbss.__malloc_max_sbrked_mem:

8000a7e0 <__malloc_max_sbrked_mem>:
8000a7e0:	0000                	c.unimp
	...

Disassembly of section .sbss.__malloc_max_total_mem:

8000a7e4 <__malloc_max_total_mem>:
8000a7e4:	0000                	c.unimp
	...

Disassembly of section .sbss.__malloc_top_pad:

8000a7e8 <__malloc_top_pad>:
8000a7e8:	0000                	c.unimp
	...

Disassembly of section .sbss.errno:

8000a7ec <errno>:
8000a7ec:	0000                	c.unimp
	...

Disassembly of section .sbss.heap_end.0:

8000a7f0 <heap_end.0>:
8000a7f0:	0000                	c.unimp
	...

Disassembly of section .sbss:

8000a7f4 <heap_requested>:
8000a7f4:	0000                	c.unimp
	...

8000a7f8 <heap_end>:
8000a7f8:	0000                	c.unimp
	...

8000a7fc <heap_ptr>:
8000a7fc:	0000                	c.unimp
	...

8000a800 <seed>:
	...

Disassembly of section .comment:

00000000 <.comment>:
   0:	3a434347          	fmsub.d	f6,f6,f4,f7,rmm
   4:	2820                	c.fld	f8,80(x8)
   6:	39336367          	0x39336367
   a:	3131                	c.jal	fffffc16 <_end+0x7fff5406>
   c:	3665                	c.jal	fffffbb4 <_end+0x7fff53a4>
   e:	3234                	c.fld	f13,96(x12)
  10:	6635                	c.lui	x12,0xd
  12:	2029                	c.jal	1c <SYSCALL_ADDR-0x200fe4>
  14:	3031                	c.jal	fffff820 <_end+0x7fff5010>
  16:	322e                	c.fldsp	f4,232(x2)
  18:	302e                	c.fldsp	f0,232(x2)
  1a:	4700                	c.lw	x8,8(x14)
  1c:	203a4343          	fmadd.s	f6,f20,f3,f4,rmm
  20:	4728                	c.lw	x10,72(x14)
  22:	554e                	c.lwsp	x10,240(x2)
  24:	2029                	c.jal	2e <SYSCALL_ADDR-0x200fd2>
  26:	3031                	c.jal	fffff832 <_end+0x7fff5022>
  28:	322e                	c.fldsp	f4,232(x2)
  2a:	302e                	c.fldsp	f0,232(x2)
	...

Disassembly of section .riscv.attributes:

00000000 <.riscv.attributes>:
   0:	1f41                	c.addi	x30,-16
   2:	0000                	c.unimp
   4:	7200                	c.flw	f8,32(x12)
   6:	7369                	c.lui	x6,0xffffa
   8:	01007663          	bgeu	x0,x16,14 <SYSCALL_ADDR-0x200fec>
   c:	0015                	c.addi	x0,5
   e:	0000                	c.unimp
  10:	1004                	c.addi4spn	x9,x2,32
  12:	7205                	c.lui	x4,0xfffe1
  14:	3376                	c.fldsp	f6,376(x2)
  16:	6932                	c.flwsp	f18,12(x2)
  18:	7032                	c.flwsp	f0,44(x2)
  1a:	0030                	c.addi4spn	x12,x2,8
  1c:	0108                	c.addi4spn	x10,x2,128
  1e:	0b0a                	c.slli	x22,0x2

Disassembly of section .debug_line:

00000000 <.debug_line>:
       0:	0094                	c.addi4spn	x13,x2,64
       2:	0000                	c.unimp
       4:	004e0003          	lb	x0,4(x28) # 1a004 <SYSCALL_ADDR-0x1e6ffc>
       8:	0000                	c.unimp
       a:	0101                	c.addi	x2,0
       c:	000d0efb          	0xd0efb
      10:	0101                	c.addi	x2,0
      12:	0101                	c.addi	x2,0
      14:	0000                	c.unimp
      16:	0100                	c.addi4spn	x8,x2,128
      18:	0000                	c.unimp
      1a:	2e01                	c.jal	32a <SYSCALL_ADDR-0x200cd6>
      1c:	2f2e                	c.fldsp	f30,200(x2)
      1e:	2e2e                	c.fldsp	f28,200(x2)
      20:	2f2e2e2f          	0x2f2e2e2f
      24:	2e2e                	c.fldsp	f28,200(x2)
      26:	2f2e2e2f          	0x2f2e2e2f
      2a:	2f2e                	c.fldsp	f30,200(x2)
      2c:	6972                	c.flwsp	f18,28(x2)
      2e:	2d766373          	csrrsi	x6,0x2d7,12
      32:	2f636367          	0x2f636367
      36:	696c                	c.flw	f11,84(x10)
      38:	6762                	c.flwsp	f14,24(x2)
      3a:	632f6363          	bltu	x30,x18,660 <SYSCALL_ADDR-0x2009a0>
      3e:	69666e6f          	jal	x28,666d4 <SYSCALL_ADDR-0x19a92c>
      42:	69722f67          	0x69722f67
      46:	00766373          	csrrsi	x6,0x7,12
      4a:	6d00                	c.flw	f8,24(x10)
      4c:	6c75                	c.lui	x24,0x1d
      4e:	6964                	c.flw	f9,84(x10)
      50:	00532e33          	slt	x28,x6,x5
      54:	0001                	c.addi	x0,0
      56:	0000                	c.unimp
      58:	0500                	c.addi4spn	x8,x2,640
      5a:	6402                	c.flwsp	f8,0(x2)
      5c:	0024                	c.addi4spn	x9,x2,8
      5e:	0380                	c.addi4spn	x8,x2,448
      60:	0124                	c.addi4spn	x9,x2,136
      62:	04090103          	lb	x2,64(x18) # 18040 <SYSCALL_ADDR-0x1e8fc0>
      66:	0100                	c.addi4spn	x8,x2,128
      68:	04090203          	lb	x4,64(x18)
      6c:	0100                	c.addi4spn	x8,x2,128
      6e:	04090103          	lb	x2,64(x18)
      72:	0100                	c.addi4spn	x8,x2,128
      74:	04090103          	lb	x2,64(x18)
      78:	0100                	c.addi4spn	x8,x2,128
      7a:	04090203          	lb	x4,64(x18)
      7e:	0100                	c.addi4spn	x8,x2,128
      80:	04090103          	lb	x2,64(x18)
      84:	0100                	c.addi4spn	x8,x2,128
      86:	04090103          	lb	x2,64(x18)
      8a:	0100                	c.addi4spn	x8,x2,128
      8c:	04090103          	lb	x2,64(x18)
      90:	0100                	c.addi4spn	x8,x2,128
      92:	0409                	c.addi	x8,2
      94:	0000                	c.unimp
      96:	0101                	c.addi	x2,0
      98:	016a                	c.slli	x2,0x1a
      9a:	0000                	c.unimp
      9c:	004b0003          	lb	x0,4(x22)
      a0:	0000                	c.unimp
      a2:	0101                	c.addi	x2,0
      a4:	000d0efb          	0xd0efb
      a8:	0101                	c.addi	x2,0
      aa:	0101                	c.addi	x2,0
      ac:	0000                	c.unimp
      ae:	0100                	c.addi4spn	x8,x2,128
      b0:	0000                	c.unimp
      b2:	2e01                	c.jal	3c2 <SYSCALL_ADDR-0x200c3e>
      b4:	2f2e                	c.fldsp	f30,200(x2)
      b6:	2e2e                	c.fldsp	f28,200(x2)
      b8:	2f2e2e2f          	0x2f2e2e2f
      bc:	2e2e                	c.fldsp	f28,200(x2)
      be:	2f2e2e2f          	0x2f2e2e2f
      c2:	2f2e                	c.fldsp	f30,200(x2)
      c4:	6972                	c.flwsp	f18,28(x2)
      c6:	2d766373          	csrrsi	x6,0x2d7,12
      ca:	2f636367          	0x2f636367
      ce:	696c                	c.flw	f11,84(x10)
      d0:	6762                	c.flwsp	f14,24(x2)
      d2:	632f6363          	bltu	x30,x18,6f8 <SYSCALL_ADDR-0x200908>
      d6:	69666e6f          	jal	x28,6676c <SYSCALL_ADDR-0x19a894>
      da:	69722f67          	0x69722f67
      de:	00766373          	csrrsi	x6,0x7,12
      e2:	6400                	c.flw	f8,8(x8)
      e4:	7669                	c.lui	x12,0xffffa
      e6:	532e                	c.lwsp	x6,232(x2)
      e8:	0100                	c.addi4spn	x8,x2,128
      ea:	0000                	c.unimp
      ec:	0000                	c.unimp
      ee:	0205                	c.addi	x4,1
      f0:	2488                	c.fld	f10,8(x9)
      f2:	8000                	0x8000
      f4:	0100c403          	lbu	x8,16(x1)
      f8:	04090103          	lb	x2,64(x18)
      fc:	0100                	c.addi4spn	x8,x2,128
      fe:	04090403          	lb	x8,64(x18)
     102:	0100                	c.addi4spn	x8,x2,128
     104:	04090103          	lb	x2,64(x18)
     108:	0100                	c.addi4spn	x8,x2,128
     10a:	04090103          	lb	x2,64(x18)
     10e:	0100                	c.addi4spn	x8,x2,128
     110:	04090103          	lb	x2,64(x18)
     114:	0100                	c.addi4spn	x8,x2,128
     116:	04090103          	lb	x2,64(x18)
     11a:	0100                	c.addi4spn	x8,x2,128
     11c:	04090103          	lb	x2,64(x18)
     120:	0100                	c.addi4spn	x8,x2,128
     122:	04090203          	lb	x4,64(x18)
     126:	0100                	c.addi4spn	x8,x2,128
     128:	04090103          	lb	x2,64(x18)
     12c:	0100                	c.addi4spn	x8,x2,128
     12e:	04090103          	lb	x2,64(x18)
     132:	0100                	c.addi4spn	x8,x2,128
     134:	04090103          	lb	x2,64(x18)
     138:	0100                	c.addi4spn	x8,x2,128
     13a:	04090203          	lb	x4,64(x18)
     13e:	0100                	c.addi4spn	x8,x2,128
     140:	04090203          	lb	x4,64(x18)
     144:	0100                	c.addi4spn	x8,x2,128
     146:	04090103          	lb	x2,64(x18)
     14a:	0100                	c.addi4spn	x8,x2,128
     14c:	04090103          	lb	x2,64(x18)
     150:	0100                	c.addi4spn	x8,x2,128
     152:	04090203          	lb	x4,64(x18)
     156:	0100                	c.addi4spn	x8,x2,128
     158:	04090103          	lb	x2,64(x18)
     15c:	0100                	c.addi4spn	x8,x2,128
     15e:	04090103          	lb	x2,64(x18)
     162:	0100                	c.addi4spn	x8,x2,128
     164:	04090203          	lb	x4,64(x18)
     168:	0100                	c.addi4spn	x8,x2,128
     16a:	04090503          	lb	x10,64(x18)
     16e:	0100                	c.addi4spn	x8,x2,128
     170:	04090103          	lb	x2,64(x18)
     174:	0100                	c.addi4spn	x8,x2,128
     176:	04090103          	lb	x2,64(x18)
     17a:	0100                	c.addi4spn	x8,x2,128
     17c:	04090103          	lb	x2,64(x18)
     180:	0100                	c.addi4spn	x8,x2,128
     182:	04090503          	lb	x10,64(x18)
     186:	0100                	c.addi4spn	x8,x2,128
     188:	04090203          	lb	x4,64(x18)
     18c:	0100                	c.addi4spn	x8,x2,128
     18e:	04090203          	lb	x4,64(x18)
     192:	0100                	c.addi4spn	x8,x2,128
     194:	04090103          	lb	x2,64(x18)
     198:	0100                	c.addi4spn	x8,x2,128
     19a:	04090203          	lb	x4,64(x18)
     19e:	0100                	c.addi4spn	x8,x2,128
     1a0:	04090203          	lb	x4,64(x18)
     1a4:	0100                	c.addi4spn	x8,x2,128
     1a6:	04090103          	lb	x2,64(x18)
     1aa:	0100                	c.addi4spn	x8,x2,128
     1ac:	04090103          	lb	x2,64(x18)
     1b0:	0100                	c.addi4spn	x8,x2,128
     1b2:	04090103          	lb	x2,64(x18)
     1b6:	0100                	c.addi4spn	x8,x2,128
     1b8:	04090403          	lb	x8,64(x18)
     1bc:	0100                	c.addi4spn	x8,x2,128
     1be:	04090103          	lb	x2,64(x18)
     1c2:	0100                	c.addi4spn	x8,x2,128
     1c4:	04090103          	lb	x2,64(x18)
     1c8:	0100                	c.addi4spn	x8,x2,128
     1ca:	04090203          	lb	x4,64(x18)
     1ce:	0100                	c.addi4spn	x8,x2,128
     1d0:	04090103          	lb	x2,64(x18)
     1d4:	0100                	c.addi4spn	x8,x2,128
     1d6:	04090103          	lb	x2,64(x18)
     1da:	0100                	c.addi4spn	x8,x2,128
     1dc:	04090203          	lb	x4,64(x18)
     1e0:	0100                	c.addi4spn	x8,x2,128
     1e2:	04090103          	lb	x2,64(x18)
     1e6:	0100                	c.addi4spn	x8,x2,128
     1e8:	04090203          	lb	x4,64(x18)
     1ec:	0100                	c.addi4spn	x8,x2,128
     1ee:	04090103          	lb	x2,64(x18)
     1f2:	0100                	c.addi4spn	x8,x2,128
     1f4:	04090103          	lb	x2,64(x18)
     1f8:	0100                	c.addi4spn	x8,x2,128
     1fa:	04090103          	lb	x2,64(x18)
     1fe:	0100                	c.addi4spn	x8,x2,128
     200:	0409                	c.addi	x8,2
     202:	0000                	c.unimp
     204:	0101                	c.addi	x2,0
     206:	0785                	c.addi	x15,1
     208:	0000                	c.unimp
     20a:	004f0003          	lb	x0,4(x30) # 1a004 <SYSCALL_ADDR-0x1e6ffc>
     20e:	0000                	c.unimp
     210:	0101                	c.addi	x2,0
     212:	000d0efb          	0xd0efb
     216:	0101                	c.addi	x2,0
     218:	0101                	c.addi	x2,0
     21a:	0000                	c.unimp
     21c:	0100                	c.addi4spn	x8,x2,128
     21e:	0000                	c.unimp
     220:	2e01                	c.jal	530 <SYSCALL_ADDR-0x200ad0>
     222:	2f2e                	c.fldsp	f30,200(x2)
     224:	2e2e                	c.fldsp	f28,200(x2)
     226:	2f2e2e2f          	0x2f2e2e2f
     22a:	2e2e                	c.fldsp	f28,200(x2)
     22c:	2f2e2e2f          	0x2f2e2e2f
     230:	2f2e                	c.fldsp	f30,200(x2)
     232:	6972                	c.flwsp	f18,28(x2)
     234:	2d766373          	csrrsi	x6,0x2d7,12
     238:	2f636367          	0x2f636367
     23c:	696c                	c.flw	f11,84(x10)
     23e:	6762                	c.flwsp	f14,24(x2)
     240:	00006363          	bltu	x0,x0,246 <SYSCALL_ADDR-0x200dba>
     244:	696c                	c.flw	f11,84(x10)
     246:	6762                	c.flwsp	f14,24(x2)
     248:	2e326363          	bltu	x4,x3,52e <SYSCALL_ADDR-0x200ad2>
     24c:	00010063          	beq	x2,x0,24c <SYSCALL_ADDR-0x200db4>
     250:	6c00                	c.flw	f8,24(x8)
     252:	6269                	c.lui	x4,0x1a
     254:	32636367          	0x32636367
     258:	682e                	c.flwsp	f16,200(x2)
     25a:	0100                	c.addi4spn	x8,x2,128
     25c:	0000                	c.unimp
     25e:	0500                	c.addi4spn	x8,x2,640
     260:	0001                	c.addi	x0,0
     262:	0205                	c.addi	x4,1
     264:	2618                	c.fld	f14,8(x12)
     266:	8000                	0x8000
     268:	010aa603          	lw	x12,16(x21)
     26c:	0305                	c.addi	x6,1
     26e:	00090103          	lb	x2,0(x18)
     272:	0100                	c.addi4spn	x8,x2,128
     274:	097dd103          	lhu	x2,151(x27)
     278:	0000                	c.unimp
     27a:	0301                	c.addi	x6,0
     27c:	0901                	c.addi	x18,0
     27e:	0000                	c.unimp
     280:	0301                	c.addi	x6,0
     282:	0901                	c.addi	x18,0
     284:	0000                	c.unimp
     286:	0301                	c.addi	x6,0
     288:	0901                	c.addi	x18,0
     28a:	0000                	c.unimp
     28c:	0301                	c.addi	x6,0
     28e:	0901                	c.addi	x18,0
     290:	0000                	c.unimp
     292:	0301                	c.addi	x6,0
     294:	0901                	c.addi	x18,0
     296:	0000                	c.unimp
     298:	0301                	c.addi	x6,0
     29a:	0902                	c.slli64	x18
     29c:	0000                	c.unimp
     29e:	0301                	c.addi	x6,0
     2a0:	0901                	c.addi	x18,0
     2a2:	0000                	c.unimp
     2a4:	0301                	c.addi	x6,0
     2a6:	0901                	c.addi	x18,0
     2a8:	0000                	c.unimp
     2aa:	0301                	c.addi	x6,0
     2ac:	0901                	c.addi	x18,0
     2ae:	0000                	c.unimp
     2b0:	0301                	c.addi	x6,0
     2b2:	0925                	c.addi	x18,9
     2b4:	0000                	c.unimp
     2b6:	0501                	c.addi	x10,0
     2b8:	0601                	c.addi	x12,0
     2ba:	0901ff03          	0x901ff03
     2be:	0000                	c.unimp
     2c0:	0301                	c.addi	x6,0
     2c2:	0900                	c.addi4spn	x8,x2,144
     2c4:	0030                	c.addi4spn	x12,x2,8
     2c6:	0501                	c.addi	x10,0
     2c8:	0306                	c.slli	x6,0x1
     2ca:	7e81                	c.lui	x29,0xfffe0
     2cc:	0809                	c.addi	x16,2
     2ce:	0100                	c.addi4spn	x8,x2,128
     2d0:	0705                	c.addi	x14,1
     2d2:	0306                	c.slli	x6,0x1
     2d4:	0902                	c.slli64	x18
     2d6:	0010                	0x10
     2d8:	0501                	c.addi	x10,0
     2da:	060a                	c.slli	x12,0x2
     2dc:	04090003          	lb	x0,64(x18)
     2e0:	0100                	c.addi4spn	x8,x2,128
     2e2:	0405                	c.addi	x8,1
     2e4:	04090403          	lb	x8,64(x18)
     2e8:	0100                	c.addi4spn	x8,x2,128
     2ea:	0306                	c.slli	x6,0x1
     2ec:	0900                	c.addi4spn	x8,x2,144
     2ee:	0008                	0x8
     2f0:	0301                	c.addi	x6,0
     2f2:	0900                	c.addi4spn	x8,x2,144
     2f4:	0000                	c.unimp
     2f6:	0301                	c.addi	x6,0
     2f8:	0900                	c.addi4spn	x8,x2,144
     2fa:	0000                	c.unimp
     2fc:	0301                	c.addi	x6,0
     2fe:	0900                	c.addi4spn	x8,x2,144
     300:	0000                	c.unimp
     302:	0301                	c.addi	x6,0
     304:	0900                	c.addi4spn	x8,x2,144
     306:	0000                	c.unimp
     308:	0301                	c.addi	x6,0
     30a:	0900                	c.addi4spn	x8,x2,144
     30c:	0010                	0x10
     30e:	0301                	c.addi	x6,0
     310:	0900                	c.addi4spn	x8,x2,144
     312:	0018                	0x18
     314:	0301                	c.addi	x6,0
     316:	0902                	c.slli64	x18
     318:	0000                	c.unimp
     31a:	0501                	c.addi	x10,0
     31c:	00030607          	0x30607
     320:	0009                	c.addi	x0,2
     322:	0100                	c.addi4spn	x8,x2,128
     324:	0805                	c.addi	x16,1
     326:	0306                	c.slli	x6,0x1
     328:	0905                	c.addi	x18,1
     32a:	0004                	0x4
     32c:	0501                	c.addi	x10,0
     32e:	0611                	c.addi	x12,4
     330:	00090103          	lb	x2,0(x18)
     334:	0100                	c.addi4spn	x8,x2,128
     336:	1e05                	c.addi	x28,-31
     338:	04090003          	lb	x0,64(x18)
     33c:	0100                	c.addi4spn	x8,x2,128
     33e:	0b05                	c.addi	x22,1
     340:	04097f03          	0x4097f03
     344:	0100                	c.addi4spn	x8,x2,128
     346:	0805                	c.addi	x16,1
     348:	0306                	c.slli	x6,0x1
     34a:	0901                	c.addi	x18,0
     34c:	0004                	0x4
     34e:	0501                	c.addi	x10,0
     350:	0003060b          	0x3060b
     354:	0009                	c.addi	x0,2
     356:	0100                	c.addi4spn	x8,x2,128
     358:	0805                	c.addi	x16,1
     35a:	0306                	c.slli	x6,0x1
     35c:	0901                	c.addi	x18,0
     35e:	0004                	0x4
     360:	0501                	c.addi	x10,0
     362:	0003060b          	0x3060b
     366:	0009                	c.addi	x0,2
     368:	0100                	c.addi4spn	x8,x2,128
     36a:	0405                	c.addi	x8,1
     36c:	0306                	c.slli	x6,0x1
     36e:	00040903          	lb	x18,0(x8) # ffffa000 <_end+0x7ffef7f0>
     372:	0301                	c.addi	x6,0
     374:	0900                	c.addi4spn	x8,x2,144
     376:	0000                	c.unimp
     378:	0301                	c.addi	x6,0
     37a:	0900                	c.addi4spn	x8,x2,144
     37c:	0000                	c.unimp
     37e:	0301                	c.addi	x6,0
     380:	0900                	c.addi4spn	x8,x2,144
     382:	0000                	c.unimp
     384:	0301                	c.addi	x6,0
     386:	0900                	c.addi4spn	x8,x2,144
     388:	0004                	0x4
     38a:	0301                	c.addi	x6,0
     38c:	0900                	c.addi4spn	x8,x2,144
     38e:	0024                	c.addi4spn	x9,x2,8
     390:	0301                	c.addi	x6,0
     392:	0900                	c.addi4spn	x8,x2,144
     394:	0000                	c.unimp
     396:	0301                	c.addi	x6,0
     398:	0900                	c.addi4spn	x8,x2,144
     39a:	0004                	0x4
     39c:	0301                	c.addi	x6,0
     39e:	0900                	c.addi4spn	x8,x2,144
     3a0:	000c                	0xc
     3a2:	0301                	c.addi	x6,0
     3a4:	0900                	c.addi4spn	x8,x2,144
     3a6:	000c                	0xc
     3a8:	0301                	c.addi	x6,0
     3aa:	0900                	c.addi4spn	x8,x2,144
     3ac:	0008                	0x8
     3ae:	0301                	c.addi	x6,0
     3b0:	0900                	c.addi4spn	x8,x2,144
     3b2:	0008                	0x8
     3b4:	0301                	c.addi	x6,0
     3b6:	0900                	c.addi4spn	x8,x2,144
     3b8:	0004                	0x4
     3ba:	0301                	c.addi	x6,0
     3bc:	0900                	c.addi4spn	x8,x2,144
     3be:	0004                	0x4
     3c0:	0301                	c.addi	x6,0
     3c2:	0900                	c.addi4spn	x8,x2,144
     3c4:	0008                	0x8
     3c6:	0301                	c.addi	x6,0
     3c8:	0900                	c.addi4spn	x8,x2,144
     3ca:	0004                	0x4
     3cc:	0301                	c.addi	x6,0
     3ce:	0900                	c.addi4spn	x8,x2,144
     3d0:	0010                	0x10
     3d2:	0301                	c.addi	x6,0
     3d4:	0900                	c.addi4spn	x8,x2,144
     3d6:	0014                	0x14
     3d8:	0301                	c.addi	x6,0
     3da:	0900                	c.addi4spn	x8,x2,144
     3dc:	0014                	0x14
     3de:	0301                	c.addi	x6,0
     3e0:	0900                	c.addi4spn	x8,x2,144
     3e2:	0004                	0x4
     3e4:	0301                	c.addi	x6,0
     3e6:	0900                	c.addi4spn	x8,x2,144
     3e8:	0008                	0x8
     3ea:	0301                	c.addi	x6,0
     3ec:	0900                	c.addi4spn	x8,x2,144
     3ee:	0008                	0x8
     3f0:	0301                	c.addi	x6,0
     3f2:	0900                	c.addi4spn	x8,x2,144
     3f4:	0004                	0x4
     3f6:	0301                	c.addi	x6,0
     3f8:	0900                	c.addi4spn	x8,x2,144
     3fa:	0004                	0x4
     3fc:	0301                	c.addi	x6,0
     3fe:	0900                	c.addi4spn	x8,x2,144
     400:	0004                	0x4
     402:	0301                	c.addi	x6,0
     404:	0900                	c.addi4spn	x8,x2,144
     406:	0000                	c.unimp
     408:	0301                	c.addi	x6,0
     40a:	0900                	c.addi4spn	x8,x2,144
     40c:	0008                	0x8
     40e:	0301                	c.addi	x6,0
     410:	0900                	c.addi4spn	x8,x2,144
     412:	0000                	c.unimp
     414:	0301                	c.addi	x6,0
     416:	0901                	c.addi	x18,0
     418:	0000                	c.unimp
     41a:	0501                	c.addi	x10,0
     41c:	fe03060b          	0xfe03060b
     420:	0900                	c.addi4spn	x8,x2,144
     422:	0000                	c.unimp
     424:	0501                	c.addi	x10,0
     426:	0304                	c.addi4spn	x9,x2,384
     428:	7ef5                	c.lui	x29,0xffffd
     42a:	0809                	c.addi	x16,2
     42c:	0100                	c.addi4spn	x8,x2,128
     42e:	0306                	c.slli	x6,0x1
     430:	0915                	c.addi	x18,5
     432:	0018                	0x18
     434:	0501                	c.addi	x10,0
     436:	00030607          	0x30607
     43a:	0009                	c.addi	x0,2
     43c:	0100                	c.addi4spn	x8,x2,128
     43e:	0605                	c.addi	x12,1
     440:	0306                	c.slli	x6,0x1
     442:	0901                	c.addi	x18,0
     444:	0004                	0x4
     446:	0501                	c.addi	x10,0
     448:	0609                	c.addi	x12,2
     44a:	00090003          	lb	x0,0(x18)
     44e:	0100                	c.addi4spn	x8,x2,128
     450:	0405                	c.addi	x8,1
     452:	0306                	c.slli	x6,0x1
     454:	0902                	c.slli64	x18
     456:	0010                	0x10
     458:	0301                	c.addi	x6,0
     45a:	0900                	c.addi4spn	x8,x2,144
     45c:	0000                	c.unimp
     45e:	0301                	c.addi	x6,0
     460:	0900                	c.addi4spn	x8,x2,144
     462:	0000                	c.unimp
     464:	0301                	c.addi	x6,0
     466:	0900                	c.addi4spn	x8,x2,144
     468:	0000                	c.unimp
     46a:	0301                	c.addi	x6,0
     46c:	0900                	c.addi4spn	x8,x2,144
     46e:	0000                	c.unimp
     470:	0301                	c.addi	x6,0
     472:	0900                	c.addi4spn	x8,x2,144
     474:	0014                	0x14
     476:	0301                	c.addi	x6,0
     478:	0900                	c.addi4spn	x8,x2,144
     47a:	0018                	0x18
     47c:	0301                	c.addi	x6,0
     47e:	0902                	c.slli64	x18
     480:	0000                	c.unimp
     482:	0501                	c.addi	x10,0
     484:	00030607          	0x30607
     488:	0009                	c.addi	x0,2
     48a:	0100                	c.addi4spn	x8,x2,128
     48c:	0805                	c.addi	x16,1
     48e:	0306                	c.slli	x6,0x1
     490:	0909                	c.addi	x18,2
     492:	0004                	0x4
     494:	0501                	c.addi	x10,0
     496:	0003060b          	0x3060b
     49a:	0009                	c.addi	x0,2
     49c:	0100                	c.addi4spn	x8,x2,128
     49e:	0805                	c.addi	x16,1
     4a0:	0306                	c.slli	x6,0x1
     4a2:	0901                	c.addi	x18,0
     4a4:	0004                	0x4
     4a6:	0501                	c.addi	x10,0
     4a8:	0003060b          	0x3060b
     4ac:	0009                	c.addi	x0,2
     4ae:	0100                	c.addi4spn	x8,x2,128
     4b0:	0805                	c.addi	x16,1
     4b2:	0306                	c.slli	x6,0x1
     4b4:	090d                	c.addi	x18,3
     4b6:	0004                	0x4
     4b8:	0501                	c.addi	x10,0
     4ba:	0304                	c.addi4spn	x9,x2,384
     4bc:	0905                	c.addi	x18,1
     4be:	0000                	c.unimp
     4c0:	0301                	c.addi	x6,0
     4c2:	0900                	c.addi4spn	x8,x2,144
     4c4:	0000                	c.unimp
     4c6:	0301                	c.addi	x6,0
     4c8:	0900                	c.addi4spn	x8,x2,144
     4ca:	0000                	c.unimp
     4cc:	0301                	c.addi	x6,0
     4ce:	0900                	c.addi4spn	x8,x2,144
     4d0:	0000                	c.unimp
     4d2:	0301                	c.addi	x6,0
     4d4:	0900                	c.addi4spn	x8,x2,144
     4d6:	0004                	0x4
     4d8:	0301                	c.addi	x6,0
     4da:	0900                	c.addi4spn	x8,x2,144
     4dc:	0024                	c.addi4spn	x9,x2,8
     4de:	0301                	c.addi	x6,0
     4e0:	0900                	c.addi4spn	x8,x2,144
     4e2:	0000                	c.unimp
     4e4:	0301                	c.addi	x6,0
     4e6:	0900                	c.addi4spn	x8,x2,144
     4e8:	0004                	0x4
     4ea:	0301                	c.addi	x6,0
     4ec:	0900                	c.addi4spn	x8,x2,144
     4ee:	000c                	0xc
     4f0:	0301                	c.addi	x6,0
     4f2:	0900                	c.addi4spn	x8,x2,144
     4f4:	000c                	0xc
     4f6:	0301                	c.addi	x6,0
     4f8:	0900                	c.addi4spn	x8,x2,144
     4fa:	0008                	0x8
     4fc:	0301                	c.addi	x6,0
     4fe:	0900                	c.addi4spn	x8,x2,144
     500:	0008                	0x8
     502:	0301                	c.addi	x6,0
     504:	0900                	c.addi4spn	x8,x2,144
     506:	0004                	0x4
     508:	0301                	c.addi	x6,0
     50a:	0900                	c.addi4spn	x8,x2,144
     50c:	0004                	0x4
     50e:	0301                	c.addi	x6,0
     510:	0900                	c.addi4spn	x8,x2,144
     512:	0008                	0x8
     514:	0301                	c.addi	x6,0
     516:	0900                	c.addi4spn	x8,x2,144
     518:	0004                	0x4
     51a:	0301                	c.addi	x6,0
     51c:	0900                	c.addi4spn	x8,x2,144
     51e:	0010                	0x10
     520:	0301                	c.addi	x6,0
     522:	0900                	c.addi4spn	x8,x2,144
     524:	0014                	0x14
     526:	0301                	c.addi	x6,0
     528:	0900                	c.addi4spn	x8,x2,144
     52a:	0014                	0x14
     52c:	0301                	c.addi	x6,0
     52e:	0900                	c.addi4spn	x8,x2,144
     530:	0004                	0x4
     532:	0301                	c.addi	x6,0
     534:	0900                	c.addi4spn	x8,x2,144
     536:	0008                	0x8
     538:	0301                	c.addi	x6,0
     53a:	0900                	c.addi4spn	x8,x2,144
     53c:	0008                	0x8
     53e:	0301                	c.addi	x6,0
     540:	0900                	c.addi4spn	x8,x2,144
     542:	0004                	0x4
     544:	0301                	c.addi	x6,0
     546:	0900                	c.addi4spn	x8,x2,144
     548:	0004                	0x4
     54a:	0301                	c.addi	x6,0
     54c:	0900                	c.addi4spn	x8,x2,144
     54e:	0004                	0x4
     550:	0301                	c.addi	x6,0
     552:	0900                	c.addi4spn	x8,x2,144
     554:	0000                	c.unimp
     556:	0301                	c.addi	x6,0
     558:	0900                	c.addi4spn	x8,x2,144
     55a:	0008                	0x8
     55c:	0501                	c.addi	x10,0
     55e:	00e30303          	lb	x6,14(x6) # ffffa00e <_end+0x7ffef7fe>
     562:	0009                	c.addi	x0,2
     564:	0100                	c.addi4spn	x8,x2,128
     566:	00090103          	lb	x2,0(x18)
     56a:	0100                	c.addi4spn	x8,x2,128
     56c:	0105                	c.addi	x2,1
     56e:	0306                	c.slli	x6,0x1
     570:	00e1                	c.addi	x1,24
     572:	0009                	c.addi	x0,2
     574:	0100                	c.addi4spn	x8,x2,128
     576:	0405                	c.addi	x8,1
     578:	097e9d03          	lh	x26,151(x29) # ffffd097 <_end+0x7fff2887>
     57c:	003c                	c.addi4spn	x15,x2,8
     57e:	0501                	c.addi	x10,0
     580:	0608                	c.addi4spn	x10,x2,768
     582:	14091203          	lh	x4,320(x18)
     586:	0100                	c.addi4spn	x8,x2,128
     588:	00090203          	lb	x4,0(x18)
     58c:	0100                	c.addi4spn	x8,x2,128
     58e:	0b05                	c.addi	x22,1
     590:	0306                	c.slli	x6,0x1
     592:	0900                	c.addi4spn	x8,x2,144
     594:	0000                	c.unimp
     596:	0501                	c.addi	x10,0
     598:	0608                	c.addi4spn	x10,x2,768
     59a:	04090103          	lb	x2,64(x18)
     59e:	0100                	c.addi4spn	x8,x2,128
     5a0:	0b05                	c.addi	x22,1
     5a2:	0306                	c.slli	x6,0x1
     5a4:	0900                	c.addi4spn	x8,x2,144
     5a6:	0000                	c.unimp
     5a8:	0501                	c.addi	x10,0
     5aa:	0608                	c.addi4spn	x10,x2,768
     5ac:	04090103          	lb	x2,64(x18)
     5b0:	0100                	c.addi4spn	x8,x2,128
     5b2:	1e05                	c.addi	x28,-31
     5b4:	0306                	c.slli	x6,0x1
     5b6:	0900                	c.addi4spn	x8,x2,144
     5b8:	0000                	c.unimp
     5ba:	0501                	c.addi	x10,0
     5bc:	0311                	c.addi	x6,4
     5be:	0900                	c.addi4spn	x8,x2,144
     5c0:	0004                	0x4
     5c2:	0501                	c.addi	x10,0
     5c4:	0900030b          	0x900030b
     5c8:	0004                	0x4
     5ca:	0501                	c.addi	x10,0
     5cc:	0608                	c.addi4spn	x10,x2,768
     5ce:	04090103          	lb	x2,64(x18)
     5d2:	0100                	c.addi4spn	x8,x2,128
     5d4:	0306                	c.slli	x6,0x1
     5d6:	0902                	c.slli64	x18
     5d8:	0000                	c.unimp
     5da:	0501                	c.addi	x10,0
     5dc:	097e030b          	0x97e030b
     5e0:	000c                	0xc
     5e2:	0501                	c.addi	x10,0
     5e4:	0608                	c.addi4spn	x10,x2,768
     5e6:	04090203          	lb	x4,64(x18)
     5ea:	0100                	c.addi4spn	x8,x2,128
     5ec:	00090003          	lb	x0,0(x18)
     5f0:	0100                	c.addi4spn	x8,x2,128
     5f2:	00090003          	lb	x0,0(x18)
     5f6:	0100                	c.addi4spn	x8,x2,128
     5f8:	00090003          	lb	x0,0(x18)
     5fc:	0100                	c.addi4spn	x8,x2,128
     5fe:	00090003          	lb	x0,0(x18)
     602:	0100                	c.addi4spn	x8,x2,128
     604:	1c090003          	lb	x0,448(x18)
     608:	0100                	c.addi4spn	x8,x2,128
     60a:	00090003          	lb	x0,0(x18)
     60e:	0100                	c.addi4spn	x8,x2,128
     610:	04090003          	lb	x0,64(x18)
     614:	0100                	c.addi4spn	x8,x2,128
     616:	0c090003          	lb	x0,192(x18)
     61a:	0100                	c.addi4spn	x8,x2,128
     61c:	0c090003          	lb	x0,192(x18)
     620:	0100                	c.addi4spn	x8,x2,128
     622:	08090003          	lb	x0,128(x18)
     626:	0100                	c.addi4spn	x8,x2,128
     628:	08090003          	lb	x0,128(x18)
     62c:	0100                	c.addi4spn	x8,x2,128
     62e:	04090003          	lb	x0,64(x18)
     632:	0100                	c.addi4spn	x8,x2,128
     634:	04090003          	lb	x0,64(x18)
     638:	0100                	c.addi4spn	x8,x2,128
     63a:	08090003          	lb	x0,128(x18)
     63e:	0100                	c.addi4spn	x8,x2,128
     640:	04090003          	lb	x0,64(x18)
     644:	0100                	c.addi4spn	x8,x2,128
     646:	14090003          	lb	x0,320(x18)
     64a:	0100                	c.addi4spn	x8,x2,128
     64c:	10090003          	lb	x0,256(x18)
     650:	0100                	c.addi4spn	x8,x2,128
     652:	14090003          	lb	x0,320(x18)
     656:	0100                	c.addi4spn	x8,x2,128
     658:	04090003          	lb	x0,64(x18)
     65c:	0100                	c.addi4spn	x8,x2,128
     65e:	08090003          	lb	x0,128(x18)
     662:	0100                	c.addi4spn	x8,x2,128
     664:	08090003          	lb	x0,128(x18)
     668:	0100                	c.addi4spn	x8,x2,128
     66a:	04090003          	lb	x0,64(x18)
     66e:	0100                	c.addi4spn	x8,x2,128
     670:	04090003          	lb	x0,64(x18)
     674:	0100                	c.addi4spn	x8,x2,128
     676:	08090003          	lb	x0,128(x18)
     67a:	0100                	c.addi4spn	x8,x2,128
     67c:	08090003          	lb	x0,128(x18)
     680:	0100                	c.addi4spn	x8,x2,128
     682:	04090003          	lb	x0,64(x18)
     686:	0100                	c.addi4spn	x8,x2,128
     688:	0705                	c.addi	x14,1
     68a:	04091503          	lh	x10,64(x18)
     68e:	0100                	c.addi4spn	x8,x2,128
     690:	0a05                	c.addi	x20,1
     692:	0306                	c.slli	x6,0x1
     694:	0900                	c.addi4spn	x8,x2,144
     696:	0000                	c.unimp
     698:	0501                	c.addi	x10,0
     69a:	0604                	c.addi4spn	x9,x2,768
     69c:	04091303          	lh	x6,64(x18)
     6a0:	0100                	c.addi4spn	x8,x2,128
     6a2:	00090003          	lb	x0,0(x18)
     6a6:	0100                	c.addi4spn	x8,x2,128
     6a8:	00090003          	lb	x0,0(x18)
     6ac:	0100                	c.addi4spn	x8,x2,128
     6ae:	00090003          	lb	x0,0(x18)
     6b2:	0100                	c.addi4spn	x8,x2,128
     6b4:	00090003          	lb	x0,0(x18)
     6b8:	0100                	c.addi4spn	x8,x2,128
     6ba:	14090003          	lb	x0,320(x18)
     6be:	0100                	c.addi4spn	x8,x2,128
     6c0:	20090003          	lb	x0,512(x18)
     6c4:	0100                	c.addi4spn	x8,x2,128
     6c6:	00090103          	lb	x2,0(x18)
     6ca:	0100                	c.addi4spn	x8,x2,128
     6cc:	0705                	c.addi	x14,1
     6ce:	0306                	c.slli	x6,0x1
     6d0:	0900                	c.addi4spn	x8,x2,144
     6d2:	0000                	c.unimp
     6d4:	0501                	c.addi	x10,0
     6d6:	0608                	c.addi4spn	x10,x2,768
     6d8:	04090a03          	lb	x20,64(x18)
     6dc:	0100                	c.addi4spn	x8,x2,128
     6de:	0306                	c.slli	x6,0x1
     6e0:	0902                	c.slli64	x18
     6e2:	0000                	c.unimp
     6e4:	0501                	c.addi	x10,0
     6e6:	097e030b          	0x97e030b
     6ea:	0004                	0x4
     6ec:	0501                	c.addi	x10,0
     6ee:	0314                	c.addi4spn	x13,x2,384
     6f0:	0900                	c.addi4spn	x8,x2,144
     6f2:	0004                	0x4
     6f4:	0501                	c.addi	x10,0
     6f6:	0304                	c.addi4spn	x9,x2,384
     6f8:	0975                	c.addi	x18,29
     6fa:	000c                	0xc
     6fc:	0501                	c.addi	x10,0
     6fe:	0608                	c.addi4spn	x10,x2,768
     700:	14091e03          	lh	x28,320(x18)
     704:	0100                	c.addi4spn	x8,x2,128
     706:	00090303          	lb	x6,0(x18)
     70a:	0100                	c.addi4spn	x8,x2,128
     70c:	00090203          	lb	x4,0(x18)
     710:	0100                	c.addi4spn	x8,x2,128
     712:	1e05                	c.addi	x28,-31
     714:	0306                	c.slli	x6,0x1
     716:	0900                	c.addi4spn	x8,x2,144
     718:	0000                	c.unimp
     71a:	0501                	c.addi	x10,0
     71c:	0311                	c.addi	x6,4
     71e:	0900                	c.addi4spn	x8,x2,144
     720:	0004                	0x4
     722:	0501                	c.addi	x10,0
     724:	0900030b          	0x900030b
     728:	0004                	0x4
     72a:	0501                	c.addi	x10,0
     72c:	0608                	c.addi4spn	x10,x2,768
     72e:	04090103          	lb	x2,64(x18)
     732:	0100                	c.addi4spn	x8,x2,128
     734:	0b05                	c.addi	x22,1
     736:	0306                	c.slli	x6,0x1
     738:	0901                	c.addi	x18,0
     73a:	0000                	c.unimp
     73c:	0501                	c.addi	x10,0
     73e:	0311                	c.addi	x6,4
     740:	0901                	c.addi	x18,0
     742:	0004                	0x4
     744:	0501                	c.addi	x10,0
     746:	031e                	c.slli	x6,0x7
     748:	0900                	c.addi4spn	x8,x2,144
     74a:	0004                	0x4
     74c:	0501                	c.addi	x10,0
     74e:	0900030b          	0x900030b
     752:	0004                	0x4
     754:	0501                	c.addi	x10,0
     756:	0308                	c.addi4spn	x10,x2,384
     758:	00040903          	lb	x18,0(x8)
     75c:	0501                	c.addi	x10,0
     75e:	097b030b          	0x97b030b
     762:	000c                	0xc
     764:	0501                	c.addi	x10,0
     766:	0608                	c.addi4spn	x10,x2,768
     768:	04090103          	lb	x2,64(x18)
     76c:	0100                	c.addi4spn	x8,x2,128
     76e:	00090103          	lb	x2,0(x18)
     772:	0100                	c.addi4spn	x8,x2,128
     774:	00090103          	lb	x2,0(x18)
     778:	0100                	c.addi4spn	x8,x2,128
     77a:	00090203          	lb	x4,0(x18)
     77e:	0100                	c.addi4spn	x8,x2,128
     780:	00090003          	lb	x0,0(x18)
     784:	0100                	c.addi4spn	x8,x2,128
     786:	00090003          	lb	x0,0(x18)
     78a:	0100                	c.addi4spn	x8,x2,128
     78c:	00090003          	lb	x0,0(x18)
     790:	0100                	c.addi4spn	x8,x2,128
     792:	00090003          	lb	x0,0(x18)
     796:	0100                	c.addi4spn	x8,x2,128
     798:	1c090003          	lb	x0,448(x18)
     79c:	0100                	c.addi4spn	x8,x2,128
     79e:	00090003          	lb	x0,0(x18)
     7a2:	0100                	c.addi4spn	x8,x2,128
     7a4:	04090003          	lb	x0,64(x18)
     7a8:	0100                	c.addi4spn	x8,x2,128
     7aa:	0c090003          	lb	x0,192(x18)
     7ae:	0100                	c.addi4spn	x8,x2,128
     7b0:	0c090003          	lb	x0,192(x18)
     7b4:	0100                	c.addi4spn	x8,x2,128
     7b6:	08090003          	lb	x0,128(x18)
     7ba:	0100                	c.addi4spn	x8,x2,128
     7bc:	08090003          	lb	x0,128(x18)
     7c0:	0100                	c.addi4spn	x8,x2,128
     7c2:	04090003          	lb	x0,64(x18)
     7c6:	0100                	c.addi4spn	x8,x2,128
     7c8:	04090003          	lb	x0,64(x18)
     7cc:	0100                	c.addi4spn	x8,x2,128
     7ce:	08090003          	lb	x0,128(x18)
     7d2:	0100                	c.addi4spn	x8,x2,128
     7d4:	04090003          	lb	x0,64(x18)
     7d8:	0100                	c.addi4spn	x8,x2,128
     7da:	14090003          	lb	x0,320(x18)
     7de:	0100                	c.addi4spn	x8,x2,128
     7e0:	10090003          	lb	x0,256(x18)
     7e4:	0100                	c.addi4spn	x8,x2,128
     7e6:	14090003          	lb	x0,320(x18)
     7ea:	0100                	c.addi4spn	x8,x2,128
     7ec:	04090003          	lb	x0,64(x18)
     7f0:	0100                	c.addi4spn	x8,x2,128
     7f2:	08090003          	lb	x0,128(x18)
     7f6:	0100                	c.addi4spn	x8,x2,128
     7f8:	08090003          	lb	x0,128(x18)
     7fc:	0100                	c.addi4spn	x8,x2,128
     7fe:	04090003          	lb	x0,64(x18)
     802:	0100                	c.addi4spn	x8,x2,128
     804:	04090003          	lb	x0,64(x18)
     808:	0100                	c.addi4spn	x8,x2,128
     80a:	08090003          	lb	x0,128(x18)
     80e:	0100                	c.addi4spn	x8,x2,128
     810:	0306                	c.slli	x6,0x1
     812:	0901                	c.addi	x18,0
     814:	0004                	0x4
     816:	0301                	c.addi	x6,0
     818:	097f                	0x97f
     81a:	0004                	0x4
     81c:	0301                	c.addi	x6,0
     81e:	0901                	c.addi	x18,0
     820:	0004                	0x4
     822:	0301                	c.addi	x6,0
     824:	097f                	0x97f
     826:	000c                	0xc
     828:	0601                	c.addi	x12,0
     82a:	04090003          	lb	x0,64(x18)
     82e:	0100                	c.addi4spn	x8,x2,128
     830:	00090003          	lb	x0,0(x18)
     834:	0100                	c.addi4spn	x8,x2,128
     836:	00090003          	lb	x0,0(x18)
     83a:	0100                	c.addi4spn	x8,x2,128
     83c:	00090103          	lb	x2,0(x18)
     840:	0100                	c.addi4spn	x8,x2,128
     842:	00090003          	lb	x0,0(x18)
     846:	0100                	c.addi4spn	x8,x2,128
     848:	00090003          	lb	x0,0(x18)
     84c:	0100                	c.addi4spn	x8,x2,128
     84e:	00090003          	lb	x0,0(x18)
     852:	0100                	c.addi4spn	x8,x2,128
     854:	00090003          	lb	x0,0(x18)
     858:	0100                	c.addi4spn	x8,x2,128
     85a:	04090003          	lb	x0,64(x18)
     85e:	0100                	c.addi4spn	x8,x2,128
     860:	00090003          	lb	x0,0(x18)
     864:	0100                	c.addi4spn	x8,x2,128
     866:	04090003          	lb	x0,64(x18)
     86a:	0100                	c.addi4spn	x8,x2,128
     86c:	00090003          	lb	x0,0(x18)
     870:	0100                	c.addi4spn	x8,x2,128
     872:	04090003          	lb	x0,64(x18)
     876:	0100                	c.addi4spn	x8,x2,128
     878:	04090003          	lb	x0,64(x18)
     87c:	0100                	c.addi4spn	x8,x2,128
     87e:	04090003          	lb	x0,64(x18)
     882:	0100                	c.addi4spn	x8,x2,128
     884:	04090003          	lb	x0,64(x18)
     888:	0100                	c.addi4spn	x8,x2,128
     88a:	00090003          	lb	x0,0(x18)
     88e:	0100                	c.addi4spn	x8,x2,128
     890:	08090003          	lb	x0,128(x18)
     894:	0100                	c.addi4spn	x8,x2,128
     896:	00090003          	lb	x0,0(x18)
     89a:	0100                	c.addi4spn	x8,x2,128
     89c:	04090003          	lb	x0,64(x18)
     8a0:	0100                	c.addi4spn	x8,x2,128
     8a2:	04090003          	lb	x0,64(x18)
     8a6:	0100                	c.addi4spn	x8,x2,128
     8a8:	00090003          	lb	x0,0(x18)
     8ac:	0100                	c.addi4spn	x8,x2,128
     8ae:	08090003          	lb	x0,128(x18)
     8b2:	0100                	c.addi4spn	x8,x2,128
     8b4:	00090003          	lb	x0,0(x18)
     8b8:	0100                	c.addi4spn	x8,x2,128
     8ba:	04090003          	lb	x0,64(x18)
     8be:	0100                	c.addi4spn	x8,x2,128
     8c0:	04090003          	lb	x0,64(x18)
     8c4:	0100                	c.addi4spn	x8,x2,128
     8c6:	00090003          	lb	x0,0(x18)
     8ca:	0100                	c.addi4spn	x8,x2,128
     8cc:	08090003          	lb	x0,128(x18)
     8d0:	0100                	c.addi4spn	x8,x2,128
     8d2:	00090003          	lb	x0,0(x18)
     8d6:	0100                	c.addi4spn	x8,x2,128
     8d8:	04090003          	lb	x0,64(x18)
     8dc:	0100                	c.addi4spn	x8,x2,128
     8de:	10090003          	lb	x0,256(x18)
     8e2:	0100                	c.addi4spn	x8,x2,128
     8e4:	00090003          	lb	x0,0(x18)
     8e8:	0100                	c.addi4spn	x8,x2,128
     8ea:	00090003          	lb	x0,0(x18)
     8ee:	0100                	c.addi4spn	x8,x2,128
     8f0:	04090003          	lb	x0,64(x18)
     8f4:	0100                	c.addi4spn	x8,x2,128
     8f6:	04090003          	lb	x0,64(x18)
     8fa:	0100                	c.addi4spn	x8,x2,128
     8fc:	08090003          	lb	x0,128(x18)
     900:	0100                	c.addi4spn	x8,x2,128
     902:	00090003          	lb	x0,0(x18)
     906:	0100                	c.addi4spn	x8,x2,128
     908:	00090203          	lb	x4,0(x18)
     90c:	0100                	c.addi4spn	x8,x2,128
     90e:	0b05                	c.addi	x22,1
     910:	0306                	c.slli	x6,0x1
     912:	0900                	c.addi4spn	x8,x2,144
     914:	0000                	c.unimp
     916:	0501                	c.addi	x10,0
     918:	0314                	c.addi4spn	x13,x2,384
     91a:	0900                	c.addi4spn	x8,x2,144
     91c:	0004                	0x4
     91e:	0501                	c.addi	x10,0
     920:	0308                	c.addi4spn	x10,x2,384
     922:	097e                	c.slli	x18,0x1f
     924:	0004                	0x4
     926:	0501                	c.addi	x10,0
     928:	097d030b          	0x97d030b
     92c:	0014                	0x14
     92e:	0501                	c.addi	x10,0
     930:	0308                	c.addi4spn	x10,x2,384
     932:	00040903          	lb	x18,0(x8)
     936:	0501                	c.addi	x10,0
     938:	0908030b          	0x908030b
     93c:	0004                	0x4
     93e:	0501                	c.addi	x10,0
     940:	0321                	c.addi	x6,8
     942:	097a                	c.slli	x18,0x1e
     944:	0004                	0x4
     946:	0501                	c.addi	x10,0
     948:	0605                	c.addi	x12,1
     94a:	04090203          	lb	x4,64(x18)
     94e:	0100                	c.addi4spn	x8,x2,128
     950:	0705                	c.addi	x14,1
     952:	0306                	c.slli	x6,0x1
     954:	0900                	c.addi4spn	x8,x2,144
     956:	0000                	c.unimp
     958:	0501                	c.addi	x10,0
     95a:	0605                	c.addi	x12,1
     95c:	04090103          	lb	x2,64(x18)
     960:	0100                	c.addi4spn	x8,x2,128
     962:	00090003          	lb	x0,0(x18)
     966:	0100                	c.addi4spn	x8,x2,128
     968:	00090003          	lb	x0,0(x18)
     96c:	0100                	c.addi4spn	x8,x2,128
     96e:	00090003          	lb	x0,0(x18)
     972:	0100                	c.addi4spn	x8,x2,128
     974:	00090003          	lb	x0,0(x18)
     978:	0100                	c.addi4spn	x8,x2,128
     97a:	0705                	c.addi	x14,1
     97c:	0306                	c.slli	x6,0x1
     97e:	00040943          	fmadd.s	f18,f8,f0,f0,rne
     982:	0301                	c.addi	x6,0
     984:	097f                	0x97f
     986:	0004                	0x4
     988:	0901                	c.addi	x18,0
     98a:	0008                	0x8
     98c:	0100                	c.addi4spn	x8,x2,128
     98e:	cd01                	c.beqz	x10,9a6 <SYSCALL_ADDR-0x20065a>
     990:	03000007          	0x3000007
     994:	4f00                	c.lw	x8,24(x14)
     996:	0000                	c.unimp
     998:	0100                	c.addi4spn	x8,x2,128
     99a:	fb01                	c.bnez	x14,8aa <SYSCALL_ADDR-0x200756>
     99c:	0d0e                	c.slli	x26,0x3
     99e:	0100                	c.addi4spn	x8,x2,128
     9a0:	0101                	c.addi	x2,0
     9a2:	0001                	c.addi	x0,0
     9a4:	0000                	c.unimp
     9a6:	0001                	c.addi	x0,0
     9a8:	0100                	c.addi4spn	x8,x2,128
     9aa:	2e2e                	c.fldsp	f28,200(x2)
     9ac:	2f2e2e2f          	0x2f2e2e2f
     9b0:	2e2e                	c.fldsp	f28,200(x2)
     9b2:	2f2e2e2f          	0x2f2e2e2f
     9b6:	2e2e                	c.fldsp	f28,200(x2)
     9b8:	722f2e2f          	0x722f2e2f
     9bc:	7369                	c.lui	x6,0xffffa
     9be:	672d7663          	bgeu	x26,x18,102a <SYSCALL_ADDR-0x1fffd6>
     9c2:	6c2f6363          	bltu	x30,x2,1088 <SYSCALL_ADDR-0x1fff78>
     9c6:	6269                	c.lui	x4,0x1a
     9c8:	00636367          	0x636367
     9cc:	6c00                	c.flw	f8,24(x8)
     9ce:	6269                	c.lui	x4,0x1a
     9d0:	32636367          	0x32636367
     9d4:	632e                	c.flwsp	f6,200(x2)
     9d6:	0100                	c.addi4spn	x8,x2,128
     9d8:	0000                	c.unimp
     9da:	696c                	c.flw	f11,84(x10)
     9dc:	6762                	c.flwsp	f14,24(x2)
     9de:	2e326363          	bltu	x4,x3,cc4 <SYSCALL_ADDR-0x20033c>
     9e2:	0068                	c.addi4spn	x10,x2,12
     9e4:	0001                	c.addi	x0,0
     9e6:	0000                	c.unimp
     9e8:	0105                	c.addi	x2,1
     9ea:	0500                	c.addi4spn	x8,x2,640
     9ec:	f002                	c.fswsp	f0,32(x2)
     9ee:	0380002b          	0x380002b
     9f2:	0a9a                	c.slli	x21,0x6
     9f4:	0601                	c.addi	x12,0
     9f6:	34090003          	lb	x0,832(x18)
     9fa:	0100                	c.addi4spn	x8,x2,128
     9fc:	0305                	c.addi	x6,1
     9fe:	0306                	c.slli	x6,0x1
     a00:	0901                	c.addi	x18,0
     a02:	0004                	0x4
     a04:	0301                	c.addi	x6,0
     a06:	0902                	c.slli64	x18
     a08:	0000                	c.unimp
     a0a:	0301                	c.addi	x6,0
     a0c:	00097ddb          	0x97ddb
     a10:	0100                	c.addi4spn	x8,x2,128
     a12:	00090103          	lb	x2,0(x18)
     a16:	0100                	c.addi4spn	x8,x2,128
     a18:	00090103          	lb	x2,0(x18)
     a1c:	0100                	c.addi4spn	x8,x2,128
     a1e:	00090103          	lb	x2,0(x18)
     a22:	0100                	c.addi4spn	x8,x2,128
     a24:	00090103          	lb	x2,0(x18)
     a28:	0100                	c.addi4spn	x8,x2,128
     a2a:	00090103          	lb	x2,0(x18)
     a2e:	0100                	c.addi4spn	x8,x2,128
     a30:	00090203          	lb	x4,0(x18)
     a34:	0100                	c.addi4spn	x8,x2,128
     a36:	00090103          	lb	x2,0(x18)
     a3a:	0100                	c.addi4spn	x8,x2,128
     a3c:	00090103          	lb	x2,0(x18)
     a40:	0100                	c.addi4spn	x8,x2,128
     a42:	0105                	c.addi	x2,1
     a44:	0306                	c.slli	x6,0x1
     a46:	0299                	c.addi	x5,6
     a48:	0009                	c.addi	x0,2
     a4a:	0100                	c.addi4spn	x8,x2,128
     a4c:	0605                	c.addi	x12,1
     a4e:	097de703          	0x97de703
     a52:	0004                	0x4
     a54:	0501                	c.addi	x10,0
     a56:	01030603          	lb	x12,16(x6) # ffffa010 <_end+0x7ffef800>
     a5a:	0409                	c.addi	x8,2
     a5c:	0100                	c.addi4spn	x8,x2,128
     a5e:	0605                	c.addi	x12,1
     a60:	0306                	c.slli	x6,0x1
     a62:	0900                	c.addi4spn	x8,x2,144
     a64:	0000                	c.unimp
     a66:	0501                	c.addi	x10,0
     a68:	25030603          	lb	x12,592(x6)
     a6c:	0409                	c.addi	x8,2
     a6e:	0100                	c.addi4spn	x8,x2,128
     a70:	0605                	c.addi	x12,1
     a72:	0306                	c.slli	x6,0x1
     a74:	0900                	c.addi4spn	x8,x2,144
     a76:	0000                	c.unimp
     a78:	0501                	c.addi	x10,0
     a7a:	02030607          	0x2030607
     a7e:	1009                	c.addi	x0,-30
     a80:	0100                	c.addi4spn	x8,x2,128
     a82:	0a05                	c.addi	x20,1
     a84:	0306                	c.slli	x6,0x1
     a86:	0900                	c.addi4spn	x8,x2,144
     a88:	0004                	0x4
     a8a:	0501                	c.addi	x10,0
     a8c:	0604                	c.addi4spn	x9,x2,768
     a8e:	04090403          	lb	x8,64(x18)
     a92:	0100                	c.addi4spn	x8,x2,128
     a94:	00090003          	lb	x0,0(x18)
     a98:	0100                	c.addi4spn	x8,x2,128
     a9a:	00090003          	lb	x0,0(x18)
     a9e:	0100                	c.addi4spn	x8,x2,128
     aa0:	00090003          	lb	x0,0(x18)
     aa4:	0100                	c.addi4spn	x8,x2,128
     aa6:	00090003          	lb	x0,0(x18)
     aaa:	0100                	c.addi4spn	x8,x2,128
     aac:	14090003          	lb	x0,320(x18)
     ab0:	0100                	c.addi4spn	x8,x2,128
     ab2:	18090003          	lb	x0,384(x18)
     ab6:	0100                	c.addi4spn	x8,x2,128
     ab8:	00090203          	lb	x4,0(x18)
     abc:	0100                	c.addi4spn	x8,x2,128
     abe:	0705                	c.addi	x14,1
     ac0:	0306                	c.slli	x6,0x1
     ac2:	0900                	c.addi4spn	x8,x2,144
     ac4:	0000                	c.unimp
     ac6:	0501                	c.addi	x10,0
     ac8:	0608                	c.addi4spn	x10,x2,768
     aca:	04090503          	lb	x10,64(x18)
     ace:	0100                	c.addi4spn	x8,x2,128
     ad0:	1105                	c.addi	x2,-31
     ad2:	0306                	c.slli	x6,0x1
     ad4:	0901                	c.addi	x18,0
     ad6:	0000                	c.unimp
     ad8:	0501                	c.addi	x10,0
     ada:	031e                	c.slli	x6,0x7
     adc:	0900                	c.addi4spn	x8,x2,144
     ade:	0004                	0x4
     ae0:	0501                	c.addi	x10,0
     ae2:	097f030b          	0x97f030b
     ae6:	0004                	0x4
     ae8:	0501                	c.addi	x10,0
     aea:	0608                	c.addi4spn	x10,x2,768
     aec:	04090103          	lb	x2,64(x18)
     af0:	0100                	c.addi4spn	x8,x2,128
     af2:	0b05                	c.addi	x22,1
     af4:	0306                	c.slli	x6,0x1
     af6:	0900                	c.addi4spn	x8,x2,144
     af8:	0000                	c.unimp
     afa:	0501                	c.addi	x10,0
     afc:	0608                	c.addi4spn	x10,x2,768
     afe:	04090103          	lb	x2,64(x18)
     b02:	0100                	c.addi4spn	x8,x2,128
     b04:	0b05                	c.addi	x22,1
     b06:	0306                	c.slli	x6,0x1
     b08:	0900                	c.addi4spn	x8,x2,144
     b0a:	0000                	c.unimp
     b0c:	0501                	c.addi	x10,0
     b0e:	0604                	c.addi4spn	x9,x2,768
     b10:	04090303          	lb	x6,64(x18)
     b14:	0100                	c.addi4spn	x8,x2,128
     b16:	00090003          	lb	x0,0(x18)
     b1a:	0100                	c.addi4spn	x8,x2,128
     b1c:	00090003          	lb	x0,0(x18)
     b20:	0100                	c.addi4spn	x8,x2,128
     b22:	00090003          	lb	x0,0(x18)
     b26:	0100                	c.addi4spn	x8,x2,128
     b28:	0805                	c.addi	x16,1
     b2a:	00092503          	lw	x10,0(x18)
     b2e:	0100                	c.addi4spn	x8,x2,128
     b30:	0405                	c.addi	x8,1
     b32:	00090503          	lb	x10,0(x18)
     b36:	0100                	c.addi4spn	x8,x2,128
     b38:	00090003          	lb	x0,0(x18)
     b3c:	0100                	c.addi4spn	x8,x2,128
     b3e:	00090003          	lb	x0,0(x18)
     b42:	0100                	c.addi4spn	x8,x2,128
     b44:	00090003          	lb	x0,0(x18)
     b48:	0100                	c.addi4spn	x8,x2,128
     b4a:	04090003          	lb	x0,64(x18)
     b4e:	0100                	c.addi4spn	x8,x2,128
     b50:	24090003          	lb	x0,576(x18)
     b54:	0100                	c.addi4spn	x8,x2,128
     b56:	00090003          	lb	x0,0(x18)
     b5a:	0100                	c.addi4spn	x8,x2,128
     b5c:	04090003          	lb	x0,64(x18)
     b60:	0100                	c.addi4spn	x8,x2,128
     b62:	08090003          	lb	x0,128(x18)
     b66:	0100                	c.addi4spn	x8,x2,128
     b68:	0c090003          	lb	x0,192(x18)
     b6c:	0100                	c.addi4spn	x8,x2,128
     b6e:	04090003          	lb	x0,64(x18)
     b72:	0100                	c.addi4spn	x8,x2,128
     b74:	04090003          	lb	x0,64(x18)
     b78:	0100                	c.addi4spn	x8,x2,128
     b7a:	04090003          	lb	x0,64(x18)
     b7e:	0100                	c.addi4spn	x8,x2,128
     b80:	04090003          	lb	x0,64(x18)
     b84:	0100                	c.addi4spn	x8,x2,128
     b86:	04090003          	lb	x0,64(x18)
     b8a:	0100                	c.addi4spn	x8,x2,128
     b8c:	04090003          	lb	x0,64(x18)
     b90:	0100                	c.addi4spn	x8,x2,128
     b92:	10090003          	lb	x0,256(x18)
     b96:	0100                	c.addi4spn	x8,x2,128
     b98:	14090003          	lb	x0,320(x18)
     b9c:	0100                	c.addi4spn	x8,x2,128
     b9e:	10090003          	lb	x0,256(x18)
     ba2:	0100                	c.addi4spn	x8,x2,128
     ba4:	04090003          	lb	x0,64(x18)
     ba8:	0100                	c.addi4spn	x8,x2,128
     baa:	04090003          	lb	x0,64(x18)
     bae:	0100                	c.addi4spn	x8,x2,128
     bb0:	04090003          	lb	x0,64(x18)
     bb4:	0100                	c.addi4spn	x8,x2,128
     bb6:	04090003          	lb	x0,64(x18)
     bba:	0100                	c.addi4spn	x8,x2,128
     bbc:	04090003          	lb	x0,64(x18)
     bc0:	0100                	c.addi4spn	x8,x2,128
     bc2:	04090003          	lb	x0,64(x18)
     bc6:	0100                	c.addi4spn	x8,x2,128
     bc8:	04090003          	lb	x0,64(x18)
     bcc:	0100                	c.addi4spn	x8,x2,128
     bce:	00090003          	lb	x0,0(x18)
     bd2:	0100                	c.addi4spn	x8,x2,128
     bd4:	00090003          	lb	x0,0(x18)
     bd8:	0100                	c.addi4spn	x8,x2,128
     bda:	0705                	c.addi	x14,1
     bdc:	00090503          	lb	x10,0(x18)
     be0:	0100                	c.addi4spn	x8,x2,128
     be2:	0405                	c.addi	x8,1
     be4:	00090203          	lb	x4,0(x18)
     be8:	0100                	c.addi4spn	x8,x2,128
     bea:	1205                	c.addi	x4,-31
     bec:	0306                	c.slli	x6,0x1
     bee:	0900                	c.addi4spn	x8,x2,144
     bf0:	0000                	c.unimp
     bf2:	0501                	c.addi	x10,0
     bf4:	0604                	c.addi4spn	x9,x2,768
     bf6:	04090103          	lb	x2,64(x18)
     bfa:	0100                	c.addi4spn	x8,x2,128
     bfc:	00090103          	lb	x2,0(x18)
     c00:	0100                	c.addi4spn	x8,x2,128
     c02:	0c05                	c.addi	x24,1
     c04:	0306                	c.slli	x6,0x1
     c06:	0900                	c.addi4spn	x8,x2,144
     c08:	0000                	c.unimp
     c0a:	0501                	c.addi	x10,0
     c0c:	da030603          	lb	x12,-608(x6)
     c10:	0900                	c.addi4spn	x8,x2,144
     c12:	0004                	0x4
     c14:	0301                	c.addi	x6,0
     c16:	0901                	c.addi	x18,0
     c18:	0000                	c.unimp
     c1a:	0301                	c.addi	x6,0
     c1c:	00d8                	c.addi4spn	x14,x2,68
     c1e:	0009                	c.addi	x0,2
     c20:	0100                	c.addi4spn	x8,x2,128
     c22:	0105                	c.addi	x2,1
     c24:	0306                	c.slli	x6,0x1
     c26:	0901                	c.addi	x18,0
     c28:	0000                	c.unimp
     c2a:	0501                	c.addi	x10,0
     c2c:	0304                	c.addi4spn	x9,x2,384
     c2e:	7e8d                	c.lui	x29,0xfffe3
     c30:	3809                	c.jal	442 <SYSCALL_ADDR-0x200bbe>
     c32:	0100                	c.addi4spn	x8,x2,128
     c34:	0306                	c.slli	x6,0x1
     c36:	0915                	c.addi	x18,5
     c38:	0014                	0x14
     c3a:	0501                	c.addi	x10,0
     c3c:	00030607          	0x30607
     c40:	0009                	c.addi	x0,2
     c42:	0100                	c.addi4spn	x8,x2,128
     c44:	0605                	c.addi	x12,1
     c46:	0306                	c.slli	x6,0x1
     c48:	0901                	c.addi	x18,0
     c4a:	0004                	0x4
     c4c:	0501                	c.addi	x10,0
     c4e:	0609                	c.addi	x12,2
     c50:	00090003          	lb	x0,0(x18)
     c54:	0100                	c.addi4spn	x8,x2,128
     c56:	0405                	c.addi	x8,1
     c58:	0306                	c.slli	x6,0x1
     c5a:	0902                	c.slli64	x18
     c5c:	0010                	0x10
     c5e:	0301                	c.addi	x6,0
     c60:	0900                	c.addi4spn	x8,x2,144
     c62:	0000                	c.unimp
     c64:	0301                	c.addi	x6,0
     c66:	0900                	c.addi4spn	x8,x2,144
     c68:	0000                	c.unimp
     c6a:	0301                	c.addi	x6,0
     c6c:	0900                	c.addi4spn	x8,x2,144
     c6e:	0000                	c.unimp
     c70:	0301                	c.addi	x6,0
     c72:	0900                	c.addi4spn	x8,x2,144
     c74:	0000                	c.unimp
     c76:	0301                	c.addi	x6,0
     c78:	0900                	c.addi4spn	x8,x2,144
     c7a:	0014                	0x14
     c7c:	0501                	c.addi	x10,0
     c7e:	0b03060b          	0xb03060b
     c82:	1009                	c.addi	x0,-30
     c84:	0100                	c.addi4spn	x8,x2,128
     c86:	0405                	c.addi	x8,1
     c88:	04097503          	0x4097503
     c8c:	0100                	c.addi4spn	x8,x2,128
     c8e:	0306                	c.slli	x6,0x1
     c90:	0900                	c.addi4spn	x8,x2,144
     c92:	0008                	0x8
     c94:	0301                	c.addi	x6,0
     c96:	0902                	c.slli64	x18
     c98:	0000                	c.unimp
     c9a:	0501                	c.addi	x10,0
     c9c:	00030607          	0x30607
     ca0:	0009                	c.addi	x0,2
     ca2:	0100                	c.addi4spn	x8,x2,128
     ca4:	0805                	c.addi	x16,1
     ca6:	0306                	c.slli	x6,0x1
     ca8:	0910                	c.addi4spn	x12,x2,144
     caa:	0004                	0x4
     cac:	0301                	c.addi	x6,0
     cae:	0902                	c.slli64	x18
     cb0:	0000                	c.unimp
     cb2:	0501                	c.addi	x10,0
     cb4:	0003060b          	0x3060b
     cb8:	0009                	c.addi	x0,2
     cba:	0100                	c.addi4spn	x8,x2,128
     cbc:	0805                	c.addi	x16,1
     cbe:	0306                	c.slli	x6,0x1
     cc0:	0901                	c.addi	x18,0
     cc2:	0004                	0x4
     cc4:	0501                	c.addi	x10,0
     cc6:	0003060b          	0x3060b
     cca:	0009                	c.addi	x0,2
     ccc:	0100                	c.addi4spn	x8,x2,128
     cce:	0805                	c.addi	x16,1
     cd0:	0306                	c.slli	x6,0x1
     cd2:	0901                	c.addi	x18,0
     cd4:	0004                	0x4
     cd6:	0501                	c.addi	x10,0
     cd8:	0611                	c.addi	x12,4
     cda:	00090003          	lb	x0,0(x18)
     cde:	0100                	c.addi4spn	x8,x2,128
     ce0:	1e05                	c.addi	x28,-31
     ce2:	04090003          	lb	x0,64(x18)
     ce6:	0100                	c.addi4spn	x8,x2,128
     ce8:	0805                	c.addi	x16,1
     cea:	04090303          	lb	x6,64(x18)
     cee:	0100                	c.addi4spn	x8,x2,128
     cf0:	0b05                	c.addi	x22,1
     cf2:	04097d03          	0x4097d03
     cf6:	0100                	c.addi4spn	x8,x2,128
     cf8:	0805                	c.addi	x16,1
     cfa:	0306                	c.slli	x6,0x1
     cfc:	0901                	c.addi	x18,0
     cfe:	0004                	0x4
     d00:	0601                	c.addi	x12,0
     d02:	00090203          	lb	x4,0(x18)
     d06:	0100                	c.addi4spn	x8,x2,128
     d08:	0b05                	c.addi	x22,1
     d0a:	10097e03          	0x10097e03
     d0e:	0100                	c.addi4spn	x8,x2,128
     d10:	0805                	c.addi	x16,1
     d12:	0306                	c.slli	x6,0x1
     d14:	0902                	c.slli64	x18
     d16:	0004                	0x4
     d18:	0301                	c.addi	x6,0
     d1a:	0900                	c.addi4spn	x8,x2,144
     d1c:	0000                	c.unimp
     d1e:	0301                	c.addi	x6,0
     d20:	0900                	c.addi4spn	x8,x2,144
     d22:	0000                	c.unimp
     d24:	0301                	c.addi	x6,0
     d26:	0900                	c.addi4spn	x8,x2,144
     d28:	0000                	c.unimp
     d2a:	0301                	c.addi	x6,0
     d2c:	0900                	c.addi4spn	x8,x2,144
     d2e:	0000                	c.unimp
     d30:	0301                	c.addi	x6,0
     d32:	0900                	c.addi4spn	x8,x2,144
     d34:	0014                	0x14
     d36:	0301                	c.addi	x6,0
     d38:	0900                	c.addi4spn	x8,x2,144
     d3a:	0000                	c.unimp
     d3c:	0301                	c.addi	x6,0
     d3e:	0900                	c.addi4spn	x8,x2,144
     d40:	0004                	0x4
     d42:	0301                	c.addi	x6,0
     d44:	0900                	c.addi4spn	x8,x2,144
     d46:	0008                	0x8
     d48:	0301                	c.addi	x6,0
     d4a:	0900                	c.addi4spn	x8,x2,144
     d4c:	000c                	0xc
     d4e:	0301                	c.addi	x6,0
     d50:	0900                	c.addi4spn	x8,x2,144
     d52:	0004                	0x4
     d54:	0301                	c.addi	x6,0
     d56:	0900                	c.addi4spn	x8,x2,144
     d58:	0004                	0x4
     d5a:	0301                	c.addi	x6,0
     d5c:	0900                	c.addi4spn	x8,x2,144
     d5e:	0004                	0x4
     d60:	0301                	c.addi	x6,0
     d62:	0900                	c.addi4spn	x8,x2,144
     d64:	0004                	0x4
     d66:	0301                	c.addi	x6,0
     d68:	0900                	c.addi4spn	x8,x2,144
     d6a:	0004                	0x4
     d6c:	0301                	c.addi	x6,0
     d6e:	0900                	c.addi4spn	x8,x2,144
     d70:	0004                	0x4
     d72:	0301                	c.addi	x6,0
     d74:	0900                	c.addi4spn	x8,x2,144
     d76:	0010                	0x10
     d78:	0301                	c.addi	x6,0
     d7a:	0900                	c.addi4spn	x8,x2,144
     d7c:	0010                	0x10
     d7e:	0301                	c.addi	x6,0
     d80:	0900                	c.addi4spn	x8,x2,144
     d82:	0008                	0x8
     d84:	0301                	c.addi	x6,0
     d86:	0900                	c.addi4spn	x8,x2,144
     d88:	0010                	0x10
     d8a:	0301                	c.addi	x6,0
     d8c:	0900                	c.addi4spn	x8,x2,144
     d8e:	0004                	0x4
     d90:	0301                	c.addi	x6,0
     d92:	0900                	c.addi4spn	x8,x2,144
     d94:	0004                	0x4
     d96:	0301                	c.addi	x6,0
     d98:	0900                	c.addi4spn	x8,x2,144
     d9a:	0004                	0x4
     d9c:	0301                	c.addi	x6,0
     d9e:	0900                	c.addi4spn	x8,x2,144
     da0:	0004                	0x4
     da2:	0301                	c.addi	x6,0
     da4:	0900                	c.addi4spn	x8,x2,144
     da6:	0004                	0x4
     da8:	0301                	c.addi	x6,0
     daa:	0900                	c.addi4spn	x8,x2,144
     dac:	0004                	0x4
     dae:	0301                	c.addi	x6,0
     db0:	0900                	c.addi4spn	x8,x2,144
     db2:	0000                	c.unimp
     db4:	0501                	c.addi	x10,0
     db6:	0604                	c.addi4spn	x9,x2,768
     db8:	04096703          	0x4096703
     dbc:	0100                	c.addi4spn	x8,x2,128
     dbe:	0705                	c.addi	x14,1
     dc0:	0306                	c.slli	x6,0x1
     dc2:	092e                	c.slli	x18,0xb
     dc4:	0014                	0x14
     dc6:	0501                	c.addi	x10,0
     dc8:	060a                	c.slli	x12,0x2
     dca:	00090003          	lb	x0,0(x18)
     dce:	0100                	c.addi4spn	x8,x2,128
     dd0:	0405                	c.addi	x8,1
     dd2:	0306                	c.slli	x6,0x1
     dd4:	00040913          	addi	x18,x8,0
     dd8:	0301                	c.addi	x6,0
     dda:	0900                	c.addi4spn	x8,x2,144
     ddc:	0000                	c.unimp
     dde:	0301                	c.addi	x6,0
     de0:	0900                	c.addi4spn	x8,x2,144
     de2:	0000                	c.unimp
     de4:	0301                	c.addi	x6,0
     de6:	0900                	c.addi4spn	x8,x2,144
     de8:	0000                	c.unimp
     dea:	0301                	c.addi	x6,0
     dec:	0900                	c.addi4spn	x8,x2,144
     dee:	0000                	c.unimp
     df0:	0301                	c.addi	x6,0
     df2:	0900                	c.addi4spn	x8,x2,144
     df4:	0014                	0x14
     df6:	0301                	c.addi	x6,0
     df8:	0900                	c.addi4spn	x8,x2,144
     dfa:	0020                	c.addi4spn	x8,x2,8
     dfc:	0301                	c.addi	x6,0
     dfe:	0901                	c.addi	x18,0
     e00:	0000                	c.unimp
     e02:	0501                	c.addi	x10,0
     e04:	00030607          	0x30607
     e08:	0009                	c.addi	x0,2
     e0a:	0100                	c.addi4spn	x8,x2,128
     e0c:	0805                	c.addi	x16,1
     e0e:	0306                	c.slli	x6,0x1
     e10:	090a                	c.slli	x18,0x2
     e12:	0004                	0x4
     e14:	0501                	c.addi	x10,0
     e16:	0003060b          	0x3060b
     e1a:	0009                	c.addi	x0,2
     e1c:	0100                	c.addi4spn	x8,x2,128
     e1e:	1405                	c.addi	x8,-31
     e20:	04090003          	lb	x0,64(x18)
     e24:	0100                	c.addi4spn	x8,x2,128
     e26:	0505                	c.addi	x10,1
     e28:	0306                	c.slli	x6,0x1
     e2a:	0902                	c.slli64	x18
     e2c:	0004                	0x4
     e2e:	0301                	c.addi	x6,0
     e30:	0901                	c.addi	x18,0
     e32:	0000                	c.unimp
     e34:	0301                	c.addi	x6,0
     e36:	0900                	c.addi4spn	x8,x2,144
     e38:	0000                	c.unimp
     e3a:	0301                	c.addi	x6,0
     e3c:	0900                	c.addi4spn	x8,x2,144
     e3e:	0000                	c.unimp
     e40:	0301                	c.addi	x6,0
     e42:	0900                	c.addi4spn	x8,x2,144
     e44:	0004                	0x4
     e46:	0301                	c.addi	x6,0
     e48:	0900                	c.addi4spn	x8,x2,144
     e4a:	000c                	0xc
     e4c:	0301                	c.addi	x6,0
     e4e:	0900                	c.addi4spn	x8,x2,144
     e50:	0000                	c.unimp
     e52:	0501                	c.addi	x10,0
     e54:	0308                	c.addi4spn	x10,x2,384
     e56:	0905                	c.addi	x18,1
     e58:	0000                	c.unimp
     e5a:	0301                	c.addi	x6,0
     e5c:	0902                	c.slli64	x18
     e5e:	0000                	c.unimp
     e60:	0501                	c.addi	x10,0
     e62:	0305                	c.addi	x6,1
     e64:	0902                	c.slli64	x18
     e66:	0000                	c.unimp
     e68:	0301                	c.addi	x6,0
     e6a:	0901                	c.addi	x18,0
     e6c:	0000                	c.unimp
     e6e:	0301                	c.addi	x6,0
     e70:	0901                	c.addi	x18,0
     e72:	0000                	c.unimp
     e74:	0501                	c.addi	x10,0
     e76:	060d                	c.addi	x12,3
     e78:	00090003          	lb	x0,0(x18)
     e7c:	0100                	c.addi4spn	x8,x2,128
     e7e:	0405                	c.addi	x8,1
     e80:	0c096703          	0xc096703
     e84:	0100                	c.addi4spn	x8,x2,128
     e86:	0805                	c.addi	x16,1
     e88:	0306                	c.slli	x6,0x1
     e8a:	091e                	c.slli	x18,0x7
     e8c:	0014                	0x14
     e8e:	0301                	c.addi	x6,0
     e90:	00000903          	lb	x18,0(x0) # 0 <SYSCALL_ADDR-0x201000>
     e94:	0301                	c.addi	x6,0
     e96:	0902                	c.slli64	x18
     e98:	0000                	c.unimp
     e9a:	0501                	c.addi	x10,0
     e9c:	0611                	c.addi	x12,4
     e9e:	00090003          	lb	x0,0(x18)
     ea2:	0100                	c.addi4spn	x8,x2,128
     ea4:	1e05                	c.addi	x28,-31
     ea6:	04090003          	lb	x0,64(x18)
     eaa:	0100                	c.addi4spn	x8,x2,128
     eac:	0b05                	c.addi	x22,1
     eae:	04090003          	lb	x0,64(x18)
     eb2:	0100                	c.addi4spn	x8,x2,128
     eb4:	0805                	c.addi	x16,1
     eb6:	0306                	c.slli	x6,0x1
     eb8:	0901                	c.addi	x18,0
     eba:	0004                	0x4
     ebc:	0501                	c.addi	x10,0
     ebe:	0103060b          	0x103060b
     ec2:	0009                	c.addi	x0,2
     ec4:	0100                	c.addi4spn	x8,x2,128
     ec6:	1105                	c.addi	x2,-31
     ec8:	04090103          	lb	x2,64(x18)
     ecc:	0100                	c.addi4spn	x8,x2,128
     ece:	1e05                	c.addi	x28,-31
     ed0:	04090003          	lb	x0,64(x18)
     ed4:	0100                	c.addi4spn	x8,x2,128
     ed6:	0805                	c.addi	x16,1
     ed8:	04090303          	lb	x6,64(x18)
     edc:	0100                	c.addi4spn	x8,x2,128
     ede:	0b05                	c.addi	x22,1
     ee0:	04097d03          	0x4097d03
     ee4:	0100                	c.addi4spn	x8,x2,128
     ee6:	0805                	c.addi	x16,1
     ee8:	04090303          	lb	x6,64(x18)
     eec:	0100                	c.addi4spn	x8,x2,128
     eee:	0b05                	c.addi	x22,1
     ef0:	08097b03          	0x8097b03
     ef4:	0100                	c.addi4spn	x8,x2,128
     ef6:	0805                	c.addi	x16,1
     ef8:	0306                	c.slli	x6,0x1
     efa:	0901                	c.addi	x18,0
     efc:	0004                	0x4
     efe:	0301                	c.addi	x6,0
     f00:	0901                	c.addi	x18,0
     f02:	0000                	c.unimp
     f04:	0301                	c.addi	x6,0
     f06:	0901                	c.addi	x18,0
     f08:	0000                	c.unimp
     f0a:	0601                	c.addi	x12,0
     f0c:	00090203          	lb	x4,0(x18)
     f10:	0100                	c.addi4spn	x8,x2,128
     f12:	0b05                	c.addi	x22,1
     f14:	20097e03          	0x20097e03
     f18:	0100                	c.addi4spn	x8,x2,128
     f1a:	0805                	c.addi	x16,1
     f1c:	0306                	c.slli	x6,0x1
     f1e:	0902                	c.slli64	x18
     f20:	0004                	0x4
     f22:	0301                	c.addi	x6,0
     f24:	0900                	c.addi4spn	x8,x2,144
     f26:	0000                	c.unimp
     f28:	0301                	c.addi	x6,0
     f2a:	0900                	c.addi4spn	x8,x2,144
     f2c:	0000                	c.unimp
     f2e:	0301                	c.addi	x6,0
     f30:	0900                	c.addi4spn	x8,x2,144
     f32:	0000                	c.unimp
     f34:	0301                	c.addi	x6,0
     f36:	0900                	c.addi4spn	x8,x2,144
     f38:	0000                	c.unimp
     f3a:	0301                	c.addi	x6,0
     f3c:	0900                	c.addi4spn	x8,x2,144
     f3e:	0000                	c.unimp
     f40:	0301                	c.addi	x6,0
     f42:	0900                	c.addi4spn	x8,x2,144
     f44:	0000                	c.unimp
     f46:	0301                	c.addi	x6,0
     f48:	0900                	c.addi4spn	x8,x2,144
     f4a:	0004                	0x4
     f4c:	0301                	c.addi	x6,0
     f4e:	0900                	c.addi4spn	x8,x2,144
     f50:	0008                	0x8
     f52:	0301                	c.addi	x6,0
     f54:	0900                	c.addi4spn	x8,x2,144
     f56:	000c                	0xc
     f58:	0301                	c.addi	x6,0
     f5a:	0900                	c.addi4spn	x8,x2,144
     f5c:	0008                	0x8
     f5e:	0301                	c.addi	x6,0
     f60:	0900                	c.addi4spn	x8,x2,144
     f62:	0008                	0x8
     f64:	0301                	c.addi	x6,0
     f66:	0900                	c.addi4spn	x8,x2,144
     f68:	0004                	0x4
     f6a:	0301                	c.addi	x6,0
     f6c:	0900                	c.addi4spn	x8,x2,144
     f6e:	0004                	0x4
     f70:	0301                	c.addi	x6,0
     f72:	0900                	c.addi4spn	x8,x2,144
     f74:	0008                	0x8
     f76:	0301                	c.addi	x6,0
     f78:	0900                	c.addi4spn	x8,x2,144
     f7a:	0004                	0x4
     f7c:	0301                	c.addi	x6,0
     f7e:	0900                	c.addi4spn	x8,x2,144
     f80:	0010                	0x10
     f82:	0301                	c.addi	x6,0
     f84:	0900                	c.addi4spn	x8,x2,144
     f86:	0010                	0x10
     f88:	0301                	c.addi	x6,0
     f8a:	0900                	c.addi4spn	x8,x2,144
     f8c:	000c                	0xc
     f8e:	0301                	c.addi	x6,0
     f90:	0900                	c.addi4spn	x8,x2,144
     f92:	0010                	0x10
     f94:	0301                	c.addi	x6,0
     f96:	0900                	c.addi4spn	x8,x2,144
     f98:	0008                	0x8
     f9a:	0301                	c.addi	x6,0
     f9c:	0900                	c.addi4spn	x8,x2,144
     f9e:	0008                	0x8
     fa0:	0301                	c.addi	x6,0
     fa2:	0900                	c.addi4spn	x8,x2,144
     fa4:	0004                	0x4
     fa6:	0301                	c.addi	x6,0
     fa8:	0900                	c.addi4spn	x8,x2,144
     faa:	0004                	0x4
     fac:	0301                	c.addi	x6,0
     fae:	0900                	c.addi4spn	x8,x2,144
     fb0:	0008                	0x8
     fb2:	0601                	c.addi	x12,0
     fb4:	00090103          	lb	x2,0(x18)
     fb8:	0100                	c.addi4spn	x8,x2,128
     fba:	04097f03          	0x4097f03
     fbe:	0100                	c.addi4spn	x8,x2,128
     fc0:	08090103          	lb	x2,128(x18)
     fc4:	0100                	c.addi4spn	x8,x2,128
     fc6:	0c097f03          	0xc097f03
     fca:	0100                	c.addi4spn	x8,x2,128
     fcc:	0306                	c.slli	x6,0x1
     fce:	0900                	c.addi4spn	x8,x2,144
     fd0:	0004                	0x4
     fd2:	0301                	c.addi	x6,0
     fd4:	0900                	c.addi4spn	x8,x2,144
     fd6:	0000                	c.unimp
     fd8:	0301                	c.addi	x6,0
     fda:	0900                	c.addi4spn	x8,x2,144
     fdc:	0000                	c.unimp
     fde:	0301                	c.addi	x6,0
     fe0:	0901                	c.addi	x18,0
     fe2:	0000                	c.unimp
     fe4:	0301                	c.addi	x6,0
     fe6:	0900                	c.addi4spn	x8,x2,144
     fe8:	0000                	c.unimp
     fea:	0301                	c.addi	x6,0
     fec:	0900                	c.addi4spn	x8,x2,144
     fee:	0000                	c.unimp
     ff0:	0301                	c.addi	x6,0
     ff2:	0900                	c.addi4spn	x8,x2,144
     ff4:	0000                	c.unimp
     ff6:	0301                	c.addi	x6,0
     ff8:	0900                	c.addi4spn	x8,x2,144
     ffa:	0000                	c.unimp
     ffc:	0301                	c.addi	x6,0
     ffe:	0900                	c.addi4spn	x8,x2,144
    1000:	0004                	0x4
    1002:	0301                	c.addi	x6,0
    1004:	0900                	c.addi4spn	x8,x2,144
    1006:	0000                	c.unimp
    1008:	0301                	c.addi	x6,0
    100a:	0900                	c.addi4spn	x8,x2,144
    100c:	0004                	0x4
    100e:	0301                	c.addi	x6,0
    1010:	0900                	c.addi4spn	x8,x2,144
    1012:	0000                	c.unimp
    1014:	0301                	c.addi	x6,0
    1016:	0900                	c.addi4spn	x8,x2,144
    1018:	0004                	0x4
    101a:	0301                	c.addi	x6,0
    101c:	0900                	c.addi4spn	x8,x2,144
    101e:	0004                	0x4
    1020:	0301                	c.addi	x6,0
    1022:	0900                	c.addi4spn	x8,x2,144
    1024:	0004                	0x4
    1026:	0301                	c.addi	x6,0
    1028:	0900                	c.addi4spn	x8,x2,144
    102a:	0004                	0x4
    102c:	0301                	c.addi	x6,0
    102e:	0900                	c.addi4spn	x8,x2,144
    1030:	0000                	c.unimp
    1032:	0301                	c.addi	x6,0
    1034:	0900                	c.addi4spn	x8,x2,144
    1036:	0008                	0x8
    1038:	0301                	c.addi	x6,0
    103a:	0900                	c.addi4spn	x8,x2,144
    103c:	0000                	c.unimp
    103e:	0301                	c.addi	x6,0
    1040:	0900                	c.addi4spn	x8,x2,144
    1042:	0004                	0x4
    1044:	0301                	c.addi	x6,0
    1046:	0900                	c.addi4spn	x8,x2,144
    1048:	0004                	0x4
    104a:	0301                	c.addi	x6,0
    104c:	0900                	c.addi4spn	x8,x2,144
    104e:	0000                	c.unimp
    1050:	0301                	c.addi	x6,0
    1052:	0900                	c.addi4spn	x8,x2,144
    1054:	0008                	0x8
    1056:	0301                	c.addi	x6,0
    1058:	0900                	c.addi4spn	x8,x2,144
    105a:	0000                	c.unimp
    105c:	0301                	c.addi	x6,0
    105e:	0900                	c.addi4spn	x8,x2,144
    1060:	0004                	0x4
    1062:	0301                	c.addi	x6,0
    1064:	0900                	c.addi4spn	x8,x2,144
    1066:	0004                	0x4
    1068:	0301                	c.addi	x6,0
    106a:	0900                	c.addi4spn	x8,x2,144
    106c:	0000                	c.unimp
    106e:	0301                	c.addi	x6,0
    1070:	0900                	c.addi4spn	x8,x2,144
    1072:	0008                	0x8
    1074:	0301                	c.addi	x6,0
    1076:	0900                	c.addi4spn	x8,x2,144
    1078:	0000                	c.unimp
    107a:	0301                	c.addi	x6,0
    107c:	0900                	c.addi4spn	x8,x2,144
    107e:	0004                	0x4
    1080:	0301                	c.addi	x6,0
    1082:	0900                	c.addi4spn	x8,x2,144
    1084:	0000                	c.unimp
    1086:	0301                	c.addi	x6,0
    1088:	0900                	c.addi4spn	x8,x2,144
    108a:	0000                	c.unimp
    108c:	0301                	c.addi	x6,0
    108e:	0900                	c.addi4spn	x8,x2,144
    1090:	000c                	0xc
    1092:	0301                	c.addi	x6,0
    1094:	0900                	c.addi4spn	x8,x2,144
    1096:	0004                	0x4
    1098:	0301                	c.addi	x6,0
    109a:	0900                	c.addi4spn	x8,x2,144
    109c:	0004                	0x4
    109e:	0301                	c.addi	x6,0
    10a0:	0900                	c.addi4spn	x8,x2,144
    10a2:	0008                	0x8
    10a4:	0301                	c.addi	x6,0
    10a6:	0900                	c.addi4spn	x8,x2,144
    10a8:	0018                	0x18
    10aa:	0301                	c.addi	x6,0
    10ac:	0902                	c.slli64	x18
    10ae:	0000                	c.unimp
    10b0:	0501                	c.addi	x10,0
    10b2:	0003060b          	0x3060b
    10b6:	0009                	c.addi	x0,2
    10b8:	0100                	c.addi4spn	x8,x2,128
    10ba:	1405                	c.addi	x8,-31
    10bc:	04090003          	lb	x0,64(x18)
    10c0:	0100                	c.addi4spn	x8,x2,128
    10c2:	2105                	c.jal	14e2 <SYSCALL_ADDR-0x1ffb1e>
    10c4:	04090003          	lb	x0,64(x18)
    10c8:	0100                	c.addi4spn	x8,x2,128
    10ca:	0505                	c.addi	x10,1
    10cc:	0306                	c.slli	x6,0x1
    10ce:	0902                	c.slli64	x18
    10d0:	0004                	0x4
    10d2:	0301                	c.addi	x6,0
    10d4:	0901                	c.addi	x18,0
    10d6:	0000                	c.unimp
    10d8:	0301                	c.addi	x6,0
    10da:	0900                	c.addi4spn	x8,x2,144
    10dc:	0000                	c.unimp
    10de:	0301                	c.addi	x6,0
    10e0:	0900                	c.addi4spn	x8,x2,144
    10e2:	0000                	c.unimp
    10e4:	0301                	c.addi	x6,0
    10e6:	0900                	c.addi4spn	x8,x2,144
    10e8:	0004                	0x4
    10ea:	0301                	c.addi	x6,0
    10ec:	0900                	c.addi4spn	x8,x2,144
    10ee:	000c                	0xc
    10f0:	0301                	c.addi	x6,0
    10f2:	0900                	c.addi4spn	x8,x2,144
    10f4:	0004                	0x4
    10f6:	0501                	c.addi	x10,0
    10f8:	0308                	c.addi4spn	x10,x2,384
    10fa:	00000903          	lb	x18,0(x0) # 0 <SYSCALL_ADDR-0x201000>
    10fe:	0301                	c.addi	x6,0
    1100:	00000903          	lb	x18,0(x0) # 0 <SYSCALL_ADDR-0x201000>
    1104:	0501                	c.addi	x10,0
    1106:	0305                	c.addi	x6,1
    1108:	0902                	c.slli64	x18
    110a:	0000                	c.unimp
    110c:	0301                	c.addi	x6,0
    110e:	0900                	c.addi4spn	x8,x2,144
    1110:	0000                	c.unimp
    1112:	0301                	c.addi	x6,0
    1114:	0900                	c.addi4spn	x8,x2,144
    1116:	0000                	c.unimp
    1118:	0301                	c.addi	x6,0
    111a:	0900                	c.addi4spn	x8,x2,144
    111c:	0004                	0x4
    111e:	0301                	c.addi	x6,0
    1120:	0900                	c.addi4spn	x8,x2,144
    1122:	000c                	0xc
    1124:	0301                	c.addi	x6,0
    1126:	0900                	c.addi4spn	x8,x2,144
    1128:	0000                	c.unimp
    112a:	0301                	c.addi	x6,0
    112c:	0901                	c.addi	x18,0
    112e:	0000                	c.unimp
    1130:	0501                	c.addi	x10,0
    1132:	0614                	c.addi4spn	x13,x2,768
    1134:	00090003          	lb	x0,0(x18)
    1138:	0100                	c.addi4spn	x8,x2,128
    113a:	2005                	c.jal	115a <SYSCALL_ADDR-0x1ffea6>
    113c:	04090003          	lb	x0,64(x18)
    1140:	0100                	c.addi4spn	x8,x2,128
    1142:	0505                	c.addi	x10,1
    1144:	0306                	c.slli	x6,0x1
    1146:	0901                	c.addi	x18,0
    1148:	0004                	0x4
    114a:	0301                	c.addi	x6,0
    114c:	0901                	c.addi	x18,0
    114e:	0000                	c.unimp
    1150:	0501                	c.addi	x10,0
    1152:	060d                	c.addi	x12,3
    1154:	00090003          	lb	x0,0(x18)
    1158:	0100                	c.addi4spn	x8,x2,128
    115a:	0c09                	c.addi	x24,2
    115c:	0000                	c.unimp
    115e:	0101                	c.addi	x2,0
    1160:	0055                	c.addi	x0,21
    1162:	0000                	c.unimp
    1164:	004f0003          	lb	x0,4(x30)
    1168:	0000                	c.unimp
    116a:	0101                	c.addi	x2,0
    116c:	000d0efb          	0xd0efb
    1170:	0101                	c.addi	x2,0
    1172:	0101                	c.addi	x2,0
    1174:	0000                	c.unimp
    1176:	0100                	c.addi4spn	x8,x2,128
    1178:	0000                	c.unimp
    117a:	2e01                	c.jal	148a <SYSCALL_ADDR-0x1ffb76>
    117c:	2f2e                	c.fldsp	f30,200(x2)
    117e:	2e2e                	c.fldsp	f28,200(x2)
    1180:	2f2e2e2f          	0x2f2e2e2f
    1184:	2e2e                	c.fldsp	f28,200(x2)
    1186:	2f2e2e2f          	0x2f2e2e2f
    118a:	2f2e                	c.fldsp	f30,200(x2)
    118c:	6972                	c.flwsp	f18,28(x2)
    118e:	2d766373          	csrrsi	x6,0x2d7,12
    1192:	2f636367          	0x2f636367
    1196:	696c                	c.flw	f11,84(x10)
    1198:	6762                	c.flwsp	f14,24(x2)
    119a:	00006363          	bltu	x0,x0,11a0 <SYSCALL_ADDR-0x1ffe60>
    119e:	696c                	c.flw	f11,84(x10)
    11a0:	6762                	c.flwsp	f14,24(x2)
    11a2:	2e326363          	bltu	x4,x3,1488 <SYSCALL_ADDR-0x1ffb78>
    11a6:	0068                	c.addi4spn	x10,x2,12
    11a8:	0001                	c.addi	x0,0
    11aa:	6c00                	c.flw	f8,24(x8)
    11ac:	6269                	c.lui	x4,0x1a
    11ae:	32636367          	0x32636367
    11b2:	632e                	c.flwsp	f6,200(x2)
    11b4:	0100                	c.addi4spn	x8,x2,128
    11b6:	0000                	c.unimp
	...

Disassembly of section .debug_info:

00000000 <.debug_info>:
       0:	0022                	c.slli	x0,0x8
       2:	0000                	c.unimp
       4:	0002                	c.slli64	x0
       6:	0000                	c.unimp
       8:	0000                	c.unimp
       a:	0104                	c.addi4spn	x9,x2,128
       c:	0000                	c.unimp
       e:	0000                	c.unimp
      10:	2464                	c.fld	f9,200(x8)
      12:	8000                	0x8000
      14:	2488                	c.fld	f10,8(x9)
      16:	8000                	0x8000
      18:	0000                	c.unimp
      1a:	0000                	c.unimp
      1c:	0038                	c.addi4spn	x14,x2,8
      1e:	0000                	c.unimp
      20:	009e                	c.slli	x1,0x7
      22:	0000                	c.unimp
      24:	8001                	c.srli64	x8
      26:	0022                	c.slli	x0,0x8
      28:	0000                	c.unimp
      2a:	0002                	c.slli64	x0
      2c:	0014                	0x14
      2e:	0000                	c.unimp
      30:	0104                	c.addi4spn	x9,x2,128
      32:	0098                	c.addi4spn	x14,x2,64
      34:	0000                	c.unimp
      36:	2488                	c.fld	f10,8(x9)
      38:	8000                	0x8000
      3a:	253c                	c.fld	f15,72(x10)
      3c:	8000                	0x8000
      3e:	00aa                	c.slli	x1,0xa
      40:	0000                	c.unimp
      42:	0038                	c.addi4spn	x14,x2,8
      44:	0000                	c.unimp
      46:	009e                	c.slli	x1,0x7
      48:	0000                	c.unimp
      4a:	8001                	c.srli64	x8
      4c:	09a2                	c.slli	x19,0x8
      4e:	0000                	c.unimp
      50:	0004                	0x4
      52:	0028                	c.addi4spn	x10,x2,8
      54:	0000                	c.unimp
      56:	0104                	c.addi4spn	x9,x2,128
      58:	00000143          	fmadd.s	f2,f0,f0,f0,rne
      5c:	080c                	c.addi4spn	x11,x2,16
      5e:	0001                	c.addi	x0,0
      60:	3800                	c.fld	f8,48(x8)
      62:	0000                	c.unimp
      64:	1800                	c.addi4spn	x8,x2,48
      66:	0026                	c.slli	x0,0x9
      68:	d880                	c.sw	x8,48(x9)
      6a:	0005                	c.addi	x0,1
      6c:	0600                	c.addi4spn	x8,x2,768
      6e:	0002                	c.slli64	x0
      70:	0200                	c.addi4spn	x8,x2,256
      72:	0708                	c.addi4spn	x10,x2,896
      74:	023c                	c.addi4spn	x15,x2,264
      76:	0000                	c.unimp
      78:	69050403          	lb	x8,1680(x10)
      7c:	746e                	c.flwsp	f8,248(x2)
      7e:	0200                	c.addi4spn	x8,x2,256
      80:	0704                	c.addi4spn	x9,x2,896
      82:	0246                	c.slli	x4,0x11
      84:	0000                	c.unimp
      86:	0802                	c.slli64	x16
      88:	2e05                	c.jal	3b8 <SYSCALL_ADDR-0x200c48>
      8a:	0002                	c.slli64	x0
      8c:	0200                	c.addi4spn	x8,x2,256
      8e:	0410                	c.addi4spn	x12,x2,512
      90:	02f2                	c.slli	x5,0x1c
      92:	0000                	c.unimp
      94:	0102                	c.slli64	x2
      96:	6406                	c.flwsp	f8,64(x2)
      98:	0002                	c.slli64	x0
      9a:	0200                	c.addi4spn	x8,x2,256
      9c:	0801                	c.addi	x16,0
      9e:	0262                	c.slli	x4,0x18
      a0:	0000                	c.unimp
      a2:	0202                	c.slli64	x4
      a4:	3905                	c.jal	fffffcd4 <_end+0x7fff54c4>
      a6:	0001                	c.addi	x0,0
      a8:	0200                	c.addi4spn	x8,x2,256
      aa:	0702                	c.slli64	x14
      ac:	0295                	c.addi	x5,5
      ae:	0000                	c.unimp
      b0:	0402                	c.slli64	x8
      b2:	3305                	c.jal	fffffdd2 <_end+0x7fff55c2>
      b4:	0002                	c.slli64	x0
      b6:	0200                	c.addi4spn	x8,x2,256
      b8:	0704                	c.addi4spn	x9,x2,896
      ba:	0241                	c.addi	x4,16
      bc:	0000                	c.unimp
      be:	0102                	c.slli64	x2
      c0:	6b08                	c.flw	f10,16(x14)
      c2:	0002                	c.slli64	x0
      c4:	0400                	c.addi4spn	x8,x2,512
      c6:	0284                	c.addi4spn	x9,x2,320
      c8:	0000                	c.unimp
      ca:	7b02                	c.flwsp	f22,32(x2)
      cc:	4f16                	c.lwsp	x30,68(x2)
      ce:	0000                	c.unimp
      d0:	0500                	c.addi4spn	x8,x2,640
      d2:	0079                	c.addi	x0,30
      d4:	0000                	c.unimp
      d6:	ff04                	c.fsw	f9,56(x14)
      d8:	0002                	c.slli64	x0
      da:	0200                	c.addi4spn	x8,x2,256
      dc:	0f80                	c.addi4spn	x8,x2,976
      de:	002c                	c.addi4spn	x11,x2,8
      e0:	0000                	c.unimp
      e2:	fe04                	c.fsw	f9,56(x12)
      e4:	0002                	c.slli64	x0
      e6:	0200                	c.addi4spn	x8,x2,256
      e8:	1681                	c.addi	x13,-32
      ea:	00000033          	add	x0,x0,x0
      ee:	a904                	c.fsd	f9,16(x10)
      f0:	0002                	c.slli64	x0
      f2:	0200                	c.addi4spn	x8,x2,256
      f4:	0f84                	c.addi4spn	x9,x2,976
      f6:	003a                	c.slli	x0,0xe
      f8:	0000                	c.unimp
      fa:	a804                	c.fsd	f9,16(x8)
      fc:	0002                	c.slli64	x0
      fe:	0200                	c.addi4spn	x8,x2,256
     100:	1685                	c.addi	x13,-31
     102:	0025                	c.addi	x0,9
     104:	0000                	c.unimp
     106:	0402                	c.slli64	x8
     108:	f904                	c.fsw	f9,48(x10)
     10a:	0000                	c.unimp
     10c:	0200                	c.addi4spn	x8,x2,256
     10e:	0308                	c.addi4spn	x10,x2,384
     110:	00f1                	c.addi	x1,28
     112:	0000                	c.unimp
     114:	0802                	c.slli64	x16
     116:	f704                	c.fsw	f9,40(x14)
     118:	0002                	c.slli64	x0
     11a:	0200                	c.addi4spn	x8,x2,256
     11c:	0310                	c.addi4spn	x12,x2,384
     11e:	02c9                	c.addi	x5,18
     120:	0000                	c.unimp
     122:	2002                	c.fldsp	f0,0(x2)
     124:	0002ea03          	0x2ea03
     128:	0600                	c.addi4spn	x8,x2,768
     12a:	028c                	c.addi4spn	x11,x2,320
     12c:	0000                	c.unimp
     12e:	0208                	c.addi4spn	x10,x2,256
     130:	01ed                	c.addi	x3,27
     132:	080a                	c.slli	x16,0x2
     134:	0001                	c.addi	x0,0
     136:	0700                	c.addi4spn	x8,x2,896
     138:	6f6c                	c.flw	f11,92(x14)
     13a:	ed020077          	0xed020077
     13e:	1a01                	c.addi	x20,-32
     140:	008a                	c.slli	x1,0x2
     142:	0000                	c.unimp
     144:	0800                	c.addi4spn	x8,x2,16
     146:	00000253          	fadd.s	f4,f0,f0,rne
     14a:	ed02                	c.fswsp	f0,152(x2)
     14c:	1f01                	c.addi	x30,-32
     14e:	008a                	c.slli	x1,0x2
     150:	0000                	c.unimp
     152:	0004                	0x4
     154:	0809                	c.addi	x16,2
     156:	f402                	c.fswsp	f0,40(x2)
     158:	0901                	c.addi	x18,0
     15a:	012a                	c.slli	x2,0xa
     15c:	0000                	c.unimp
     15e:	730a                	c.flwsp	f6,160(x2)
     160:	0200                	c.addi4spn	x8,x2,256
     162:	01f6                	c.slli	x3,0x1d
     164:	0000dd13          	srli	x26,x1,0x0
     168:	0a00                	c.addi4spn	x8,x2,272
     16a:	6c6c                	c.flw	f11,92(x8)
     16c:	0200                	c.addi4spn	x8,x2,256
     16e:	a20a01f7          	0xa20a01f7
     172:	0000                	c.unimp
     174:	0000                	c.unimp
     176:	0000df0b          	0xdf0b
     17a:	0200                	c.addi4spn	x8,x2,256
     17c:	01f8                	c.addi4spn	x14,x2,204
     17e:	00010803          	lb	x16,0(x2)
     182:	0500                	c.addi4spn	x8,x2,640
     184:	012a                	c.slli	x2,0xa
     186:	0000                	c.unimp
     188:	850c                	0x850c
     18a:	0000                	c.unimp
     18c:	4c00                	c.lw	x8,24(x8)
     18e:	0001                	c.addi	x0,0
     190:	0d00                	c.addi4spn	x8,x2,656
     192:	00000033          	add	x0,x0,x0
     196:	00ff                	0xff
     198:	3c05                	c.jal	fffffbc8 <_end+0x7fff53b8>
     19a:	0001                	c.addi	x0,0
     19c:	0e00                	c.addi4spn	x8,x2,784
     19e:	0258                	c.addi4spn	x14,x2,260
     1a0:	0000                	c.unimp
     1a2:	0202                	c.slli64	x4
     1a4:	1602                	c.slli	x12,0x20
     1a6:	014c                	c.addi4spn	x11,x2,132
     1a8:	0000                	c.unimp
     1aa:	0000e70f          	0xe70f
     1ae:	0100                	c.addi4spn	x8,x2,128
     1b0:	0526                	c.slli	x10,0x9
     1b2:	ae01                	c.j	4c2 <SYSCALL_ADDR-0x200b3e>
     1b4:	0000                	c.unimp
     1b6:	1800                	c.addi4spn	x8,x2,48
     1b8:	0026                	c.slli	x0,0x9
     1ba:	d880                	c.sw	x8,48(x9)
     1bc:	0005                	c.addi	x0,1
     1be:	0100                	c.addi4spn	x8,x2,128
     1c0:	979c                	0x979c
     1c2:	0005                	c.addi	x0,1
     1c4:	1000                	c.addi4spn	x8,x2,32
     1c6:	006e                	c.slli	x0,0x1b
     1c8:	2601                	c.jal	4c8 <SYSCALL_ADDR-0x200b38>
     1ca:	1405                	c.addi	x8,-31
     1cc:	00ae                	c.slli	x1,0xb
     1ce:	0000                	c.unimp
     1d0:	0000                	c.unimp
     1d2:	0000                	c.unimp
     1d4:	6410                	c.flw	f12,8(x8)
     1d6:	0100                	c.addi4spn	x8,x2,128
     1d8:	0526                	c.slli	x10,0x9
     1da:	ae1f 0000 7800      	0x78000000ae1f
     1e0:	0000                	c.unimp
     1e2:	1100                	c.addi4spn	x8,x2,160
     1e4:	00000597          	auipc	x11,0x0
     1e8:	2618                	c.fld	f14,8(x12)
     1ea:	8000                	0x8000
     1ec:	0000                	c.unimp
     1ee:	0000                	c.unimp
     1f0:	2801                	c.jal	200 <SYSCALL_ADDR-0x200e00>
     1f2:	0a05                	c.addi	x20,1
     1f4:	bf12                	c.fsdsp	f4,440(x2)
     1f6:	0005                	c.addi	x0,1
     1f8:	1000                	c.addi4spn	x8,x2,32
     1fa:	0001                	c.addi	x0,0
     1fc:	1200                	c.addi4spn	x8,x2,288
     1fe:	05b4                	c.addi4spn	x13,x2,712
     200:	0000                	c.unimp
     202:	0130                	c.addi4spn	x12,x2,136
     204:	0000                	c.unimp
     206:	a912                	c.fsdsp	f4,144(x2)
     208:	0005                	c.addi	x0,1
     20a:	9800                	0x9800
     20c:	0001                	c.addi	x0,0
     20e:	1300                	c.addi4spn	x8,x2,416
     210:	0000                	c.unimp
     212:	0000                	c.unimp
     214:	cb14                	c.sw	x13,16(x14)
     216:	0005                	c.addi	x0,1
     218:	1400                	c.addi4spn	x8,x2,544
     21a:	000005d7          	0x5d7
     21e:	e314                	c.fsw	f13,0(x14)
     220:	0005                	c.addi	x0,1
     222:	1500                	c.addi4spn	x8,x2,672
     224:	000005ef          	jal	x11,224 <SYSCALL_ADDR-0x200ddc>
     228:	0200                	c.addi4spn	x8,x2,256
     22a:	0000                	c.unimp
     22c:	fb15                	c.bnez	x14,160 <SYSCALL_ADDR-0x200ea0>
     22e:	0005                	c.addi	x0,1
     230:	9100                	0x9100
     232:	0002                	c.slli64	x0
     234:	1500                	c.addi4spn	x8,x2,672
     236:	00000607          	0x607
     23a:	02e6                	c.slli	x5,0x19
     23c:	0000                	c.unimp
     23e:	1315                	c.addi	x6,-27
     240:	0006                	c.slli	x0,0x1
     242:	5600                	c.lw	x8,40(x12)
     244:	15000003          	lb	x0,336(x0) # 150 <SYSCALL_ADDR-0x200eb0>
     248:	061f 0000 03b6      	0x3b60000061f
     24e:	0000                	c.unimp
     250:	2b15                	c.jal	784 <SYSCALL_ADDR-0x20087c>
     252:	0006                	c.slli	x0,0x1
     254:	df00                	c.sw	x8,56(x14)
     256:	15000003          	lb	x0,336(x0) # 150 <SYSCALL_ADDR-0x200eb0>
     25a:	00000637          	lui	x12,0x0
     25e:	03fd                	c.addi	x7,31
     260:	0000                	c.unimp
     262:	4315                	c.li	x6,5
     264:	0006                	c.slli	x0,0x1
     266:	2700                	c.fld	f8,8(x14)
     268:	0004                	0x4
     26a:	1500                	c.addi4spn	x8,x2,672
     26c:	064e                	c.slli	x12,0x13
     26e:	0000                	c.unimp
     270:	0445                	c.addi	x8,17
     272:	0000                	c.unimp
     274:	5a14                	c.lw	x13,48(x12)
     276:	0006                	c.slli	x0,0x1
     278:	1600                	c.addi4spn	x8,x2,800
     27a:	0666                	c.slli	x12,0x19
     27c:	0000                	c.unimp
     27e:	0028                	c.addi4spn	x10,x2,8
     280:	0000                	c.unimp
     282:	024d                	c.addi	x4,19
     284:	0000                	c.unimp
     286:	6b15                	c.lui	x22,0x5
     288:	0006                	c.slli	x0,0x1
     28a:	8400                	0x8400
     28c:	0004                	0x4
     28e:	1500                	c.addi4spn	x8,x2,672
     290:	0678                	c.addi4spn	x14,x2,780
     292:	0000                	c.unimp
     294:	04c0                	c.addi4spn	x8,x2,580
     296:	0000                	c.unimp
     298:	1700                	c.addi4spn	x8,x2,928
     29a:	0686                	c.slli	x13,0x1
     29c:	0000                	c.unimp
     29e:	26b0                	c.fld	f12,72(x13)
     2a0:	8000                	0x8000
     2a2:	00c8                	c.addi4spn	x10,x2,68
     2a4:	0000                	c.unimp
     2a6:	02d4                	c.addi4spn	x13,x2,324
     2a8:	0000                	c.unimp
     2aa:	8b15                	c.andi	x14,5
     2ac:	0006                	c.slli	x0,0x1
     2ae:	d300                	c.sw	x8,32(x14)
     2b0:	0004                	0x4
     2b2:	1500                	c.addi4spn	x8,x2,672
     2b4:	0698                	c.addi4spn	x14,x2,832
     2b6:	0000                	c.unimp
     2b8:	04e6                	c.slli	x9,0x19
     2ba:	0000                	c.unimp
     2bc:	a515                	c.j	8e0 <SYSCALL_ADDR-0x200720>
     2be:	0006                	c.slli	x0,0x1
     2c0:	f900                	c.fsw	f8,48(x10)
     2c2:	0004                	0x4
     2c4:	1500                	c.addi4spn	x8,x2,672
     2c6:	06b2                	c.slli	x13,0xc
     2c8:	0000                	c.unimp
     2ca:	00000517          	auipc	x10,0x0
     2ce:	bf15                	c.j	202 <SYSCALL_ADDR-0x200dfe>
     2d0:	0006                	c.slli	x0,0x1
     2d2:	3500                	c.fld	f8,40(x10)
     2d4:	0005                	c.addi	x0,1
     2d6:	1500                	c.addi4spn	x8,x2,672
     2d8:	06cc                	c.addi4spn	x11,x2,836
     2da:	0000                	c.unimp
     2dc:	0000057b          	0x57b
     2e0:	d915                	c.beqz	x10,214 <SYSCALL_ADDR-0x200dec>
     2e2:	0006                	c.slli	x0,0x1
     2e4:	9900                	0x9900
     2e6:	0005                	c.addi	x0,1
     2e8:	1800                	c.addi4spn	x8,x2,48
     2ea:	26c0                	c.fld	f8,136(x13)
     2ec:	8000                	0x8000
     2ee:	098a                	c.slli	x19,0x2
     2f0:	0000                	c.unimp
     2f2:	d418                	c.sw	x14,40(x8)
     2f4:	0026                	c.slli	x0,0x9
     2f6:	9380                	0x9380
     2f8:	0009                	c.addi	x0,2
     2fa:	1800                	c.addi4spn	x8,x2,48
     2fc:	26e8                	c.fld	f10,200(x13)
     2fe:	8000                	0x8000
     300:	099c                	c.addi4spn	x15,x2,208
     302:	0000                	c.unimp
     304:	2418                	c.fld	f14,8(x8)
     306:	8a800027          	0x8a800027
     30a:	0009                	c.addi	x0,2
     30c:	1800                	c.addi4spn	x8,x2,48
     30e:	2734                	c.fld	f13,72(x14)
     310:	8000                	0x8000
     312:	00000993          	addi	x19,x0,0
     316:	5018                	c.lw	x14,32(x8)
     318:	9c800027          	0x9c800027
     31c:	0009                	c.addi	x0,2
     31e:	0000                	c.unimp
     320:	fc16                	c.fswsp	f5,56(x2)
     322:	48000007          	0x48000007
     326:	0000                	c.unimp
     328:	4100                	c.lw	x8,0(x10)
     32a:	0004                	0x4
     32c:	1500                	c.addi4spn	x8,x2,672
     32e:	07fd                	c.addi	x15,31
     330:	0000                	c.unimp
     332:	000005b7          	lui	x11,0x0
     336:	0915                	c.addi	x18,5
     338:	0008                	0x8
     33a:	ca00                	c.sw	x8,16(x12)
     33c:	0005                	c.addi	x0,1
     33e:	1600                	c.addi4spn	x8,x2,800
     340:	0815                	c.addi	x16,5
     342:	0000                	c.unimp
     344:	0060                	c.addi4spn	x8,x2,12
     346:	0000                	c.unimp
     348:	0376                	c.slli	x6,0x1d
     34a:	0000                	c.unimp
     34c:	1a15                	c.addi	x20,-27
     34e:	0008                	0x8
     350:	0b00                	c.addi4spn	x8,x2,400
     352:	0006                	c.slli	x0,0x1
     354:	1500                	c.addi4spn	x8,x2,672
     356:	00000827          	0x827
     35a:	062d                	c.addi	x12,11
     35c:	0000                	c.unimp
     35e:	3415                	c.jal	fffffd82 <_end+0x7fff5572>
     360:	0008                	0x8
     362:	4000                	c.lw	x8,0(x8)
     364:	0006                	c.slli	x0,0x1
     366:	1500                	c.addi4spn	x8,x2,672
     368:	0841                	c.addi	x16,16
     36a:	0000                	c.unimp
     36c:	0674                	c.addi4spn	x13,x2,780
     36e:	0000                	c.unimp
     370:	4e15                	c.li	x28,5
     372:	0008                	0x8
     374:	a800                	c.fsd	f8,16(x8)
     376:	0006                	c.slli	x0,0x1
     378:	1500                	c.addi4spn	x8,x2,672
     37a:	0000085b          	0x85b
     37e:	06ee                	c.slli	x13,0x1b
     380:	0000                	c.unimp
     382:	6815                	c.lui	x16,0x5
     384:	0008                	0x8
     386:	3600                	c.fld	f8,40(x12)
     388:	18000007          	0x18000007
     38c:	2a7c                	c.fld	f15,208(x12)
     38e:	8000                	0x8000
     390:	098a                	c.slli	x19,0x2
     392:	0000                	c.unimp
     394:	9018                	0x9018
     396:	002a                	c.slli	x0,0xa
     398:	9380                	0x9380
     39a:	0009                	c.addi	x0,2
     39c:	1800                	c.addi4spn	x8,x2,48
     39e:	2aa4                	c.fld	f9,80(x13)
     3a0:	8000                	0x8000
     3a2:	099c                	c.addi4spn	x15,x2,208
     3a4:	0000                	c.unimp
     3a6:	e018                	c.fsw	f14,0(x8)
     3a8:	002a                	c.slli	x0,0xa
     3aa:	8a80                	0x8a80
     3ac:	0009                	c.addi	x0,2
     3ae:	1800                	c.addi4spn	x8,x2,48
     3b0:	2af0                	c.fld	f12,208(x13)
     3b2:	8000                	0x8000
     3b4:	00000993          	addi	x19,x0,0
     3b8:	0c18                	c.addi4spn	x14,x2,528
     3ba:	9c80002b          	0x9c80002b
     3be:	0009                	c.addi	x0,2
     3c0:	0000                	c.unimp
     3c2:	7619                	c.lui	x12,0xfffe6
     3c4:	0008                	0x8
     3c6:	8800                	0x8800
     3c8:	0000                	c.unimp
     3ca:	1500                	c.addi4spn	x8,x2,672
     3cc:	0000087b          	0x87b
     3d0:	0754                	c.addi4spn	x13,x2,900
     3d2:	0000                	c.unimp
     3d4:	8815                	c.andi	x8,5
     3d6:	0008                	0x8
     3d8:	7200                	c.flw	f8,32(x12)
     3da:	15000007          	0x15000007
     3de:	0895                	c.addi	x17,5
     3e0:	0000                	c.unimp
     3e2:	07ad                	c.addi	x15,11
     3e4:	0000                	c.unimp
     3e6:	a215                	c.j	50a <SYSCALL_ADDR-0x200af6>
     3e8:	0008                	0x8
     3ea:	c000                	c.sw	x8,0(x8)
     3ec:	15000007          	0x15000007
     3f0:	000008af          	0x8af
     3f4:	07de                	c.slli	x15,0x17
     3f6:	0000                	c.unimp
     3f8:	bc15                	c.j	fffffe2c <_end+0x7fff561c>
     3fa:	0008                	0x8
     3fc:	3100                	c.fld	f8,32(x10)
     3fe:	0008                	0x8
     400:	1500                	c.addi4spn	x8,x2,672
     402:	08c9                	c.addi	x17,18
     404:	0000                	c.unimp
     406:	0844                	c.addi4spn	x9,x2,20
     408:	0000                	c.unimp
     40a:	d615                	c.beqz	x12,336 <SYSCALL_ADDR-0x200cca>
     40c:	0008                	0x8
     40e:	5700                	c.lw	x8,40(x14)
     410:	0008                	0x8
     412:	1700                	c.addi4spn	x8,x2,928
     414:	000008e3          	beq	x0,x0,c24 <SYSCALL_ADDR-0x2003dc>
     418:	2b54                	c.fld	f13,144(x14)
     41a:	8000                	0x8000
     41c:	0010                	0x10
     41e:	0000                	c.unimp
     420:	000003e7          	jalr	x7,0(x0) # 0 <SYSCALL_ADDR-0x201000>
     424:	e81a                	c.fswsp	f6,16(x2)
     426:	0008                	0x8
     428:	0100                	c.addi4spn	x8,x2,128
     42a:	1a5a                	c.slli	x20,0x36
     42c:	08f5                	c.addi	x17,29
     42e:	0000                	c.unimp
     430:	5b01                	c.li	x22,-32
     432:	1700                	c.addi4spn	x8,x2,928
     434:	00000903          	lb	x18,0(x0) # 0 <SYSCALL_ADDR-0x201000>
     438:	2b64                	c.fld	f9,208(x14)
     43a:	8000                	0x8000
     43c:	0010                	0x10
     43e:	0000                	c.unimp
     440:	00000407          	0x407
     444:	081a                	c.slli	x16,0x6
     446:	0009                	c.addi	x0,2
     448:	0100                	c.addi4spn	x8,x2,128
     44a:	1a5a                	c.slli	x20,0x36
     44c:	0915                	c.addi	x18,5
     44e:	0000                	c.unimp
     450:	5b01                	c.li	x22,-32
     452:	1700                	c.addi4spn	x8,x2,928
     454:	00000923          	sb	x0,18(x0) # 12 <SYSCALL_ADDR-0x200fee>
     458:	2b74                	c.fld	f13,208(x14)
     45a:	8000                	0x8000
     45c:	0010                	0x10
     45e:	0000                	c.unimp
     460:	00000427          	0x427
     464:	281a                	c.fldsp	f16,384(x2)
     466:	0009                	c.addi	x0,2
     468:	0100                	c.addi4spn	x8,x2,128
     46a:	1a5a                	c.slli	x20,0x36
     46c:	0935                	c.addi	x18,13
     46e:	0000                	c.unimp
     470:	5b01                	c.li	x22,-32
     472:	1900                	c.addi4spn	x8,x2,176
     474:	00000943          	fmadd.s	f18,f0,f0,f0,rne
     478:	00b8                	c.addi4spn	x14,x2,72
     47a:	0000                	c.unimp
     47c:	441a                	c.lwsp	x8,132(x2)
     47e:	0009                	c.addi	x0,2
     480:	0100                	c.addi4spn	x8,x2,128
     482:	1a5a                	c.slli	x20,0x36
     484:	0951                	c.addi	x18,20
     486:	0000                	c.unimp
     488:	5b01                	c.li	x22,-32
     48a:	0000                	c.unimp
     48c:	1600                	c.addi4spn	x8,x2,800
     48e:	000006e7          	jalr	x13,0(x0) # 0 <SYSCALL_ADDR-0x201000>
     492:	00d0                	c.addi4spn	x12,x2,68
     494:	0000                	c.unimp
     496:	0461                	c.addi	x8,24
     498:	0000                	c.unimp
     49a:	ec15                	c.bnez	x8,4d6 <SYSCALL_ADDR-0x200b2a>
     49c:	0006                	c.slli	x0,0x1
     49e:	6a00                	c.flw	f8,16(x12)
     4a0:	0008                	0x8
     4a2:	1500                	c.addi4spn	x8,x2,672
     4a4:	06f9                	c.addi	x13,30
     4a6:	0000                	c.unimp
     4a8:	0890                	c.addi4spn	x12,x2,80
     4aa:	0000                	c.unimp
     4ac:	1700                	c.addi4spn	x8,x2,928
     4ae:	0768                	c.addi4spn	x10,x2,908
     4b0:	0000                	c.unimp
     4b2:	27e4                	c.fld	f9,200(x15)
     4b4:	8000                	0x8000
     4b6:	00c8                	c.addi4spn	x10,x2,68
     4b8:	0000                	c.unimp
     4ba:	04e8                	c.addi4spn	x10,x2,588
     4bc:	0000                	c.unimp
     4be:	6d15                	c.lui	x26,0x5
     4c0:	ae000007          	0xae000007
     4c4:	0008                	0x8
     4c6:	1500                	c.addi4spn	x8,x2,672
     4c8:	077a                	c.slli	x14,0x1e
     4ca:	0000                	c.unimp
     4cc:	08c1                	c.addi	x17,16
     4ce:	0000                	c.unimp
     4d0:	8715                	c.srai	x14,0x5
     4d2:	d4000007          	0xd4000007
     4d6:	0008                	0x8
     4d8:	1500                	c.addi4spn	x8,x2,672
     4da:	0794                	c.addi4spn	x13,x2,960
     4dc:	0000                	c.unimp
     4de:	08f2                	c.slli	x17,0x1c
     4e0:	0000                	c.unimp
     4e2:	a115                	c.j	906 <SYSCALL_ADDR-0x2006fa>
     4e4:	10000007          	0x10000007
     4e8:	0009                	c.addi	x0,2
     4ea:	1500                	c.addi4spn	x8,x2,672
     4ec:	07ae                	c.slli	x15,0xb
     4ee:	0000                	c.unimp
     4f0:	0956                	c.slli	x18,0x15
     4f2:	0000                	c.unimp
     4f4:	bb15                	c.j	228 <SYSCALL_ADDR-0x200dd8>
     4f6:	7f000007          	0x7f000007
     4fa:	0009                	c.addi	x0,2
     4fc:	1800                	c.addi4spn	x8,x2,48
     4fe:	27f4                	c.fld	f13,200(x15)
     500:	8000                	0x8000
     502:	098a                	c.slli	x19,0x2
     504:	0000                	c.unimp
     506:	0818                	c.addi4spn	x14,x2,16
     508:	0028                	c.addi4spn	x10,x2,8
     50a:	9380                	0x9380
     50c:	0009                	c.addi	x0,2
     50e:	1800                	c.addi4spn	x8,x2,48
     510:	281c                	c.fld	f15,16(x8)
     512:	8000                	0x8000
     514:	099c                	c.addi4spn	x15,x2,208
     516:	0000                	c.unimp
     518:	5818                	c.lw	x14,48(x8)
     51a:	0028                	c.addi4spn	x10,x2,8
     51c:	8a80                	0x8a80
     51e:	0009                	c.addi	x0,2
     520:	1800                	c.addi4spn	x8,x2,48
     522:	2868                	c.fld	f10,208(x8)
     524:	8000                	0x8000
     526:	00000993          	addi	x19,x0,0
     52a:	8418                	0x8418
     52c:	0028                	c.addi4spn	x10,x2,8
     52e:	9c80                	0x9c80
     530:	0009                	c.addi	x0,2
     532:	0000                	c.unimp
     534:	0716                	c.slli	x14,0x5
     536:	e8000007          	0xe8000007
     53a:	0000                	c.unimp
     53c:	6b00                	c.flw	f8,16(x14)
     53e:	0005                	c.addi	x0,1
     540:	1500                	c.addi4spn	x8,x2,672
     542:	070c                	c.addi4spn	x11,x2,896
     544:	0000                	c.unimp
     546:	099d                	c.addi	x19,7
     548:	0000                	c.unimp
     54a:	1915                	c.addi	x18,-27
     54c:	bf000007          	0xbf000007
     550:	0009                	c.addi	x0,2
     552:	1500                	c.addi4spn	x8,x2,672
     554:	0726                	c.slli	x14,0x9
     556:	0000                	c.unimp
     558:	09d2                	c.slli	x19,0x14
     55a:	0000                	c.unimp
     55c:	3315                	c.jal	280 <SYSCALL_ADDR-0x200d80>
     55e:	06000007          	0x6000007
     562:	000a                	c.slli	x0,0x2
     564:	1500                	c.addi4spn	x8,x2,672
     566:	0740                	c.addi4spn	x8,x2,900
     568:	0000                	c.unimp
     56a:	0a3a                	c.slli	x20,0xe
     56c:	0000                	c.unimp
     56e:	4d15                	c.li	x26,5
     570:	80000007          	0x80000007
     574:	000a                	c.slli	x0,0x2
     576:	1500                	c.addi4spn	x8,x2,672
     578:	075a                	c.slli	x14,0x16
     57a:	0000                	c.unimp
     57c:	0abd                	c.addi	x21,15
     57e:	0000                	c.unimp
     580:	2418                	c.fld	f14,8(x8)
     582:	0029                	c.addi	x0,10
     584:	8a80                	0x8a80
     586:	0009                	c.addi	x0,2
     588:	1800                	c.addi4spn	x8,x2,48
     58a:	2938                	c.fld	f14,80(x10)
     58c:	8000                	0x8000
     58e:	00000993          	addi	x19,x0,0
     592:	4c18                	c.lw	x14,24(x8)
     594:	0029                	c.addi	x0,10
     596:	9c80                	0x9c80
     598:	0009                	c.addi	x0,2
     59a:	1800                	c.addi4spn	x8,x2,48
     59c:	2988                	c.fld	f10,16(x11)
     59e:	8000                	0x8000
     5a0:	098a                	c.slli	x19,0x2
     5a2:	0000                	c.unimp
     5a4:	9818                	0x9818
     5a6:	0029                	c.addi	x0,10
     5a8:	9380                	0x9380
     5aa:	0009                	c.addi	x0,2
     5ac:	1800                	c.addi4spn	x8,x2,48
     5ae:	29b4                	c.fld	f13,80(x11)
     5b0:	8000                	0x8000
     5b2:	099c                	c.addi4spn	x15,x2,208
     5b4:	0000                	c.unimp
     5b6:	1600                	c.addi4spn	x8,x2,800
     5b8:	07c9                	c.addi	x15,18
     5ba:	0000                	c.unimp
     5bc:	0100                	c.addi4spn	x8,x2,128
     5be:	0000                	c.unimp
     5c0:	0000058b          	0x58b
     5c4:	ce15                	c.beqz	x12,600 <SYSCALL_ADDR-0x200a00>
     5c6:	db000007          	0xdb000007
     5ca:	000a                	c.slli	x0,0x2
     5cc:	1500                	c.addi4spn	x8,x2,672
     5ce:	000007db          	0x7db
     5d2:	0aee                	c.slli	x21,0x1b
     5d4:	0000                	c.unimp
     5d6:	1800                	c.addi4spn	x8,x2,48
     5d8:	27a8                	c.fld	f10,72(x15)
     5da:	8000                	0x8000
     5dc:	00000993          	addi	x19,x0,0
     5e0:	0000                	c.unimp
     5e2:	1b00                	c.addi4spn	x8,x2,432
     5e4:	02dd                	c.addi	x5,23
     5e6:	0000                	c.unimp
     5e8:	f701                	c.bnez	x14,4f0 <SYSCALL_ADDR-0x200b10>
     5ea:	00ae0103          	lb	x2,10(x28)
     5ee:	0000                	c.unimp
     5f0:	00098403          	lb	x8,0(x19)
     5f4:	1c00                	c.addi4spn	x8,x2,560
     5f6:	006e                	c.slli	x0,0x1b
     5f8:	f701                	c.bnez	x14,500 <SYSCALL_ADDR-0x200b00>
     5fa:	00ae1703          	lh	x14,10(x28)
     5fe:	0000                	c.unimp
     600:	641c                	c.flw	f15,8(x8)
     602:	0100                	c.addi4spn	x8,x2,128
     604:	ae2203f7          	0xae2203f7
     608:	0000                	c.unimp
     60a:	1c00                	c.addi4spn	x8,x2,560
     60c:	7072                	c.flwsp	f0,60(x2)
     60e:	0100                	c.addi4spn	x8,x2,128
     610:	842e03f7          	0x842e03f7
     614:	0009                	c.addi	x0,2
     616:	1d00                	c.addi4spn	x8,x2,688
     618:	6e6e                	c.flwsp	f28,216(x2)
     61a:	0100                	c.addi4spn	x8,x2,128
     61c:	03f9                	c.addi	x7,30
     61e:	3711                	c.jal	522 <SYSCALL_ADDR-0x200ade>
     620:	0001                	c.addi	x0,0
     622:	1d00                	c.addi4spn	x8,x2,688
     624:	6464                	c.flw	f9,76(x8)
     626:	0100                	c.addi4spn	x8,x2,128
     628:	03fa                	c.slli	x7,0x1e
     62a:	3711                	c.jal	52e <SYSCALL_ADDR-0x200ad2>
     62c:	0001                	c.addi	x0,0
     62e:	1d00                	c.addi4spn	x8,x2,688
     630:	7272                	c.flwsp	f4,60(x2)
     632:	0100                	c.addi4spn	x8,x2,128
     634:	2a0b03fb          	0x2a0b03fb
     638:	0001                	c.addi	x0,0
     63a:	1d00                	c.addi4spn	x8,x2,688
     63c:	3064                	c.fld	f9,224(x8)
     63e:	0100                	c.addi4spn	x8,x2,128
     640:	03fc                	c.addi4spn	x15,x2,460
     642:	960a                	c.add	x12,x2
     644:	0000                	c.unimp
     646:	1d00                	c.addi4spn	x8,x2,688
     648:	3164                	c.fld	f9,224(x10)
     64a:	0100                	c.addi4spn	x8,x2,128
     64c:	03fc                	c.addi4spn	x15,x2,460
     64e:	960e                	c.add	x12,x3
     650:	0000                	c.unimp
     652:	1d00                	c.addi4spn	x8,x2,688
     654:	306e                	c.fldsp	f0,248(x2)
     656:	0100                	c.addi4spn	x8,x2,128
     658:	03fc                	c.addi4spn	x15,x2,460
     65a:	9612                	c.add	x12,x4
     65c:	0000                	c.unimp
     65e:	1d00                	c.addi4spn	x8,x2,688
     660:	316e                	c.fldsp	f2,248(x2)
     662:	0100                	c.addi4spn	x8,x2,128
     664:	03fc                	c.addi4spn	x15,x2,460
     666:	9616                	c.add	x12,x5
     668:	0000                	c.unimp
     66a:	1d00                	c.addi4spn	x8,x2,688
     66c:	326e                	c.fldsp	f4,248(x2)
     66e:	0100                	c.addi4spn	x8,x2,128
     670:	03fc                	c.addi4spn	x15,x2,460
     672:	961a                	c.add	x12,x6
     674:	0000                	c.unimp
     676:	1d00                	c.addi4spn	x8,x2,688
     678:	3071                	c.jal	ffffff04 <_end+0x7fff56f4>
     67a:	0100                	c.addi4spn	x8,x2,128
     67c:	03fd                	c.addi	x7,31
     67e:	960a                	c.add	x12,x2
     680:	0000                	c.unimp
     682:	1d00                	c.addi4spn	x8,x2,688
     684:	3171                	c.jal	310 <SYSCALL_ADDR-0x200cf0>
     686:	0100                	c.addi4spn	x8,x2,128
     688:	03fd                	c.addi	x7,31
     68a:	960e                	c.add	x12,x3
     68c:	0000                	c.unimp
     68e:	1d00                	c.addi4spn	x8,x2,688
     690:	0062                	c.slli	x0,0x18
     692:	fe01                	c.bnez	x12,5aa <SYSCALL_ADDR-0x200a56>
     694:	00960a03          	lb	x20,9(x12) # fffe6009 <_end+0x7ffdb7f9>
     698:	0000                	c.unimp
     69a:	621d                	c.lui	x4,0x7
     69c:	006d                	c.addi	x0,27
     69e:	fe01                	c.bnez	x12,5b6 <SYSCALL_ADDR-0x200a4a>
     6a0:	00960d03          	lb	x26,9(x12)
     6a4:	0000                	c.unimp
     6a6:	771d                	c.lui	x14,0xfffe7
     6a8:	c7010077          	0xc7010077
     6ac:	1104                	c.addi4spn	x9,x2,160
     6ae:	00000137          	lui	x2,0x0
     6b2:	861e                	c.mv	x12,x7
     6b4:	0006                	c.slli	x0,0x1
     6b6:	1f00                	c.addi4spn	x8,x2,944
     6b8:	0306                	c.slli	x6,0x1
     6ba:	0000                	c.unimp
     6bc:	2e01                	c.jal	9cc <SYSCALL_ADDR-0x200634>
     6be:	0404                	c.addi4spn	x9,x2,512
     6c0:	0096                	c.slli	x1,0x5
     6c2:	0000                	c.unimp
     6c4:	5f1d                	c.li	x30,-25
     6c6:	615f 0100 042e      	0x42e0100615f
     6cc:	9604                	0x9604
     6ce:	0000                	c.unimp
     6d0:	0000                	c.unimp
     6d2:	e71e                	c.fswsp	f7,140(x2)
     6d4:	0006                	c.slli	x0,0x1
     6d6:	1f00                	c.addi4spn	x8,x2,944
     6d8:	02ba                	c.slli	x5,0xe
     6da:	0000                	c.unimp
     6dc:	3a01                	c.jal	ffffffec <_end+0x7fff57dc>
     6de:	0404                	c.addi4spn	x9,x2,512
     6e0:	0096                	c.slli	x1,0x5
     6e2:	0000                	c.unimp
     6e4:	341f 0001 0100      	0x1000001341f
     6ea:	043a                	c.slli	x8,0xe
     6ec:	9604                	0x9604
     6ee:	0000                	c.unimp
     6f0:	1f00                	c.addi4spn	x8,x2,944
     6f2:	02b5                	c.addi	x5,13
     6f4:	0000                	c.unimp
     6f6:	3a01                	c.jal	6 <SYSCALL_ADDR-0x200ffa>
     6f8:	0404                	c.addi4spn	x9,x2,512
     6fa:	0096                	c.slli	x1,0x5
     6fc:	0000                	c.unimp
     6fe:	b01f 0002 0100      	0x1000002b01f
     704:	043a                	c.slli	x8,0xe
     706:	9604                	0x9604
     708:	0000                	c.unimp
     70a:	1f00                	c.addi4spn	x8,x2,944
     70c:	0310                	c.addi4spn	x12,x2,384
     70e:	0000                	c.unimp
     710:	3a01                	c.jal	20 <SYSCALL_ADDR-0x200fe0>
     712:	0404                	c.addi4spn	x9,x2,512
     714:	0096                	c.slli	x1,0x5
     716:	0000                	c.unimp
     718:	0b1f 0003 0100      	0x10000030b1f
     71e:	043a                	c.slli	x8,0xe
     720:	9604                	0x9604
     722:	0000                	c.unimp
     724:	1d00                	c.addi4spn	x8,x2,688
     726:	5f5f 006d 3a01      	0x3a01006d5f5f
     72c:	0404                	c.addi4spn	x9,x2,512
     72e:	0096                	c.slli	x1,0x5
     730:	0000                	c.unimp
     732:	1e00                	c.addi4spn	x8,x2,816
     734:	00000707          	0x707
     738:	061f 0003 0100      	0x1000003061f
     73e:	0446                	c.slli	x8,0x11
     740:	9604                	0x9604
     742:	0000                	c.unimp
     744:	1d00                	c.addi4spn	x8,x2,688
     746:	5f5f 0061 4601      	0x460100615f5f
     74c:	0404                	c.addi4spn	x9,x2,512
     74e:	0096                	c.slli	x1,0x5
     750:	0000                	c.unimp
     752:	1e00                	c.addi4spn	x8,x2,816
     754:	0768                	c.addi4spn	x10,x2,908
     756:	0000                	c.unimp
     758:	ba1f 0002 0100      	0x1000002ba1f
     75e:	045f 9608 0000      	0x9608045f
     764:	1f00                	c.addi4spn	x8,x2,944
     766:	0134                	c.addi4spn	x13,x2,136
     768:	0000                	c.unimp
     76a:	5f01                	c.li	x30,-32
     76c:	0804                	c.addi4spn	x9,x2,16
     76e:	0096                	c.slli	x1,0x5
     770:	0000                	c.unimp
     772:	b51f 0002 0100      	0x1000002b51f
     778:	045f 9608 0000      	0x9608045f
     77e:	1f00                	c.addi4spn	x8,x2,944
     780:	02b0                	c.addi4spn	x12,x2,328
     782:	0000                	c.unimp
     784:	5f01                	c.li	x30,-32
     786:	0804                	c.addi4spn	x9,x2,16
     788:	0096                	c.slli	x1,0x5
     78a:	0000                	c.unimp
     78c:	101f 0003 0100      	0x1000003101f
     792:	045f 9608 0000      	0x9608045f
     798:	1f00                	c.addi4spn	x8,x2,944
     79a:	0000030b          	0x30b
     79e:	5f01                	c.li	x30,-32
     7a0:	0804                	c.addi4spn	x9,x2,16
     7a2:	0096                	c.slli	x1,0x5
     7a4:	0000                	c.unimp
     7a6:	5f1d                	c.li	x30,-25
     7a8:	6d5f 0100 045f      	0x45f01006d5f
     7ae:	9608                	0x9608
     7b0:	0000                	c.unimp
     7b2:	0000                	c.unimp
     7b4:	c91e                	c.swsp	x7,144(x2)
     7b6:	1f000007          	0x1f000007
     7ba:	02ba                	c.slli	x5,0xe
     7bc:	0000                	c.unimp
     7be:	6401                	0x6401
     7c0:	0404                	c.addi4spn	x9,x2,512
     7c2:	0096                	c.slli	x1,0x5
     7c4:	0000                	c.unimp
     7c6:	341f 0001 0100      	0x1000001341f
     7cc:	0464                	c.addi4spn	x9,x2,524
     7ce:	9604                	0x9604
     7d0:	0000                	c.unimp
     7d2:	1f00                	c.addi4spn	x8,x2,944
     7d4:	02b5                	c.addi	x5,13
     7d6:	0000                	c.unimp
     7d8:	6401                	0x6401
     7da:	0404                	c.addi4spn	x9,x2,512
     7dc:	0096                	c.slli	x1,0x5
     7de:	0000                	c.unimp
     7e0:	b01f 0002 0100      	0x1000002b01f
     7e6:	0464                	c.addi4spn	x9,x2,524
     7e8:	9604                	0x9604
     7ea:	0000                	c.unimp
     7ec:	1f00                	c.addi4spn	x8,x2,944
     7ee:	0310                	c.addi4spn	x12,x2,384
     7f0:	0000                	c.unimp
     7f2:	6401                	0x6401
     7f4:	0404                	c.addi4spn	x9,x2,512
     7f6:	0096                	c.slli	x1,0x5
     7f8:	0000                	c.unimp
     7fa:	0b1f 0003 0100      	0x10000030b1f
     800:	0464                	c.addi4spn	x9,x2,524
     802:	9604                	0x9604
     804:	0000                	c.unimp
     806:	1d00                	c.addi4spn	x8,x2,688
     808:	5f5f 006d 6401      	0x6401006d5f5f
     80e:	0404                	c.addi4spn	x9,x2,512
     810:	0096                	c.slli	x1,0x5
     812:	0000                	c.unimp
     814:	1e00                	c.addi4spn	x8,x2,816
     816:	07e9                	c.addi	x15,26
     818:	0000                	c.unimp
     81a:	061f 0003 0100      	0x1000003061f
     820:	96040487          	0x96040487
     824:	0000                	c.unimp
     826:	1d00                	c.addi4spn	x8,x2,688
     828:	5f5f 0061 8701      	0x870100615f5f
     82e:	0404                	c.addi4spn	x9,x2,512
     830:	0096                	c.slli	x1,0x5
     832:	0000                	c.unimp
     834:	1e00                	c.addi4spn	x8,x2,816
     836:	07fc                	c.addi4spn	x15,x2,972
     838:	0000                	c.unimp
     83a:	5f1d                	c.li	x30,-25
     83c:	785f 0100 0495      	0x4950100785f
     842:	9605                	c.srai	x12,0x21
     844:	0000                	c.unimp
     846:	0000                	c.unimp
     848:	1d20                	c.addi4spn	x8,x2,696
     84a:	316d                	c.jal	4f4 <SYSCALL_ADDR-0x200b0c>
     84c:	0100                	c.addi4spn	x8,x2,128
     84e:	04a5                	c.addi	x9,9
     850:	0000960f          	0x960f
     854:	1d00                	c.addi4spn	x8,x2,688
     856:	306d                	c.jal	100 <SYSCALL_ADDR-0x200f00>
     858:	0100                	c.addi4spn	x8,x2,128
     85a:	04a5                	c.addi	x9,9
     85c:	00009613          	slli	x12,x1,0x0
     860:	1e00                	c.addi4spn	x8,x2,816
     862:	0876                	c.slli	x16,0x1d
     864:	0000                	c.unimp
     866:	ba1f 0002 0100      	0x1000002ba1f
     86c:	04b0                	c.addi4spn	x12,x2,584
     86e:	9608                	0x9608
     870:	0000                	c.unimp
     872:	1f00                	c.addi4spn	x8,x2,944
     874:	0134                	c.addi4spn	x13,x2,136
     876:	0000                	c.unimp
     878:	b001                	c.j	78 <SYSCALL_ADDR-0x200f88>
     87a:	0804                	c.addi4spn	x9,x2,16
     87c:	0096                	c.slli	x1,0x5
     87e:	0000                	c.unimp
     880:	b51f 0002 0100      	0x1000002b51f
     886:	04b0                	c.addi4spn	x12,x2,584
     888:	9608                	0x9608
     88a:	0000                	c.unimp
     88c:	1f00                	c.addi4spn	x8,x2,944
     88e:	02b0                	c.addi4spn	x12,x2,328
     890:	0000                	c.unimp
     892:	b001                	c.j	92 <SYSCALL_ADDR-0x200f6e>
     894:	0804                	c.addi4spn	x9,x2,16
     896:	0096                	c.slli	x1,0x5
     898:	0000                	c.unimp
     89a:	101f 0003 0100      	0x1000003101f
     8a0:	04b0                	c.addi4spn	x12,x2,584
     8a2:	9608                	0x9608
     8a4:	0000                	c.unimp
     8a6:	1f00                	c.addi4spn	x8,x2,944
     8a8:	0000030b          	0x30b
     8ac:	b001                	c.j	ac <SYSCALL_ADDR-0x200f54>
     8ae:	0804                	c.addi4spn	x9,x2,16
     8b0:	0096                	c.slli	x1,0x5
     8b2:	0000                	c.unimp
     8b4:	5f1d                	c.li	x30,-25
     8b6:	6d5f 0100 04b0      	0x4b001006d5f
     8bc:	9608                	0x9608
     8be:	0000                	c.unimp
     8c0:	0000                	c.unimp
     8c2:	601e                	c.flwsp	f0,196(x2)
     8c4:	0009                	c.addi	x0,2
     8c6:	1f00                	c.addi4spn	x8,x2,944
     8c8:	0270                	c.addi4spn	x12,x2,268
     8ca:	0000                	c.unimp
     8cc:	b101                	c.j	4cc <SYSCALL_ADDR-0x200b34>
     8ce:	0804                	c.addi4spn	x9,x2,16
     8d0:	0096                	c.slli	x1,0x5
     8d2:	0000                	c.unimp
     8d4:	751f 0002 0100      	0x1000002751f
     8da:	04b1                	c.addi	x9,12
     8dc:	9608                	0x9608
     8de:	0000                	c.unimp
     8e0:	1f00                	c.addi4spn	x8,x2,944
     8e2:	027a                	c.slli	x4,0x1e
     8e4:	0000                	c.unimp
     8e6:	b101                	c.j	4e6 <SYSCALL_ADDR-0x200b1a>
     8e8:	0804                	c.addi4spn	x9,x2,16
     8ea:	0096                	c.slli	x1,0x5
     8ec:	0000                	c.unimp
     8ee:	7f1f 0002 0100      	0x10000027f1f
     8f4:	04b1                	c.addi	x9,12
     8f6:	9608                	0x9608
     8f8:	0000                	c.unimp
     8fa:	1f00                	c.addi4spn	x8,x2,944
     8fc:	031a                	c.slli	x6,0x6
     8fe:	0000                	c.unimp
     900:	b101                	c.j	500 <SYSCALL_ADDR-0x200b00>
     902:	0804                	c.addi4spn	x9,x2,16
     904:	0096                	c.slli	x1,0x5
     906:	0000                	c.unimp
     908:	d81f 0002 0100      	0x1000002d81f
     90e:	04b1                	c.addi	x9,12
     910:	9608                	0x9608
     912:	0000                	c.unimp
     914:	1f00                	c.addi4spn	x8,x2,944
     916:	0315                	c.addi	x6,5
     918:	0000                	c.unimp
     91a:	b101                	c.j	51a <SYSCALL_ADDR-0x200ae6>
     91c:	0804                	c.addi4spn	x9,x2,16
     91e:	0096                	c.slli	x1,0x5
     920:	0000                	c.unimp
     922:	131f 0002 0100      	0x1000002131f
     928:	04b1                	c.addi	x9,12
     92a:	9608                	0x9608
     92c:	0000                	c.unimp
     92e:	1e00                	c.addi4spn	x8,x2,816
     930:	00000903          	lb	x18,0(x0) # 0 <SYSCALL_ADDR-0x201000>
     934:	181f 0002 0100      	0x1000002181f
     93a:	04b1                	c.addi	x9,12
     93c:	9608                	0x9608
     93e:	0000                	c.unimp
     940:	1f00                	c.addi4spn	x8,x2,944
     942:	021e                	c.slli	x4,0x7
     944:	0000                	c.unimp
     946:	b101                	c.j	546 <SYSCALL_ADDR-0x200aba>
     948:	0804                	c.addi4spn	x9,x2,16
     94a:	0096                	c.slli	x1,0x5
     94c:	0000                	c.unimp
     94e:	1e00                	c.addi4spn	x8,x2,816
     950:	00000923          	sb	x0,18(x0) # 12 <SYSCALL_ADDR-0x200fee>
     954:	181f 0002 0100      	0x1000002181f
     95a:	04b1                	c.addi	x9,12
     95c:	9608                	0x9608
     95e:	0000                	c.unimp
     960:	1f00                	c.addi4spn	x8,x2,944
     962:	021e                	c.slli	x4,0x7
     964:	0000                	c.unimp
     966:	b101                	c.j	566 <SYSCALL_ADDR-0x200a9a>
     968:	0804                	c.addi4spn	x9,x2,16
     96a:	0096                	c.slli	x1,0x5
     96c:	0000                	c.unimp
     96e:	1e00                	c.addi4spn	x8,x2,816
     970:	00000943          	fmadd.s	f18,f0,f0,f0,rne
     974:	181f 0002 0100      	0x1000002181f
     97a:	04b1                	c.addi	x9,12
     97c:	9608                	0x9608
     97e:	0000                	c.unimp
     980:	1f00                	c.addi4spn	x8,x2,944
     982:	021e                	c.slli	x4,0x7
     984:	0000                	c.unimp
     986:	b101                	c.j	586 <SYSCALL_ADDR-0x200a7a>
     988:	0804                	c.addi4spn	x9,x2,16
     98a:	0096                	c.slli	x1,0x5
     98c:	0000                	c.unimp
     98e:	2000                	c.fld	f8,0(x8)
     990:	181f 0002 0100      	0x1000002181f
     996:	04b1                	c.addi	x9,12
     998:	9608                	0x9608
     99a:	0000                	c.unimp
     99c:	1f00                	c.addi4spn	x8,x2,944
     99e:	021e                	c.slli	x4,0x7
     9a0:	0000                	c.unimp
     9a2:	b101                	c.j	5a2 <SYSCALL_ADDR-0x200a5e>
     9a4:	0804                	c.addi4spn	x9,x2,16
     9a6:	0096                	c.slli	x1,0x5
     9a8:	0000                	c.unimp
     9aa:	0000                	c.unimp
     9ac:	731e                	c.flwsp	f6,228(x2)
     9ae:	0009                	c.addi	x0,2
     9b0:	1d00                	c.addi4spn	x8,x2,688
     9b2:	5f5f 0078 b601      	0xb60100785f5f
     9b8:	0504                	c.addi4spn	x9,x2,640
     9ba:	0096                	c.slli	x1,0x5
     9bc:	0000                	c.unimp
     9be:	2000                	c.fld	f8,0(x8)
     9c0:	5f1d                	c.li	x30,-25
     9c2:	785f 0100 04be      	0x4be0100785f
     9c8:	9605                	c.srai	x12,0x21
     9ca:	0000                	c.unimp
     9cc:	0000                	c.unimp
     9ce:	0000                	c.unimp
     9d0:	0421                	c.addi	x8,8
     9d2:	00ae                	c.slli	x1,0xb
     9d4:	0000                	c.unimp
     9d6:	bf22                	c.fsdsp	f8,440(x2)
     9d8:	0002                	c.slli64	x0
     9da:	bf00                	c.fsd	f8,56(x14)
     9dc:	0002                	c.slli64	x0
     9de:	2200                	c.fld	f8,0(x12)
     9e0:	0224                	c.addi4spn	x9,x2,264
     9e2:	0000                	c.unimp
     9e4:	0224                	c.addi4spn	x9,x2,264
     9e6:	0000                	c.unimp
     9e8:	ff22                	c.fswsp	f8,188(x2)
     9ea:	0000                	c.unimp
     9ec:	ff00                	c.fsw	f8,56(x14)
     9ee:	0000                	c.unimp
     9f0:	0000                	c.unimp
     9f2:	09b2                	c.slli	x19,0xc
     9f4:	0000                	c.unimp
     9f6:	0004                	0x4
     9f8:	01e6                	c.slli	x3,0x19
     9fa:	0000                	c.unimp
     9fc:	0104                	c.addi4spn	x9,x2,128
     9fe:	00000143          	fmadd.s	f2,f0,f0,f0,rne
     a02:	080c                	c.addi4spn	x11,x2,16
     a04:	0001                	c.addi	x0,0
     a06:	3800                	c.fld	f8,48(x8)
     a08:	0000                	c.unimp
     a0a:	f000                	c.fsw	f8,32(x8)
     a0c:	f080002b          	0xf080002b
     a10:	0004                	0x4
     a12:	8f00                	0x8f00
     a14:	0009                	c.addi	x0,2
     a16:	0200                	c.addi4spn	x8,x2,256
     a18:	0708                	c.addi4spn	x10,x2,896
     a1a:	023c                	c.addi4spn	x15,x2,264
     a1c:	0000                	c.unimp
     a1e:	69050403          	lb	x8,1680(x10) # 95a <SYSCALL_ADDR-0x2006a6>
     a22:	746e                	c.flwsp	f8,248(x2)
     a24:	0200                	c.addi4spn	x8,x2,256
     a26:	0704                	c.addi4spn	x9,x2,896
     a28:	0246                	c.slli	x4,0x11
     a2a:	0000                	c.unimp
     a2c:	0802                	c.slli64	x16
     a2e:	2e05                	c.jal	d5e <SYSCALL_ADDR-0x2002a2>
     a30:	0002                	c.slli64	x0
     a32:	0200                	c.addi4spn	x8,x2,256
     a34:	0410                	c.addi4spn	x12,x2,512
     a36:	02f2                	c.slli	x5,0x1c
     a38:	0000                	c.unimp
     a3a:	0102                	c.slli64	x2
     a3c:	6406                	c.flwsp	f8,64(x2)
     a3e:	0002                	c.slli64	x0
     a40:	0200                	c.addi4spn	x8,x2,256
     a42:	0801                	c.addi	x16,0
     a44:	0262                	c.slli	x4,0x18
     a46:	0000                	c.unimp
     a48:	0202                	c.slli64	x4
     a4a:	3905                	c.jal	67a <SYSCALL_ADDR-0x200986>
     a4c:	0001                	c.addi	x0,0
     a4e:	0200                	c.addi4spn	x8,x2,256
     a50:	0702                	c.slli64	x14
     a52:	0295                	c.addi	x5,5
     a54:	0000                	c.unimp
     a56:	0402                	c.slli64	x8
     a58:	3305                	c.jal	778 <SYSCALL_ADDR-0x200888>
     a5a:	0002                	c.slli64	x0
     a5c:	0200                	c.addi4spn	x8,x2,256
     a5e:	0704                	c.addi4spn	x9,x2,896
     a60:	0241                	c.addi	x4,16
     a62:	0000                	c.unimp
     a64:	0102                	c.slli64	x2
     a66:	6b08                	c.flw	f10,16(x14)
     a68:	0002                	c.slli64	x0
     a6a:	0400                	c.addi4spn	x8,x2,512
     a6c:	0284                	c.addi4spn	x9,x2,320
     a6e:	0000                	c.unimp
     a70:	7b02                	c.flwsp	f22,32(x2)
     a72:	4f16                	c.lwsp	x30,68(x2)
     a74:	0000                	c.unimp
     a76:	0500                	c.addi4spn	x8,x2,640
     a78:	0079                	c.addi	x0,30
     a7a:	0000                	c.unimp
     a7c:	ff04                	c.fsw	f9,56(x14)
     a7e:	0002                	c.slli64	x0
     a80:	0200                	c.addi4spn	x8,x2,256
     a82:	0f80                	c.addi4spn	x8,x2,976
     a84:	002c                	c.addi4spn	x11,x2,8
     a86:	0000                	c.unimp
     a88:	fe04                	c.fsw	f9,56(x12)
     a8a:	0002                	c.slli64	x0
     a8c:	0200                	c.addi4spn	x8,x2,256
     a8e:	1681                	c.addi	x13,-32
     a90:	00000033          	add	x0,x0,x0
     a94:	a904                	c.fsd	f9,16(x10)
     a96:	0002                	c.slli64	x0
     a98:	0200                	c.addi4spn	x8,x2,256
     a9a:	0f84                	c.addi4spn	x9,x2,976
     a9c:	003a                	c.slli	x0,0xe
     a9e:	0000                	c.unimp
     aa0:	a804                	c.fsd	f9,16(x8)
     aa2:	0002                	c.slli64	x0
     aa4:	0200                	c.addi4spn	x8,x2,256
     aa6:	1685                	c.addi	x13,-31
     aa8:	0025                	c.addi	x0,9
     aaa:	0000                	c.unimp
     aac:	0402                	c.slli64	x8
     aae:	f904                	c.fsw	f9,48(x10)
     ab0:	0000                	c.unimp
     ab2:	0200                	c.addi4spn	x8,x2,256
     ab4:	0308                	c.addi4spn	x10,x2,384
     ab6:	00f1                	c.addi	x1,28
     ab8:	0000                	c.unimp
     aba:	0802                	c.slli64	x16
     abc:	f704                	c.fsw	f9,40(x14)
     abe:	0002                	c.slli64	x0
     ac0:	0200                	c.addi4spn	x8,x2,256
     ac2:	0310                	c.addi4spn	x12,x2,384
     ac4:	02c9                	c.addi	x5,18
     ac6:	0000                	c.unimp
     ac8:	2002                	c.fldsp	f0,0(x2)
     aca:	0002ea03          	0x2ea03
     ace:	0600                	c.addi4spn	x8,x2,768
     ad0:	028c                	c.addi4spn	x11,x2,320
     ad2:	0000                	c.unimp
     ad4:	0208                	c.addi4spn	x10,x2,256
     ad6:	01ed                	c.addi	x3,27
     ad8:	080a                	c.slli	x16,0x2
     ada:	0001                	c.addi	x0,0
     adc:	0700                	c.addi4spn	x8,x2,896
     ade:	6f6c                	c.flw	f11,92(x14)
     ae0:	ed020077          	0xed020077
     ae4:	1a01                	c.addi	x20,-32
     ae6:	008a                	c.slli	x1,0x2
     ae8:	0000                	c.unimp
     aea:	0800                	c.addi4spn	x8,x2,16
     aec:	00000253          	fadd.s	f4,f0,f0,rne
     af0:	ed02                	c.fswsp	f0,152(x2)
     af2:	1f01                	c.addi	x30,-32
     af4:	008a                	c.slli	x1,0x2
     af6:	0000                	c.unimp
     af8:	0004                	0x4
     afa:	0809                	c.addi	x16,2
     afc:	f402                	c.fswsp	f0,40(x2)
     afe:	0901                	c.addi	x18,0
     b00:	012a                	c.slli	x2,0xa
     b02:	0000                	c.unimp
     b04:	730a                	c.flwsp	f6,160(x2)
     b06:	0200                	c.addi4spn	x8,x2,256
     b08:	01f6                	c.slli	x3,0x1d
     b0a:	0000dd13          	srli	x26,x1,0x0
     b0e:	0a00                	c.addi4spn	x8,x2,272
     b10:	6c6c                	c.flw	f11,92(x8)
     b12:	0200                	c.addi4spn	x8,x2,256
     b14:	a20a01f7          	0xa20a01f7
     b18:	0000                	c.unimp
     b1a:	0000                	c.unimp
     b1c:	0000df0b          	0xdf0b
     b20:	0200                	c.addi4spn	x8,x2,256
     b22:	01f8                	c.addi4spn	x14,x2,204
     b24:	00010803          	lb	x16,0(x2) # 0 <SYSCALL_ADDR-0x201000>
     b28:	0500                	c.addi4spn	x8,x2,640
     b2a:	012a                	c.slli	x2,0xa
     b2c:	0000                	c.unimp
     b2e:	850c                	0x850c
     b30:	0000                	c.unimp
     b32:	4c00                	c.lw	x8,24(x8)
     b34:	0001                	c.addi	x0,0
     b36:	0d00                	c.addi4spn	x8,x2,656
     b38:	00000033          	add	x0,x0,x0
     b3c:	00ff                	0xff
     b3e:	3c05                	c.jal	56e <SYSCALL_ADDR-0x200a92>
     b40:	0001                	c.addi	x0,0
     b42:	0e00                	c.addi4spn	x8,x2,784
     b44:	0258                	c.addi4spn	x14,x2,260
     b46:	0000                	c.unimp
     b48:	0202                	c.slli64	x4
     b4a:	1602                	c.slli	x12,0x20
     b4c:	014c                	c.addi4spn	x11,x2,132
     b4e:	0000                	c.unimp
     b50:	00031f0f          	0x31f0f
     b54:	0100                	c.addi4spn	x8,x2,128
     b56:	051a                	c.slli	x10,0x6
     b58:	ae01                	c.j	e68 <SYSCALL_ADDR-0x200198>
     b5a:	0000                	c.unimp
     b5c:	f000                	c.fsw	f8,32(x8)
     b5e:	f080002b          	0xf080002b
     b62:	0004                	0x4
     b64:	0100                	c.addi4spn	x8,x2,128
     b66:	a79c                	c.fsd	f15,8(x15)
     b68:	0005                	c.addi	x0,1
     b6a:	1000                	c.addi4spn	x8,x2,32
     b6c:	0075                	c.addi	x0,29
     b6e:	1a01                	c.addi	x20,-32
     b70:	1405                	c.addi	x8,-31
     b72:	00ae                	c.slli	x1,0xb
     b74:	0000                	c.unimp
     b76:	0b0c                	c.addi4spn	x11,x2,400
     b78:	0000                	c.unimp
     b7a:	7610                	c.flw	f12,40(x12)
     b7c:	0100                	c.addi4spn	x8,x2,128
     b7e:	051a                	c.slli	x10,0x6
     b80:	ae1f 0000 9400      	0x94000000ae1f
     b86:	1100000b          	0x1100000b
     b8a:	1c010077          	0x1c010077
     b8e:	0b05                	c.addi	x22,1
     b90:	00ae                	c.slli	x1,0xb
     b92:	0000                	c.unimp
     b94:	0bfc                	c.addi4spn	x15,x2,476
     b96:	0000                	c.unimp
     b98:	a712                	c.fsdsp	f4,392(x2)
     b9a:	0005                	c.addi	x0,1
     b9c:	2800                	c.fld	f8,16(x8)
     b9e:	002c                	c.addi4spn	x11,x2,8
     ba0:	1880                	c.addi4spn	x8,x2,112
     ba2:	0001                	c.addi	x0,0
     ba4:	0100                	c.addi4spn	x8,x2,128
     ba6:	051e                	c.slli	x10,0x7
     ba8:	130a                	c.slli	x6,0x22
     baa:	000005cf          	fnmadd.s	f11,f0,f0,f0,rne
     bae:	0c24                	c.addi4spn	x9,x2,536
     bb0:	0000                	c.unimp
     bb2:	0005c413          	xori	x8,x11,0
     bb6:	4c00                	c.lw	x8,24(x8)
     bb8:	000c                	0xc
     bba:	1300                	c.addi4spn	x8,x2,416
     bbc:	05b9                	c.addi	x11,14
     bbe:	0000                	c.unimp
     bc0:	0c94                	c.addi4spn	x13,x2,592
     bc2:	0000                	c.unimp
     bc4:	1814                	c.addi4spn	x13,x2,48
     bc6:	0001                	c.addi	x0,0
     bc8:	1500                	c.addi4spn	x8,x2,672
     bca:	000005db          	0x5db
     bce:	e715                	c.bnez	x14,bfa <SYSCALL_ADDR-0x200406>
     bd0:	0005                	c.addi	x0,1
     bd2:	1500                	c.addi4spn	x8,x2,672
     bd4:	000005f3          	0x5f3
     bd8:	ff16                	c.fswsp	f5,188(x2)
     bda:	0005                	c.addi	x0,1
     bdc:	3c00                	c.fld	f8,56(x8)
     bde:	000d                	c.addi	x0,3
     be0:	1600                	c.addi4spn	x8,x2,800
     be2:	0000060b          	0x60b
     be6:	0d86                	c.slli	x27,0x1
     be8:	0000                	c.unimp
     bea:	1716                	c.slli	x14,0x25
     bec:	0006                	c.slli	x0,0x1
     bee:	d000                	c.sw	x8,32(x8)
     bf0:	000d                	c.addi	x0,3
     bf2:	1600                	c.addi4spn	x8,x2,800
     bf4:	00000623          	sb	x0,12(x0) # c <SYSCALL_ADDR-0x200ff4>
     bf8:	0e25                	c.addi	x28,9
     bfa:	0000                	c.unimp
     bfc:	2f16                	c.fldsp	f30,320(x2)
     bfe:	0006                	c.slli	x0,0x1
     c00:	9000                	0x9000
     c02:	000e                	c.slli	x0,0x3
     c04:	1600                	c.addi4spn	x8,x2,800
     c06:	0000063b          	0x63b
     c0a:	0eb9                	c.addi	x29,14
     c0c:	0000                	c.unimp
     c0e:	4716                	c.lwsp	x14,68(x2)
     c10:	0006                	c.slli	x0,0x1
     c12:	cd00                	c.sw	x8,24(x10)
     c14:	000e                	c.slli	x0,0x3
     c16:	1600                	c.addi4spn	x8,x2,800
     c18:	00000653          	fadd.s	f12,f0,f0,rne
     c1c:	0eed                	c.addi	x29,27
     c1e:	0000                	c.unimp
     c20:	5e16                	c.lwsp	x28,100(x2)
     c22:	0006                	c.slli	x0,0x1
     c24:	0b00                	c.addi4spn	x8,x2,400
     c26:	1500000f          	0x1500000f
     c2a:	066a                	c.slli	x12,0x1a
     c2c:	0000                	c.unimp
     c2e:	00067617          	auipc	x12,0x67
     c32:	3800                	c.fld	f8,48(x8)
     c34:	0001                	c.addi	x0,0
     c36:	5c00                	c.lw	x8,56(x8)
     c38:	0002                	c.slli64	x0
     c3a:	1600                	c.addi4spn	x8,x2,800
     c3c:	0000067b          	0x67b
     c40:	00000f3f 00068816 	0x6881600000f3f
     c48:	5d00                	c.lw	x8,56(x10)
     c4a:	0000000f          	fence	unknown,unknown
     c4e:	9618                	0x9618
     c50:	0006                	c.slli	x0,0x1
     c52:	9000                	0x9000
     c54:	002c                	c.addi4spn	x11,x2,8
     c56:	0080                	c.addi4spn	x8,x2,64
     c58:	0000                	c.unimp
     c5a:	9500                	0x9500
     c5c:	0002                	c.slli64	x0
     c5e:	1900                	c.addi4spn	x8,x2,176
     c60:	0000069b          	0x69b
     c64:	6501                	0x6501
     c66:	a819                	c.j	c7c <SYSCALL_ADDR-0x200384>
     c68:	0006                	c.slli	x0,0x1
     c6a:	0100                	c.addi4spn	x8,x2,128
     c6c:	1566                	c.slli	x10,0x39
     c6e:	06b5                	c.addi	x13,13
     c70:	0000                	c.unimp
     c72:	c215                	c.beqz	x12,c96 <SYSCALL_ADDR-0x20036a>
     c74:	0006                	c.slli	x0,0x1
     c76:	1500                	c.addi4spn	x8,x2,672
     c78:	000006cf          	fnmadd.s	f13,f0,f0,f0,rne
     c7c:	dc15                	c.beqz	x8,bb8 <SYSCALL_ADDR-0x200448>
     c7e:	0006                	c.slli	x0,0x1
     c80:	1500                	c.addi4spn	x8,x2,672
     c82:	06e9                	c.addi	x13,26
     c84:	0000                	c.unimp
     c86:	1800                	c.addi4spn	x8,x2,48
     c88:	0778                	c.addi4spn	x14,x2,908
     c8a:	0000                	c.unimp
     c8c:	2c90                	c.fld	f12,24(x9)
     c8e:	8000                	0x8000
     c90:	00a8                	c.addi4spn	x10,x2,72
     c92:	0000                	c.unimp
     c94:	031c                	c.addi4spn	x15,x2,384
     c96:	0000                	c.unimp
     c98:	7d16                	c.flwsp	f26,100(x2)
     c9a:	70000007          	0x70000007
     c9e:	1600000f          	0x1600000f
     ca2:	078a                	c.slli	x15,0x2
     ca4:	0000                	c.unimp
     ca6:	00000f83          	lb	x31,0(x0) # 0 <SYSCALL_ADDR-0x201000>
     caa:	9716                	c.add	x14,x5
     cac:	96000007          	0x96000007
     cb0:	1600000f          	0x1600000f
     cb4:	07a4                	c.addi4spn	x9,x2,968
     cb6:	0000                	c.unimp
     cb8:	0fb4                	c.addi4spn	x13,x2,984
     cba:	0000                	c.unimp
     cbc:	b116                	c.fsdsp	f5,160(x2)
     cbe:	d2000007          	0xd2000007
     cc2:	1600000f          	0x1600000f
     cc6:	07be                	c.slli	x15,0xf
     cc8:	0000                	c.unimp
     cca:	00000ffb          	0xffb
     cce:	cb16                	c.swsp	x5,148(x2)
     cd0:	24000007          	0x24000007
     cd4:	0010                	0x10
     cd6:	1a00                	c.addi4spn	x8,x2,304
     cd8:	2ca0                	c.fld	f8,88(x9)
     cda:	8000                	0x8000
     cdc:	099a                	c.slli	x19,0x6
     cde:	0000                	c.unimp
     ce0:	b41a                	c.fsdsp	f6,40(x2)
     ce2:	002c                	c.addi4spn	x11,x2,8
     ce4:	a380                	c.fsd	f8,0(x15)
     ce6:	0009                	c.addi	x0,2
     ce8:	1a00                	c.addi4spn	x8,x2,304
     cea:	2cc4                	c.fld	f9,152(x9)
     cec:	8000                	0x8000
     cee:	09ac                	c.addi4spn	x11,x2,216
     cf0:	0000                	c.unimp
     cf2:	f41a                	c.fswsp	f6,40(x2)
     cf4:	002c                	c.addi4spn	x11,x2,8
     cf6:	9a80                	0x9a80
     cf8:	0009                	c.addi	x0,2
     cfa:	1a00                	c.addi4spn	x8,x2,304
     cfc:	2d04                	c.fld	f9,24(x10)
     cfe:	8000                	0x8000
     d00:	000009a3          	sb	x0,19(x0) # 13 <SYSCALL_ADDR-0x200fed>
     d04:	1c1a                	c.slli	x24,0x26
     d06:	002d                	c.addi	x0,11
     d08:	ac80                	c.fsd	f8,24(x9)
     d0a:	0009                	c.addi	x0,2
     d0c:	0000                	c.unimp
     d0e:	0006f717          	auipc	x14,0x6f
     d12:	5000                	c.lw	x8,32(x8)
     d14:	0001                	c.addi	x0,0
     d16:	3c00                	c.fld	f8,56(x8)
     d18:	16000003          	lb	x0,352(x0) # 160 <SYSCALL_ADDR-0x200ea0>
     d1c:	06fc                	c.addi4spn	x15,x2,844
     d1e:	0000                	c.unimp
     d20:	1042                	c.slli	x0,0x30
     d22:	0000                	c.unimp
     d24:	0916                	c.slli	x18,0x5
     d26:	60000007          	0x60000007
     d2a:	0010                	0x10
     d2c:	0000                	c.unimp
     d2e:	00071717          	auipc	x14,0x71
     d32:	7000                	c.flw	f8,32(x8)
     d34:	0001                	c.addi	x0,0
     d36:	bf00                	c.fsd	f8,56(x14)
     d38:	16000003          	lb	x0,352(x0) # 160 <SYSCALL_ADDR-0x200ea0>
     d3c:	071c                	c.addi4spn	x15,x2,896
     d3e:	0000                	c.unimp
     d40:	00001073          	csrrw	x0,ustatus,x0
     d44:	2916                	c.fldsp	f18,320(x2)
     d46:	95000007          	0x95000007
     d4a:	0010                	0x10
     d4c:	1600                	c.addi4spn	x8,x2,800
     d4e:	0736                	c.slli	x14,0xd
     d50:	0000                	c.unimp
     d52:	10a8                	c.addi4spn	x10,x2,104
     d54:	0000                	c.unimp
     d56:	4316                	c.lwsp	x6,68(x2)
     d58:	c6000007          	0xc6000007
     d5c:	0010                	0x10
     d5e:	1600                	c.addi4spn	x8,x2,800
     d60:	0750                	c.addi4spn	x12,x2,900
     d62:	0000                	c.unimp
     d64:	10e4                	c.addi4spn	x9,x2,108
     d66:	0000                	c.unimp
     d68:	5d16                	c.lwsp	x26,100(x2)
     d6a:	0d000007          	0xd000007
     d6e:	0011                	c.addi	x0,4
     d70:	1600                	c.addi4spn	x8,x2,800
     d72:	076a                	c.slli	x14,0x1a
     d74:	0000                	c.unimp
     d76:	1141                	c.addi	x2,-16
     d78:	0000                	c.unimp
     d7a:	f81a                	c.fswsp	f6,48(x2)
     d7c:	002d                	c.addi	x0,11
     d7e:	9a80                	0x9a80
     d80:	0009                	c.addi	x0,2
     d82:	1a00                	c.addi4spn	x8,x2,304
     d84:	2e10                	c.fld	f12,24(x12)
     d86:	8000                	0x8000
     d88:	000009a3          	sb	x0,19(x0) # 13 <SYSCALL_ADDR-0x200fed>
     d8c:	201a                	c.fldsp	f0,384(x2)
     d8e:	002e                	c.slli	x0,0xb
     d90:	ac80                	c.fsd	f8,24(x9)
     d92:	0009                	c.addi	x0,2
     d94:	1a00                	c.addi4spn	x8,x2,304
     d96:	2e50                	c.fld	f12,152(x12)
     d98:	8000                	0x8000
     d9a:	099a                	c.slli	x19,0x6
     d9c:	0000                	c.unimp
     d9e:	601a                	c.flwsp	f0,132(x2)
     da0:	002e                	c.slli	x0,0xb
     da2:	a380                	c.fsd	f8,0(x15)
     da4:	0009                	c.addi	x0,2
     da6:	1a00                	c.addi4spn	x8,x2,304
     da8:	2e6c                	c.fld	f11,216(x12)
     daa:	8000                	0x8000
     dac:	09ac                	c.addi4spn	x11,x2,216
     dae:	0000                	c.unimp
     db0:	1700                	c.addi4spn	x8,x2,928
     db2:	07d9                	c.addi	x15,22
     db4:	0000                	c.unimp
     db6:	0190                	c.addi4spn	x12,x2,192
     db8:	0000                	c.unimp
     dba:	03df 0000 de16      	0xde16000003df
     dc0:	5f000007          	0x5f000007
     dc4:	0011                	c.addi	x0,4
     dc6:	1600                	c.addi4spn	x8,x2,800
     dc8:	000007eb          	0x7eb
     dcc:	1172                	c.slli	x2,0x3c
     dce:	0000                	c.unimp
     dd0:	1800                	c.addi4spn	x8,x2,48
     dd2:	07f9                	c.addi	x15,30
     dd4:	0000                	c.unimp
     dd6:	2ef0                	c.fld	f12,216(x13)
     dd8:	8000                	0x8000
     dda:	0010                	0x10
     ddc:	0000                	c.unimp
     dde:	03fa                	c.slli	x7,0x1e
     de0:	0000                	c.unimp
     de2:	fe16                	c.fswsp	f5,60(x2)
     de4:	90000007          	0x90000007
     de8:	0011                	c.addi	x0,4
     dea:	0000                	c.unimp
     dec:	0c18                	c.addi4spn	x14,x2,528
     dee:	0008                	0x8
     df0:	2000                	c.fld	f8,0(x8)
     df2:	c080002f          	0xc080002f
     df6:	0001                	c.addi	x0,0
     df8:	9b00                	0x9b00
     dfa:	0005                	c.addi	x0,1
     dfc:	1600                	c.addi4spn	x8,x2,800
     dfe:	080d                	c.addi	x16,3
     e00:	0000                	c.unimp
     e02:	000011a3          	sh	x0,3(x0) # 3 <SYSCALL_ADDR-0x200ffd>
     e06:	1916                	c.slli	x18,0x25
     e08:	0008                	0x8
     e0a:	b600                	c.fsd	f8,40(x12)
     e0c:	0011                	c.addi	x0,4
     e0e:	1700                	c.addi4spn	x8,x2,928
     e10:	0825                	c.addi	x16,9
     e12:	0000                	c.unimp
     e14:	01a8                	c.addi4spn	x10,x2,200
     e16:	0000                	c.unimp
     e18:	049c                	c.addi4spn	x15,x2,576
     e1a:	0000                	c.unimp
     e1c:	2a19                	c.jal	f32 <SYSCALL_ADDR-0x2000ce>
     e1e:	0008                	0x8
     e20:	0100                	c.addi4spn	x8,x2,128
     e22:	1966                	c.slli	x18,0x39
     e24:	00000837          	lui	x16,0x0
     e28:	6701                	0x6701
     e2a:	4416                	c.lwsp	x8,68(x2)
     e2c:	0008                	0x8
     e2e:	df00                	c.sw	x8,56(x14)
     e30:	0011                	c.addi	x0,4
     e32:	1600                	c.addi4spn	x8,x2,800
     e34:	0851                	c.addi	x16,20
     e36:	0000                	c.unimp
     e38:	00001213          	slli	x4,x0,0x0
     e3c:	5e16                	c.lwsp	x28,100(x2)
     e3e:	0008                	0x8
     e40:	4700                	c.lw	x8,8(x14)
     e42:	0012                	c.slli	x0,0x4
     e44:	1600                	c.addi4spn	x8,x2,800
     e46:	0000086b          	0x86b
     e4a:	128d                	c.addi	x5,-29
     e4c:	0000                	c.unimp
     e4e:	7816                	c.flwsp	f16,100(x2)
     e50:	0008                	0x8
     e52:	d500                	c.sw	x8,40(x10)
     e54:	0012                	c.slli	x0,0x4
     e56:	1a00                	c.addi4spn	x8,x2,304
     e58:	2f50                	c.fld	f12,152(x14)
     e5a:	8000                	0x8000
     e5c:	099a                	c.slli	x19,0x6
     e5e:	0000                	c.unimp
     e60:	641a                	c.flwsp	f8,132(x2)
     e62:	a380002f          	0xa380002f
     e66:	0009                	c.addi	x0,2
     e68:	1a00                	c.addi4spn	x8,x2,304
     e6a:	2f7c                	c.fld	f15,216(x14)
     e6c:	8000                	0x8000
     e6e:	09ac                	c.addi4spn	x11,x2,216
     e70:	0000                	c.unimp
     e72:	b81a                	c.fsdsp	f6,48(x2)
     e74:	9a80002f          	0x9a80002f
     e78:	0009                	c.addi	x0,2
     e7a:	1a00                	c.addi4spn	x8,x2,304
     e7c:	2fc8                	c.fld	f10,152(x15)
     e7e:	8000                	0x8000
     e80:	000009a3          	sb	x0,19(x0) # 13 <SYSCALL_ADDR-0x200fed>
     e84:	d81a                	c.swsp	x6,48(x2)
     e86:	ac80002f          	0xac80002f
     e8a:	0009                	c.addi	x0,2
     e8c:	0000                	c.unimp
     e8e:	00088617          	auipc	x12,0x88
     e92:	e000                	c.fsw	f8,0(x8)
     e94:	0001                	c.addi	x0,0
     e96:	6800                	c.flw	f8,16(x8)
     e98:	0005                	c.addi	x0,1
     e9a:	1600                	c.addi4spn	x8,x2,800
     e9c:	0000088b          	0x88b
     ea0:	000012f3          	csrrw	x5,ustatus,x0
     ea4:	9816                	c.add	x16,x5
     ea6:	0008                	0x8
     ea8:	1100                	c.addi4spn	x8,x2,160
     eaa:	19000013          	addi	x0,x0,400
     eae:	08a5                	c.addi	x17,9
     eb0:	0000                	c.unimp
     eb2:	5601                	c.li	x12,-32
     eb4:	b216                	c.fsdsp	f5,288(x2)
     eb6:	0008                	0x8
     eb8:	5e00                	c.lw	x8,56(x12)
     eba:	16000013          	addi	x0,x0,352
     ebe:	000008bf 00001371 	0x1371000008bf
     ec6:	cc16                	c.swsp	x5,24(x2)
     ec8:	0008                	0x8
     eca:	8400                	0x8400
     ecc:	19000013          	addi	x0,x0,400
     ed0:	08d9                	c.addi	x17,22
     ed2:	0000                	c.unimp
     ed4:	6a01                	0x6a01
     ed6:	e619                	c.bnez	x12,ee4 <SYSCALL_ADDR-0x20011c>
     ed8:	0008                	0x8
     eda:	0100                	c.addi4spn	x8,x2,128
     edc:	186c                	c.addi4spn	x11,x2,60
     ede:	000008f3          	0x8f3
     ee2:	302c                	c.fld	f11,96(x8)
     ee4:	8000                	0x8000
     ee6:	0010                	0x10
     ee8:	0000                	c.unimp
     eea:	0000050b          	0x50b
     eee:	f819                	c.bnez	x8,e04 <SYSCALL_ADDR-0x2001fc>
     ef0:	0008                	0x8
     ef2:	0100                	c.addi4spn	x8,x2,128
     ef4:	195a                	c.slli	x18,0x36
     ef6:	0905                	c.addi	x18,1
     ef8:	0000                	c.unimp
     efa:	5b01                	c.li	x22,-32
     efc:	1800                	c.addi4spn	x8,x2,48
     efe:	00000913          	addi	x18,x0,0
     f02:	303c                	c.fld	f15,96(x8)
     f04:	8000                	0x8000
     f06:	0010                	0x10
     f08:	0000                	c.unimp
     f0a:	0000052b          	0x52b
     f0e:	1819                	c.addi	x16,-26
     f10:	0009                	c.addi	x0,2
     f12:	0100                	c.addi4spn	x8,x2,128
     f14:	195a                	c.slli	x18,0x36
     f16:	0925                	c.addi	x18,9
     f18:	0000                	c.unimp
     f1a:	5b01                	c.li	x22,-32
     f1c:	1800                	c.addi4spn	x8,x2,48
     f1e:	00000933          	add	x18,x0,x0
     f22:	304c                	c.fld	f11,160(x8)
     f24:	8000                	0x8000
     f26:	0010                	0x10
     f28:	0000                	c.unimp
     f2a:	0000054b          	fnmsub.s	f10,f0,f0,f0,rne
     f2e:	3819                	c.jal	744 <SYSCALL_ADDR-0x2008bc>
     f30:	0009                	c.addi	x0,2
     f32:	0100                	c.addi4spn	x8,x2,128
     f34:	195a                	c.slli	x18,0x36
     f36:	0945                	c.addi	x18,17
     f38:	0000                	c.unimp
     f3a:	5b01                	c.li	x22,-32
     f3c:	1b00                	c.addi4spn	x8,x2,432
     f3e:	00000953          	fadd.s	f18,f0,f0,rne
     f42:	305c                	c.fld	f15,160(x8)
     f44:	8000                	0x8000
     f46:	000c                	0xc
     f48:	0000                	c.unimp
     f4a:	5419                	c.li	x8,-26
     f4c:	0009                	c.addi	x0,2
     f4e:	0100                	c.addi4spn	x8,x2,128
     f50:	195a                	c.slli	x18,0x36
     f52:	0961                	c.addi	x18,24
     f54:	0000                	c.unimp
     f56:	5b01                	c.li	x22,-32
     f58:	0000                	c.unimp
     f5a:	7018                	c.flw	f14,32(x8)
     f5c:	0009                	c.addi	x0,2
     f5e:	a800                	c.fsd	f8,16(x8)
     f60:	0030                	c.addi4spn	x12,x2,8
     f62:	1480                	c.addi4spn	x8,x2,608
     f64:	0000                	c.unimp
     f66:	8300                	0x8300
     f68:	0005                	c.addi	x0,1
     f6a:	1600                	c.addi4spn	x8,x2,800
     f6c:	0975                	c.addi	x18,29
     f6e:	0000                	c.unimp
     f70:	000013c7          	fmsub.s	f7,f0,f0,f0,rtz
     f74:	1b00                	c.addi4spn	x8,x2,432
     f76:	00000983          	lb	x19,0(x0) # 0 <SYSCALL_ADDR-0x201000>
     f7a:	30bc                	c.fld	f15,96(x9)
     f7c:	8000                	0x8000
     f7e:	0010                	0x10
     f80:	0000                	c.unimp
     f82:	8416                	c.mv	x8,x5
     f84:	0009                	c.addi	x0,2
     f86:	da00                	c.sw	x8,48(x12)
     f88:	00000013          	addi	x0,x0,0
     f8c:	1a00                	c.addi4spn	x8,x2,304
     f8e:	2d9c                	c.fld	f15,24(x11)
     f90:	8000                	0x8000
     f92:	000009a3          	sb	x0,19(x0) # 13 <SYSCALL_ADDR-0x200fed>
     f96:	0000                	c.unimp
     f98:	1c00                	c.addi4spn	x8,x2,560
     f9a:	02dd                	c.addi	x5,23
     f9c:	0000                	c.unimp
     f9e:	f701                	c.bnez	x14,ea6 <SYSCALL_ADDR-0x20015a>
     fa0:	00ae0103          	lb	x2,10(x28)
     fa4:	0000                	c.unimp
     fa6:	00099403          	lh	x8,0(x19)
     faa:	1d00                	c.addi4spn	x8,x2,688
     fac:	006e                	c.slli	x0,0x1b
     fae:	f701                	c.bnez	x14,eb6 <SYSCALL_ADDR-0x20014a>
     fb0:	00ae1703          	lh	x14,10(x28)
     fb4:	0000                	c.unimp
     fb6:	641d                	c.lui	x8,0x7
     fb8:	0100                	c.addi4spn	x8,x2,128
     fba:	ae2203f7          	0xae2203f7
     fbe:	0000                	c.unimp
     fc0:	1d00                	c.addi4spn	x8,x2,688
     fc2:	7072                	c.flwsp	f0,60(x2)
     fc4:	0100                	c.addi4spn	x8,x2,128
     fc6:	942e03f7          	0x942e03f7
     fca:	0009                	c.addi	x0,2
     fcc:	1e00                	c.addi4spn	x8,x2,816
     fce:	6e6e                	c.flwsp	f28,216(x2)
     fd0:	0100                	c.addi4spn	x8,x2,128
     fd2:	03f9                	c.addi	x7,30
     fd4:	3711                	c.jal	ed8 <SYSCALL_ADDR-0x200128>
     fd6:	0001                	c.addi	x0,0
     fd8:	1e00                	c.addi4spn	x8,x2,816
     fda:	6464                	c.flw	f9,76(x8)
     fdc:	0100                	c.addi4spn	x8,x2,128
     fde:	03fa                	c.slli	x7,0x1e
     fe0:	3711                	c.jal	ee4 <SYSCALL_ADDR-0x20011c>
     fe2:	0001                	c.addi	x0,0
     fe4:	1e00                	c.addi4spn	x8,x2,816
     fe6:	7272                	c.flwsp	f4,60(x2)
     fe8:	0100                	c.addi4spn	x8,x2,128
     fea:	2a0b03fb          	0x2a0b03fb
     fee:	0001                	c.addi	x0,0
     ff0:	1e00                	c.addi4spn	x8,x2,816
     ff2:	3064                	c.fld	f9,224(x8)
     ff4:	0100                	c.addi4spn	x8,x2,128
     ff6:	03fc                	c.addi4spn	x15,x2,460
     ff8:	960a                	c.add	x12,x2
     ffa:	0000                	c.unimp
     ffc:	1e00                	c.addi4spn	x8,x2,816
     ffe:	3164                	c.fld	f9,224(x10)
    1000:	0100                	c.addi4spn	x8,x2,128
    1002:	03fc                	c.addi4spn	x15,x2,460
    1004:	960e                	c.add	x12,x3
    1006:	0000                	c.unimp
    1008:	1e00                	c.addi4spn	x8,x2,816
    100a:	306e                	c.fldsp	f0,248(x2)
    100c:	0100                	c.addi4spn	x8,x2,128
    100e:	03fc                	c.addi4spn	x15,x2,460
    1010:	9612                	c.add	x12,x4
    1012:	0000                	c.unimp
    1014:	1e00                	c.addi4spn	x8,x2,816
    1016:	316e                	c.fldsp	f2,248(x2)
    1018:	0100                	c.addi4spn	x8,x2,128
    101a:	03fc                	c.addi4spn	x15,x2,460
    101c:	9616                	c.add	x12,x5
    101e:	0000                	c.unimp
    1020:	1e00                	c.addi4spn	x8,x2,816
    1022:	326e                	c.fldsp	f4,248(x2)
    1024:	0100                	c.addi4spn	x8,x2,128
    1026:	03fc                	c.addi4spn	x15,x2,460
    1028:	961a                	c.add	x12,x6
    102a:	0000                	c.unimp
    102c:	1e00                	c.addi4spn	x8,x2,816
    102e:	3071                	c.jal	8ba <SYSCALL_ADDR-0x200746>
    1030:	0100                	c.addi4spn	x8,x2,128
    1032:	03fd                	c.addi	x7,31
    1034:	960a                	c.add	x12,x2
    1036:	0000                	c.unimp
    1038:	1e00                	c.addi4spn	x8,x2,816
    103a:	3171                	c.jal	cc6 <SYSCALL_ADDR-0x20033a>
    103c:	0100                	c.addi4spn	x8,x2,128
    103e:	03fd                	c.addi	x7,31
    1040:	960e                	c.add	x12,x3
    1042:	0000                	c.unimp
    1044:	1e00                	c.addi4spn	x8,x2,816
    1046:	0062                	c.slli	x0,0x18
    1048:	fe01                	c.bnez	x12,f60 <SYSCALL_ADDR-0x2000a0>
    104a:	00960a03          	lb	x20,9(x12) # 88e97 <SYSCALL_ADDR-0x178169>
    104e:	0000                	c.unimp
    1050:	621e                	c.flwsp	f4,196(x2)
    1052:	006d                	c.addi	x0,27
    1054:	fe01                	c.bnez	x12,f6c <SYSCALL_ADDR-0x200094>
    1056:	00960d03          	lb	x26,9(x12)
    105a:	0000                	c.unimp
    105c:	771e                	c.flwsp	f14,228(x2)
    105e:	c7010077          	0xc7010077
    1062:	1104                	c.addi4spn	x9,x2,160
    1064:	00000137          	lui	x2,0x0
    1068:	961f 0006 2000      	0x20000006961f
    106e:	0306                	c.slli	x6,0x1
    1070:	0000                	c.unimp
    1072:	2e01                	c.jal	1382 <SYSCALL_ADDR-0x1ffc7e>
    1074:	0404                	c.addi4spn	x9,x2,512
    1076:	0096                	c.slli	x1,0x5
    1078:	0000                	c.unimp
    107a:	5f1e                	c.lwsp	x30,228(x2)
    107c:	615f 0100 042e      	0x42e0100615f
    1082:	9604                	0x9604
    1084:	0000                	c.unimp
    1086:	0000                	c.unimp
    1088:	f71f 0006 2000      	0x20000006f71f
    108e:	02ba                	c.slli	x5,0xe
    1090:	0000                	c.unimp
    1092:	3a01                	c.jal	9a2 <SYSCALL_ADDR-0x20065e>
    1094:	0404                	c.addi4spn	x9,x2,512
    1096:	0096                	c.slli	x1,0x5
    1098:	0000                	c.unimp
    109a:	3420                	c.fld	f8,104(x8)
    109c:	0001                	c.addi	x0,0
    109e:	0100                	c.addi4spn	x8,x2,128
    10a0:	043a                	c.slli	x8,0xe
    10a2:	9604                	0x9604
    10a4:	0000                	c.unimp
    10a6:	2000                	c.fld	f8,0(x8)
    10a8:	02b5                	c.addi	x5,13
    10aa:	0000                	c.unimp
    10ac:	3a01                	c.jal	9bc <SYSCALL_ADDR-0x200644>
    10ae:	0404                	c.addi4spn	x9,x2,512
    10b0:	0096                	c.slli	x1,0x5
    10b2:	0000                	c.unimp
    10b4:	b020                	c.fsd	f8,96(x8)
    10b6:	0002                	c.slli64	x0
    10b8:	0100                	c.addi4spn	x8,x2,128
    10ba:	043a                	c.slli	x8,0xe
    10bc:	9604                	0x9604
    10be:	0000                	c.unimp
    10c0:	2000                	c.fld	f8,0(x8)
    10c2:	0310                	c.addi4spn	x12,x2,384
    10c4:	0000                	c.unimp
    10c6:	3a01                	c.jal	9d6 <SYSCALL_ADDR-0x20062a>
    10c8:	0404                	c.addi4spn	x9,x2,512
    10ca:	0096                	c.slli	x1,0x5
    10cc:	0000                	c.unimp
    10ce:	0b20                	c.addi4spn	x8,x2,408
    10d0:	01000003          	lb	x0,16(x0) # 10 <SYSCALL_ADDR-0x200ff0>
    10d4:	043a                	c.slli	x8,0xe
    10d6:	9604                	0x9604
    10d8:	0000                	c.unimp
    10da:	1e00                	c.addi4spn	x8,x2,816
    10dc:	5f5f 006d 3a01      	0x3a01006d5f5f
    10e2:	0404                	c.addi4spn	x9,x2,512
    10e4:	0096                	c.slli	x1,0x5
    10e6:	0000                	c.unimp
    10e8:	1f00                	c.addi4spn	x8,x2,944
    10ea:	00000717          	auipc	x14,0x0
    10ee:	0620                	c.addi4spn	x8,x2,776
    10f0:	01000003          	lb	x0,16(x0) # 10 <SYSCALL_ADDR-0x200ff0>
    10f4:	0446                	c.slli	x8,0x11
    10f6:	9604                	0x9604
    10f8:	0000                	c.unimp
    10fa:	1e00                	c.addi4spn	x8,x2,816
    10fc:	5f5f 0061 4601      	0x460100615f5f
    1102:	0404                	c.addi4spn	x9,x2,512
    1104:	0096                	c.slli	x1,0x5
    1106:	0000                	c.unimp
    1108:	1f00                	c.addi4spn	x8,x2,944
    110a:	0778                	c.addi4spn	x14,x2,908
    110c:	0000                	c.unimp
    110e:	ba20                	c.fsd	f8,112(x12)
    1110:	0002                	c.slli64	x0
    1112:	0100                	c.addi4spn	x8,x2,128
    1114:	045f 9608 0000      	0x9608045f
    111a:	2000                	c.fld	f8,0(x8)
    111c:	0134                	c.addi4spn	x13,x2,136
    111e:	0000                	c.unimp
    1120:	5f01                	c.li	x30,-32
    1122:	0804                	c.addi4spn	x9,x2,16
    1124:	0096                	c.slli	x1,0x5
    1126:	0000                	c.unimp
    1128:	b520                	c.fsd	f8,104(x10)
    112a:	0002                	c.slli64	x0
    112c:	0100                	c.addi4spn	x8,x2,128
    112e:	045f 9608 0000      	0x9608045f
    1134:	2000                	c.fld	f8,0(x8)
    1136:	02b0                	c.addi4spn	x12,x2,328
    1138:	0000                	c.unimp
    113a:	5f01                	c.li	x30,-32
    113c:	0804                	c.addi4spn	x9,x2,16
    113e:	0096                	c.slli	x1,0x5
    1140:	0000                	c.unimp
    1142:	1020                	c.addi4spn	x8,x2,40
    1144:	01000003          	lb	x0,16(x0) # 10 <SYSCALL_ADDR-0x200ff0>
    1148:	045f 9608 0000      	0x9608045f
    114e:	2000                	c.fld	f8,0(x8)
    1150:	0000030b          	0x30b
    1154:	5f01                	c.li	x30,-32
    1156:	0804                	c.addi4spn	x9,x2,16
    1158:	0096                	c.slli	x1,0x5
    115a:	0000                	c.unimp
    115c:	5f1e                	c.lwsp	x30,228(x2)
    115e:	6d5f 0100 045f      	0x45f01006d5f
    1164:	9608                	0x9608
    1166:	0000                	c.unimp
    1168:	0000                	c.unimp
    116a:	d91f 0007 2000      	0x20000007d91f
    1170:	02ba                	c.slli	x5,0xe
    1172:	0000                	c.unimp
    1174:	6401                	0x6401
    1176:	0404                	c.addi4spn	x9,x2,512
    1178:	0096                	c.slli	x1,0x5
    117a:	0000                	c.unimp
    117c:	3420                	c.fld	f8,104(x8)
    117e:	0001                	c.addi	x0,0
    1180:	0100                	c.addi4spn	x8,x2,128
    1182:	0464                	c.addi4spn	x9,x2,524
    1184:	9604                	0x9604
    1186:	0000                	c.unimp
    1188:	2000                	c.fld	f8,0(x8)
    118a:	02b5                	c.addi	x5,13
    118c:	0000                	c.unimp
    118e:	6401                	0x6401
    1190:	0404                	c.addi4spn	x9,x2,512
    1192:	0096                	c.slli	x1,0x5
    1194:	0000                	c.unimp
    1196:	b020                	c.fsd	f8,96(x8)
    1198:	0002                	c.slli64	x0
    119a:	0100                	c.addi4spn	x8,x2,128
    119c:	0464                	c.addi4spn	x9,x2,524
    119e:	9604                	0x9604
    11a0:	0000                	c.unimp
    11a2:	2000                	c.fld	f8,0(x8)
    11a4:	0310                	c.addi4spn	x12,x2,384
    11a6:	0000                	c.unimp
    11a8:	6401                	0x6401
    11aa:	0404                	c.addi4spn	x9,x2,512
    11ac:	0096                	c.slli	x1,0x5
    11ae:	0000                	c.unimp
    11b0:	0b20                	c.addi4spn	x8,x2,408
    11b2:	01000003          	lb	x0,16(x0) # 10 <SYSCALL_ADDR-0x200ff0>
    11b6:	0464                	c.addi4spn	x9,x2,524
    11b8:	9604                	0x9604
    11ba:	0000                	c.unimp
    11bc:	1e00                	c.addi4spn	x8,x2,816
    11be:	5f5f 006d 6401      	0x6401006d5f5f
    11c4:	0404                	c.addi4spn	x9,x2,512
    11c6:	0096                	c.slli	x1,0x5
    11c8:	0000                	c.unimp
    11ca:	1f00                	c.addi4spn	x8,x2,944
    11cc:	07f9                	c.addi	x15,30
    11ce:	0000                	c.unimp
    11d0:	0620                	c.addi4spn	x8,x2,776
    11d2:	01000003          	lb	x0,16(x0) # 10 <SYSCALL_ADDR-0x200ff0>
    11d6:	96040487          	0x96040487
    11da:	0000                	c.unimp
    11dc:	1e00                	c.addi4spn	x8,x2,816
    11de:	5f5f 0061 8701      	0x870100615f5f
    11e4:	0404                	c.addi4spn	x9,x2,512
    11e6:	0096                	c.slli	x1,0x5
    11e8:	0000                	c.unimp
    11ea:	1f00                	c.addi4spn	x8,x2,944
    11ec:	080c                	c.addi4spn	x11,x2,16
    11ee:	0000                	c.unimp
    11f0:	5f1e                	c.lwsp	x30,228(x2)
    11f2:	785f 0100 0495      	0x4950100785f
    11f8:	9605                	c.srai	x12,0x21
    11fa:	0000                	c.unimp
    11fc:	0000                	c.unimp
    11fe:	1e21                	c.addi	x28,-24
    1200:	316d                	c.jal	eaa <SYSCALL_ADDR-0x200156>
    1202:	0100                	c.addi4spn	x8,x2,128
    1204:	04a5                	c.addi	x9,9
    1206:	0000960f          	0x960f
    120a:	1e00                	c.addi4spn	x8,x2,816
    120c:	306d                	c.jal	ab6 <SYSCALL_ADDR-0x20054a>
    120e:	0100                	c.addi4spn	x8,x2,128
    1210:	04a5                	c.addi	x9,9
    1212:	00009613          	slli	x12,x1,0x0
    1216:	1f00                	c.addi4spn	x8,x2,944
    1218:	0886                	c.slli	x17,0x1
    121a:	0000                	c.unimp
    121c:	ba20                	c.fsd	f8,112(x12)
    121e:	0002                	c.slli64	x0
    1220:	0100                	c.addi4spn	x8,x2,128
    1222:	04b0                	c.addi4spn	x12,x2,584
    1224:	9608                	0x9608
    1226:	0000                	c.unimp
    1228:	2000                	c.fld	f8,0(x8)
    122a:	0134                	c.addi4spn	x13,x2,136
    122c:	0000                	c.unimp
    122e:	b001                	c.j	a2e <SYSCALL_ADDR-0x2005d2>
    1230:	0804                	c.addi4spn	x9,x2,16
    1232:	0096                	c.slli	x1,0x5
    1234:	0000                	c.unimp
    1236:	b520                	c.fsd	f8,104(x10)
    1238:	0002                	c.slli64	x0
    123a:	0100                	c.addi4spn	x8,x2,128
    123c:	04b0                	c.addi4spn	x12,x2,584
    123e:	9608                	0x9608
    1240:	0000                	c.unimp
    1242:	2000                	c.fld	f8,0(x8)
    1244:	02b0                	c.addi4spn	x12,x2,328
    1246:	0000                	c.unimp
    1248:	b001                	c.j	a48 <SYSCALL_ADDR-0x2005b8>
    124a:	0804                	c.addi4spn	x9,x2,16
    124c:	0096                	c.slli	x1,0x5
    124e:	0000                	c.unimp
    1250:	1020                	c.addi4spn	x8,x2,40
    1252:	01000003          	lb	x0,16(x0) # 10 <SYSCALL_ADDR-0x200ff0>
    1256:	04b0                	c.addi4spn	x12,x2,584
    1258:	9608                	0x9608
    125a:	0000                	c.unimp
    125c:	2000                	c.fld	f8,0(x8)
    125e:	0000030b          	0x30b
    1262:	b001                	c.j	a62 <SYSCALL_ADDR-0x20059e>
    1264:	0804                	c.addi4spn	x9,x2,16
    1266:	0096                	c.slli	x1,0x5
    1268:	0000                	c.unimp
    126a:	5f1e                	c.lwsp	x30,228(x2)
    126c:	6d5f 0100 04b0      	0x4b001006d5f
    1272:	9608                	0x9608
    1274:	0000                	c.unimp
    1276:	0000                	c.unimp
    1278:	701f 0009 2000      	0x20000009701f
    127e:	0270                	c.addi4spn	x12,x2,268
    1280:	0000                	c.unimp
    1282:	b101                	c.j	e82 <SYSCALL_ADDR-0x20017e>
    1284:	0804                	c.addi4spn	x9,x2,16
    1286:	0096                	c.slli	x1,0x5
    1288:	0000                	c.unimp
    128a:	7520                	c.flw	f8,104(x10)
    128c:	0002                	c.slli64	x0
    128e:	0100                	c.addi4spn	x8,x2,128
    1290:	04b1                	c.addi	x9,12
    1292:	9608                	0x9608
    1294:	0000                	c.unimp
    1296:	2000                	c.fld	f8,0(x8)
    1298:	027a                	c.slli	x4,0x1e
    129a:	0000                	c.unimp
    129c:	b101                	c.j	e9c <SYSCALL_ADDR-0x200164>
    129e:	0804                	c.addi4spn	x9,x2,16
    12a0:	0096                	c.slli	x1,0x5
    12a2:	0000                	c.unimp
    12a4:	7f20                	c.flw	f8,120(x14)
    12a6:	0002                	c.slli64	x0
    12a8:	0100                	c.addi4spn	x8,x2,128
    12aa:	04b1                	c.addi	x9,12
    12ac:	9608                	0x9608
    12ae:	0000                	c.unimp
    12b0:	2000                	c.fld	f8,0(x8)
    12b2:	031a                	c.slli	x6,0x6
    12b4:	0000                	c.unimp
    12b6:	b101                	c.j	eb6 <SYSCALL_ADDR-0x20014a>
    12b8:	0804                	c.addi4spn	x9,x2,16
    12ba:	0096                	c.slli	x1,0x5
    12bc:	0000                	c.unimp
    12be:	d820                	c.sw	x8,112(x8)
    12c0:	0002                	c.slli64	x0
    12c2:	0100                	c.addi4spn	x8,x2,128
    12c4:	04b1                	c.addi	x9,12
    12c6:	9608                	0x9608
    12c8:	0000                	c.unimp
    12ca:	2000                	c.fld	f8,0(x8)
    12cc:	0315                	c.addi	x6,5
    12ce:	0000                	c.unimp
    12d0:	b101                	c.j	ed0 <SYSCALL_ADDR-0x200130>
    12d2:	0804                	c.addi4spn	x9,x2,16
    12d4:	0096                	c.slli	x1,0x5
    12d6:	0000                	c.unimp
    12d8:	1320                	c.addi4spn	x8,x2,424
    12da:	0002                	c.slli64	x0
    12dc:	0100                	c.addi4spn	x8,x2,128
    12de:	04b1                	c.addi	x9,12
    12e0:	9608                	0x9608
    12e2:	0000                	c.unimp
    12e4:	1f00                	c.addi4spn	x8,x2,944
    12e6:	00000913          	addi	x18,x0,0
    12ea:	1820                	c.addi4spn	x8,x2,56
    12ec:	0002                	c.slli64	x0
    12ee:	0100                	c.addi4spn	x8,x2,128
    12f0:	04b1                	c.addi	x9,12
    12f2:	9608                	0x9608
    12f4:	0000                	c.unimp
    12f6:	2000                	c.fld	f8,0(x8)
    12f8:	021e                	c.slli	x4,0x7
    12fa:	0000                	c.unimp
    12fc:	b101                	c.j	efc <SYSCALL_ADDR-0x200104>
    12fe:	0804                	c.addi4spn	x9,x2,16
    1300:	0096                	c.slli	x1,0x5
    1302:	0000                	c.unimp
    1304:	1f00                	c.addi4spn	x8,x2,944
    1306:	00000933          	add	x18,x0,x0
    130a:	1820                	c.addi4spn	x8,x2,56
    130c:	0002                	c.slli64	x0
    130e:	0100                	c.addi4spn	x8,x2,128
    1310:	04b1                	c.addi	x9,12
    1312:	9608                	0x9608
    1314:	0000                	c.unimp
    1316:	2000                	c.fld	f8,0(x8)
    1318:	021e                	c.slli	x4,0x7
    131a:	0000                	c.unimp
    131c:	b101                	c.j	f1c <SYSCALL_ADDR-0x2000e4>
    131e:	0804                	c.addi4spn	x9,x2,16
    1320:	0096                	c.slli	x1,0x5
    1322:	0000                	c.unimp
    1324:	1f00                	c.addi4spn	x8,x2,944
    1326:	00000953          	fadd.s	f18,f0,f0,rne
    132a:	1820                	c.addi4spn	x8,x2,56
    132c:	0002                	c.slli64	x0
    132e:	0100                	c.addi4spn	x8,x2,128
    1330:	04b1                	c.addi	x9,12
    1332:	9608                	0x9608
    1334:	0000                	c.unimp
    1336:	2000                	c.fld	f8,0(x8)
    1338:	021e                	c.slli	x4,0x7
    133a:	0000                	c.unimp
    133c:	b101                	c.j	f3c <SYSCALL_ADDR-0x2000c4>
    133e:	0804                	c.addi4spn	x9,x2,16
    1340:	0096                	c.slli	x1,0x5
    1342:	0000                	c.unimp
    1344:	2100                	c.fld	f8,0(x10)
    1346:	1820                	c.addi4spn	x8,x2,56
    1348:	0002                	c.slli64	x0
    134a:	0100                	c.addi4spn	x8,x2,128
    134c:	04b1                	c.addi	x9,12
    134e:	9608                	0x9608
    1350:	0000                	c.unimp
    1352:	2000                	c.fld	f8,0(x8)
    1354:	021e                	c.slli	x4,0x7
    1356:	0000                	c.unimp
    1358:	b101                	c.j	f58 <SYSCALL_ADDR-0x2000a8>
    135a:	0804                	c.addi4spn	x9,x2,16
    135c:	0096                	c.slli	x1,0x5
    135e:	0000                	c.unimp
    1360:	0000                	c.unimp
    1362:	831f 0009 1e00      	0x1e000009831f
    1368:	5f5f 0078 b601      	0xb60100785f5f
    136e:	0504                	c.addi4spn	x9,x2,640
    1370:	0096                	c.slli	x1,0x5
    1372:	0000                	c.unimp
    1374:	2100                	c.fld	f8,0(x10)
    1376:	5f1e                	c.lwsp	x30,228(x2)
    1378:	785f 0100 04be      	0x4be0100785f
    137e:	9605                	c.srai	x12,0x21
    1380:	0000                	c.unimp
    1382:	0000                	c.unimp
    1384:	0000                	c.unimp
    1386:	0422                	c.slli	x8,0x8
    1388:	00ae                	c.slli	x1,0xb
    138a:	0000                	c.unimp
    138c:	0002bf23          	0x2bf23
    1390:	bf00                	c.fsd	f8,56(x14)
    1392:	0002                	c.slli64	x0
    1394:	2300                	c.fld	f8,0(x14)
    1396:	0224                	c.addi4spn	x9,x2,264
    1398:	0000                	c.unimp
    139a:	0224                	c.addi4spn	x9,x2,264
    139c:	0000                	c.unimp
    139e:	0000ff23          	0xff23
    13a2:	ff00                	c.fsw	f8,56(x14)
    13a4:	0000                	c.unimp
    13a6:	0000                	c.unimp
    13a8:	000000d3          	fadd.s	f1,f0,f0,rne
    13ac:	0004                	0x4
    13ae:	000003b7          	lui	x7,0x0
    13b2:	0104                	c.addi4spn	x9,x2,128
    13b4:	0329                	c.addi	x6,10
    13b6:	0000                	c.unimp
    13b8:	080c                	c.addi4spn	x11,x2,16
    13ba:	0001                	c.addi	x0,0
    13bc:	3800                	c.fld	f8,48(x8)
    13be:	0000                	c.unimp
    13c0:	6000                	c.flw	f8,0(x8)
    13c2:	0011                	c.addi	x0,4
    13c4:	0200                	c.addi4spn	x8,x2,256
    13c6:	0504                	c.addi4spn	x9,x2,640
    13c8:	6e69                	c.lui	x28,0x1a
    13ca:	0074                	c.addi4spn	x13,x2,12
    13cc:	46070403          	lb	x8,1120(x14) # 154a <SYSCALL_ADDR-0x1ffab6>
    13d0:	0002                	c.slli64	x0
    13d2:	0300                	c.addi4spn	x8,x2,384
    13d4:	0508                	c.addi4spn	x10,x2,640
    13d6:	022e                	c.slli	x4,0xb
    13d8:	0000                	c.unimp
    13da:	f2041003          	lh	x0,-224(x8) # 6f20 <SYSCALL_ADDR-0x1fa0e0>
    13de:	0002                	c.slli64	x0
    13e0:	0300                	c.addi4spn	x8,x2,384
    13e2:	0601                	c.addi	x12,0
    13e4:	0264                	c.addi4spn	x9,x2,268
    13e6:	0000                	c.unimp
    13e8:	62080103          	lb	x2,1568(x16) # 620 <SYSCALL_ADDR-0x2009e0>
    13ec:	0002                	c.slli64	x0
    13ee:	0300                	c.addi4spn	x8,x2,384
    13f0:	0502                	c.slli64	x10
    13f2:	0139                	c.addi	x2,14
    13f4:	0000                	c.unimp
    13f6:	95070203          	lb	x4,-1712(x14)
    13fa:	0002                	c.slli64	x0
    13fc:	0300                	c.addi4spn	x8,x2,384
    13fe:	0504                	c.addi4spn	x9,x2,640
    1400:	00000233          	add	x4,x0,x0
    1404:	41070403          	lb	x8,1040(x14)
    1408:	0002                	c.slli64	x0
    140a:	0300                	c.addi4spn	x8,x2,384
    140c:	0708                	c.addi4spn	x10,x2,896
    140e:	023c                	c.addi4spn	x15,x2,264
    1410:	0000                	c.unimp
    1412:	6b080103          	lb	x2,1712(x16)
    1416:	0002                	c.slli64	x0
    1418:	0400                	c.addi4spn	x8,x2,512
    141a:	0284                	c.addi4spn	x9,x2,320
    141c:	0000                	c.unimp
    141e:	7b01                	c.lui	x22,0xfffe0
    1420:	4016                	0x4016
    1422:	0000                	c.unimp
    1424:	0500                	c.addi4spn	x8,x2,640
    1426:	0071                	c.addi	x0,28
    1428:	0000                	c.unimp
    142a:	f9040403          	lb	x8,-112(x8)
    142e:	0000                	c.unimp
    1430:	0300                	c.addi4spn	x8,x2,384
    1432:	0308                	c.addi4spn	x10,x2,384
    1434:	00f1                	c.addi	x1,28
    1436:	0000                	c.unimp
    1438:	f7040803          	lb	x16,-144(x8)
    143c:	0002                	c.slli64	x0
    143e:	0300                	c.addi4spn	x8,x2,384
    1440:	0310                	c.addi4spn	x12,x2,384
    1442:	02c9                	c.addi	x5,18
    1444:	0000                	c.unimp
    1446:	ea032003          	lw	x0,-352(x6)
    144a:	0002                	c.slli64	x0
    144c:	0600                	c.addi4spn	x8,x2,768
    144e:	007d                	c.addi	x0,31
    1450:	0000                	c.unimp
    1452:	00b5                	c.addi	x1,13
    1454:	0000                	c.unimp
    1456:	00002407          	flw	f8,0(x0) # 0 <SYSCALL_ADDR-0x201000>
    145a:	ff00                	c.fsw	f8,56(x14)
    145c:	0500                	c.addi4spn	x8,x2,640
    145e:	00a5                	c.addi	x1,9
    1460:	0000                	c.unimp
    1462:	5808                	c.lw	x10,48(x8)
    1464:	0002                	c.slli64	x0
    1466:	0100                	c.addi4spn	x8,x2,128
    1468:	0202                	c.slli64	x4
    146a:	b516                	c.fsdsp	f5,168(x2)
    146c:	0000                	c.unimp
    146e:	0900                	c.addi4spn	x8,x2,144
    1470:	00ba                	c.slli	x1,0xe
    1472:	0000                	c.unimp
    1474:	b202                	c.fsdsp	f0,288(x2)
    1476:	0f02                	c.slli64	x30
    1478:	0305                	c.addi	x6,1
    147a:	8030                	0x8030
    147c:	8000                	0x8000
	...

Disassembly of section .debug_abbrev:

00000000 <.debug_abbrev>:
   0:	1101                	c.addi	x2,-32
   2:	1000                	c.addi4spn	x8,x2,32
   4:	1106                	c.slli	x2,0x21
   6:	1201                	c.addi	x4,-32
   8:	0301                	c.addi	x6,0
   a:	1b0e                	c.slli	x22,0x23
   c:	250e                	c.fldsp	f10,192(x2)
   e:	130e                	c.slli	x6,0x23
  10:	0005                	c.addi	x0,1
  12:	0000                	c.unimp
  14:	1101                	c.addi	x2,-32
  16:	1000                	c.addi4spn	x8,x2,32
  18:	1106                	c.slli	x2,0x21
  1a:	1201                	c.addi	x4,-32
  1c:	0301                	c.addi	x6,0
  1e:	1b0e                	c.slli	x22,0x23
  20:	250e                	c.fldsp	f10,192(x2)
  22:	130e                	c.slli	x6,0x23
  24:	0005                	c.addi	x0,1
  26:	0000                	c.unimp
  28:	1101                	c.addi	x2,-32
  2a:	2501                	c.jal	62a <SYSCALL_ADDR-0x2009d6>
  2c:	130e                	c.slli	x6,0x23
  2e:	1b0e030b          	0x1b0e030b
  32:	110e                	c.slli	x2,0x23
  34:	1201                	c.addi	x4,-32
  36:	1006                	c.slli	x0,0x21
  38:	02000017          	auipc	x0,0x2000
  3c:	0024                	c.addi4spn	x9,x2,8
  3e:	0b3e0b0b          	0xb3e0b0b
  42:	00000e03          	lb	x28,0(x0) # 0 <SYSCALL_ADDR-0x201000>
  46:	0b002403          	lw	x8,176(x0) # b0 <SYSCALL_ADDR-0x200f50>
  4a:	030b3e0b          	0x30b3e0b
  4e:	0008                	0x8
  50:	0400                	c.addi4spn	x8,x2,512
  52:	0016                	c.slli	x0,0x5
  54:	0b3a0e03          	lb	x28,179(x20)
  58:	0b390b3b          	0xb390b3b
  5c:	1349                	c.addi	x6,-14
  5e:	0000                	c.unimp
  60:	2605                	c.jal	380 <SYSCALL_ADDR-0x200c80>
  62:	4900                	c.lw	x8,16(x10)
  64:	06000013          	addi	x0,x0,96
  68:	0e030113          	addi	x2,x6,224
  6c:	0b3a0b0b          	0xb3a0b0b
  70:	0b39053b          	0xb39053b
  74:	1301                	c.addi	x6,-32
  76:	0000                	c.unimp
  78:	03000d07          	0x3000d07
  7c:	3a08                	c.fld	f10,48(x12)
  7e:	39053b0b          	0x39053b0b
  82:	3813490b          	0x3813490b
  86:	0800000b          	0x800000b
  8a:	000d                	c.addi	x0,3
  8c:	0b3a0e03          	lb	x28,179(x20)
  90:	0b39053b          	0xb39053b
  94:	1349                	c.addi	x6,-14
  96:	0b38                	c.addi4spn	x14,x2,408
  98:	0000                	c.unimp
  9a:	1709                	c.addi	x14,-30
  9c:	0b01                	c.addi	x22,0
  9e:	3b0b3a0b          	0x3b0b3a0b
  a2:	3905                	c.jal	fffffcd2 <_end+0x7fff54c2>
  a4:	0013010b          	0x13010b
  a8:	0a00                	c.addi4spn	x8,x2,272
  aa:	000d                	c.addi	x0,3
  ac:	0b3a0803          	lb	x16,179(x20)
  b0:	0b39053b          	0xb39053b
  b4:	1349                	c.addi	x6,-14
  b6:	0000                	c.unimp
  b8:	0300160b          	0x300160b
  bc:	3a0e                	c.fldsp	f20,224(x2)
  be:	39053b0b          	0x39053b0b
  c2:	0013490b          	0x13490b
  c6:	0c00                	c.addi4spn	x8,x2,528
  c8:	0101                	c.addi	x2,0
  ca:	1349                	c.addi	x6,-14
  cc:	1301                	c.addi	x6,-32
  ce:	0000                	c.unimp
  d0:	210d                	c.jal	4f2 <SYSCALL_ADDR-0x200b0e>
  d2:	4900                	c.lw	x8,16(x10)
  d4:	000b2f13          	slti	x30,x22,0
  d8:	0e00                	c.addi4spn	x8,x2,784
  da:	0034                	c.addi4spn	x13,x2,8
  dc:	0b3a0e03          	lb	x28,179(x20)
  e0:	0b39053b          	0xb39053b
  e4:	1349                	c.addi	x6,-14
  e6:	193c193f 2e0f0000 	0x2e0f0000193c193f
  ee:	3f01                	c.jal	fffffffe <_end+0x7fff57ee>
  f0:	0319                	c.addi	x6,6
  f2:	3a0e                	c.fldsp	f20,224(x2)
  f4:	39053b0b          	0x39053b0b
  f8:	4919270b          	0x4919270b
  fc:	12011113          	0x12011113
 100:	4006                	0x4006
 102:	9718                	0x9718
 104:	1942                	c.slli	x18,0x30
 106:	1301                	c.addi	x6,-32
 108:	0000                	c.unimp
 10a:	0510                	c.addi4spn	x12,x2,640
 10c:	0300                	c.addi4spn	x8,x2,384
 10e:	3a08                	c.fld	f10,48(x12)
 110:	39053b0b          	0x39053b0b
 114:	0213490b          	0x213490b
 118:	11000017          	auipc	x0,0x11000
 11c:	011d                	c.addi	x2,7
 11e:	1331                	c.addi	x6,-20
 120:	0152                	c.slli	x2,0x14
 122:	1755                	c.addi	x14,-11
 124:	0b58                	c.addi4spn	x14,x2,404
 126:	0559                	c.addi	x10,22
 128:	00000b57          	0xb57
 12c:	0512                	c.slli	x10,0x4
 12e:	3100                	c.fld	f8,32(x10)
 130:	00170213          	addi	x4,x14,1
 134:	1300                	c.addi4spn	x8,x2,416
 136:	1755010b          	0x1755010b
 13a:	0000                	c.unimp
 13c:	3414                	c.fld	f13,40(x8)
 13e:	3100                	c.fld	f8,32(x10)
 140:	15000013          	addi	x0,x0,336
 144:	0034                	c.addi4spn	x13,x2,8
 146:	1331                	c.addi	x6,-20
 148:	1702                	c.slli	x14,0x20
 14a:	0000                	c.unimp
 14c:	0b16                	c.slli	x22,0x5
 14e:	3101                	c.jal	fffffd4e <_end+0x7fff553e>
 150:	01175513          	srli	x10,x14,0x11
 154:	17000013          	addi	x0,x0,368
 158:	1331010b          	0x1331010b
 15c:	0111                	c.addi	x2,4
 15e:	0612                	c.slli	x12,0x4
 160:	1301                	c.addi	x6,-32
 162:	0000                	c.unimp
 164:	8918                	0x8918
 166:	0182                	c.slli64	x3
 168:	1100                	c.addi4spn	x8,x2,160
 16a:	3101                	c.jal	fffffd6a <_end+0x7fff555a>
 16c:	19000013          	addi	x0,x0,400
 170:	1331010b          	0x1331010b
 174:	1755                	c.addi	x14,-11
 176:	0000                	c.unimp
 178:	341a                	c.fldsp	f8,416(x2)
 17a:	3100                	c.fld	f8,32(x10)
 17c:	00180213          	addi	x4,x16,1
 180:	1b00                	c.addi4spn	x8,x2,432
 182:	012e                	c.slli	x2,0xb
 184:	0b3a0e03          	lb	x28,179(x20)
 188:	0b39053b          	0xb39053b
 18c:	13491927          	0x13491927
 190:	0b20                	c.addi4spn	x8,x2,408
 192:	1301                	c.addi	x6,-32
 194:	0000                	c.unimp
 196:	051c                	c.addi4spn	x15,x2,640
 198:	0300                	c.addi4spn	x8,x2,384
 19a:	3a08                	c.fld	f10,48(x12)
 19c:	39053b0b          	0x39053b0b
 1a0:	0013490b          	0x13490b
 1a4:	1d00                	c.addi4spn	x8,x2,688
 1a6:	0034                	c.addi4spn	x13,x2,8
 1a8:	0b3a0803          	lb	x16,179(x20)
 1ac:	0b39053b          	0xb39053b
 1b0:	1349                	c.addi	x6,-14
 1b2:	0000                	c.unimp
 1b4:	0b1e                	c.slli	x22,0x7
 1b6:	0101                	c.addi	x2,0
 1b8:	1f000013          	addi	x0,x0,496
 1bc:	0034                	c.addi4spn	x13,x2,8
 1be:	0b3a0e03          	lb	x28,179(x20)
 1c2:	0b39053b          	0xb39053b
 1c6:	1349                	c.addi	x6,-14
 1c8:	0000                	c.unimp
 1ca:	0b20                	c.addi4spn	x8,x2,408
 1cc:	0001                	c.addi	x0,0
 1ce:	2100                	c.fld	f8,0(x10)
 1d0:	0b0b000f          	0xb0b000f
 1d4:	1349                	c.addi	x6,-14
 1d6:	0000                	c.unimp
 1d8:	2e22                	c.fldsp	f28,8(x2)
 1da:	3f00                	c.fld	f8,56(x14)
 1dc:	3c19                	c.jal	fffffbf2 <_end+0x7fff53e2>
 1de:	6e19                	c.lui	x28,0x6
 1e0:	030e                	c.slli	x6,0x3
 1e2:	000e                	c.slli	x0,0x3
 1e4:	0000                	c.unimp
 1e6:	1101                	c.addi	x2,-32
 1e8:	2501                	c.jal	7e8 <SYSCALL_ADDR-0x200818>
 1ea:	130e                	c.slli	x6,0x23
 1ec:	1b0e030b          	0x1b0e030b
 1f0:	110e                	c.slli	x2,0x23
 1f2:	1201                	c.addi	x4,-32
 1f4:	1006                	c.slli	x0,0x21
 1f6:	02000017          	auipc	x0,0x2000
 1fa:	0024                	c.addi4spn	x9,x2,8
 1fc:	0b3e0b0b          	0xb3e0b0b
 200:	00000e03          	lb	x28,0(x0) # 0 <SYSCALL_ADDR-0x201000>
 204:	0b002403          	lw	x8,176(x0) # b0 <SYSCALL_ADDR-0x200f50>
 208:	030b3e0b          	0x30b3e0b
 20c:	0008                	0x8
 20e:	0400                	c.addi4spn	x8,x2,512
 210:	0016                	c.slli	x0,0x5
 212:	0b3a0e03          	lb	x28,179(x20)
 216:	0b390b3b          	0xb390b3b
 21a:	1349                	c.addi	x6,-14
 21c:	0000                	c.unimp
 21e:	2605                	c.jal	53e <SYSCALL_ADDR-0x200ac2>
 220:	4900                	c.lw	x8,16(x10)
 222:	06000013          	addi	x0,x0,96
 226:	0e030113          	addi	x2,x6,224
 22a:	0b3a0b0b          	0xb3a0b0b
 22e:	0b39053b          	0xb39053b
 232:	1301                	c.addi	x6,-32
 234:	0000                	c.unimp
 236:	03000d07          	0x3000d07
 23a:	3a08                	c.fld	f10,48(x12)
 23c:	39053b0b          	0x39053b0b
 240:	3813490b          	0x3813490b
 244:	0800000b          	0x800000b
 248:	000d                	c.addi	x0,3
 24a:	0b3a0e03          	lb	x28,179(x20)
 24e:	0b39053b          	0xb39053b
 252:	1349                	c.addi	x6,-14
 254:	0b38                	c.addi4spn	x14,x2,408
 256:	0000                	c.unimp
 258:	1709                	c.addi	x14,-30
 25a:	0b01                	c.addi	x22,0
 25c:	3b0b3a0b          	0x3b0b3a0b
 260:	3905                	c.jal	fffffe90 <_end+0x7fff5680>
 262:	0013010b          	0x13010b
 266:	0a00                	c.addi4spn	x8,x2,272
 268:	000d                	c.addi	x0,3
 26a:	0b3a0803          	lb	x16,179(x20)
 26e:	0b39053b          	0xb39053b
 272:	1349                	c.addi	x6,-14
 274:	0000                	c.unimp
 276:	0300160b          	0x300160b
 27a:	3a0e                	c.fldsp	f20,224(x2)
 27c:	39053b0b          	0x39053b0b
 280:	0013490b          	0x13490b
 284:	0c00                	c.addi4spn	x8,x2,528
 286:	0101                	c.addi	x2,0
 288:	1349                	c.addi	x6,-14
 28a:	1301                	c.addi	x6,-32
 28c:	0000                	c.unimp
 28e:	210d                	c.jal	6b0 <SYSCALL_ADDR-0x200950>
 290:	4900                	c.lw	x8,16(x10)
 292:	000b2f13          	slti	x30,x22,0
 296:	0e00                	c.addi4spn	x8,x2,784
 298:	0034                	c.addi4spn	x13,x2,8
 29a:	0b3a0e03          	lb	x28,179(x20)
 29e:	0b39053b          	0xb39053b
 2a2:	1349                	c.addi	x6,-14
 2a4:	193c193f 2e0f0000 	0x2e0f0000193c193f
 2ac:	3f01                	c.jal	1bc <SYSCALL_ADDR-0x200e44>
 2ae:	0319                	c.addi	x6,6
 2b0:	3a0e                	c.fldsp	f20,224(x2)
 2b2:	39053b0b          	0x39053b0b
 2b6:	4919270b          	0x4919270b
 2ba:	12011113          	0x12011113
 2be:	4006                	0x4006
 2c0:	9718                	0x9718
 2c2:	1942                	c.slli	x18,0x30
 2c4:	1301                	c.addi	x6,-32
 2c6:	0000                	c.unimp
 2c8:	0510                	c.addi4spn	x12,x2,640
 2ca:	0300                	c.addi4spn	x8,x2,384
 2cc:	3a08                	c.fld	f10,48(x12)
 2ce:	39053b0b          	0x39053b0b
 2d2:	0213490b          	0x213490b
 2d6:	11000017          	auipc	x0,0x11000
 2da:	0034                	c.addi4spn	x13,x2,8
 2dc:	0b3a0803          	lb	x16,179(x20)
 2e0:	0b39053b          	0xb39053b
 2e4:	1349                	c.addi	x6,-14
 2e6:	1702                	c.slli	x14,0x20
 2e8:	0000                	c.unimp
 2ea:	1d12                	c.slli	x26,0x24
 2ec:	3101                	c.jal	fffffeec <_end+0x7fff56dc>
 2ee:	55015213          	0x55015213
 2f2:	590b5817          	auipc	x16,0x590b5
 2f6:	5705                	c.li	x14,-31
 2f8:	1300000b          	0x1300000b
 2fc:	0005                	c.addi	x0,1
 2fe:	1331                	c.addi	x6,-20
 300:	1702                	c.slli	x14,0x20
 302:	0000                	c.unimp
 304:	0b14                	c.addi4spn	x13,x2,400
 306:	5501                	c.li	x10,-32
 308:	15000017          	auipc	x0,0x15000
 30c:	0034                	c.addi4spn	x13,x2,8
 30e:	1331                	c.addi	x6,-20
 310:	0000                	c.unimp
 312:	3416                	c.fldsp	f8,352(x2)
 314:	3100                	c.fld	f8,32(x10)
 316:	00170213          	addi	x4,x14,1
 31a:	1700                	c.addi4spn	x8,x2,928
 31c:	1331010b          	0x1331010b
 320:	1755                	c.addi	x14,-11
 322:	1301                	c.addi	x6,-32
 324:	0000                	c.unimp
 326:	0b18                	c.addi4spn	x14,x2,400
 328:	3101                	c.jal	ffffff28 <_end+0x7fff5718>
 32a:	12011113          	0x12011113
 32e:	0106                	c.slli	x2,0x1
 330:	19000013          	addi	x0,x0,400
 334:	0034                	c.addi4spn	x13,x2,8
 336:	1331                	c.addi	x6,-20
 338:	1802                	c.slli	x16,0x20
 33a:	0000                	c.unimp
 33c:	891a                	c.mv	x18,x6
 33e:	0182                	c.slli64	x3
 340:	1100                	c.addi4spn	x8,x2,160
 342:	3101                	c.jal	ffffff42 <_end+0x7fff5732>
 344:	1b000013          	addi	x0,x0,432
 348:	1331010b          	0x1331010b
 34c:	0111                	c.addi	x2,4
 34e:	0612                	c.slli	x12,0x4
 350:	0000                	c.unimp
 352:	2e1c                	c.fld	f15,24(x12)
 354:	0301                	c.addi	x6,0
 356:	3a0e                	c.fldsp	f20,224(x2)
 358:	39053b0b          	0x39053b0b
 35c:	4919270b          	0x4919270b
 360:	010b2013          	slti	x0,x22,16
 364:	1d000013          	addi	x0,x0,464
 368:	0005                	c.addi	x0,1
 36a:	0b3a0803          	lb	x16,179(x20)
 36e:	0b39053b          	0xb39053b
 372:	1349                	c.addi	x6,-14
 374:	0000                	c.unimp
 376:	341e                	c.fldsp	f8,480(x2)
 378:	0300                	c.addi4spn	x8,x2,384
 37a:	3a08                	c.fld	f10,48(x12)
 37c:	39053b0b          	0x39053b0b
 380:	0013490b          	0x13490b
 384:	1f00                	c.addi4spn	x8,x2,944
 386:	1301010b          	0x1301010b
 38a:	0000                	c.unimp
 38c:	3420                	c.fld	f8,104(x8)
 38e:	0300                	c.addi4spn	x8,x2,384
 390:	3a0e                	c.fldsp	f20,224(x2)
 392:	39053b0b          	0x39053b0b
 396:	0013490b          	0x13490b
 39a:	2100                	c.fld	f8,0(x10)
 39c:	0000010b          	0x10b
 3a0:	0f22                	c.slli	x30,0x8
 3a2:	0b00                	c.addi4spn	x8,x2,400
 3a4:	0013490b          	0x13490b
 3a8:	2300                	c.fld	f8,0(x14)
 3aa:	002e                	c.slli	x0,0xb
 3ac:	193c193f 0e030e6e 	0xe030e6e193c193f
 3b4:	0000                	c.unimp
 3b6:	0100                	c.addi4spn	x8,x2,128
 3b8:	0111                	c.addi	x2,4
 3ba:	0e25                	c.addi	x28,9
 3bc:	0e030b13          	addi	x22,x6,224
 3c0:	17100e1b          	0x17100e1b
 3c4:	0000                	c.unimp
 3c6:	2402                	c.fldsp	f8,0(x2)
 3c8:	0b00                	c.addi4spn	x8,x2,400
 3ca:	030b3e0b          	0x30b3e0b
 3ce:	0008                	0x8
 3d0:	0300                	c.addi4spn	x8,x2,384
 3d2:	0024                	c.addi4spn	x9,x2,8
 3d4:	0b3e0b0b          	0xb3e0b0b
 3d8:	00000e03          	lb	x28,0(x0) # 0 <SYSCALL_ADDR-0x201000>
 3dc:	1604                	c.addi4spn	x9,x2,800
 3de:	0300                	c.addi4spn	x8,x2,384
 3e0:	3a0e                	c.fldsp	f20,224(x2)
 3e2:	390b3b0b          	0x390b3b0b
 3e6:	0013490b          	0x13490b
 3ea:	0500                	c.addi4spn	x8,x2,640
 3ec:	0026                	c.slli	x0,0x9
 3ee:	1349                	c.addi	x6,-14
 3f0:	0000                	c.unimp
 3f2:	0106                	c.slli	x2,0x1
 3f4:	4901                	c.li	x18,0
 3f6:	00130113          	addi	x2,x6,1
 3fa:	0700                	c.addi4spn	x8,x2,896
 3fc:	0021                	c.addi	x0,8
 3fe:	1349                	c.addi	x6,-14
 400:	00000b2f          	0xb2f
 404:	3408                	c.fld	f10,40(x8)
 406:	0300                	c.addi4spn	x8,x2,384
 408:	3a0e                	c.fldsp	f20,224(x2)
 40a:	39053b0b          	0x39053b0b
 40e:	3f13490b          	0x3f13490b
 412:	3c19                	c.jal	fffffe28 <_end+0x7fff5618>
 414:	0019                	c.addi	x0,6
 416:	0900                	c.addi4spn	x8,x2,144
 418:	0034                	c.addi4spn	x13,x2,8
 41a:	0b3a1347          	fmsub.d	f6,f20,f19,f1,rtz
 41e:	0b39053b          	0xb39053b
 422:	1802                	c.slli	x16,0x20
 424:	0000                	c.unimp
	...

Disassembly of section .debug_aranges:

00000000 <.debug_aranges>:
   0:	001c                	0x1c
   2:	0000                	c.unimp
   4:	0002                	c.slli64	x0
   6:	0000                	c.unimp
   8:	0000                	c.unimp
   a:	0004                	0x4
   c:	0000                	c.unimp
   e:	0000                	c.unimp
  10:	2464                	c.fld	f9,200(x8)
  12:	8000                	0x8000
  14:	0024                	c.addi4spn	x9,x2,8
	...
  1e:	0000                	c.unimp
  20:	001c                	0x1c
  22:	0000                	c.unimp
  24:	0002                	c.slli64	x0
  26:	0026                	c.slli	x0,0x9
  28:	0000                	c.unimp
  2a:	0004                	0x4
  2c:	0000                	c.unimp
  2e:	0000                	c.unimp
  30:	2488                	c.fld	f10,8(x9)
  32:	8000                	0x8000
  34:	00b4                	c.addi4spn	x13,x2,72
	...
  3e:	0000                	c.unimp
  40:	001c                	0x1c
  42:	0000                	c.unimp
  44:	0002                	c.slli64	x0
  46:	004c                	c.addi4spn	x11,x2,4
  48:	0000                	c.unimp
  4a:	0004                	0x4
  4c:	0000                	c.unimp
  4e:	0000                	c.unimp
  50:	2618                	c.fld	f14,8(x12)
  52:	8000                	0x8000
  54:	05d8                	c.addi4spn	x14,x2,708
	...
  5e:	0000                	c.unimp
  60:	001c                	0x1c
  62:	0000                	c.unimp
  64:	0002                	c.slli64	x0
  66:	09f2                	c.slli	x19,0x1c
  68:	0000                	c.unimp
  6a:	0004                	0x4
  6c:	0000                	c.unimp
  6e:	0000                	c.unimp
  70:	2bf0                	c.fld	f12,208(x15)
  72:	8000                	0x8000
  74:	04f0                	c.addi4spn	x12,x2,588
	...
  7e:	0000                	c.unimp
  80:	0014                	0x14
  82:	0000                	c.unimp
  84:	0002                	c.slli64	x0
  86:	13a8                	c.addi4spn	x10,x2,488
  88:	0000                	c.unimp
  8a:	0004                	0x4
	...

Disassembly of section .debug_str:

00000000 <.debug_str>:
   0:	2e2e                	c.fldsp	f28,200(x2)
   2:	2f2e2e2f          	0x2f2e2e2f
   6:	2e2e                	c.fldsp	f28,200(x2)
   8:	2f2e2e2f          	0x2f2e2e2f
   c:	2e2e                	c.fldsp	f28,200(x2)
   e:	722f2e2f          	0x722f2e2f
  12:	7369                	c.lui	x6,0xffffa
  14:	672d7663          	bgeu	x26,x18,680 <SYSCALL_ADDR-0x200980>
  18:	6c2f6363          	bltu	x30,x2,6de <SYSCALL_ADDR-0x200922>
  1c:	6269                	c.lui	x4,0x1a
  1e:	2f636367          	0x2f636367
  22:	666e6f63          	bltu	x28,x6,6a0 <SYSCALL_ADDR-0x200960>
  26:	6769                	c.lui	x14,0x1a
  28:	7369722f          	0x7369722f
  2c:	6d2f7663          	bgeu	x30,x18,6f8 <SYSCALL_ADDR-0x200908>
  30:	6c75                	c.lui	x24,0x1d
  32:	6964                	c.flw	f9,84(x10)
  34:	00532e33          	slt	x28,x6,x5
  38:	6d6f682f          	0x6d6f682f
  3c:	2f65                	c.jal	7f4 <SYSCALL_ADDR-0x20080c>
  3e:	6c6c6173          	csrrsi	x2,0x6c6,24
  42:	7261                	c.lui	x4,0xffff8
  44:	6f6f742f          	0x6f6f742f
  48:	736c                	c.flw	f11,100(x14)
  4a:	7369722f          	0x7369722f
  4e:	672d7663          	bgeu	x26,x18,6ba <SYSCALL_ADDR-0x200946>
  52:	756e                	c.flwsp	f10,248(x2)
  54:	742d                	c.lui	x8,0xfffeb
  56:	636c6f6f          	jal	x30,c668c <SYSCALL_ADDR-0x13a974>
  5a:	6168                	c.flw	f10,68(x10)
  5c:	6e69                	c.lui	x28,0x1a
  5e:	6975622f          	0x6975622f
  62:	646c                	c.flw	f11,76(x8)
  64:	672d                	c.lui	x14,0xb
  66:	6e2d6363          	bltu	x26,x2,74c <SYSCALL_ADDR-0x2008b4>
  6a:	7765                	c.lui	x14,0xffff9
  6c:	696c                	c.flw	f11,84(x10)
  6e:	2d62                	c.fldsp	f26,24(x2)
  70:	67617473          	csrrci	x8,0x676,2
  74:	3265                	c.jal	fffffa1c <_end+0x7fff520c>
  76:	7369722f          	0x7369722f
  7a:	34367663          	bgeu	x12,x3,3c6 <SYSCALL_ADDR-0x200c3a>
  7e:	752d                	c.lui	x10,0xfffeb
  80:	6b6e                	c.flwsp	f22,216(x2)
  82:	6f6e                	c.flwsp	f30,216(x2)
  84:	652d6e77          	0x652d6e77
  88:	666c                	c.flw	f11,76(x12)
  8a:	3376722f          	0x3376722f
  8e:	6932                	c.flwsp	f18,12(x2)
  90:	706c692f          	0x706c692f
  94:	6c2f3233          	0x6c2f3233
  98:	6269                	c.lui	x4,0x1a
  9a:	00636367          	0x636367
  9e:	20554e47          	fmsub.s	f28,f10,f5,f4,rmm
  a2:	5341                	c.li	x6,-16
  a4:	3220                	c.fld	f8,96(x12)
  a6:	332e                	c.fldsp	f6,232(x2)
  a8:	0035                	c.addi	x0,13
  aa:	2e2e                	c.fldsp	f28,200(x2)
  ac:	2f2e2e2f          	0x2f2e2e2f
  b0:	2e2e                	c.fldsp	f28,200(x2)
  b2:	2f2e2e2f          	0x2f2e2e2f
  b6:	2e2e                	c.fldsp	f28,200(x2)
  b8:	722f2e2f          	0x722f2e2f
  bc:	7369                	c.lui	x6,0xffffa
  be:	672d7663          	bgeu	x26,x18,72a <SYSCALL_ADDR-0x2008d6>
  c2:	6c2f6363          	bltu	x30,x2,788 <SYSCALL_ADDR-0x200878>
  c6:	6269                	c.lui	x4,0x1a
  c8:	2f636367          	0x2f636367
  cc:	666e6f63          	bltu	x28,x6,74a <SYSCALL_ADDR-0x2008b6>
  d0:	6769                	c.lui	x14,0x1a
  d2:	7369722f          	0x7369722f
  d6:	642f7663          	bgeu	x30,x2,722 <SYSCALL_ADDR-0x2008de>
  da:	7669                	c.lui	x12,0xffffa
  dc:	532e                	c.lwsp	x6,232(x2)
  de:	4400                	c.lw	x8,8(x8)
  e0:	696e7557          	0x696e7557
  e4:	5f006e6f          	jal	x28,66d4 <SYSCALL_ADDR-0x1fa92c>
  e8:	755f 6964 6476      	0x64766964755f
  ee:	3369                	c.jal	fffffe78 <_end+0x7fff5668>
  f0:	6300                	c.flw	f8,0(x14)
  f2:	6c706d6f          	jal	x26,6fb8 <SYSCALL_ADDR-0x1fa048>
  f6:	7865                	c.lui	x16,0xffff9
  f8:	6620                	c.flw	f8,72(x12)
  fa:	6f6c                	c.flw	f11,92(x14)
  fc:	7461                	c.lui	x8,0xffff8
  fe:	5f00                	c.lw	x8,56(x14)
 100:	6d5f 6c75 6973      	0x69736c756d5f
 106:	2e2e0033          	0x2e2e0033
 10a:	2f2e2e2f          	0x2f2e2e2f
 10e:	2e2e                	c.fldsp	f28,200(x2)
 110:	2f2e2e2f          	0x2f2e2e2f
 114:	2e2e                	c.fldsp	f28,200(x2)
 116:	722f2e2f          	0x722f2e2f
 11a:	7369                	c.lui	x6,0xffffa
 11c:	672d7663          	bgeu	x26,x18,788 <SYSCALL_ADDR-0x200878>
 120:	6c2f6363          	bltu	x30,x2,7e6 <SYSCALL_ADDR-0x20081a>
 124:	6269                	c.lui	x4,0x1a
 126:	2f636367          	0x2f636367
 12a:	696c                	c.flw	f11,84(x10)
 12c:	6762                	c.flwsp	f14,24(x2)
 12e:	2e326363          	bltu	x4,x3,414 <SYSCALL_ADDR-0x200bec>
 132:	5f5f0063          	beq	x30,x21,712 <SYSCALL_ADDR-0x2008ee>
 136:	3064                	c.fld	f9,224(x8)
 138:	7300                	c.flw	f8,32(x14)
 13a:	6f68                	c.flw	f10,92(x14)
 13c:	7472                	c.flwsp	f8,60(x2)
 13e:	6920                	c.flw	f8,80(x10)
 140:	746e                	c.flwsp	f8,248(x2)
 142:	4700                	c.lw	x8,8(x14)
 144:	554e                	c.lwsp	x10,240(x2)
 146:	4320                	c.lw	x8,64(x14)
 148:	3731                	c.jal	54 <SYSCALL_ADDR-0x200fac>
 14a:	3120                	c.fld	f8,96(x10)
 14c:	2e30                	c.fld	f12,88(x12)
 14e:	2e32                	c.fldsp	f28,264(x2)
 150:	2030                	c.fld	f12,64(x8)
 152:	6d2d                	c.lui	x26,0xb
 154:	646f6d63          	bltu	x30,x6,7ae <SYSCALL_ADDR-0x200852>
 158:	6c65                	c.lui	x24,0x19
 15a:	6d3d                	c.lui	x26,0xf
 15c:	6465                	c.lui	x8,0x19
 15e:	6f6c                	c.flw	f11,92(x14)
 160:	6d2d2077          	0x6d2d2077
 164:	7261                	c.lui	x4,0xffff8
 166:	723d6863          	bltu	x26,x3,896 <SYSCALL_ADDR-0x20076a>
 16a:	3376                	c.fldsp	f6,376(x2)
 16c:	6932                	c.flwsp	f18,12(x2)
 16e:	2d20                	c.fld	f8,88(x10)
 170:	616d                	c.addi16sp	x2,240
 172:	6962                	c.flwsp	f18,24(x2)
 174:	693d                	c.lui	x18,0xf
 176:	706c                	c.flw	f11,100(x8)
 178:	2d203233          	0x2d203233
 17c:	636d                	c.lui	x6,0x1b
 17e:	6f6d                	c.lui	x30,0x1b
 180:	6564                	c.flw	f9,76(x10)
 182:	3d6c                	c.fld	f11,248(x10)
 184:	656d                	c.lui	x10,0x1b
 186:	6c64                	c.flw	f9,92(x8)
 188:	2d20776f          	jal	x14,745a <SYSCALL_ADDR-0x1f9ba6>
 18c:	746d                	c.lui	x8,0xffffb
 18e:	6e75                	c.lui	x28,0x1d
 190:	3d65                	c.jal	48 <SYSCALL_ADDR-0x200fb8>
 192:	6f72                	c.flwsp	f30,28(x2)
 194:	74656b63          	bltu	x10,x6,8ea <SYSCALL_ADDR-0x200716>
 198:	2d20                	c.fld	f8,88(x10)
 19a:	616d                	c.addi16sp	x2,240
 19c:	6372                	c.flwsp	f6,28(x2)
 19e:	3d68                	c.fld	f10,248(x10)
 1a0:	7672                	c.flwsp	f12,60(x2)
 1a2:	20693233          	0x20693233
 1a6:	672d                	c.lui	x14,0xb
 1a8:	2d20                	c.fld	f8,88(x10)
 1aa:	2d20734f          	0x2d20734f
 1ae:	2d20324f          	0x2d20324f
 1b2:	2d20734f          	0x2d20734f
 1b6:	6266                	c.flwsp	f4,88(x2)
 1b8:	6975                	c.lui	x18,0x1d
 1ba:	646c                	c.flw	f11,76(x8)
 1bc:	6e69                	c.lui	x28,0x1a
 1be:	696c2d67          	0x696c2d67
 1c2:	6762                	c.flwsp	f14,24(x2)
 1c4:	2d206363          	bltu	x0,x18,48a <SYSCALL_ADDR-0x200b76>
 1c8:	6e66                	c.flwsp	f28,88(x2)
 1ca:	74732d6f          	jal	x26,33110 <SYSCALL_ADDR-0x1cdef0>
 1ce:	6361                	c.lui	x6,0x18
 1d0:	72702d6b          	0x72702d6b
 1d4:	6365746f          	jal	x8,5780a <SYSCALL_ADDR-0x1a97f6>
 1d8:	6f74                	c.flw	f13,92(x14)
 1da:	2072                	c.fldsp	f0,280(x2)
 1dc:	662d                	c.lui	x12,0xb
 1de:	7865                	c.lui	x16,0xffff9
 1e0:	74706563          	bltu	x0,x7,92a <SYSCALL_ADDR-0x2006d6>
 1e4:	6f69                	c.lui	x30,0x1a
 1e6:	736e                	c.flwsp	f6,248(x2)
 1e8:	2d20                	c.fld	f8,88(x10)
 1ea:	6e66                	c.flwsp	f28,88(x2)
 1ec:	632d6e6f          	jal	x28,d681e <SYSCALL_ADDR-0x12a7e2>
 1f0:	6c61                	c.lui	x24,0x18
 1f2:	2d6c                	c.fld	f11,216(x10)
 1f4:	7865                	c.lui	x16,0xffff9
 1f6:	74706563          	bltu	x0,x7,940 <SYSCALL_ADDR-0x2006c0>
 1fa:	6f69                	c.lui	x30,0x1a
 1fc:	736e                	c.flwsp	f6,248(x2)
 1fe:	2d20                	c.fld	f8,88(x10)
 200:	7666                	c.flwsp	f12,120(x2)
 202:	7369                	c.lui	x6,0xffffa
 204:	6269                	c.lui	x4,0x1a
 206:	6c69                	c.lui	x24,0x1a
 208:	7469                	c.lui	x8,0xffffa
 20a:	3d79                	c.jal	a8 <SYSCALL_ADDR-0x200f58>
 20c:	6968                	c.flw	f10,84(x10)
 20e:	6464                	c.flw	f9,76(x8)
 210:	6e65                	c.lui	x28,0x19
 212:	5f00                	c.lw	x8,56(x14)
 214:	765f 0068 5f5f      	0x5f5f0068765f
 21a:	0030706f          	jal	x0,7a1c <SYSCALL_ADDR-0x1f95e4>
 21e:	5f5f 706f 0031      	0x31706f5f5f
 224:	5f5f 6475 7669      	0x766964755f5f
 22a:	00336973          	csrrsi	x18,fcsr,6
 22e:	6f6c                	c.flw	f11,92(x14)
 230:	676e                	c.flwsp	f14,216(x2)
 232:	6c20                	c.flw	f8,88(x8)
 234:	20676e6f          	jal	x28,7643a <SYSCALL_ADDR-0x18abc6>
 238:	6e69                	c.lui	x28,0x1a
 23a:	0074                	c.addi4spn	x13,x2,12
 23c:	6f6c                	c.flw	f11,92(x14)
 23e:	676e                	c.flwsp	f14,216(x2)
 240:	6c20                	c.flw	f8,88(x8)
 242:	20676e6f          	jal	x28,76448 <SYSCALL_ADDR-0x18abb8>
 246:	6e75                	c.lui	x28,0x1d
 248:	6e676973          	csrrsi	x18,0x6e6,14
 24c:	6465                	c.lui	x8,0x19
 24e:	6920                	c.flw	f8,80(x10)
 250:	746e                	c.flwsp	f8,248(x2)
 252:	6800                	c.flw	f8,16(x8)
 254:	6769                	c.lui	x14,0x1a
 256:	0068                	c.addi4spn	x10,x2,12
 258:	5f5f 6c63 5f7a      	0x5f7a6c635f5f
 25e:	6174                	c.flw	f13,68(x10)
 260:	0062                	c.slli	x0,0x18
 262:	6e75                	c.lui	x28,0x1d
 264:	6e676973          	csrrsi	x18,0x6e6,14
 268:	6465                	c.lui	x8,0x19
 26a:	6320                	c.flw	f8,64(x14)
 26c:	6168                	c.flw	f10,68(x10)
 26e:	0072                	c.slli	x0,0x1c
 270:	5f5f 3078 5f00      	0x5f0030785f5f
 276:	785f 0031 5f5f      	0x5f5f0031785f
 27c:	3278                	c.fld	f14,224(x12)
 27e:	5f00                	c.lw	x8,56(x14)
 280:	785f 0033 5155      	0x51550033785f
 286:	7449                	c.lui	x8,0xffff2
 288:	7079                	c.lui	x0,0xffffe
 28a:	0065                	c.addi	x0,25
 28c:	5744                	c.lw	x9,44(x14)
 28e:	75727473          	csrrci	x8,0x757,4
 292:	73007463          	bgeu	x0,x16,9ba <SYSCALL_ADDR-0x200646>
 296:	6f68                	c.flw	f10,92(x14)
 298:	7472                	c.flwsp	f8,60(x2)
 29a:	7520                	c.flw	f8,104(x10)
 29c:	736e                	c.flwsp	f6,248(x2)
 29e:	6769                	c.lui	x14,0x1a
 2a0:	656e                	c.flwsp	f10,216(x2)
 2a2:	2064                	c.fld	f9,192(x8)
 2a4:	6e69                	c.lui	x28,0x1a
 2a6:	0074                	c.addi4spn	x13,x2,12
 2a8:	4455                	c.li	x8,21
 2aa:	7449                	c.lui	x8,0xffff2
 2ac:	7079                	c.lui	x0,0xffffe
 2ae:	0065                	c.addi	x0,25
 2b0:	5f5f 3071 5f00      	0x5f0030715f5f
 2b6:	715f 0031 5f5f      	0x5f5f0031715f
 2bc:	3164                	c.fld	f9,224(x10)
 2be:	5f00                	c.lw	x8,56(x14)
 2c0:	755f 6f6d 7364      	0x73646f6d755f
 2c6:	3369                	c.jal	50 <SYSCALL_ADDR-0x200fb0>
 2c8:	6300                	c.flw	f8,0(x14)
 2ca:	6c706d6f          	jal	x26,7190 <SYSCALL_ADDR-0x1f9e70>
 2ce:	7865                	c.lui	x16,0xffff9
 2d0:	6420                	c.flw	f8,72(x8)
 2d2:	6c62756f          	jal	x10,27998 <SYSCALL_ADDR-0x1d9668>
 2d6:	0065                	c.addi	x0,25
 2d8:	5f5f 6c76 5f00      	0x5f006c765f5f
 2de:	755f 6964 6d76      	0x6d766964755f
 2e4:	6964646f          	jal	x8,4697a <SYSCALL_ADDR-0x1ba686>
 2e8:	0034                	c.addi4spn	x13,x2,8
 2ea:	706d6f63          	bltu	x26,x6,a08 <SYSCALL_ADDR-0x2005f8>
 2ee:	656c                	c.flw	f11,76(x10)
 2f0:	2078                	c.fld	f14,192(x8)
 2f2:	6f6c                	c.flw	f11,92(x14)
 2f4:	676e                	c.flwsp	f14,216(x2)
 2f6:	6420                	c.flw	f8,72(x8)
 2f8:	6c62756f          	jal	x10,279be <SYSCALL_ADDR-0x1d9642>
 2fc:	0065                	c.addi	x0,25
 2fe:	5355                	c.li	x6,-11
 300:	7449                	c.lui	x8,0xffff2
 302:	7079                	c.lui	x0,0xffffe
 304:	0065                	c.addi	x0,25
 306:	5f5f 7278 5f00      	0x5f0072785f5f
 30c:	725f 0030 5f5f      	0x5f5f0030725f
 312:	3172                	c.fldsp	f2,312(x2)
 314:	5f00                	c.lw	x8,56(x14)
 316:	755f 0068 5f5f      	0x5f5f0068755f
 31c:	6c75                	c.lui	x24,0x1d
 31e:	5f00                	c.lw	x8,56(x14)
 320:	755f 6f6d 6464      	0x64646f6d755f
 326:	3369                	c.jal	b0 <SYSCALL_ADDR-0x200f50>
 328:	4700                	c.lw	x8,8(x14)
 32a:	554e                	c.lwsp	x10,240(x2)
 32c:	4320                	c.lw	x8,64(x14)
 32e:	3731                	c.jal	23a <SYSCALL_ADDR-0x200dc6>
 330:	3120                	c.fld	f8,96(x10)
 332:	2e30                	c.fld	f12,88(x12)
 334:	2e32                	c.fldsp	f28,264(x2)
 336:	2030                	c.fld	f12,64(x8)
 338:	6d2d                	c.lui	x26,0xb
 33a:	646f6d63          	bltu	x30,x6,994 <SYSCALL_ADDR-0x20066c>
 33e:	6c65                	c.lui	x24,0x19
 340:	6d3d                	c.lui	x26,0xf
 342:	6465                	c.lui	x8,0x19
 344:	6f6c                	c.flw	f11,92(x14)
 346:	6d2d2077          	0x6d2d2077
 34a:	7261                	c.lui	x4,0xffff8
 34c:	723d6863          	bltu	x26,x3,a7c <SYSCALL_ADDR-0x200584>
 350:	3376                	c.fldsp	f6,376(x2)
 352:	6932                	c.flwsp	f18,12(x2)
 354:	2d20                	c.fld	f8,88(x10)
 356:	616d                	c.addi16sp	x2,240
 358:	6962                	c.flwsp	f18,24(x2)
 35a:	693d                	c.lui	x18,0xf
 35c:	706c                	c.flw	f11,100(x8)
 35e:	2d203233          	0x2d203233
 362:	636d                	c.lui	x6,0x1b
 364:	6f6d                	c.lui	x30,0x1b
 366:	6564                	c.flw	f9,76(x10)
 368:	3d6c                	c.fld	f11,248(x10)
 36a:	656d                	c.lui	x10,0x1b
 36c:	6c64                	c.flw	f9,92(x8)
 36e:	2d20776f          	jal	x14,7640 <SYSCALL_ADDR-0x1f99c0>
 372:	746d                	c.lui	x8,0xffffb
 374:	6e75                	c.lui	x28,0x1d
 376:	3d65                	c.jal	22e <SYSCALL_ADDR-0x200dd2>
 378:	6f72                	c.flwsp	f30,28(x2)
 37a:	74656b63          	bltu	x10,x6,ad0 <SYSCALL_ADDR-0x200530>
 37e:	2d20                	c.fld	f8,88(x10)
 380:	616d                	c.addi16sp	x2,240
 382:	6372                	c.flwsp	f6,28(x2)
 384:	3d68                	c.fld	f10,248(x10)
 386:	7672                	c.flwsp	f12,60(x2)
 388:	20693233          	0x20693233
 38c:	672d                	c.lui	x14,0xb
 38e:	2d20                	c.fld	f8,88(x10)
 390:	2d20734f          	0x2d20734f
 394:	2d20324f          	0x2d20324f
 398:	2d20734f          	0x2d20734f
 39c:	6266                	c.flwsp	f4,88(x2)
 39e:	6975                	c.lui	x18,0x1d
 3a0:	646c                	c.flw	f11,76(x8)
 3a2:	6e69                	c.lui	x28,0x1a
 3a4:	696c2d67          	0x696c2d67
 3a8:	6762                	c.flwsp	f14,24(x2)
 3aa:	2d206363          	bltu	x0,x18,670 <SYSCALL_ADDR-0x200990>
 3ae:	6e66                	c.flwsp	f28,88(x2)
 3b0:	74732d6f          	jal	x26,332f6 <SYSCALL_ADDR-0x1cdd0a>
 3b4:	6361                	c.lui	x6,0x18
 3b6:	72702d6b          	0x72702d6b
 3ba:	6365746f          	jal	x8,579f0 <SYSCALL_ADDR-0x1a9610>
 3be:	6f74                	c.flw	f13,92(x14)
 3c0:	2072                	c.fldsp	f0,280(x2)
 3c2:	662d                	c.lui	x12,0xb
 3c4:	6976                	c.flwsp	f18,92(x2)
 3c6:	69626973          	csrrsi	x18,0x696,4
 3ca:	696c                	c.flw	f11,84(x10)
 3cc:	7974                	c.flw	f13,116(x10)
 3ce:	683d                	c.lui	x16,0xf
 3d0:	6469                	c.lui	x8,0x1a
 3d2:	6564                	c.flw	f9,76(x10)
 3d4:	006e                	c.slli	x0,0x1b

Disassembly of section .debug_loc:

00000000 <.debug_loc>:
       0:	0000                	c.unimp
       2:	0000                	c.unimp
       4:	00a4                	c.addi4spn	x9,x2,72
       6:	0000                	c.unimp
       8:	0006                	c.slli	x0,0x1
       a:	935a                	c.add	x6,x22
       c:	5b04                	c.lw	x9,48(x14)
       e:	00a40493          	addi	x9,x8,10 # 1a00a <SYSCALL_ADDR-0x1e6ff6>
      12:	0000                	c.unimp
      14:	0168                	c.addi4spn	x10,x2,140
      16:	0000                	c.unimp
      18:	0006                	c.slli	x0,0x1
      1a:	0af503f3          	0xaf503f3
      1e:	9f25                	0x9f25
      20:	0168                	c.addi4spn	x10,x2,140
      22:	0000                	c.unimp
      24:	018c                	c.addi4spn	x11,x2,192
      26:	0000                	c.unimp
      28:	0006                	c.slli	x0,0x1
      2a:	935a                	c.add	x6,x22
      2c:	5b04                	c.lw	x9,48(x14)
      2e:	018c0493          	addi	x9,x24,24 # 19018 <SYSCALL_ADDR-0x1e7fe8>
      32:	0000                	c.unimp
      34:	03d0                	c.addi4spn	x12,x2,452
      36:	0000                	c.unimp
      38:	0006                	c.slli	x0,0x1
      3a:	0af503f3          	0xaf503f3
      3e:	9f25                	0x9f25
      40:	03d0                	c.addi4spn	x12,x2,452
      42:	0000                	c.unimp
      44:	045c                	c.addi4spn	x15,x2,516
      46:	0000                	c.unimp
      48:	0006                	c.slli	x0,0x1
      4a:	935a                	c.add	x6,x22
      4c:	5b04                	c.lw	x9,48(x14)
      4e:	045c0493          	addi	x9,x24,69
      52:	0000                	c.unimp
      54:	05cc                	c.addi4spn	x11,x2,708
      56:	0000                	c.unimp
      58:	0006                	c.slli	x0,0x1
      5a:	0af503f3          	0xaf503f3
      5e:	9f25                	0x9f25
      60:	05cc                	c.addi4spn	x11,x2,708
      62:	0000                	c.unimp
      64:	05d8                	c.addi4spn	x14,x2,708
      66:	0000                	c.unimp
      68:	0006                	c.slli	x0,0x1
      6a:	935a                	c.add	x6,x22
      6c:	5b04                	c.lw	x9,48(x14)
      6e:	00000493          	addi	x9,x0,0
	...
      7a:	0000                	c.unimp
      7c:	000000a7          	0xa7
      80:	0006                	c.slli	x0,0x1
      82:	935c                	0x935c
      84:	5d04                	c.lw	x9,56(x10)
      86:	00a70493          	addi	x9,x14,10 # b00a <SYSCALL_ADDR-0x1f5ff6>
      8a:	0000                	c.unimp
      8c:	0168                	c.addi4spn	x10,x2,140
      8e:	0000                	c.unimp
      90:	0006                	c.slli	x0,0x1
      92:	0cf503f3          	0xcf503f3
      96:	9f25                	0x9f25
      98:	0168                	c.addi4spn	x10,x2,140
      9a:	0000                	c.unimp
      9c:	0000018f          	0x18f
      a0:	0006                	c.slli	x0,0x1
      a2:	935c                	0x935c
      a4:	5d04                	c.lw	x9,56(x10)
      a6:	018f0493          	addi	x9,x30,24 # 1b018 <SYSCALL_ADDR-0x1e5fe8>
      aa:	0000                	c.unimp
      ac:	03d0                	c.addi4spn	x12,x2,452
      ae:	0000                	c.unimp
      b0:	0006                	c.slli	x0,0x1
      b2:	0cf503f3          	0xcf503f3
      b6:	9f25                	0x9f25
      b8:	03d0                	c.addi4spn	x12,x2,452
      ba:	0000                	c.unimp
      bc:	0418                	c.addi4spn	x14,x2,512
      be:	0000                	c.unimp
      c0:	0006                	c.slli	x0,0x1
      c2:	935c                	0x935c
      c4:	5d04                	c.lw	x9,56(x10)
      c6:	04180493          	addi	x9,x16,65 # f041 <SYSCALL_ADDR-0x1f1fbf>
      ca:	0000                	c.unimp
      cc:	0420                	c.addi4spn	x8,x2,520
      ce:	0000                	c.unimp
      d0:	0006                	c.slli	x0,0x1
      d2:	0cf503f3          	0xcf503f3
      d6:	9f25                	0x9f25
      d8:	0420                	c.addi4spn	x8,x2,520
      da:	0000                	c.unimp
      dc:	00000463          	beq	x0,x0,e4 <SYSCALL_ADDR-0x200f1c>
      e0:	0006                	c.slli	x0,0x1
      e2:	935c                	0x935c
      e4:	5d04                	c.lw	x9,56(x10)
      e6:	04630493          	addi	x9,x6,70 # 18046 <SYSCALL_ADDR-0x1e8fba>
      ea:	0000                	c.unimp
      ec:	05cc                	c.addi4spn	x11,x2,708
      ee:	0000                	c.unimp
      f0:	0006                	c.slli	x0,0x1
      f2:	0cf503f3          	0xcf503f3
      f6:	9f25                	0x9f25
      f8:	05cc                	c.addi4spn	x11,x2,708
      fa:	0000                	c.unimp
      fc:	05d8                	c.addi4spn	x14,x2,708
      fe:	0000                	c.unimp
     100:	0006                	c.slli	x0,0x1
     102:	935c                	0x935c
     104:	5d04                	c.lw	x9,56(x10)
     106:	00000493          	addi	x9,x0,0
	...
     112:	0000                	c.unimp
     114:	0294                	c.addi4spn	x13,x2,320
     116:	0000                	c.unimp
     118:	0002                	c.slli64	x0
     11a:	9f30                	0x9f30
     11c:	02d0                	c.addi4spn	x12,x2,324
     11e:	0000                	c.unimp
     120:	05d8                	c.addi4spn	x14,x2,708
     122:	0000                	c.unimp
     124:	0002                	c.slli64	x0
     126:	9f30                	0x9f30
	...
     134:	0074                	c.addi4spn	x13,x2,12
     136:	0000                	c.unimp
     138:	0006                	c.slli	x0,0x1
     13a:	935c                	0x935c
     13c:	5d04                	c.lw	x9,56(x10)
     13e:	01680493          	addi	x9,x16,22
     142:	0000                	c.unimp
     144:	0000018f          	0x18f
     148:	0006                	c.slli	x0,0x1
     14a:	935c                	0x935c
     14c:	5d04                	c.lw	x9,56(x10)
     14e:	018f0493          	addi	x9,x30,24
     152:	0000                	c.unimp
     154:	0194                	c.addi4spn	x13,x2,192
     156:	0000                	c.unimp
     158:	0006                	c.slli	x0,0x1
     15a:	9362                	c.add	x6,x24
     15c:	6304                	c.flw	f9,0(x14)
     15e:	03d00493          	addi	x9,x0,61
     162:	0000                	c.unimp
     164:	0418                	c.addi4spn	x14,x2,512
     166:	0000                	c.unimp
     168:	0006                	c.slli	x0,0x1
     16a:	935c                	0x935c
     16c:	5d04                	c.lw	x9,56(x10)
     16e:	04200493          	addi	x9,x0,66
     172:	0000                	c.unimp
     174:	043c                	c.addi4spn	x15,x2,520
     176:	0000                	c.unimp
     178:	0006                	c.slli	x0,0x1
     17a:	935c                	0x935c
     17c:	5d04                	c.lw	x9,56(x10)
     17e:	05cc0493          	addi	x9,x24,92
     182:	0000                	c.unimp
     184:	05d8                	c.addi4spn	x14,x2,708
     186:	0000                	c.unimp
     188:	0006                	c.slli	x0,0x1
     18a:	935c                	0x935c
     18c:	5d04                	c.lw	x9,56(x10)
     18e:	00000493          	addi	x9,x0,0
	...
     19a:	0000                	c.unimp
     19c:	00a0                	c.addi4spn	x8,x2,72
     19e:	0000                	c.unimp
     1a0:	0006                	c.slli	x0,0x1
     1a2:	935a                	c.add	x6,x22
     1a4:	5b04                	c.lw	x9,48(x14)
     1a6:	01680493          	addi	x9,x16,22
     1aa:	0000                	c.unimp
     1ac:	018c                	c.addi4spn	x11,x2,192
     1ae:	0000                	c.unimp
     1b0:	0006                	c.slli	x0,0x1
     1b2:	935a                	c.add	x6,x22
     1b4:	5804                	c.lw	x9,48(x8)
     1b6:	018c0493          	addi	x9,x24,24
     1ba:	0000                	c.unimp
     1bc:	01c8                	c.addi4spn	x10,x2,196
     1be:	0000                	c.unimp
     1c0:	0006                	c.slli	x0,0x1
     1c2:	9364                	0x9364
     1c4:	5804                	c.lw	x9,48(x8)
     1c6:	02d00493          	addi	x9,x0,45
     1ca:	0000                	c.unimp
     1cc:	02f4                	c.addi4spn	x13,x2,332
     1ce:	0000                	c.unimp
     1d0:	0006                	c.slli	x0,0x1
     1d2:	9364                	0x9364
     1d4:	5804                	c.lw	x9,48(x8)
     1d6:	03d00493          	addi	x9,x0,61
     1da:	0000                	c.unimp
     1dc:	0448                	c.addi4spn	x10,x2,516
     1de:	0000                	c.unimp
     1e0:	0006                	c.slli	x0,0x1
     1e2:	935a                	c.add	x6,x22
     1e4:	5804                	c.lw	x9,48(x8)
     1e6:	05cc0493          	addi	x9,x24,92
     1ea:	0000                	c.unimp
     1ec:	05d8                	c.addi4spn	x14,x2,708
     1ee:	0000                	c.unimp
     1f0:	0006                	c.slli	x0,0x1
     1f2:	935a                	c.add	x6,x22
     1f4:	5804                	c.lw	x9,48(x8)
     1f6:	00000493          	addi	x9,x0,0
	...
     202:	0000                	c.unimp
     204:	0084                	c.addi4spn	x9,x2,64
     206:	0000                	c.unimp
     208:	0001                	c.addi	x0,0
     20a:	845c                	0x845c
     20c:	0000                	c.unimp
     20e:	9000                	0x9000
     210:	0000                	c.unimp
     212:	0900                	c.addi4spn	x8,x2,144
     214:	7c00                	c.flw	f8,56(x8)
     216:	7f00                	c.flw	f8,56(x14)
     218:	0800                	c.addi4spn	x8,x2,16
     21a:	1aff                	0x1aff
     21c:	9f24                	0x9f24
     21e:	0090                	c.addi4spn	x12,x2,64
     220:	0000                	c.unimp
     222:	0160                	c.addi4spn	x8,x2,140
     224:	0000                	c.unimp
     226:	0001                	c.addi	x0,0
     228:	6862                	c.flwsp	f16,24(x2)
     22a:	0001                	c.addi	x0,0
     22c:	8f00                	0x8f00
     22e:	0001                	c.addi	x0,0
     230:	0100                	c.addi4spn	x8,x2,128
     232:	5c00                	c.lw	x8,56(x8)
     234:	0000018f          	0x18f
     238:	0194                	c.addi4spn	x13,x2,192
     23a:	0000                	c.unimp
     23c:	0001                	c.addi	x0,0
     23e:	e462                	c.fswsp	f24,8(x2)
     240:	0002                	c.slli64	x0
     242:	e800                	c.fsw	f8,16(x8)
     244:	0002                	c.slli64	x0
     246:	0900                	c.addi4spn	x8,x2,144
     248:	8200                	0x8200
     24a:	7e00                	c.flw	f8,56(x12)
     24c:	0800                	c.addi4spn	x8,x2,16
     24e:	1aff                	0x1aff
     250:	9f24                	0x9f24
     252:	02e8                	c.addi4spn	x10,x2,332
     254:	0000                	c.unimp
     256:	03d0                	c.addi4spn	x12,x2,452
     258:	0000                	c.unimp
     25a:	0001                	c.addi	x0,0
     25c:	d062                	c.swsp	x24,32(x2)
     25e:	18000003          	lb	x0,384(x0) # 180 <SYSCALL_ADDR-0x200e80>
     262:	0004                	0x4
     264:	0100                	c.addi4spn	x8,x2,128
     266:	5c00                	c.lw	x8,56(x8)
     268:	0420                	c.addi4spn	x8,x2,520
     26a:	0000                	c.unimp
     26c:	0460                	c.addi4spn	x8,x2,524
     26e:	0000                	c.unimp
     270:	0001                	c.addi	x0,0
     272:	605c                	c.flw	f15,4(x8)
     274:	0004                	0x4
     276:	3c00                	c.fld	f8,56(x8)
     278:	0005                	c.addi	x0,1
     27a:	0100                	c.addi4spn	x8,x2,128
     27c:	6200                	c.flw	f8,0(x12)
     27e:	05cc                	c.addi4spn	x11,x2,708
     280:	0000                	c.unimp
     282:	05d8                	c.addi4spn	x14,x2,708
     284:	0000                	c.unimp
     286:	0001                	c.addi	x0,0
     288:	005c                	c.addi4spn	x15,x2,4
	...
     292:	0000                	c.unimp
     294:	7400                	c.flw	f8,40(x8)
     296:	0000                	c.unimp
     298:	0100                	c.addi4spn	x8,x2,128
     29a:	5d00                	c.lw	x8,56(x10)
     29c:	0168                	c.addi4spn	x10,x2,140
     29e:	0000                	c.unimp
     2a0:	0000018f          	0x18f
     2a4:	0001                	c.addi	x0,0
     2a6:	8f5d                	c.or	x14,x15
     2a8:	0001                	c.addi	x0,0
     2aa:	a800                	c.fsd	f8,16(x8)
     2ac:	0001                	c.addi	x0,0
     2ae:	0100                	c.addi4spn	x8,x2,128
     2b0:	6300                	c.flw	f8,0(x14)
     2b2:	02d0                	c.addi4spn	x12,x2,324
     2b4:	0000                	c.unimp
     2b6:	02d8                	c.addi4spn	x14,x2,324
     2b8:	0000                	c.unimp
     2ba:	0001                	c.addi	x0,0
     2bc:	0003d063          	bge	x7,x0,2bc <SYSCALL_ADDR-0x200d44>
     2c0:	3c00                	c.fld	f8,56(x8)
     2c2:	0004                	0x4
     2c4:	0100                	c.addi4spn	x8,x2,128
     2c6:	5d00                	c.lw	x8,56(x10)
     2c8:	0440                	c.addi4spn	x8,x2,516
     2ca:	0000                	c.unimp
     2cc:	05cc                	c.addi4spn	x11,x2,708
     2ce:	0000                	c.unimp
     2d0:	0001                	c.addi	x0,0
     2d2:	cc69                	c.beqz	x8,3ac <SYSCALL_ADDR-0x200c54>
     2d4:	0005                	c.addi	x0,1
     2d6:	d800                	c.sw	x8,48(x8)
     2d8:	0005                	c.addi	x0,1
     2da:	0100                	c.addi4spn	x8,x2,128
     2dc:	5d00                	c.lw	x8,56(x10)
	...
     2ea:	0098                	c.addi4spn	x14,x2,64
     2ec:	0000                	c.unimp
     2ee:	0001                	c.addi	x0,0
     2f0:	985a                	c.add	x16,x22
     2f2:	0000                	c.unimp
     2f4:	2000                	c.fld	f8,0(x8)
     2f6:	0001                	c.addi	x0,0
     2f8:	0100                	c.addi4spn	x8,x2,128
     2fa:	6400                	c.flw	f8,8(x8)
     2fc:	0168                	c.addi4spn	x10,x2,140
     2fe:	0000                	c.unimp
     300:	018c                	c.addi4spn	x11,x2,192
     302:	0000                	c.unimp
     304:	0001                	c.addi	x0,0
     306:	8c5a                	c.mv	x24,x22
     308:	0001                	c.addi	x0,0
     30a:	5400                	c.lw	x8,40(x8)
     30c:	0002                	c.slli64	x0
     30e:	0100                	c.addi4spn	x8,x2,128
     310:	6400                	c.flw	f8,8(x8)
     312:	02d0                	c.addi4spn	x12,x2,324
     314:	0000                	c.unimp
     316:	03d0                	c.addi4spn	x12,x2,452
     318:	0000                	c.unimp
     31a:	0001                	c.addi	x0,0
     31c:	d064                	c.sw	x9,100(x8)
     31e:	5c000003          	lb	x0,1472(x0) # 5c0 <SYSCALL_ADDR-0x200a40>
     322:	0004                	0x4
     324:	0100                	c.addi4spn	x8,x2,128
     326:	5a00                	c.lw	x8,48(x12)
     328:	045c                	c.addi4spn	x15,x2,516
     32a:	0000                	c.unimp
     32c:	0460                	c.addi4spn	x8,x2,524
     32e:	0000                	c.unimp
     330:	0001                	c.addi	x0,0
     332:	00046067          	0x46067
     336:	b800                	c.fsd	f8,48(x8)
     338:	0005                	c.addi	x0,1
     33a:	0600                	c.addi4spn	x8,x2,768
     33c:	8700                	0x8700
     33e:	7900                	c.flw	f8,48(x10)
     340:	2400                	c.fld	f8,8(x8)
     342:	cc9f 0005 d800      	0xd8000005cc9f
     348:	0005                	c.addi	x0,1
     34a:	0100                	c.addi4spn	x8,x2,128
     34c:	5a00                	c.lw	x8,48(x12)
	...
     35a:	0094                	c.addi4spn	x13,x2,64
     35c:	0000                	c.unimp
     35e:	0001                	c.addi	x0,0
     360:	0000945b          	0x945b
     364:	6000                	c.flw	f8,0(x8)
     366:	0001                	c.addi	x0,0
     368:	0100                	c.addi4spn	x8,x2,128
     36a:	6800                	c.flw	f8,16(x8)
     36c:	0168                	c.addi4spn	x10,x2,140
     36e:	0000                	c.unimp
     370:	01f8                	c.addi4spn	x14,x2,204
     372:	0000                	c.unimp
     374:	0001                	c.addi	x0,0
     376:	d058                	c.sw	x14,36(x8)
     378:	0002                	c.slli64	x0
     37a:	f400                	c.fsw	f8,40(x8)
     37c:	0002                	c.slli64	x0
     37e:	0100                	c.addi4spn	x8,x2,128
     380:	5800                	c.lw	x8,48(x8)
     382:	02f8                	c.addi4spn	x14,x2,332
     384:	0000                	c.unimp
     386:	03cc                	c.addi4spn	x11,x2,452
     388:	0000                	c.unimp
     38a:	0001                	c.addi	x0,0
     38c:	cc65                	c.beqz	x8,484 <SYSCALL_ADDR-0x200b7c>
     38e:	48000003          	lb	x0,1152(x0) # 480 <SYSCALL_ADDR-0x200b80>
     392:	0004                	0x4
     394:	0100                	c.addi4spn	x8,x2,128
     396:	5800                	c.lw	x8,48(x8)
     398:	0460                	c.addi4spn	x8,x2,524
     39a:	0000                	c.unimp
     39c:	0534                	c.addi4spn	x13,x2,648
     39e:	0000                	c.unimp
     3a0:	0001                	c.addi	x0,0
     3a2:	3465                	c.jal	fffffe4a <_end+0x7fff563a>
     3a4:	0005                	c.addi	x0,1
     3a6:	d800                	c.sw	x8,48(x8)
     3a8:	0005                	c.addi	x0,1
     3aa:	0100                	c.addi4spn	x8,x2,128
     3ac:	5800                	c.lw	x8,48(x8)
	...
     3b6:	02ec                	c.addi4spn	x11,x2,332
     3b8:	0000                	c.unimp
     3ba:	0328                	c.addi4spn	x10,x2,392
     3bc:	0000                	c.unimp
     3be:	0001                	c.addi	x0,0
     3c0:	00046063          	bltu	x8,x0,3c0 <SYSCALL_ADDR-0x200c40>
     3c4:	6300                	c.flw	f8,0(x14)
     3c6:	0004                	0x4
     3c8:	0100                	c.addi4spn	x8,x2,128
     3ca:	5a00                	c.lw	x8,48(x12)
     3cc:	00000463          	beq	x0,x0,3d4 <SYSCALL_ADDR-0x200c2c>
     3d0:	0480                	c.addi4spn	x8,x2,576
     3d2:	0000                	c.unimp
     3d4:	0001                	c.addi	x0,0
     3d6:	00000063          	beq	x0,x0,3d6 <SYSCALL_ADDR-0x200c2a>
     3da:	0000                	c.unimp
     3dc:	0000                	c.unimp
     3de:	6000                	c.flw	f8,0(x8)
     3e0:	0001                	c.addi	x0,0
     3e2:	6800                	c.flw	f8,16(x8)
     3e4:	0001                	c.addi	x0,0
     3e6:	0100                	c.addi4spn	x8,x2,128
     3e8:	5f00                	c.lw	x8,56(x14)
     3ea:	0534                	c.addi4spn	x13,x2,648
     3ec:	0000                	c.unimp
     3ee:	05cc                	c.addi4spn	x11,x2,708
     3f0:	0000                	c.unimp
     3f2:	0001                	c.addi	x0,0
     3f4:	005f 0000 0000      	0x5f
     3fa:	0000                	c.unimp
     3fc:	c800                	c.sw	x8,16(x8)
     3fe:	0001                	c.addi	x0,0
     400:	cc00                	c.sw	x8,24(x8)
     402:	0001                	c.addi	x0,0
     404:	0200                	c.addi4spn	x8,x2,256
     406:	3100                	c.fld	f8,32(x10)
     408:	cc9f 0001 9400      	0x94000001cc9f
     40e:	0002                	c.slli64	x0
     410:	0100                	c.addi4spn	x8,x2,128
     412:	5900                	c.lw	x8,48(x10)
     414:	03cc                	c.addi4spn	x11,x2,452
     416:	0000                	c.unimp
     418:	03d0                	c.addi4spn	x12,x2,452
     41a:	0000                	c.unimp
     41c:	0001                	c.addi	x0,0
     41e:	0059                	c.addi	x0,22
     420:	0000                	c.unimp
     422:	0000                	c.unimp
     424:	0000                	c.unimp
     426:	e400                	c.fsw	f8,8(x8)
     428:	0002                	c.slli64	x0
     42a:	f000                	c.fsw	f8,32(x8)
     42c:	0002                	c.slli64	x0
     42e:	0100                	c.addi4spn	x8,x2,128
     430:	5f00                	c.lw	x8,56(x14)
     432:	0434                	c.addi4spn	x13,x2,520
     434:	0000                	c.unimp
     436:	044c                	c.addi4spn	x11,x2,516
     438:	0000                	c.unimp
     43a:	0001                	c.addi	x0,0
     43c:	0065                	c.addi	x0,25
     43e:	0000                	c.unimp
     440:	0000                	c.unimp
     442:	0000                	c.unimp
     444:	8000                	0x8000
     446:	0000                	c.unimp
     448:	a700                	c.fsd	f8,8(x14)
     44a:	0000                	c.unimp
     44c:	0100                	c.addi4spn	x8,x2,128
     44e:	5f00                	c.lw	x8,56(x14)
     450:	01c0                	c.addi4spn	x8,x2,196
     452:	0000                	c.unimp
     454:	01cc                	c.addi4spn	x11,x2,196
     456:	0000                	c.unimp
     458:	0001                	c.addi	x0,0
     45a:	e45e                	c.fswsp	f23,8(x2)
     45c:	0002                	c.slli64	x0
     45e:	0b00                	c.addi4spn	x8,x2,400
     460:	01000003          	lb	x0,16(x0) # 10 <SYSCALL_ADDR-0x200ff0>
     464:	5e00                	c.lw	x8,56(x12)
     466:	0408                	c.addi4spn	x10,x2,512
     468:	0000                	c.unimp
     46a:	0420                	c.addi4spn	x8,x2,520
     46c:	0000                	c.unimp
     46e:	0001                	c.addi	x0,0
     470:	3459                	c.jal	fffffef6 <_end+0x7fff56e6>
     472:	0004                	0x4
     474:	c000                	c.sw	x8,0(x8)
     476:	0005                	c.addi	x0,1
     478:	0100                	c.addi4spn	x8,x2,128
     47a:	5900                	c.lw	x8,48(x10)
	...
     484:	0058                	c.addi4spn	x14,x2,4
     486:	0000                	c.unimp
     488:	0084                	c.addi4spn	x9,x2,64
     48a:	0000                	c.unimp
     48c:	0001                	c.addi	x0,0
     48e:	845c                	0x845c
     490:	0000                	c.unimp
     492:	9000                	0x9000
     494:	0000                	c.unimp
     496:	0900                	c.addi4spn	x8,x2,144
     498:	7c00                	c.flw	f8,56(x8)
     49a:	7f00                	c.flw	f8,56(x14)
     49c:	0800                	c.addi4spn	x8,x2,16
     49e:	1aff                	0x1aff
     4a0:	9f24                	0x9f24
     4a2:	0090                	c.addi4spn	x12,x2,64
     4a4:	0000                	c.unimp
     4a6:	0160                	c.addi4spn	x8,x2,140
     4a8:	0000                	c.unimp
     4aa:	0001                	c.addi	x0,0
     4ac:	6862                	c.flwsp	f16,24(x2)
     4ae:	0001                	c.addi	x0,0
     4b0:	7c00                	c.flw	f8,56(x8)
     4b2:	0001                	c.addi	x0,0
     4b4:	0100                	c.addi4spn	x8,x2,128
     4b6:	5c00                	c.lw	x8,56(x8)
	...
     4c0:	0068                	c.addi4spn	x10,x2,12
     4c2:	0000                	c.unimp
     4c4:	0078                	c.addi4spn	x14,x2,12
     4c6:	0000                	c.unimp
     4c8:	0001                	c.addi	x0,0
     4ca:	005e                	c.slli	x0,0x17
     4cc:	0000                	c.unimp
     4ce:	0000                	c.unimp
     4d0:	0000                	c.unimp
     4d2:	9c00                	0x9c00
     4d4:	0000                	c.unimp
     4d6:	6000                	c.flw	f8,0(x8)
     4d8:	0001                	c.addi	x0,0
     4da:	0100                	c.addi4spn	x8,x2,128
     4dc:	6600                	c.flw	f8,8(x12)
	...
     4e6:	00c0                	c.addi4spn	x8,x2,68
     4e8:	0000                	c.unimp
     4ea:	0160                	c.addi4spn	x8,x2,140
     4ec:	0000                	c.unimp
     4ee:	0001                	c.addi	x0,0
     4f0:	0065                	c.addi	x0,25
     4f2:	0000                	c.unimp
     4f4:	0000                	c.unimp
     4f6:	0000                	c.unimp
     4f8:	c400                	c.sw	x8,8(x8)
     4fa:	0000                	c.unimp
     4fc:	ec00                	c.fsw	f8,24(x8)
     4fe:	0000                	c.unimp
     500:	0100                	c.addi4spn	x8,x2,128
     502:	5800                	c.lw	x8,48(x8)
     504:	00ec                	c.addi4spn	x11,x2,76
     506:	0000                	c.unimp
     508:	0160                	c.addi4spn	x8,x2,140
     50a:	0000                	c.unimp
     50c:	0001                	c.addi	x0,0
     50e:	00000063          	beq	x0,x0,50e <SYSCALL_ADDR-0x200af2>
     512:	0000                	c.unimp
     514:	0000                	c.unimp
     516:	2400                	c.fld	f8,8(x8)
     518:	0001                	c.addi	x0,0
     51a:	4c00                	c.lw	x8,24(x8)
     51c:	0001                	c.addi	x0,0
     51e:	0100                	c.addi4spn	x8,x2,128
     520:	5800                	c.lw	x8,48(x8)
     522:	014c                	c.addi4spn	x11,x2,132
     524:	0000                	c.unimp
     526:	0160                	c.addi4spn	x8,x2,140
     528:	0000                	c.unimp
     52a:	0001                	c.addi	x0,0
     52c:	005c                	c.addi4spn	x15,x2,4
     52e:	0000                	c.unimp
     530:	0000                	c.unimp
     532:	0000                	c.unimp
     534:	c000                	c.sw	x8,0(x8)
     536:	0000                	c.unimp
     538:	d400                	c.sw	x8,40(x8)
     53a:	0000                	c.unimp
     53c:	0100                	c.addi4spn	x8,x2,128
     53e:	5900                	c.lw	x8,48(x10)
     540:	00dc                	c.addi4spn	x15,x2,68
     542:	0000                	c.unimp
     544:	00e8                	c.addi4spn	x10,x2,76
     546:	0000                	c.unimp
     548:	0001                	c.addi	x0,0
     54a:	e85e                	c.fswsp	f23,16(x2)
     54c:	0000                	c.unimp
     54e:	ec00                	c.fsw	f8,24(x8)
     550:	0000                	c.unimp
     552:	0800                	c.addi4spn	x8,x2,16
     554:	8400                	0x8400
     556:	4000                	c.lw	x8,0(x8)
     558:	7925                	c.lui	x18,0xfffe9
     55a:	2100                	c.fld	f8,0(x10)
     55c:	ec9f 0000 0000      	0xec9f
     562:	0001                	c.addi	x0,0
     564:	0100                	c.addi4spn	x8,x2,128
     566:	5e00                	c.lw	x8,56(x12)
     568:	0100                	c.addi4spn	x8,x2,128
     56a:	0000                	c.unimp
     56c:	0124                	c.addi4spn	x9,x2,136
     56e:	0000                	c.unimp
     570:	0001                	c.addi	x0,0
     572:	0058                	c.addi4spn	x14,x2,4
     574:	0000                	c.unimp
     576:	0000                	c.unimp
     578:	0000                	c.unimp
     57a:	1000                	c.addi4spn	x8,x2,32
     57c:	0001                	c.addi	x0,0
     57e:	2c00                	c.fld	f8,24(x8)
     580:	0001                	c.addi	x0,0
     582:	0100                	c.addi4spn	x8,x2,128
     584:	5900                	c.lw	x8,48(x10)
     586:	013c                	c.addi4spn	x15,x2,136
     588:	0000                	c.unimp
     58a:	0148                	c.addi4spn	x10,x2,132
     58c:	0000                	c.unimp
     58e:	0001                	c.addi	x0,0
     590:	0064                	c.addi4spn	x9,x2,12
     592:	0000                	c.unimp
     594:	0000                	c.unimp
     596:	0000                	c.unimp
     598:	d000                	c.sw	x8,32(x8)
     59a:	0000                	c.unimp
     59c:	0800                	c.addi4spn	x8,x2,16
     59e:	0001                	c.addi	x0,0
     5a0:	0100                	c.addi4spn	x8,x2,128
     5a2:	5a00                	c.lw	x8,48(x12)
     5a4:	0138                	c.addi4spn	x14,x2,136
     5a6:	0000                	c.unimp
     5a8:	0160                	c.addi4spn	x8,x2,140
     5aa:	0000                	c.unimp
     5ac:	0001                	c.addi	x0,0
     5ae:	005a                	c.slli	x0,0x16
     5b0:	0000                	c.unimp
     5b2:	0000                	c.unimp
     5b4:	0000                	c.unimp
     5b6:	9800                	0x9800
     5b8:	0005                	c.addi	x0,1
     5ba:	c800                	c.sw	x8,16(x8)
     5bc:	0005                	c.addi	x0,1
     5be:	0100                	c.addi4spn	x8,x2,128
     5c0:	5d00                	c.lw	x8,56(x10)
	...
     5ca:	0598                	c.addi4spn	x14,x2,704
     5cc:	0000                	c.unimp
     5ce:	05ac                	c.addi4spn	x11,x2,712
     5d0:	0000                	c.unimp
     5d2:	0010                	0x10
     5d4:	0080                	c.addi4spn	x8,x2,64
     5d6:	ff0a                	c.fswsp	f2,188(x2)
     5d8:	1aff                	0x1aff
     5da:	007e                	c.slli	x0,0x1f
     5dc:	ff0a                	c.fswsp	f2,188(x2)
     5de:	1aff                	0x1aff
     5e0:	2440                	c.fld	f8,136(x8)
     5e2:	9f22                	c.add	x30,x8
     5e4:	05ac                	c.addi4spn	x11,x2,712
     5e6:	0000                	c.unimp
     5e8:	05b4                	c.addi4spn	x13,x2,712
     5ea:	0000                	c.unimp
     5ec:	0015                	c.addi	x0,5
     5ee:	0080                	c.addi4spn	x8,x2,64
     5f0:	ff0a                	c.fswsp	f2,188(x2)
     5f2:	1aff                	0x1aff
     5f4:	0080                	c.addi4spn	x8,x2,64
     5f6:	2540                	c.fld	f8,136(x10)
     5f8:	0081                	c.addi	x1,0
     5fa:	0a22                	c.slli	x20,0x8
     5fc:	ffff                	0xffff
     5fe:	401a                	0x401a
     600:	2224                	c.fld	f9,64(x12)
     602:	009f 0000 0000      	0x9f
     608:	0000                	c.unimp
     60a:	6000                	c.flw	f8,0(x8)
     60c:	0004                	0x4
     60e:	dc00                	c.sw	x8,56(x8)
     610:	0004                	0x4
     612:	0100                	c.addi4spn	x8,x2,128
     614:	5800                	c.lw	x8,48(x8)
     616:	04dc                	c.addi4spn	x15,x2,580
     618:	0000                	c.unimp
     61a:	05cc                	c.addi4spn	x11,x2,708
     61c:	0000                	c.unimp
     61e:	0005                	c.addi	x0,1
     620:	0089                	c.addi	x1,2
     622:	2540                	c.fld	f8,136(x10)
     624:	009f 0000 0000      	0x9f
     62a:	0000                	c.unimp
     62c:	7c00                	c.flw	f8,56(x8)
     62e:	0004                	0x4
     630:	cc00                	c.sw	x8,24(x8)
     632:	0005                	c.addi	x0,1
     634:	0100                	c.addi4spn	x8,x2,128
     636:	6600                	c.flw	f8,8(x12)
	...
     640:	0480                	c.addi4spn	x8,x2,576
     642:	0000                	c.unimp
     644:	0488                	c.addi4spn	x10,x2,576
     646:	0000                	c.unimp
     648:	0001                	c.addi	x0,0
     64a:	885a                	c.mv	x16,x22
     64c:	0004                	0x4
     64e:	8b00                	0x8b00
     650:	0004                	0x4
     652:	0100                	c.addi4spn	x8,x2,128
     654:	5b00                	c.lw	x8,48(x14)
     656:	0000048b          	0x48b
     65a:	04a8                	c.addi4spn	x10,x2,584
     65c:	0000                	c.unimp
     65e:	0001                	c.addi	x0,0
     660:	0004a863          	0x4a863
     664:	cc00                	c.sw	x8,24(x8)
     666:	0005                	c.addi	x0,1
     668:	0100                	c.addi4spn	x8,x2,128
     66a:	6800                	c.flw	f8,16(x8)
	...
     674:	04e0                	c.addi4spn	x8,x2,588
     676:	0000                	c.unimp
     678:	04ec                	c.addi4spn	x11,x2,588
     67a:	0000                	c.unimp
     67c:	0001                	c.addi	x0,0
     67e:	ec5a                	c.fswsp	f22,24(x2)
     680:	0004                	0x4
     682:	f300                	c.fsw	f8,32(x14)
     684:	0004                	0x4
     686:	0100                	c.addi4spn	x8,x2,128
     688:	5b00                	c.lw	x8,48(x14)
     68a:	000004f3          	0x4f3
     68e:	0508                	c.addi4spn	x10,x2,640
     690:	0000                	c.unimp
     692:	0001                	c.addi	x0,0
     694:	00050863          	beq	x10,x0,6a4 <SYSCALL_ADDR-0x20095c>
     698:	4800                	c.lw	x8,16(x8)
     69a:	0005                	c.addi	x0,1
     69c:	0100                	c.addi4spn	x8,x2,128
     69e:	5c00                	c.lw	x8,56(x8)
	...
     6a8:	047c                	c.addi4spn	x15,x2,524
     6aa:	0000                	c.unimp
     6ac:	0490                	c.addi4spn	x12,x2,576
     6ae:	0000                	c.unimp
     6b0:	0001                	c.addi	x0,0
     6b2:	9864                	0x9864
     6b4:	0004                	0x4
     6b6:	a400                	c.fsd	f8,8(x8)
     6b8:	0004                	0x4
     6ba:	0100                	c.addi4spn	x8,x2,128
     6bc:	5e00                	c.lw	x8,56(x12)
     6be:	04a4                	c.addi4spn	x9,x2,584
     6c0:	0000                	c.unimp
     6c2:	04a8                	c.addi4spn	x10,x2,584
     6c4:	0000                	c.unimp
     6c6:	0008                	0x8
     6c8:	0085                	c.addi	x1,1
     6ca:	2540                	c.fld	f8,136(x10)
     6cc:	0084                	c.addi4spn	x9,x2,64
     6ce:	9f21                	0x9f21
     6d0:	04a8                	c.addi4spn	x10,x2,584
     6d2:	0000                	c.unimp
     6d4:	04bc                	c.addi4spn	x15,x2,584
     6d6:	0000                	c.unimp
     6d8:	0001                	c.addi	x0,0
     6da:	bc5e                	c.fsdsp	f23,56(x2)
     6dc:	0004                	0x4
     6de:	e000                	c.fsw	f8,0(x8)
     6e0:	0004                	0x4
     6e2:	0100                	c.addi4spn	x8,x2,128
     6e4:	6300                	c.flw	f8,0(x14)
	...
     6ee:	04d0                	c.addi4spn	x12,x2,580
     6f0:	0000                	c.unimp
     6f2:	04d4                	c.addi4spn	x13,x2,580
     6f4:	0000                	c.unimp
     6f6:	0001                	c.addi	x0,0
     6f8:	d45a                	c.swsp	x22,40(x2)
     6fa:	0004                	0x4
     6fc:	e800                	c.fsw	f8,16(x8)
     6fe:	0004                	0x4
     700:	0100                	c.addi4spn	x8,x2,128
     702:	6400                	c.flw	f8,8(x8)
     704:	04f8                	c.addi4spn	x14,x2,588
     706:	0000                	c.unimp
     708:	0504                	c.addi4spn	x9,x2,640
     70a:	0000                	c.unimp
     70c:	0001                	c.addi	x0,0
     70e:	0458                	c.addi4spn	x14,x2,516
     710:	0005                	c.addi	x0,1
     712:	0800                	c.addi4spn	x8,x2,16
     714:	0005                	c.addi	x0,1
     716:	0a00                	c.addi4spn	x8,x2,272
     718:	8500                	0x8500
     71a:	4000                	c.lw	x8,0(x8)
     71c:	4024                	c.lw	x9,64(x8)
     71e:	8425                	c.srai	x8,0x9
     720:	2100                	c.fld	f8,0(x10)
     722:	089f 0005 cc00      	0xcc000005089f
     728:	0005                	c.addi	x0,1
     72a:	0100                	c.addi4spn	x8,x2,128
     72c:	5800                	c.lw	x8,48(x8)
	...
     736:	048c                	c.addi4spn	x11,x2,576
     738:	0000                	c.unimp
     73a:	04c4                	c.addi4spn	x9,x2,580
     73c:	0000                	c.unimp
     73e:	0001                	c.addi	x0,0
     740:	f45a                	c.fswsp	f22,40(x2)
     742:	0004                	0x4
     744:	4000                	c.lw	x8,0(x8)
     746:	0005                	c.addi	x0,1
     748:	0100                	c.addi4spn	x8,x2,128
     74a:	5a00                	c.lw	x8,48(x12)
	...
     754:	054c                	c.addi4spn	x11,x2,644
     756:	0000                	c.unimp
     758:	0554                	c.addi4spn	x13,x2,644
     75a:	0000                	c.unimp
     75c:	0001                	c.addi	x0,0
     75e:	545a                	c.lwsp	x8,180(x2)
     760:	0005                	c.addi	x0,1
     762:	b400                	c.fsd	f8,40(x8)
     764:	0005                	c.addi	x0,1
     766:	0100                	c.addi4spn	x8,x2,128
     768:	6000                	c.flw	f8,0(x8)
	...
     772:	055c                	c.addi4spn	x15,x2,644
     774:	0000                	c.unimp
     776:	0564                	c.addi4spn	x9,x2,652
     778:	0000                	c.unimp
     77a:	0001                	c.addi	x0,0
     77c:	645a                	c.flwsp	f8,148(x2)
     77e:	0005                	c.addi	x0,1
     780:	8000                	0x8000
     782:	0005                	c.addi	x0,1
     784:	0100                	c.addi4spn	x8,x2,128
     786:	6100                	c.flw	f8,0(x10)
     788:	0588                	c.addi4spn	x10,x2,704
     78a:	0000                	c.unimp
     78c:	05ac                	c.addi4spn	x11,x2,712
     78e:	0000                	c.unimp
     790:	0001                	c.addi	x0,0
     792:	ac5e                	c.fsdsp	f23,24(x2)
     794:	0005                	c.addi	x0,1
     796:	b400                	c.fsd	f8,40(x8)
     798:	0005                	c.addi	x0,1
     79a:	0800                	c.addi4spn	x8,x2,16
     79c:	8000                	0x8000
     79e:	4000                	c.lw	x8,0(x8)
     7a0:	8125                	c.srli	x10,0x9
     7a2:	2200                	c.fld	f8,0(x12)
     7a4:	009f 0000 0000      	0x9f
     7aa:	0000                	c.unimp
     7ac:	6c00                	c.flw	f8,24(x8)
     7ae:	0005                	c.addi	x0,1
     7b0:	cc00                	c.sw	x8,24(x8)
     7b2:	0005                	c.addi	x0,1
     7b4:	0100                	c.addi4spn	x8,x2,128
     7b6:	5600                	c.lw	x8,40(x12)
	...
     7c0:	0588                	c.addi4spn	x10,x2,704
     7c2:	0000                	c.unimp
     7c4:	0590                	c.addi4spn	x12,x2,704
     7c6:	0000                	c.unimp
     7c8:	0001                	c.addi	x0,0
     7ca:	905a                	c.add	x0,x22
     7cc:	0005                	c.addi	x0,1
     7ce:	9800                	0x9800
     7d0:	0005                	c.addi	x0,1
     7d2:	0100                	c.addi4spn	x8,x2,128
     7d4:	5d00                	c.lw	x8,56(x10)
	...
     7de:	0534                	c.addi4spn	x13,x2,648
     7e0:	0000                	c.unimp
     7e2:	055c                	c.addi4spn	x15,x2,644
     7e4:	0000                	c.unimp
     7e6:	0001                	c.addi	x0,0
     7e8:	5c61                	c.li	x24,-8
     7ea:	0005                	c.addi	x0,1
     7ec:	a800                	c.fsd	f8,16(x8)
     7ee:	0005                	c.addi	x0,1
     7f0:	0600                	c.addi4spn	x8,x2,768
     7f2:	8c00                	0x8c00
     7f4:	7f7f                	0x7f7f
     7f6:	1a00                	c.addi4spn	x8,x2,304
     7f8:	a89f 0005 c400      	0xc4000005a89f
     7fe:	0005                	c.addi	x0,1
     800:	0600                	c.addi4spn	x8,x2,768
     802:	7f00                	c.flw	f8,56(x14)
     804:	7a00                	c.flw	f8,48(x12)
     806:	1a00                	c.addi4spn	x8,x2,304
     808:	c49f 0005 c800      	0xc8000005c49f
     80e:	0005                	c.addi	x0,1
     810:	0600                	c.addi4spn	x8,x2,768
     812:	8c00                	0x8c00
     814:	7f7f                	0x7f7f
     816:	1a00                	c.addi4spn	x8,x2,304
     818:	c89f 0005 cc00      	0xcc000005c89f
     81e:	0005                	c.addi	x0,1
     820:	0600                	c.addi4spn	x8,x2,768
     822:	7f00                	c.flw	f8,56(x14)
     824:	8c01                	c.sub	x8,x8
     826:	1a7f                	0x1a7f
     828:	009f 0000 0000      	0x9f
     82e:	0000                	c.unimp
     830:	3800                	c.fld	f8,48(x8)
     832:	0005                	c.addi	x0,1
     834:	6c00                	c.flw	f8,24(x8)
     836:	0005                	c.addi	x0,1
     838:	0100                	c.addi4spn	x8,x2,128
     83a:	5600                	c.lw	x8,40(x12)
	...
     844:	0538                	c.addi4spn	x14,x2,648
     846:	0000                	c.unimp
     848:	05cc                	c.addi4spn	x11,x2,708
     84a:	0000                	c.unimp
     84c:	0001                	c.addi	x0,0
     84e:	006d                	c.addi	x0,27
     850:	0000                	c.unimp
     852:	0000                	c.unimp
     854:	0000                	c.unimp
     856:	3c00                	c.fld	f8,56(x8)
     858:	0005                	c.addi	x0,1
     85a:	cc00                	c.sw	x8,24(x8)
     85c:	0005                	c.addi	x0,1
     85e:	0100                	c.addi4spn	x8,x2,128
     860:	6200                	c.flw	f8,0(x12)
	...
     86a:	02e4                	c.addi4spn	x9,x2,332
     86c:	0000                	c.unimp
     86e:	02e8                	c.addi4spn	x10,x2,332
     870:	0000                	c.unimp
     872:	0009                	c.addi	x0,2
     874:	0082                	c.slli64	x1
     876:	007e                	c.slli	x0,0x1f
     878:	ff08                	c.fsw	f10,56(x14)
     87a:	241a                	c.fldsp	f8,384(x2)
     87c:	e89f 0002 d000      	0xd0000002e89f
     882:	01000003          	lb	x0,16(x0) # 10 <SYSCALL_ADDR-0x200ff0>
     886:	6200                	c.flw	f8,0(x12)
	...
     890:	01a8                	c.addi4spn	x10,x2,200
     892:	0000                	c.unimp
     894:	01cc                	c.addi4spn	x11,x2,196
     896:	0000                	c.unimp
     898:	0001                	c.addi	x0,0
     89a:	0002e463          	bltu	x5,x0,8a2 <SYSCALL_ADDR-0x20075e>
     89e:	ec00                	c.fsw	f8,24(x8)
     8a0:	0002                	c.slli64	x0
     8a2:	0100                	c.addi4spn	x8,x2,128
     8a4:	6300                	c.flw	f8,0(x14)
	...
     8ae:	01d0                	c.addi4spn	x12,x2,196
     8b0:	0000                	c.unimp
     8b2:	0294                	c.addi4spn	x13,x2,320
     8b4:	0000                	c.unimp
     8b6:	0001                	c.addi	x0,0
     8b8:	0065                	c.addi	x0,25
     8ba:	0000                	c.unimp
     8bc:	0000                	c.unimp
     8be:	0000                	c.unimp
     8c0:	f400                	c.fsw	f8,40(x8)
     8c2:	0001                	c.addi	x0,0
     8c4:	9400                	0x9400
     8c6:	0002                	c.slli64	x0
     8c8:	0100                	c.addi4spn	x8,x2,128
     8ca:	6600                	c.flw	f8,8(x12)
	...
     8d4:	01f8                	c.addi4spn	x14,x2,204
     8d6:	0000                	c.unimp
     8d8:	0220                	c.addi4spn	x8,x2,264
     8da:	0000                	c.unimp
     8dc:	0001                	c.addi	x0,0
     8de:	2058                	c.fld	f14,128(x8)
     8e0:	0002                	c.slli64	x0
     8e2:	9400                	0x9400
     8e4:	0002                	c.slli64	x0
     8e6:	0100                	c.addi4spn	x8,x2,128
     8e8:	6700                	c.flw	f8,8(x14)
	...
     8f2:	0258                	c.addi4spn	x14,x2,260
     8f4:	0000                	c.unimp
     8f6:	0280                	c.addi4spn	x8,x2,320
     8f8:	0000                	c.unimp
     8fa:	0001                	c.addi	x0,0
     8fc:	8058                	0x8058
     8fe:	0002                	c.slli64	x0
     900:	9400                	0x9400
     902:	0002                	c.slli64	x0
     904:	0100                	c.addi4spn	x8,x2,128
     906:	5c00                	c.lw	x8,56(x8)
	...
     910:	01f4                	c.addi4spn	x13,x2,204
     912:	0000                	c.unimp
     914:	0208                	c.addi4spn	x10,x2,256
     916:	0000                	c.unimp
     918:	0001                	c.addi	x0,0
     91a:	00021063          	bne	x4,x0,91a <SYSCALL_ADDR-0x2006e6>
     91e:	1c00                	c.addi4spn	x8,x2,560
     920:	0002                	c.slli64	x0
     922:	0100                	c.addi4spn	x8,x2,128
     924:	5e00                	c.lw	x8,56(x12)
     926:	021c                	c.addi4spn	x15,x2,256
     928:	0000                	c.unimp
     92a:	0220                	c.addi4spn	x8,x2,264
     92c:	0000                	c.unimp
     92e:	0008                	0x8
     930:	0084                	c.addi4spn	x9,x2,64
     932:	2540                	c.fld	f8,136(x10)
     934:	9f210083          	lb	x1,-1550(x2) # fffff9f2 <_end+0x7fff51e2>
     938:	0220                	c.addi4spn	x8,x2,264
     93a:	0000                	c.unimp
     93c:	0234                	c.addi4spn	x13,x2,264
     93e:	0000                	c.unimp
     940:	0001                	c.addi	x0,0
     942:	345e                	c.fldsp	f8,496(x2)
     944:	0002                	c.slli64	x0
     946:	5800                	c.lw	x8,48(x8)
     948:	0002                	c.slli64	x0
     94a:	0100                	c.addi4spn	x8,x2,128
     94c:	5800                	c.lw	x8,48(x8)
	...
     956:	0244                	c.addi4spn	x9,x2,260
     958:	0000                	c.unimp
     95a:	024c                	c.addi4spn	x11,x2,260
     95c:	0000                	c.unimp
     95e:	0001                	c.addi	x0,0
     960:	4c5a                	c.lwsp	x24,148(x2)
     962:	0002                	c.slli64	x0
     964:	6000                	c.flw	f8,0(x8)
     966:	0002                	c.slli64	x0
     968:	0100                	c.addi4spn	x8,x2,128
     96a:	6300                	c.flw	f8,0(x14)
     96c:	0270                	c.addi4spn	x12,x2,268
     96e:	0000                	c.unimp
     970:	027c                	c.addi4spn	x15,x2,268
     972:	0000                	c.unimp
     974:	0001                	c.addi	x0,0
     976:	0064                	c.addi4spn	x9,x2,12
     978:	0000                	c.unimp
     97a:	0000                	c.unimp
     97c:	0000                	c.unimp
     97e:	0400                	c.addi4spn	x8,x2,512
     980:	0002                	c.slli64	x0
     982:	3c00                	c.fld	f8,56(x8)
     984:	0002                	c.slli64	x0
     986:	0100                	c.addi4spn	x8,x2,128
     988:	5a00                	c.lw	x8,48(x12)
     98a:	026c                	c.addi4spn	x11,x2,268
     98c:	0000                	c.unimp
     98e:	0294                	c.addi4spn	x13,x2,320
     990:	0000                	c.unimp
     992:	0001                	c.addi	x0,0
     994:	005a                	c.slli	x0,0x16
     996:	0000                	c.unimp
     998:	0000                	c.unimp
     99a:	0000                	c.unimp
     99c:	0800                	c.addi4spn	x8,x2,16
     99e:	84000003          	lb	x0,-1984(x0) # fffff840 <_end+0x7fff5030>
     9a2:	01000003          	lb	x0,16(x0) # 10 <SYSCALL_ADDR-0x200ff0>
     9a6:	5800                	c.lw	x8,48(x8)
     9a8:	0384                	c.addi4spn	x9,x2,448
     9aa:	0000                	c.unimp
     9ac:	03d0                	c.addi4spn	x12,x2,452
     9ae:	0000                	c.unimp
     9b0:	0005                	c.addi	x0,1
     9b2:	0082                	c.slli64	x1
     9b4:	2540                	c.fld	f8,136(x10)
     9b6:	009f 0000 0000      	0x9f
     9bc:	0000                	c.unimp
     9be:	2400                	c.fld	f8,8(x8)
     9c0:	d0000003          	lb	x0,-768(x0) # fffffd00 <_end+0x7fff54f0>
     9c4:	01000003          	lb	x0,16(x0) # 10 <SYSCALL_ADDR-0x200ff0>
     9c8:	6600                	c.flw	f8,8(x12)
	...
     9d2:	0328                	c.addi4spn	x10,x2,392
     9d4:	0000                	c.unimp
     9d6:	0330                	c.addi4spn	x12,x2,392
     9d8:	0000                	c.unimp
     9da:	0001                	c.addi	x0,0
     9dc:	305a                	c.fldsp	f0,432(x2)
     9de:	33000003          	lb	x0,816(x0) # 330 <SYSCALL_ADDR-0x200cd0>
     9e2:	01000003          	lb	x0,16(x0) # 10 <SYSCALL_ADDR-0x200ff0>
     9e6:	5b00                	c.lw	x8,48(x14)
     9e8:	00000333          	add	x6,x0,x0
     9ec:	0350                	c.addi4spn	x12,x2,388
     9ee:	0000                	c.unimp
     9f0:	0001                	c.addi	x0,0
     9f2:	00035063          	bge	x6,x0,9f2 <SYSCALL_ADDR-0x20060e>
     9f6:	d000                	c.sw	x8,32(x8)
     9f8:	01000003          	lb	x0,16(x0) # 10 <SYSCALL_ADDR-0x200ff0>
     9fc:	6700                	c.flw	f8,8(x14)
	...
     a06:	0388                	c.addi4spn	x10,x2,448
     a08:	0000                	c.unimp
     a0a:	0394                	c.addi4spn	x13,x2,448
     a0c:	0000                	c.unimp
     a0e:	0001                	c.addi	x0,0
     a10:	945a                	c.add	x8,x22
     a12:	9b000003          	lb	x0,-1616(x0) # fffff9b0 <_end+0x7fff51a0>
     a16:	01000003          	lb	x0,16(x0) # 10 <SYSCALL_ADDR-0x200ff0>
     a1a:	5b00                	c.lw	x8,48(x14)
     a1c:	0000039b          	0x39b
     a20:	03b0                	c.addi4spn	x12,x2,456
     a22:	0000                	c.unimp
     a24:	0001                	c.addi	x0,0
     a26:	0003b063          	0x3b063
     a2a:	d000                	c.sw	x8,32(x8)
     a2c:	01000003          	lb	x0,16(x0) # 10 <SYSCALL_ADDR-0x200ff0>
     a30:	5f00                	c.lw	x8,56(x14)
	...
     a3a:	0324                	c.addi4spn	x9,x2,392
     a3c:	0000                	c.unimp
     a3e:	0338                	c.addi4spn	x14,x2,392
     a40:	0000                	c.unimp
     a42:	0001                	c.addi	x0,0
     a44:	4059                	c.li	x0,22
     a46:	4c000003          	lb	x0,1216(x0) # 4c0 <SYSCALL_ADDR-0x200b40>
     a4a:	01000003          	lb	x0,16(x0) # 10 <SYSCALL_ADDR-0x200ff0>
     a4e:	5f00                	c.lw	x8,56(x14)
     a50:	034c                	c.addi4spn	x11,x2,388
     a52:	0000                	c.unimp
     a54:	0350                	c.addi4spn	x12,x2,388
     a56:	0000                	c.unimp
     a58:	0008                	0x8
     a5a:	0085                	c.addi	x1,1
     a5c:	2540                	c.fld	f8,136(x10)
     a5e:	0079                	c.addi	x0,30
     a60:	9f21                	0x9f21
     a62:	0350                	c.addi4spn	x12,x2,388
     a64:	0000                	c.unimp
     a66:	0364                	c.addi4spn	x9,x2,396
     a68:	0000                	c.unimp
     a6a:	0001                	c.addi	x0,0
     a6c:	645f 0003 8800      	0x88000003645f
     a72:	01000003          	lb	x0,16(x0) # 10 <SYSCALL_ADDR-0x200ff0>
     a76:	6300                	c.flw	f8,0(x14)
	...
     a80:	0378                	c.addi4spn	x14,x2,396
     a82:	0000                	c.unimp
     a84:	0390                	c.addi4spn	x12,x2,448
     a86:	0000                	c.unimp
     a88:	0001                	c.addi	x0,0
     a8a:	a059                	c.j	b10 <SYSCALL_ADDR-0x2004f0>
     a8c:	ac000003          	lb	x0,-1344(x0) # fffffac0 <_end+0x7fff52b0>
     a90:	01000003          	lb	x0,16(x0) # 10 <SYSCALL_ADDR-0x200ff0>
     a94:	5800                	c.lw	x8,48(x8)
     a96:	03ac                	c.addi4spn	x11,x2,456
     a98:	0000                	c.unimp
     a9a:	03b0                	c.addi4spn	x12,x2,456
     a9c:	0000                	c.unimp
     a9e:	000a                	c.slli	x0,0x2
     aa0:	0085                	c.addi	x1,1
     aa2:	2440                	c.fld	f8,136(x8)
     aa4:	2540                	c.fld	f8,136(x10)
     aa6:	0079                	c.addi	x0,30
     aa8:	9f21                	0x9f21
     aaa:	03b0                	c.addi4spn	x12,x2,456
     aac:	0000                	c.unimp
     aae:	03d0                	c.addi4spn	x12,x2,452
     ab0:	0000                	c.unimp
     ab2:	0001                	c.addi	x0,0
     ab4:	0058                	c.addi4spn	x14,x2,4
     ab6:	0000                	c.unimp
     ab8:	0000                	c.unimp
     aba:	0000                	c.unimp
     abc:	3400                	c.fld	f8,40(x8)
     abe:	6c000003          	lb	x0,1728(x0) # 6c0 <SYSCALL_ADDR-0x200940>
     ac2:	01000003          	lb	x0,16(x0) # 10 <SYSCALL_ADDR-0x200ff0>
     ac6:	5a00                	c.lw	x8,48(x12)
     ac8:	039c                	c.addi4spn	x15,x2,448
     aca:	0000                	c.unimp
     acc:	03d0                	c.addi4spn	x12,x2,452
     ace:	0000                	c.unimp
     ad0:	0001                	c.addi	x0,0
     ad2:	005a                	c.slli	x0,0x16
     ad4:	0000                	c.unimp
     ad6:	0000                	c.unimp
     ad8:	0000                	c.unimp
     ada:	d400                	c.sw	x8,40(x8)
     adc:	3c000003          	lb	x0,960(x0) # 3c0 <SYSCALL_ADDR-0x200c40>
     ae0:	0004                	0x4
     ae2:	0100                	c.addi4spn	x8,x2,128
     ae4:	5d00                	c.lw	x8,56(x10)
	...
     aee:	03e8                	c.addi4spn	x10,x2,460
     af0:	0000                	c.unimp
     af2:	0420                	c.addi4spn	x8,x2,520
     af4:	0000                	c.unimp
     af6:	0001                	c.addi	x0,0
     af8:	345e                	c.fldsp	f8,496(x2)
     afa:	0004                	0x4
     afc:	6300                	c.flw	f8,0(x14)
     afe:	0004                	0x4
     b00:	0100                	c.addi4spn	x8,x2,128
     b02:	5e00                	c.lw	x8,56(x12)
	...
     b10:	00a0                	c.addi4spn	x8,x2,72
     b12:	0000                	c.unimp
     b14:	0006                	c.slli	x0,0x1
     b16:	935a                	c.add	x6,x22
     b18:	5b04                	c.lw	x9,48(x14)
     b1a:	00a00493          	addi	x9,x0,10
     b1e:	0000                	c.unimp
     b20:	0188                	c.addi4spn	x10,x2,192
     b22:	0000                	c.unimp
     b24:	0006                	c.slli	x0,0x1
     b26:	0af503f3          	0xaf503f3
     b2a:	9f25                	0x9f25
     b2c:	0188                	c.addi4spn	x10,x2,192
     b2e:	0000                	c.unimp
     b30:	01a8                	c.addi4spn	x10,x2,200
     b32:	0000                	c.unimp
     b34:	0006                	c.slli	x0,0x1
     b36:	935a                	c.add	x6,x22
     b38:	5b04                	c.lw	x9,48(x14)
     b3a:	01a80493          	addi	x9,x16,26
     b3e:	0000                	c.unimp
     b40:	02bc                	c.addi4spn	x15,x2,328
     b42:	0000                	c.unimp
     b44:	0006                	c.slli	x0,0x1
     b46:	0af503f3          	0xaf503f3
     b4a:	9f25                	0x9f25
     b4c:	02bc                	c.addi4spn	x15,x2,328
     b4e:	0000                	c.unimp
     b50:	02d0                	c.addi4spn	x12,x2,324
     b52:	0000                	c.unimp
     b54:	0006                	c.slli	x0,0x1
     b56:	935a                	c.add	x6,x22
     b58:	5b04                	c.lw	x9,48(x14)
     b5a:	02d00493          	addi	x9,x0,45
     b5e:	0000                	c.unimp
     b60:	031c                	c.addi4spn	x15,x2,384
     b62:	0000                	c.unimp
     b64:	0006                	c.slli	x0,0x1
     b66:	0af503f3          	0xaf503f3
     b6a:	9f25                	0x9f25
     b6c:	031c                	c.addi4spn	x15,x2,384
     b6e:	0000                	c.unimp
     b70:	0324                	c.addi4spn	x9,x2,392
     b72:	0000                	c.unimp
     b74:	0006                	c.slli	x0,0x1
     b76:	935a                	c.add	x6,x22
     b78:	5b04                	c.lw	x9,48(x14)
     b7a:	03240493          	addi	x9,x8,50
     b7e:	0000                	c.unimp
     b80:	04f0                	c.addi4spn	x12,x2,588
     b82:	0000                	c.unimp
     b84:	0006                	c.slli	x0,0x1
     b86:	0af503f3          	0xaf503f3
     b8a:	9f25                	0x9f25
	...
     b98:	00a0                	c.addi4spn	x8,x2,72
     b9a:	0000                	c.unimp
     b9c:	0006                	c.slli	x0,0x1
     b9e:	935c                	0x935c
     ba0:	5d04                	c.lw	x9,56(x10)
     ba2:	00a00493          	addi	x9,x0,10
     ba6:	0000                	c.unimp
     ba8:	0188                	c.addi4spn	x10,x2,192
     baa:	0000                	c.unimp
     bac:	0006                	c.slli	x0,0x1
     bae:	0cf503f3          	0xcf503f3
     bb2:	9f25                	0x9f25
     bb4:	0188                	c.addi4spn	x10,x2,192
     bb6:	0000                	c.unimp
     bb8:	000001ab          	0x1ab
     bbc:	0006                	c.slli	x0,0x1
     bbe:	935c                	0x935c
     bc0:	5d04                	c.lw	x9,56(x10)
     bc2:	01ab0493          	addi	x9,x22,26 # fffe001a <_end+0x7ffd580a>
     bc6:	0000                	c.unimp
     bc8:	02bc                	c.addi4spn	x15,x2,328
     bca:	0000                	c.unimp
     bcc:	0006                	c.slli	x0,0x1
     bce:	0cf503f3          	0xcf503f3
     bd2:	9f25                	0x9f25
     bd4:	02bc                	c.addi4spn	x15,x2,328
     bd6:	0000                	c.unimp
     bd8:	035f 0000 0006      	0x60000035f
     bde:	935c                	0x935c
     be0:	5d04                	c.lw	x9,56(x10)
     be2:	035f0493          	addi	x9,x30,53
     be6:	0000                	c.unimp
     be8:	04f0                	c.addi4spn	x12,x2,588
     bea:	0000                	c.unimp
     bec:	0006                	c.slli	x0,0x1
     bee:	0cf503f3          	0xcf503f3
     bf2:	9f25                	0x9f25
	...
     bfc:	0318                	c.addi4spn	x14,x2,384
     bfe:	0000                	c.unimp
     c00:	031c                	c.addi4spn	x15,x2,384
     c02:	0000                	c.unimp
     c04:	0006                	c.slli	x0,0x1
     c06:	9358                	0x9358
     c08:	5904                	c.lw	x9,48(x10)
     c0a:	04ec0493          	addi	x9,x24,78
     c0e:	0000                	c.unimp
     c10:	04f0                	c.addi4spn	x12,x2,588
     c12:	0000                	c.unimp
     c14:	0006                	c.slli	x0,0x1
     c16:	935a                	c.add	x6,x22
     c18:	5b04                	c.lw	x9,48(x14)
     c1a:	00000493          	addi	x9,x0,0
     c1e:	0000                	c.unimp
     c20:	0000                	c.unimp
     c22:	0000                	c.unimp
     c24:	0038                	c.addi4spn	x14,x2,8
     c26:	0000                	c.unimp
     c28:	0150                	c.addi4spn	x12,x2,132
     c2a:	0000                	c.unimp
     c2c:	0006                	c.slli	x0,0x1
     c2e:	89f2                	c.mv	x19,x28
     c30:	0000000b          	0xb
     c34:	0188                	c.addi4spn	x10,x2,192
     c36:	0000                	c.unimp
     c38:	04f0                	c.addi4spn	x12,x2,588
     c3a:	0000                	c.unimp
     c3c:	0006                	c.slli	x0,0x1
     c3e:	89f2                	c.mv	x19,x28
     c40:	0000000b          	0xb
	...
     c4c:	0038                	c.addi4spn	x14,x2,8
     c4e:	0000                	c.unimp
     c50:	00a0                	c.addi4spn	x8,x2,72
     c52:	0000                	c.unimp
     c54:	0006                	c.slli	x0,0x1
     c56:	935c                	0x935c
     c58:	5d04                	c.lw	x9,56(x10)
     c5a:	01880493          	addi	x9,x16,24
     c5e:	0000                	c.unimp
     c60:	000001ab          	0x1ab
     c64:	0006                	c.slli	x0,0x1
     c66:	935c                	0x935c
     c68:	5d04                	c.lw	x9,56(x10)
     c6a:	01ab0493          	addi	x9,x22,26
     c6e:	0000                	c.unimp
     c70:	01b0                	c.addi4spn	x12,x2,200
     c72:	0000                	c.unimp
     c74:	0006                	c.slli	x0,0x1
     c76:	9364                	0x9364
     c78:	6304                	c.flw	f9,0(x14)
     c7a:	02bc0493          	addi	x9,x24,43
     c7e:	0000                	c.unimp
     c80:	0334                	c.addi4spn	x13,x2,392
     c82:	0000                	c.unimp
     c84:	0006                	c.slli	x0,0x1
     c86:	935c                	0x935c
     c88:	5d04                	c.lw	x9,56(x10)
     c8a:	00000493          	addi	x9,x0,0
     c8e:	0000                	c.unimp
     c90:	0000                	c.unimp
     c92:	0000                	c.unimp
     c94:	0038                	c.addi4spn	x14,x2,8
     c96:	0000                	c.unimp
     c98:	0090                	c.addi4spn	x12,x2,64
     c9a:	0000                	c.unimp
     c9c:	0006                	c.slli	x0,0x1
     c9e:	935a                	c.add	x6,x22
     ca0:	5b04                	c.lw	x9,48(x14)
     ca2:	00900493          	addi	x9,x0,9
     ca6:	0000                	c.unimp
     ca8:	009c                	c.addi4spn	x15,x2,64
     caa:	0000                	c.unimp
     cac:	0006                	c.slli	x0,0x1
     cae:	935a                	c.add	x6,x22
     cb0:	5904                	c.lw	x9,48(x10)
     cb2:	009c0493          	addi	x9,x24,9
     cb6:	0000                	c.unimp
     cb8:	00a0                	c.addi4spn	x8,x2,72
     cba:	0000                	c.unimp
     cbc:	0006                	c.slli	x0,0x1
     cbe:	935a                	c.add	x6,x22
     cc0:	6604                	c.flw	f9,8(x12)
     cc2:	01880493          	addi	x9,x16,24
     cc6:	0000                	c.unimp
     cc8:	01d8                	c.addi4spn	x14,x2,196
     cca:	0000                	c.unimp
     ccc:	0006                	c.slli	x0,0x1
     cce:	9358                	0x9358
     cd0:	5904                	c.lw	x9,48(x10)
     cd2:	01d80493          	addi	x9,x16,29
     cd6:	0000                	c.unimp
     cd8:	01fc                	c.addi4spn	x15,x2,204
     cda:	0000                	c.unimp
     cdc:	0006                	c.slli	x0,0x1
     cde:	9358                	0x9358
     ce0:	6604                	c.flw	f9,8(x12)
     ce2:	02a80493          	addi	x9,x16,42
     ce6:	0000                	c.unimp
     ce8:	0304                	c.addi4spn	x9,x2,384
     cea:	0000                	c.unimp
     cec:	0006                	c.slli	x0,0x1
     cee:	9358                	0x9358
     cf0:	5904                	c.lw	x9,48(x10)
     cf2:	03040493          	addi	x9,x8,48
     cf6:	0000                	c.unimp
     cf8:	0310                	c.addi4spn	x12,x2,384
     cfa:	0000                	c.unimp
     cfc:	0006                	c.slli	x0,0x1
     cfe:	9362                	c.add	x6,x24
     d00:	5904                	c.lw	x9,48(x10)
     d02:	03100493          	addi	x9,x0,49
     d06:	0000                	c.unimp
     d08:	031c                	c.addi4spn	x15,x2,384
     d0a:	0000                	c.unimp
     d0c:	0006                	c.slli	x0,0x1
     d0e:	9362                	c.add	x6,x24
     d10:	6604                	c.flw	f9,8(x12)
     d12:	031c0493          	addi	x9,x24,49
     d16:	0000                	c.unimp
     d18:	0348                	c.addi4spn	x10,x2,388
     d1a:	0000                	c.unimp
     d1c:	0006                	c.slli	x0,0x1
     d1e:	9358                	0x9358
     d20:	5904                	c.lw	x9,48(x10)
     d22:	03480493          	addi	x9,x16,52
     d26:	0000                	c.unimp
     d28:	034c                	c.addi4spn	x11,x2,388
     d2a:	0000                	c.unimp
     d2c:	0006                	c.slli	x0,0x1
     d2e:	9358                	0x9358
     d30:	6604                	c.flw	f9,8(x12)
     d32:	00000493          	addi	x9,x0,0
     d36:	0000                	c.unimp
     d38:	0000                	c.unimp
     d3a:	0000                	c.unimp
     d3c:	0038                	c.addi4spn	x14,x2,8
     d3e:	0000                	c.unimp
     d40:	0098                	c.addi4spn	x14,x2,64
     d42:	0000                	c.unimp
     d44:	0001                	c.addi	x0,0
     d46:	985c                	0x985c
     d48:	0000                	c.unimp
     d4a:	5000                	c.lw	x8,32(x8)
     d4c:	0001                	c.addi	x0,0
     d4e:	0100                	c.addi4spn	x8,x2,128
     d50:	6400                	c.flw	f8,8(x8)
     d52:	0188                	c.addi4spn	x10,x2,192
     d54:	0000                	c.unimp
     d56:	000001ab          	0x1ab
     d5a:	0001                	c.addi	x0,0
     d5c:	ab5c                	c.fsd	f15,144(x14)
     d5e:	0001                	c.addi	x0,0
     d60:	bc00                	c.fsd	f8,56(x8)
     d62:	0002                	c.slli64	x0
     d64:	0100                	c.addi4spn	x8,x2,128
     d66:	6400                	c.flw	f8,8(x8)
     d68:	02bc                	c.addi4spn	x15,x2,328
     d6a:	0000                	c.unimp
     d6c:	035c                	c.addi4spn	x15,x2,388
     d6e:	0000                	c.unimp
     d70:	0001                	c.addi	x0,0
     d72:	5c5c                	c.lw	x15,60(x8)
     d74:	f0000003          	lb	x0,-256(x0) # ffffff00 <_end+0x7fff56f0>
     d78:	0004                	0x4
     d7a:	0100                	c.addi4spn	x8,x2,128
     d7c:	6900                	c.flw	f8,16(x10)
	...
     d86:	0038                	c.addi4spn	x14,x2,8
     d88:	0000                	c.unimp
     d8a:	00a0                	c.addi4spn	x8,x2,72
     d8c:	0000                	c.unimp
     d8e:	0001                	c.addi	x0,0
     d90:	885d                	c.andi	x8,23
     d92:	0001                	c.addi	x0,0
     d94:	ab00                	c.fsd	f8,16(x14)
     d96:	0001                	c.addi	x0,0
     d98:	0100                	c.addi4spn	x8,x2,128
     d9a:	5d00                	c.lw	x8,56(x10)
     d9c:	000001ab          	0x1ab
     da0:	01c4                	c.addi4spn	x9,x2,196
     da2:	0000                	c.unimp
     da4:	0001                	c.addi	x0,0
     da6:	0002a863          	0x2a863
     daa:	b000                	c.fsd	f8,32(x8)
     dac:	0002                	c.slli64	x0
     dae:	0100                	c.addi4spn	x8,x2,128
     db0:	6300                	c.flw	f8,0(x14)
     db2:	02bc                	c.addi4spn	x15,x2,328
     db4:	0000                	c.unimp
     db6:	0334                	c.addi4spn	x13,x2,392
     db8:	0000                	c.unimp
     dba:	0001                	c.addi	x0,0
     dbc:	3c5d                	c.jal	872 <SYSCALL_ADDR-0x20078e>
     dbe:	f0000003          	lb	x0,-256(x0) # ffffff00 <_end+0x7fff56f0>
     dc2:	0004                	0x4
     dc4:	0100                	c.addi4spn	x8,x2,128
     dc6:	6800                	c.flw	f8,16(x8)
	...
     dd0:	0040                	c.addi4spn	x8,x2,4
     dd2:	0000                	c.unimp
     dd4:	00a0                	c.addi4spn	x8,x2,72
     dd6:	0000                	c.unimp
     dd8:	0001                	c.addi	x0,0
     dda:	a05a                	c.fsdsp	f22,0(x2)
     ddc:	0000                	c.unimp
     dde:	1800                	c.addi4spn	x8,x2,48
     de0:	0001                	c.addi	x0,0
     de2:	0100                	c.addi4spn	x8,x2,128
     de4:	5800                	c.lw	x8,48(x8)
     de6:	0148                	c.addi4spn	x10,x2,132
     de8:	0000                	c.unimp
     dea:	0150                	c.addi4spn	x12,x2,132
     dec:	0000                	c.unimp
     dee:	0001                	c.addi	x0,0
     df0:	8858                	0x8858
     df2:	0001                	c.addi	x0,0
     df4:	0400                	c.addi4spn	x8,x2,512
     df6:	01000003          	lb	x0,16(x0) # 10 <SYSCALL_ADDR-0x200ff0>
     dfa:	5800                	c.lw	x8,48(x8)
     dfc:	0304                	c.addi4spn	x9,x2,384
     dfe:	0000                	c.unimp
     e00:	0310                	c.addi4spn	x12,x2,384
     e02:	0000                	c.unimp
     e04:	0001                	c.addi	x0,0
     e06:	1062                	c.slli	x0,0x38
     e08:	d4000003          	lb	x0,-704(x0) # fffffd40 <_end+0x7fff5530>
     e0c:	0004                	0x4
     e0e:	0100                	c.addi4spn	x8,x2,128
     e10:	5800                	c.lw	x8,48(x8)
     e12:	04dc                	c.addi4spn	x15,x2,580
     e14:	0000                	c.unimp
     e16:	04e4                	c.addi4spn	x9,x2,588
     e18:	0000                	c.unimp
     e1a:	0001                	c.addi	x0,0
     e1c:	005a                	c.slli	x0,0x16
     e1e:	0000                	c.unimp
     e20:	0000                	c.unimp
     e22:	0000                	c.unimp
     e24:	4400                	c.lw	x8,8(x8)
     e26:	0000                	c.unimp
     e28:	9000                	0x9000
     e2a:	0000                	c.unimp
     e2c:	0100                	c.addi4spn	x8,x2,128
     e2e:	5b00                	c.lw	x8,48(x14)
     e30:	0090                	c.addi4spn	x12,x2,64
     e32:	0000                	c.unimp
     e34:	00f8                	c.addi4spn	x14,x2,76
     e36:	0000                	c.unimp
     e38:	0001                	c.addi	x0,0
     e3a:	8859                	c.andi	x8,22
     e3c:	0001                	c.addi	x0,0
     e3e:	d800                	c.sw	x8,48(x8)
     e40:	0001                	c.addi	x0,0
     e42:	0100                	c.addi4spn	x8,x2,128
     e44:	5900                	c.lw	x8,48(x10)
     e46:	01d8                	c.addi4spn	x14,x2,196
     e48:	0000                	c.unimp
     e4a:	02a4                	c.addi4spn	x9,x2,328
     e4c:	0000                	c.unimp
     e4e:	0001                	c.addi	x0,0
     e50:	a466                	c.fsdsp	f25,8(x2)
     e52:	0002                	c.slli64	x0
     e54:	4800                	c.lw	x8,16(x8)
     e56:	01000003          	lb	x0,16(x0) # 10 <SYSCALL_ADDR-0x200ff0>
     e5a:	5900                	c.lw	x8,48(x10)
     e5c:	0348                	c.addi4spn	x10,x2,388
     e5e:	0000                	c.unimp
     e60:	034c                	c.addi4spn	x11,x2,388
     e62:	0000                	c.unimp
     e64:	0001                	c.addi	x0,0
     e66:	5c66                	c.lwsp	x24,120(x2)
     e68:	34000003          	lb	x0,832(x0) # 340 <SYSCALL_ADDR-0x200cc0>
     e6c:	0004                	0x4
     e6e:	0100                	c.addi4spn	x8,x2,128
     e70:	5900                	c.lw	x8,48(x10)
     e72:	0434                	c.addi4spn	x13,x2,520
     e74:	0000                	c.unimp
     e76:	04dc                	c.addi4spn	x15,x2,580
     e78:	0000                	c.unimp
     e7a:	0001                	c.addi	x0,0
     e7c:	dc5e                	c.swsp	x23,56(x2)
     e7e:	0004                	0x4
     e80:	ec00                	c.fsw	f8,24(x8)
     e82:	0004                	0x4
     e84:	0100                	c.addi4spn	x8,x2,128
     e86:	5b00                	c.lw	x8,48(x14)
	...
     e90:	01ec                	c.addi4spn	x11,x2,204
     e92:	0000                	c.unimp
     e94:	0254                	c.addi4spn	x13,x2,260
     e96:	0000                	c.unimp
     e98:	0001                	c.addi	x0,0
     e9a:	5c65                	c.li	x24,-7
     e9c:	5f000003          	lb	x0,1520(x0) # 5f0 <SYSCALL_ADDR-0x200a10>
     ea0:	01000003          	lb	x0,16(x0) # 10 <SYSCALL_ADDR-0x200ff0>
     ea4:	5a00                	c.lw	x8,48(x12)
     ea6:	035f 0000 039c      	0x39c0000035f
     eac:	0000                	c.unimp
     eae:	0001                	c.addi	x0,0
     eb0:	006a                	c.slli	x0,0x1a
	...
     eba:	10000003          	lb	x0,256(x0) # 100 <SYSCALL_ADDR-0x200f00>
     ebe:	02000003          	lb	x0,32(x0) # 20 <SYSCALL_ADDR-0x200fe0>
     ec2:	3100                	c.fld	f8,32(x10)
     ec4:	009f 0000 0000      	0x9f
     eca:	0000                	c.unimp
     ecc:	1000                	c.addi4spn	x8,x2,32
     ece:	1c000003          	lb	x0,448(x0) # 1c0 <SYSCALL_ADDR-0x200e40>
     ed2:	02000003          	lb	x0,32(x0) # 20 <SYSCALL_ADDR-0x200fe0>
     ed6:	3000                	c.fld	f8,32(x8)
     ed8:	cc9f 0004 f000      	0xf0000004cc9f
     ede:	0004                	0x4
     ee0:	0200                	c.addi4spn	x8,x2,256
     ee2:	3000                	c.fld	f8,32(x8)
     ee4:	009f 0000 0000      	0x9f
     eea:	0000                	c.unimp
     eec:	e400                	c.fsw	f8,8(x8)
     eee:	0001                	c.addi	x0,0
     ef0:	f400                	c.fsw	f8,40(x8)
     ef2:	0001                	c.addi	x0,0
     ef4:	0100                	c.addi4spn	x8,x2,128
     ef6:	5f00                	c.lw	x8,56(x14)
     ef8:	0330                	c.addi4spn	x12,x2,392
     efa:	0000                	c.unimp
     efc:	04f0                	c.addi4spn	x12,x2,588
     efe:	0000                	c.unimp
     f00:	0001                	c.addi	x0,0
     f02:	0065                	c.addi	x0,25
     f04:	0000                	c.unimp
     f06:	0000                	c.unimp
     f08:	0000                	c.unimp
     f0a:	8800                	0x8800
     f0c:	0000                	c.unimp
     f0e:	5000                	c.lw	x8,32(x8)
     f10:	0001                	c.addi	x0,0
     f12:	0100                	c.addi4spn	x8,x2,128
     f14:	6300                	c.flw	f8,0(x14)
     f16:	01e0                	c.addi4spn	x8,x2,204
     f18:	0000                	c.unimp
     f1a:	02a8                	c.addi4spn	x10,x2,328
     f1c:	0000                	c.unimp
     f1e:	0001                	c.addi	x0,0
     f20:	0002f463          	bgeu	x5,x0,f28 <SYSCALL_ADDR-0x2000d8>
     f24:	1c00                	c.addi4spn	x8,x2,560
     f26:	01000003          	lb	x0,16(x0) # 10 <SYSCALL_ADDR-0x200ff0>
     f2a:	6400                	c.flw	f8,8(x8)
     f2c:	0330                	c.addi4spn	x12,x2,392
     f2e:	0000                	c.unimp
     f30:	04f0                	c.addi4spn	x12,x2,588
     f32:	0000                	c.unimp
     f34:	0001                	c.addi	x0,0
     f36:	0064                	c.addi4spn	x9,x2,12
     f38:	0000                	c.unimp
     f3a:	0000                	c.unimp
     f3c:	0000                	c.unimp
     f3e:	5c00                	c.lw	x8,56(x8)
     f40:	0000                	c.unimp
     f42:	a000                	c.fsd	f8,0(x8)
     f44:	0000                	c.unimp
     f46:	0100                	c.addi4spn	x8,x2,128
     f48:	5c00                	c.lw	x8,56(x8)
     f4a:	0188                	c.addi4spn	x10,x2,192
     f4c:	0000                	c.unimp
     f4e:	019c                	c.addi4spn	x15,x2,192
     f50:	0000                	c.unimp
     f52:	0001                	c.addi	x0,0
     f54:	005c                	c.addi4spn	x15,x2,4
     f56:	0000                	c.unimp
     f58:	0000                	c.unimp
     f5a:	0000                	c.unimp
     f5c:	7000                	c.flw	f8,32(x8)
     f5e:	0000                	c.unimp
     f60:	8800                	0x8800
     f62:	0000                	c.unimp
     f64:	0100                	c.addi4spn	x8,x2,128
     f66:	6300                	c.flw	f8,0(x14)
	...
     f70:	00a4                	c.addi4spn	x9,x2,72
     f72:	0000                	c.unimp
     f74:	0150                	c.addi4spn	x12,x2,132
     f76:	0000                	c.unimp
     f78:	0001                	c.addi	x0,0
     f7a:	0065                	c.addi	x0,25
     f7c:	0000                	c.unimp
     f7e:	0000                	c.unimp
     f80:	0000                	c.unimp
     f82:	c800                	c.sw	x8,16(x8)
     f84:	0000                	c.unimp
     f86:	5000                	c.lw	x8,32(x8)
     f88:	0001                	c.addi	x0,0
     f8a:	0100                	c.addi4spn	x8,x2,128
     f8c:	6600                	c.flw	f8,8(x12)
	...
     f96:	00cc                	c.addi4spn	x11,x2,68
     f98:	0000                	c.unimp
     f9a:	00d0                	c.addi4spn	x12,x2,68
     f9c:	0000                	c.unimp
     f9e:	0001                	c.addi	x0,0
     fa0:	d05a                	c.swsp	x22,32(x2)
     fa2:	0000                	c.unimp
     fa4:	d300                	c.sw	x8,32(x14)
     fa6:	0000                	c.unimp
     fa8:	0100                	c.addi4spn	x8,x2,128
     faa:	5b00                	c.lw	x8,48(x14)
	...
     fb4:	011c                	c.addi4spn	x15,x2,128
     fb6:	0000                	c.unimp
     fb8:	0124                	c.addi4spn	x9,x2,136
     fba:	0000                	c.unimp
     fbc:	0001                	c.addi	x0,0
     fbe:	245a                	c.fldsp	f8,400(x2)
     fc0:	0001                	c.addi	x0,0
     fc2:	2b00                	c.fld	f8,16(x14)
     fc4:	0001                	c.addi	x0,0
     fc6:	0100                	c.addi4spn	x8,x2,128
     fc8:	5b00                	c.lw	x8,48(x14)
	...
     fd2:	00c8                	c.addi4spn	x10,x2,68
     fd4:	0000                	c.unimp
     fd6:	00d8                	c.addi4spn	x14,x2,68
     fd8:	0000                	c.unimp
     fda:	0001                	c.addi	x0,0
     fdc:	e062                	c.fswsp	f24,0(x2)
     fde:	0000                	c.unimp
     fe0:	f800                	c.fsw	f8,48(x8)
     fe2:	0000                	c.unimp
     fe4:	0100                	c.addi4spn	x8,x2,128
     fe6:	5f00                	c.lw	x8,56(x14)
     fe8:	00f8                	c.addi4spn	x14,x2,76
     fea:	0000                	c.unimp
     fec:	0150                	c.addi4spn	x12,x2,132
     fee:	0000                	c.unimp
     ff0:	0001                	c.addi	x0,0
     ff2:	0059                	c.addi	x0,22
     ff4:	0000                	c.unimp
     ff6:	0000                	c.unimp
     ff8:	0000                	c.unimp
     ffa:	0800                	c.addi4spn	x8,x2,16
     ffc:	0001                	c.addi	x0,0
     ffe:	1000                	c.addi4spn	x8,x2,32
    1000:	0001                	c.addi	x0,0
    1002:	0100                	c.addi4spn	x8,x2,128
    1004:	5a00                	c.lw	x8,48(x12)
    1006:	0110                	c.addi4spn	x12,x2,128
    1008:	0000                	c.unimp
    100a:	0120                	c.addi4spn	x8,x2,136
    100c:	0000                	c.unimp
    100e:	0001                	c.addi	x0,0
    1010:	3062                	c.fldsp	f0,56(x2)
    1012:	0001                	c.addi	x0,0
    1014:	5000                	c.lw	x8,32(x8)
    1016:	0001                	c.addi	x0,0
    1018:	0100                	c.addi4spn	x8,x2,128
    101a:	5800                	c.lw	x8,48(x8)
	...
    1024:	00d4                	c.addi4spn	x13,x2,68
    1026:	0000                	c.unimp
    1028:	0100                	c.addi4spn	x8,x2,128
    102a:	0000                	c.unimp
    102c:	0001                	c.addi	x0,0
    102e:	2c5a                	c.fldsp	f24,400(x2)
    1030:	0001                	c.addi	x0,0
    1032:	4c00                	c.lw	x8,24(x8)
    1034:	0001                	c.addi	x0,0
    1036:	0100                	c.addi4spn	x8,x2,128
    1038:	5a00                	c.lw	x8,48(x12)
	...
    1042:	01b0                	c.addi4spn	x12,x2,200
    1044:	0000                	c.unimp
    1046:	01e8                	c.addi4spn	x10,x2,204
    1048:	0000                	c.unimp
    104a:	0001                	c.addi	x0,0
    104c:	a864                	c.fsd	f9,208(x8)
    104e:	0002                	c.slli64	x0
    1050:	bc00                	c.fsd	f8,56(x8)
    1052:	0002                	c.slli64	x0
    1054:	0100                	c.addi4spn	x8,x2,128
    1056:	6400                	c.flw	f8,8(x8)
	...
    1060:	01c4                	c.addi4spn	x9,x2,196
    1062:	0000                	c.unimp
    1064:	01e0                	c.addi4spn	x8,x2,204
    1066:	0000                	c.unimp
    1068:	0001                	c.addi	x0,0
    106a:	00000063          	beq	x0,x0,106a <SYSCALL_ADDR-0x1fff96>
    106e:	0000                	c.unimp
    1070:	0000                	c.unimp
    1072:	1000                	c.addi4spn	x8,x2,32
    1074:	0002                	c.slli64	x0
    1076:	a400                	c.fsd	f8,8(x8)
    1078:	0002                	c.slli64	x0
    107a:	0100                	c.addi4spn	x8,x2,128
    107c:	5900                	c.lw	x8,48(x10)
    107e:	02a4                	c.addi4spn	x9,x2,328
    1080:	0000                	c.unimp
    1082:	02a8                	c.addi4spn	x10,x2,328
    1084:	0000                	c.unimp
    1086:	0005                	c.addi	x0,1
    1088:	0084                	c.addi4spn	x9,x2,64
    108a:	2540                	c.fld	f8,136(x10)
    108c:	009f 0000 0000      	0x9f
    1092:	0000                	c.unimp
    1094:	2400                	c.fld	f8,8(x8)
    1096:	0002                	c.slli64	x0
    1098:	a800                	c.fsd	f8,16(x8)
    109a:	0002                	c.slli64	x0
    109c:	0100                	c.addi4spn	x8,x2,128
    109e:	6700                	c.flw	f8,8(x14)
	...
    10a8:	0228                	c.addi4spn	x10,x2,264
    10aa:	0000                	c.unimp
    10ac:	022c                	c.addi4spn	x11,x2,264
    10ae:	0000                	c.unimp
    10b0:	0001                	c.addi	x0,0
    10b2:	2c5a                	c.fldsp	f24,400(x2)
    10b4:	0002                	c.slli64	x0
    10b6:	2f00                	c.fld	f8,24(x14)
    10b8:	0002                	c.slli64	x0
    10ba:	0100                	c.addi4spn	x8,x2,128
    10bc:	5b00                	c.lw	x8,48(x14)
	...
    10c6:	0274                	c.addi4spn	x13,x2,268
    10c8:	0000                	c.unimp
    10ca:	0278                	c.addi4spn	x14,x2,268
    10cc:	0000                	c.unimp
    10ce:	0001                	c.addi	x0,0
    10d0:	785a                	c.flwsp	f16,180(x2)
    10d2:	0002                	c.slli64	x0
    10d4:	7b00                	c.flw	f8,48(x14)
    10d6:	0002                	c.slli64	x0
    10d8:	0100                	c.addi4spn	x8,x2,128
    10da:	5b00                	c.lw	x8,48(x14)
	...
    10e4:	0224                	c.addi4spn	x9,x2,264
    10e6:	0000                	c.unimp
    10e8:	0234                	c.addi4spn	x13,x2,264
    10ea:	0000                	c.unimp
    10ec:	0001                	c.addi	x0,0
    10ee:	3c62                	c.fldsp	f24,56(x2)
    10f0:	0002                	c.slli64	x0
    10f2:	5400                	c.lw	x8,40(x8)
    10f4:	0002                	c.slli64	x0
    10f6:	0100                	c.addi4spn	x8,x2,128
    10f8:	5f00                	c.lw	x8,56(x14)
    10fa:	0254                	c.addi4spn	x13,x2,260
    10fc:	0000                	c.unimp
    10fe:	02a8                	c.addi4spn	x10,x2,328
    1100:	0000                	c.unimp
    1102:	0001                	c.addi	x0,0
    1104:	0065                	c.addi	x0,25
    1106:	0000                	c.unimp
    1108:	0000                	c.unimp
    110a:	0000                	c.unimp
    110c:	6400                	c.flw	f8,8(x8)
    110e:	0002                	c.slli64	x0
    1110:	6c00                	c.flw	f8,24(x8)
    1112:	0002                	c.slli64	x0
    1114:	0100                	c.addi4spn	x8,x2,128
    1116:	5a00                	c.lw	x8,48(x12)
    1118:	026c                	c.addi4spn	x11,x2,268
    111a:	0000                	c.unimp
    111c:	0284                	c.addi4spn	x9,x2,320
    111e:	0000                	c.unimp
    1120:	0001                	c.addi	x0,0
    1122:	8c62                	c.mv	x24,x24
    1124:	0002                	c.slli64	x0
    1126:	a400                	c.fsd	f8,8(x8)
    1128:	0002                	c.slli64	x0
    112a:	0100                	c.addi4spn	x8,x2,128
    112c:	5b00                	c.lw	x8,48(x14)
    112e:	02a4                	c.addi4spn	x9,x2,328
    1130:	0000                	c.unimp
    1132:	02a8                	c.addi4spn	x10,x2,328
    1134:	0000                	c.unimp
    1136:	0001                	c.addi	x0,0
    1138:	0059                	c.addi	x0,22
    113a:	0000                	c.unimp
    113c:	0000                	c.unimp
    113e:	0000                	c.unimp
    1140:	3000                	c.fld	f8,32(x8)
    1142:	0002                	c.slli64	x0
    1144:	5c00                	c.lw	x8,56(x8)
    1146:	0002                	c.slli64	x0
    1148:	0100                	c.addi4spn	x8,x2,128
    114a:	5a00                	c.lw	x8,48(x12)
    114c:	027c                	c.addi4spn	x15,x2,268
    114e:	0000                	c.unimp
    1150:	02a8                	c.addi4spn	x10,x2,328
    1152:	0000                	c.unimp
    1154:	0001                	c.addi	x0,0
    1156:	005a                	c.slli	x0,0x16
    1158:	0000                	c.unimp
    115a:	0000                	c.unimp
    115c:	0000                	c.unimp
    115e:	c000                	c.sw	x8,0(x8)
    1160:	0002                	c.slli64	x0
    1162:	3400                	c.fld	f8,40(x8)
    1164:	01000003          	lb	x0,16(x0) # 10 <SYSCALL_ADDR-0x200ff0>
    1168:	5d00                	c.lw	x8,56(x10)
	...
    1172:	02d4                	c.addi4spn	x13,x2,324
    1174:	0000                	c.unimp
    1176:	030c                	c.addi4spn	x11,x2,384
    1178:	0000                	c.unimp
    117a:	0001                	c.addi	x0,0
    117c:	305a                	c.fldsp	f0,432(x2)
    117e:	54000003          	lb	x0,1344(x0) # 540 <SYSCALL_ADDR-0x200ac0>
    1182:	01000003          	lb	x0,16(x0) # 10 <SYSCALL_ADDR-0x200ff0>
    1186:	5a00                	c.lw	x8,48(x12)
	...
    1190:	0304                	c.addi4spn	x9,x2,384
    1192:	0000                	c.unimp
    1194:	0310                	c.addi4spn	x12,x2,384
    1196:	0000                	c.unimp
    1198:	0001                	c.addi	x0,0
    119a:	0058                	c.addi4spn	x14,x2,4
    119c:	0000                	c.unimp
    119e:	0000                	c.unimp
    11a0:	0000                	c.unimp
    11a2:	9400                	0x9400
    11a4:	0004                	0x4
    11a6:	d800                	c.sw	x8,48(x8)
    11a8:	0004                	0x4
    11aa:	0100                	c.addi4spn	x8,x2,128
    11ac:	5b00                	c.lw	x8,48(x14)
	...
    11b6:	04ac                	c.addi4spn	x11,x2,584
    11b8:	0000                	c.unimp
    11ba:	04c8                	c.addi4spn	x10,x2,580
    11bc:	0000                	c.unimp
    11be:	0001                	c.addi	x0,0
    11c0:	c85a                	c.swsp	x22,16(x2)
    11c2:	0004                	0x4
    11c4:	cc00                	c.sw	x8,24(x8)
    11c6:	0004                	0x4
    11c8:	0100                	c.addi4spn	x8,x2,128
    11ca:	5c00                	c.lw	x8,56(x8)
    11cc:	04cc                	c.addi4spn	x11,x2,580
    11ce:	0000                	c.unimp
    11d0:	04d0                	c.addi4spn	x12,x2,580
    11d2:	0000                	c.unimp
    11d4:	0001                	c.addi	x0,0
    11d6:	005a                	c.slli	x0,0x16
    11d8:	0000                	c.unimp
    11da:	0000                	c.unimp
    11dc:	0000                	c.unimp
    11de:	8400                	0x8400
    11e0:	88000003          	lb	x0,-1920(x0) # fffff880 <_end+0x7fff5070>
    11e4:	01000003          	lb	x0,16(x0) # 10 <SYSCALL_ADDR-0x200ff0>
    11e8:	5a00                	c.lw	x8,48(x12)
    11ea:	0388                	c.addi4spn	x10,x2,448
    11ec:	0000                	c.unimp
    11ee:	0000038b          	0x38b
    11f2:	0001                	c.addi	x0,0
    11f4:	00038b5b          	0x38b5b
    11f8:	a800                	c.fsd	f8,16(x8)
    11fa:	01000003          	lb	x0,16(x0) # 10 <SYSCALL_ADDR-0x200ff0>
    11fe:	6200                	c.flw	f8,0(x12)
    1200:	03a8                	c.addi4spn	x10,x2,456
    1202:	0000                	c.unimp
    1204:	0420                	c.addi4spn	x8,x2,520
    1206:	0000                	c.unimp
    1208:	0001                	c.addi	x0,0
    120a:	006a                	c.slli	x0,0x1a
    120c:	0000                	c.unimp
    120e:	0000                	c.unimp
    1210:	0000                	c.unimp
    1212:	dc00                	c.sw	x8,56(x8)
    1214:	e4000003          	lb	x0,-448(x0) # fffffe40 <_end+0x7fff5630>
    1218:	01000003          	lb	x0,16(x0) # 10 <SYSCALL_ADDR-0x200ff0>
    121c:	5a00                	c.lw	x8,48(x12)
    121e:	03e4                	c.addi4spn	x9,x2,460
    1220:	0000                	c.unimp
    1222:	000003e7          	jalr	x7,0(x0) # 0 <SYSCALL_ADDR-0x201000>
    1226:	0001                	c.addi	x0,0
    1228:	0003e75b          	0x3e75b
    122c:	0800                	c.addi4spn	x8,x2,16
    122e:	0004                	0x4
    1230:	0100                	c.addi4spn	x8,x2,128
    1232:	6200                	c.flw	f8,0(x12)
    1234:	0408                	c.addi4spn	x10,x2,512
    1236:	0000                	c.unimp
    1238:	0428                	c.addi4spn	x10,x2,520
    123a:	0000                	c.unimp
    123c:	0001                	c.addi	x0,0
    123e:	005f 0000 0000      	0x5f
    1244:	0000                	c.unimp
    1246:	8000                	0x8000
    1248:	90000003          	lb	x0,-1792(x0) # fffff900 <_end+0x7fff50f0>
    124c:	01000003          	lb	x0,16(x0) # 10 <SYSCALL_ADDR-0x200ff0>
    1250:	6300                	c.flw	f8,0(x14)
    1252:	0398                	c.addi4spn	x14,x2,448
    1254:	0000                	c.unimp
    1256:	03a4                	c.addi4spn	x9,x2,456
    1258:	0000                	c.unimp
    125a:	0001                	c.addi	x0,0
    125c:	a45e                	c.fsdsp	f23,8(x2)
    125e:	a8000003          	lb	x0,-1408(x0) # fffffa80 <_end+0x7fff5270>
    1262:	08000003          	lb	x0,128(x0) # 80 <SYSCALL_ADDR-0x200f80>
    1266:	7900                	c.flw	f8,48(x10)
    1268:	4000                	c.lw	x8,0(x8)
    126a:	8325                	c.srli	x14,0x9
    126c:	2100                	c.fld	f8,0(x10)
    126e:	a89f 0003 bc00      	0xbc000003a89f
    1274:	01000003          	lb	x0,16(x0) # 10 <SYSCALL_ADDR-0x200ff0>
    1278:	5e00                	c.lw	x8,56(x12)
    127a:	03bc                	c.addi4spn	x15,x2,456
    127c:	0000                	c.unimp
    127e:	03dc                	c.addi4spn	x15,x2,452
    1280:	0000                	c.unimp
    1282:	0001                	c.addi	x0,0
    1284:	0062                	c.slli	x0,0x18
    1286:	0000                	c.unimp
    1288:	0000                	c.unimp
    128a:	0000                	c.unimp
    128c:	cc00                	c.sw	x8,24(x8)
    128e:	d4000003          	lb	x0,-704(x0) # fffffd40 <_end+0x7fff5530>
    1292:	01000003          	lb	x0,16(x0) # 10 <SYSCALL_ADDR-0x200ff0>
    1296:	5a00                	c.lw	x8,48(x12)
    1298:	03d4                	c.addi4spn	x13,x2,452
    129a:	0000                	c.unimp
    129c:	03f0                	c.addi4spn	x12,x2,460
    129e:	0000                	c.unimp
    12a0:	0001                	c.addi	x0,0
    12a2:	0003f863          	bgeu	x7,x0,12b2 <SYSCALL_ADDR-0x1ffd4e>
    12a6:	0400                	c.addi4spn	x8,x2,512
    12a8:	0004                	0x4
    12aa:	0100                	c.addi4spn	x8,x2,128
    12ac:	5e00                	c.lw	x8,56(x12)
    12ae:	0404                	c.addi4spn	x9,x2,512
    12b0:	0000                	c.unimp
    12b2:	0408                	c.addi4spn	x10,x2,512
    12b4:	0000                	c.unimp
    12b6:	000a                	c.slli	x0,0x2
    12b8:	0079                	c.addi	x0,30
    12ba:	2440                	c.fld	f8,136(x8)
    12bc:	2540                	c.fld	f8,136(x10)
    12be:	9f210083          	lb	x1,-1550(x2)
    12c2:	0408                	c.addi4spn	x10,x2,512
    12c4:	0000                	c.unimp
    12c6:	04f0                	c.addi4spn	x12,x2,588
    12c8:	0000                	c.unimp
    12ca:	0001                	c.addi	x0,0
    12cc:	005e                	c.slli	x0,0x17
    12ce:	0000                	c.unimp
    12d0:	0000                	c.unimp
    12d2:	0000                	c.unimp
    12d4:	8c00                	0x8c00
    12d6:	c4000003          	lb	x0,-960(x0) # fffffc40 <_end+0x7fff5430>
    12da:	01000003          	lb	x0,16(x0) # 10 <SYSCALL_ADDR-0x200ff0>
    12de:	5a00                	c.lw	x8,48(x12)
    12e0:	03e8                	c.addi4spn	x10,x2,460
    12e2:	0000                	c.unimp
    12e4:	0440                	c.addi4spn	x8,x2,516
    12e6:	0000                	c.unimp
    12e8:	0001                	c.addi	x0,0
    12ea:	005a                	c.slli	x0,0x16
    12ec:	0000                	c.unimp
    12ee:	0000                	c.unimp
    12f0:	0000                	c.unimp
    12f2:	4c00                	c.lw	x8,24(x8)
    12f4:	0004                	0x4
    12f6:	5400                	c.lw	x8,40(x8)
    12f8:	0004                	0x4
    12fa:	0100                	c.addi4spn	x8,x2,128
    12fc:	5a00                	c.lw	x8,48(x12)
    12fe:	0454                	c.addi4spn	x13,x2,516
    1300:	0000                	c.unimp
    1302:	04f0                	c.addi4spn	x12,x2,588
    1304:	0000                	c.unimp
    1306:	0001                	c.addi	x0,0
    1308:	0060                	c.addi4spn	x8,x2,12
    130a:	0000                	c.unimp
    130c:	0000                	c.unimp
    130e:	0000                	c.unimp
    1310:	5c00                	c.lw	x8,56(x8)
    1312:	0004                	0x4
    1314:	6400                	c.flw	f8,8(x8)
    1316:	0004                	0x4
    1318:	0100                	c.addi4spn	x8,x2,128
    131a:	5a00                	c.lw	x8,48(x12)
    131c:	0464                	c.addi4spn	x9,x2,524
    131e:	0000                	c.unimp
    1320:	0478                	c.addi4spn	x14,x2,524
    1322:	0000                	c.unimp
    1324:	0001                	c.addi	x0,0
    1326:	7861                	c.lui	x16,0xffff8
    1328:	0004                	0x4
    132a:	8000                	0x8000
    132c:	0004                	0x4
    132e:	0800                	c.addi4spn	x8,x2,16
    1330:	8000                	0x8000
    1332:	4000                	c.lw	x8,0(x8)
    1334:	8125                	c.srli	x10,0x9
    1336:	2200                	c.fld	f8,0(x12)
    1338:	849f 0004 a000      	0xa0000004849f
    133e:	0004                	0x4
    1340:	0100                	c.addi4spn	x8,x2,128
    1342:	5f00                	c.lw	x8,56(x14)
    1344:	04a0                	c.addi4spn	x8,x2,584
    1346:	0000                	c.unimp
    1348:	04f0                	c.addi4spn	x12,x2,588
    134a:	0000                	c.unimp
    134c:	0008                	0x8
    134e:	0080                	c.addi4spn	x8,x2,64
    1350:	2540                	c.fld	f8,136(x10)
    1352:	0081                	c.addi	x1,0
    1354:	9f22                	c.add	x30,x8
	...
    135e:	0478                	c.addi4spn	x14,x2,524
    1360:	0000                	c.unimp
    1362:	0498                	c.addi4spn	x14,x2,576
    1364:	0000                	c.unimp
    1366:	0001                	c.addi	x0,0
    1368:	005a                	c.slli	x0,0x16
    136a:	0000                	c.unimp
    136c:	0000                	c.unimp
    136e:	0000                	c.unimp
    1370:	3400                	c.fld	f8,40(x8)
    1372:	0004                	0x4
    1374:	5c00                	c.lw	x8,56(x8)
    1376:	0004                	0x4
    1378:	0100                	c.addi4spn	x8,x2,128
    137a:	6100                	c.flw	f8,0(x10)
	...
    1384:	0438                	c.addi4spn	x14,x2,520
    1386:	0000                	c.unimp
    1388:	047c                	c.addi4spn	x15,x2,524
    138a:	0000                	c.unimp
    138c:	0001                	c.addi	x0,0
    138e:	7c5f 0004 9c00      	0x9c0000047c5f
    1394:	0004                	0x4
    1396:	0600                	c.addi4spn	x8,x2,768
    1398:	8d00                	0x8d00
    139a:	897f                	0x897f
    139c:	1a00                	c.addi4spn	x8,x2,304
    139e:	9c9f 0004 a800      	0xa80000049c9f
    13a4:	0004                	0x4
    13a6:	0600                	c.addi4spn	x8,x2,768
    13a8:	8900                	0x8900
    13aa:	7a00                	c.flw	f8,48(x12)
    13ac:	1a00                	c.addi4spn	x8,x2,304
    13ae:	a89f 0004 f000      	0xf0000004a89f
    13b4:	0004                	0x4
    13b6:	0600                	c.addi4spn	x8,x2,768
    13b8:	8d00                	0x8d00
    13ba:	897f                	0x897f
    13bc:	1a00                	c.addi4spn	x8,x2,304
    13be:	009f 0000 0000      	0x9f
    13c4:	0000                	c.unimp
    13c6:	bc00                	c.fsd	f8,56(x8)
    13c8:	0004                	0x4
    13ca:	cc00                	c.sw	x8,24(x8)
    13cc:	0004                	0x4
    13ce:	0100                	c.addi4spn	x8,x2,128
    13d0:	5c00                	c.lw	x8,56(x8)
	...
    13da:	04d0                	c.addi4spn	x12,x2,580
    13dc:	0000                	c.unimp
    13de:	04e4                	c.addi4spn	x9,x2,588
    13e0:	0000                	c.unimp
    13e2:	0001                	c.addi	x0,0
    13e4:	005a                	c.slli	x0,0x16
    13e6:	0000                	c.unimp
    13e8:	0000                	c.unimp
    13ea:	0000                	c.unimp
	...

Disassembly of section .debug_ranges:

00000000 <.debug_ranges>:
	...
   8:	0038                	c.addi4spn	x14,x2,8
   a:	0000                	c.unimp
   c:	0294                	c.addi4spn	x13,x2,320
   e:	0000                	c.unimp
  10:	02d0                	c.addi4spn	x12,x2,324
  12:	0000                	c.unimp
  14:	05c8                	c.addi4spn	x10,x2,708
  16:	0000                	c.unimp
  18:	05cc                	c.addi4spn	x11,x2,708
  1a:	0000                	c.unimp
  1c:	05d8                	c.addi4spn	x14,x2,708
	...
  26:	0000                	c.unimp
  28:	0050                	c.addi4spn	x12,x2,4
  2a:	0000                	c.unimp
  2c:	0058                	c.addi4spn	x14,x2,4
  2e:	0000                	c.unimp
  30:	0058                	c.addi4spn	x14,x2,4
  32:	0000                	c.unimp
  34:	0080                	c.addi4spn	x8,x2,64
  36:	0000                	c.unimp
  38:	0168                	c.addi4spn	x10,x2,140
  3a:	0000                	c.unimp
  3c:	0180                	c.addi4spn	x8,x2,192
	...
  46:	0000                	c.unimp
  48:	0160                	c.addi4spn	x8,x2,140
  4a:	0000                	c.unimp
  4c:	0168                	c.addi4spn	x10,x2,140
  4e:	0000                	c.unimp
  50:	0434                	c.addi4spn	x13,x2,520
  52:	0000                	c.unimp
  54:	05c8                	c.addi4spn	x10,x2,708
	...
  5e:	0000                	c.unimp
  60:	0450                	c.addi4spn	x12,x2,516
  62:	0000                	c.unimp
  64:	045c                	c.addi4spn	x15,x2,516
  66:	0000                	c.unimp
  68:	0460                	c.addi4spn	x8,x2,524
  6a:	0000                	c.unimp
  6c:	051c                	c.addi4spn	x15,x2,640
  6e:	0000                	c.unimp
  70:	0520                	c.addi4spn	x8,x2,648
  72:	0000                	c.unimp
  74:	0524                	c.addi4spn	x9,x2,648
  76:	0000                	c.unimp
  78:	0530                	c.addi4spn	x12,x2,648
  7a:	0000                	c.unimp
  7c:	0534                	c.addi4spn	x13,x2,648
	...
  86:	0000                	c.unimp
  88:	051c                	c.addi4spn	x15,x2,640
  8a:	0000                	c.unimp
  8c:	0520                	c.addi4spn	x8,x2,648
  8e:	0000                	c.unimp
  90:	0524                	c.addi4spn	x9,x2,648
  92:	0000                	c.unimp
  94:	0530                	c.addi4spn	x12,x2,648
  96:	0000                	c.unimp
  98:	0534                	c.addi4spn	x13,x2,648
  9a:	0000                	c.unimp
  9c:	0598                	c.addi4spn	x14,x2,704
  9e:	0000                	c.unimp
  a0:	05a0                	c.addi4spn	x8,x2,712
  a2:	0000                	c.unimp
  a4:	05b4                	c.addi4spn	x13,x2,712
  a6:	0000                	c.unimp
  a8:	05b8                	c.addi4spn	x14,x2,712
  aa:	0000                	c.unimp
  ac:	05bc                	c.addi4spn	x15,x2,712
	...
  b6:	0000                	c.unimp
  b8:	056c                	c.addi4spn	x11,x2,652
  ba:	0000                	c.unimp
  bc:	0578                	c.addi4spn	x14,x2,652
  be:	0000                	c.unimp
  c0:	0584                	c.addi4spn	x9,x2,704
  c2:	0000                	c.unimp
  c4:	0588                	c.addi4spn	x10,x2,704
	...
  ce:	0000                	c.unimp
  d0:	0194                	c.addi4spn	x13,x2,192
  d2:	0000                	c.unimp
  d4:	01c0                	c.addi4spn	x8,x2,196
  d6:	0000                	c.unimp
  d8:	02d0                	c.addi4spn	x12,x2,324
  da:	0000                	c.unimp
  dc:	02e4                	c.addi4spn	x9,x2,332
	...
  e6:	0000                	c.unimp
  e8:	02f8                	c.addi4spn	x14,x2,332
  ea:	0000                	c.unimp
  ec:	0304                	c.addi4spn	x9,x2,384
  ee:	0000                	c.unimp
  f0:	0308                	c.addi4spn	x10,x2,384
  f2:	0000                	c.unimp
  f4:	03d0                	c.addi4spn	x12,x2,452
	...
  fe:	0000                	c.unimp
 100:	03d4                	c.addi4spn	x13,x2,452
 102:	0000                	c.unimp
 104:	0408                	c.addi4spn	x10,x2,512
 106:	0000                	c.unimp
 108:	0420                	c.addi4spn	x8,x2,520
 10a:	0000                	c.unimp
 10c:	0434                	c.addi4spn	x13,x2,520
	...
 116:	0000                	c.unimp
 118:	0038                	c.addi4spn	x14,x2,8
 11a:	0000                	c.unimp
 11c:	0038                	c.addi4spn	x14,x2,8
 11e:	0000                	c.unimp
 120:	003c                	c.addi4spn	x15,x2,8
 122:	0000                	c.unimp
 124:	0150                	c.addi4spn	x12,x2,132
 126:	0000                	c.unimp
 128:	0188                	c.addi4spn	x10,x2,192
 12a:	0000                	c.unimp
 12c:	04f0                	c.addi4spn	x12,x2,588
	...
 136:	0000                	c.unimp
 138:	005c                	c.addi4spn	x15,x2,4
 13a:	0000                	c.unimp
 13c:	0088                	c.addi4spn	x10,x2,64
 13e:	0000                	c.unimp
 140:	0188                	c.addi4spn	x10,x2,192
 142:	0000                	c.unimp
 144:	019c                	c.addi4spn	x15,x2,192
	...
 14e:	0000                	c.unimp
 150:	01b0                	c.addi4spn	x12,x2,200
 152:	0000                	c.unimp
 154:	01d4                	c.addi4spn	x13,x2,196
 156:	0000                	c.unimp
 158:	01d8                	c.addi4spn	x14,x2,196
 15a:	0000                	c.unimp
 15c:	01e0                	c.addi4spn	x8,x2,204
 15e:	0000                	c.unimp
 160:	02a8                	c.addi4spn	x10,x2,328
 162:	0000                	c.unimp
 164:	02bc                	c.addi4spn	x15,x2,328
	...
 16e:	0000                	c.unimp
 170:	01f4                	c.addi4spn	x13,x2,204
 172:	0000                	c.unimp
 174:	01f8                	c.addi4spn	x14,x2,204
 176:	0000                	c.unimp
 178:	01fc                	c.addi4spn	x15,x2,204
 17a:	0000                	c.unimp
 17c:	020c                	c.addi4spn	x11,x2,256
 17e:	0000                	c.unimp
 180:	0210                	c.addi4spn	x12,x2,256
 182:	0000                	c.unimp
 184:	02a8                	c.addi4spn	x10,x2,328
	...
 18e:	0000                	c.unimp
 190:	02c0                	c.addi4spn	x8,x2,324
 192:	0000                	c.unimp
 194:	02f4                	c.addi4spn	x13,x2,332
 196:	0000                	c.unimp
 198:	031c                	c.addi4spn	x15,x2,384
 19a:	0000                	c.unimp
 19c:	0330                	c.addi4spn	x12,x2,392
	...
 1a6:	0000                	c.unimp
 1a8:	0348                	c.addi4spn	x10,x2,388
 1aa:	0000                	c.unimp
 1ac:	034c                	c.addi4spn	x11,x2,388
 1ae:	0000                	c.unimp
 1b0:	0350                	c.addi4spn	x12,x2,388
 1b2:	0000                	c.unimp
 1b4:	0358                	c.addi4spn	x14,x2,388
 1b6:	0000                	c.unimp
 1b8:	035c                	c.addi4spn	x15,x2,388
 1ba:	0000                	c.unimp
 1bc:	037c                	c.addi4spn	x15,x2,396
 1be:	0000                	c.unimp
 1c0:	0380                	c.addi4spn	x8,x2,448
 1c2:	0000                	c.unimp
 1c4:	0418                	c.addi4spn	x14,x2,512
 1c6:	0000                	c.unimp
 1c8:	041c                	c.addi4spn	x15,x2,512
 1ca:	0000                	c.unimp
 1cc:	0424                	c.addi4spn	x9,x2,520
 1ce:	0000                	c.unimp
 1d0:	0430                	c.addi4spn	x12,x2,520
 1d2:	0000                	c.unimp
 1d4:	0434                	c.addi4spn	x13,x2,520
	...
 1de:	0000                	c.unimp
 1e0:	0418                	c.addi4spn	x14,x2,512
 1e2:	0000                	c.unimp
 1e4:	041c                	c.addi4spn	x15,x2,512
 1e6:	0000                	c.unimp
 1e8:	0424                	c.addi4spn	x9,x2,520
 1ea:	0000                	c.unimp
 1ec:	0430                	c.addi4spn	x12,x2,520
 1ee:	0000                	c.unimp
 1f0:	0434                	c.addi4spn	x13,x2,520
 1f2:	0000                	c.unimp
 1f4:	04ac                	c.addi4spn	x11,x2,584
	...
