
bd/src/nettle-sha256/nettle-sha256:     Dateiformat elf32-littleriscv


Disassembly of section .text:

80000000 <initSection>:
80000000:	000070b3          	and	x1,x0,x0
80000004:	00007133          	and	x2,x0,x0
80000008:	000071b3          	and	x3,x0,x0
8000000c:	00007233          	and	x4,x0,x0
80000010:	000072b3          	and	x5,x0,x0
80000014:	00007333          	and	x6,x0,x0
80000018:	000073b3          	and	x7,x0,x0
8000001c:	00007433          	and	x8,x0,x0
80000020:	000074b3          	and	x9,x0,x0
80000024:	00007533          	and	x10,x0,x0
80000028:	000075b3          	and	x11,x0,x0
8000002c:	00007633          	and	x12,x0,x0
80000030:	000076b3          	and	x13,x0,x0
80000034:	00007733          	and	x14,x0,x0
80000038:	000077b3          	and	x15,x0,x0
8000003c:	00007833          	and	x16,x0,x0
80000040:	000078b3          	and	x17,x0,x0
80000044:	00007933          	and	x18,x0,x0
80000048:	000079b3          	and	x19,x0,x0
8000004c:	00007a33          	and	x20,x0,x0
80000050:	00007ab3          	and	x21,x0,x0
80000054:	00007b33          	and	x22,x0,x0
80000058:	00007bb3          	and	x23,x0,x0
8000005c:	00007c33          	and	x24,x0,x0
80000060:	00007cb3          	and	x25,x0,x0
80000064:	00007d33          	and	x26,x0,x0
80000068:	00007db3          	and	x27,x0,x0
8000006c:	00007e33          	and	x28,x0,x0
80000070:	00007eb3          	and	x29,x0,x0
80000074:	00007f33          	and	x30,x0,x0
80000078:	00007fb3          	and	x31,x0,x0
8000007c:	00101117          	auipc	x2,0x101
80000080:	fdc10113          	addi	x2,x2,-36 # 80101058 <_impure_data>
80000084:	020000ef          	jal	x1,800000a4 <main>

80000088 <sys_end>:
80000088:	05d00893          	addi	x17,x0,93
8000008c:	00000513          	addi	x10,x0,0
80000090:	020102b7          	lui	x5,0x2010
80000094:	f1402873          	csrrs	x16,mhartid,x0
80000098:	0102a023          	sw	x16,0(x5) # 2010000 <SYSCALL_ADDR>
8000009c:	0112a023          	sw	x17,0(x5)
800000a0:	fe9ff06f          	jal	x0,80000088 <sys_end>

800000a4 <main>:
800000a4:	fe010113          	addi	x2,x2,-32
800000a8:	00112e23          	sw	x1,28(x2)
800000ac:	1fd010ef          	jal	x1,80001aa8 <initialise_board>
800000b0:	1e9010ef          	jal	x1,80001a98 <initialise_benchmark>
800000b4:	00100513          	addi	x10,x0,1
800000b8:	1e5010ef          	jal	x1,80001a9c <warm_caches>
800000bc:	1f5010ef          	jal	x1,80001ab0 <start_trigger>
800000c0:	1e1010ef          	jal	x1,80001aa0 <benchmark>
800000c4:	00a12623          	sw	x10,12(x2)
800000c8:	1f9010ef          	jal	x1,80001ac0 <stop_trigger>
800000cc:	00c12503          	lw	x10,12(x2)
800000d0:	189010ef          	jal	x1,80001a58 <verify_benchmark>
800000d4:	01c12083          	lw	x1,28(x2)
800000d8:	00153513          	sltiu	x10,x10,1
800000dc:	02010113          	addi	x2,x2,32
800000e0:	00008067          	jalr	x0,0(x1)

800000e4 <sha256_init>:
800000e4:	801015b7          	lui	x11,0x80101
800000e8:	ff010113          	addi	x2,x2,-16
800000ec:	02000613          	addi	x12,x0,32
800000f0:	18458593          	addi	x11,x11,388 # 80101184 <H0.0>
800000f4:	00812423          	sw	x8,8(x2)
800000f8:	00112623          	sw	x1,12(x2)
800000fc:	00050413          	addi	x8,x10,0
80000100:	2d9010ef          	jal	x1,80001bd8 <memcpy>
80000104:	00000793          	addi	x15,x0,0
80000108:	00000813          	addi	x16,x0,0
8000010c:	00c12083          	lw	x1,12(x2)
80000110:	02f42023          	sw	x15,32(x8)
80000114:	03042223          	sw	x16,36(x8)
80000118:	06042423          	sw	x0,104(x8)
8000011c:	00812403          	lw	x8,8(x2)
80000120:	01010113          	addi	x2,x2,16
80000124:	00008067          	jalr	x0,0(x1)

80000128 <_nettle_write_be32>:
80000128:	00357693          	andi	x13,x10,3
8000012c:	ffc57513          	andi	x10,x10,-4
80000130:	00060793          	addi	x15,x12,0
80000134:	00a58733          	add	x14,x11,x10
80000138:	02e59e63          	bne	x11,x14,80000174 <_nettle_write_be32+0x4c>
8000013c:	02068a63          	beq	x13,x0,80000170 <_nettle_write_be32+0x48>
80000140:	00a60633          	add	x12,x12,x10
80000144:	00062783          	lw	x15,0(x12)
80000148:	00200613          	addi	x12,x0,2
8000014c:	00c68a63          	beq	x13,x12,80000160 <_nettle_write_be32+0x38>
80000150:	00300613          	addi	x12,x0,3
80000154:	00c69a63          	bne	x13,x12,80000168 <_nettle_write_be32+0x40>
80000158:	0087d693          	srli	x13,x15,0x8
8000015c:	00d70123          	sb	x13,2(x14)
80000160:	0107d693          	srli	x13,x15,0x10
80000164:	00d700a3          	sb	x13,1(x14)
80000168:	0187d793          	srli	x15,x15,0x18
8000016c:	00f70023          	sb	x15,0(x14)
80000170:	00008067          	jalr	x0,0(x1)
80000174:	0037c803          	lbu	x16,3(x15)
80000178:	00458593          	addi	x11,x11,4
8000017c:	00478793          	addi	x15,x15,4
80000180:	ff058e23          	sb	x16,-4(x11)
80000184:	ffe7d803          	lhu	x16,-2(x15)
80000188:	ff058ea3          	sb	x16,-3(x11)
8000018c:	ffc7a803          	lw	x16,-4(x15)
80000190:	00885813          	srli	x16,x16,0x8
80000194:	ff058f23          	sb	x16,-2(x11)
80000198:	ffc7a803          	lw	x16,-4(x15)
8000019c:	ff058fa3          	sb	x16,-1(x11)
800001a0:	f99ff06f          	jal	x0,80000138 <_nettle_write_be32+0x10>

800001a4 <_nettle_sha256_compress>:
800001a4:	f6010113          	addi	x2,x2,-160
800001a8:	03010713          	addi	x14,x2,48
800001ac:	08812e23          	sw	x8,156(x2)
800001b0:	08912c23          	sw	x9,152(x2)
800001b4:	09212a23          	sw	x18,148(x2)
800001b8:	09312823          	sw	x19,144(x2)
800001bc:	09412623          	sw	x20,140(x2)
800001c0:	09512423          	sw	x21,136(x2)
800001c4:	09612223          	sw	x22,132(x2)
800001c8:	09712023          	sw	x23,128(x2)
800001cc:	07812e23          	sw	x24,124(x2)
800001d0:	07912c23          	sw	x25,120(x2)
800001d4:	07a12a23          	sw	x26,116(x2)
800001d8:	07b12823          	sw	x27,112(x2)
800001dc:	04058813          	addi	x16,x11,64
800001e0:	00070e93          	addi	x29,x14,0
800001e4:	0005c783          	lbu	x15,0(x11)
800001e8:	0015c683          	lbu	x13,1(x11)
800001ec:	00458593          	addi	x11,x11,4
800001f0:	01879793          	slli	x15,x15,0x18
800001f4:	01069693          	slli	x13,x13,0x10
800001f8:	00d7e7b3          	or	x15,x15,x13
800001fc:	fff5c683          	lbu	x13,-1(x11)
80000200:	00470713          	addi	x14,x14,4
80000204:	00d7e7b3          	or	x15,x15,x13
80000208:	ffe5c683          	lbu	x13,-2(x11)
8000020c:	00869693          	slli	x13,x13,0x8
80000210:	00d7e7b3          	or	x15,x15,x13
80000214:	fef72e23          	sw	x15,-4(x14)
80000218:	fd0596e3          	bne	x11,x16,800001e4 <_nettle_sha256_compress+0x40>
8000021c:	00052783          	lw	x15,0(x10)
80000220:	04060a93          	addi	x21,x12,64
80000224:	00060f13          	addi	x30,x12,0
80000228:	00f12423          	sw	x15,8(x2)
8000022c:	00452783          	lw	x15,4(x10)
80000230:	00812b03          	lw	x22,8(x2)
80000234:	00f12623          	sw	x15,12(x2)
80000238:	00852783          	lw	x15,8(x10)
8000023c:	00c12683          	lw	x13,12(x2)
80000240:	00f12823          	sw	x15,16(x2)
80000244:	00c52783          	lw	x15,12(x10)
80000248:	01012703          	lw	x14,16(x2)
8000024c:	00f12a23          	sw	x15,20(x2)
80000250:	01052783          	lw	x15,16(x10)
80000254:	00f12c23          	sw	x15,24(x2)
80000258:	01452783          	lw	x15,20(x10)
8000025c:	01812303          	lw	x6,24(x2)
80000260:	00f12e23          	sw	x15,28(x2)
80000264:	01852783          	lw	x15,24(x10)
80000268:	01c12883          	lw	x17,28(x2)
8000026c:	02f12023          	sw	x15,32(x2)
80000270:	01c52783          	lw	x15,28(x10)
80000274:	02012803          	lw	x16,32(x2)
80000278:	02f12223          	sw	x15,36(x2)
8000027c:	00078593          	addi	x11,x15,0
80000280:	01412783          	lw	x15,20(x2)
80000284:	01a31f93          	slli	x31,x6,0x1a
80000288:	00635e13          	srli	x28,x6,0x6
8000028c:	01531293          	slli	x5,x6,0x15
80000290:	01fe6e33          	or	x28,x28,x31
80000294:	00b35f93          	srli	x31,x6,0xb
80000298:	005fefb3          	or	x31,x31,x5
8000029c:	01fe4e33          	xor	x28,x28,x31
800002a0:	01935293          	srli	x5,x6,0x19
800002a4:	00731f93          	slli	x31,x6,0x7
800002a8:	005fefb3          	or	x31,x31,x5
800002ac:	01fe4e33          	xor	x28,x28,x31
800002b0:	000ea283          	lw	x5,0(x29)
800002b4:	000f2f83          	lw	x31,0(x30)
800002b8:	020f0f13          	addi	x30,x30,32
800002bc:	020e8e93          	addi	x29,x29,32
800002c0:	005f8fb3          	add	x31,x31,x5
800002c4:	01fe0e33          	add	x28,x28,x31
800002c8:	0108cfb3          	xor	x31,x17,x16
800002cc:	006fffb3          	and	x31,x31,x6
800002d0:	010fcfb3          	xor	x31,x31,x16
800002d4:	01fe0e33          	add	x28,x28,x31
800002d8:	00be0e33          	add	x28,x28,x11
800002dc:	01eb1f93          	slli	x31,x22,0x1e
800002e0:	002b5593          	srli	x11,x22,0x2
800002e4:	013b1293          	slli	x5,x22,0x13
800002e8:	01f5e5b3          	or	x11,x11,x31
800002ec:	00db5f93          	srli	x31,x22,0xd
800002f0:	005fefb3          	or	x31,x31,x5
800002f4:	01f5c5b3          	xor	x11,x11,x31
800002f8:	016b5293          	srli	x5,x22,0x16
800002fc:	00ab1f93          	slli	x31,x22,0xa
80000300:	005fefb3          	or	x31,x31,x5
80000304:	01f5c5b3          	xor	x11,x11,x31
80000308:	00db4fb3          	xor	x31,x22,x13
8000030c:	00db72b3          	and	x5,x22,x13
80000310:	00efffb3          	and	x31,x31,x14
80000314:	005fcfb3          	xor	x31,x31,x5
80000318:	01f585b3          	add	x11,x11,x31
8000031c:	01c585b3          	add	x11,x11,x28
80000320:	00fe07b3          	add	x15,x28,x15
80000324:	fe4eaf83          	lw	x31,-28(x29)
80000328:	fe4f2e03          	lw	x28,-28(x30)
8000032c:	01579293          	slli	x5,x15,0x15
80000330:	01fe0e33          	add	x28,x28,x31
80000334:	010e0833          	add	x16,x28,x16
80000338:	01134e33          	xor	x28,x6,x17
8000033c:	00fe7e33          	and	x28,x28,x15
80000340:	011e4e33          	xor	x28,x28,x17
80000344:	01c80833          	add	x16,x16,x28
80000348:	01a79f93          	slli	x31,x15,0x1a
8000034c:	0067de13          	srli	x28,x15,0x6
80000350:	01fe6e33          	or	x28,x28,x31
80000354:	00b7df93          	srli	x31,x15,0xb
80000358:	005fefb3          	or	x31,x31,x5
8000035c:	01fe4e33          	xor	x28,x28,x31
80000360:	0197d293          	srli	x5,x15,0x19
80000364:	00779f93          	slli	x31,x15,0x7
80000368:	005fefb3          	or	x31,x31,x5
8000036c:	01fe4e33          	xor	x28,x28,x31
80000370:	010e0e33          	add	x28,x28,x16
80000374:	01e59f93          	slli	x31,x11,0x1e
80000378:	0025d813          	srli	x16,x11,0x2
8000037c:	01359293          	slli	x5,x11,0x13
80000380:	01f86833          	or	x16,x16,x31
80000384:	00d5df93          	srli	x31,x11,0xd
80000388:	005fefb3          	or	x31,x31,x5
8000038c:	01f84833          	xor	x16,x16,x31
80000390:	0165d293          	srli	x5,x11,0x16
80000394:	00a59f93          	slli	x31,x11,0xa
80000398:	005fefb3          	or	x31,x31,x5
8000039c:	01f84833          	xor	x16,x16,x31
800003a0:	0165cfb3          	xor	x31,x11,x22
800003a4:	0165f2b3          	and	x5,x11,x22
800003a8:	00dfffb3          	and	x31,x31,x13
800003ac:	005fcfb3          	xor	x31,x31,x5
800003b0:	01f80833          	add	x16,x16,x31
800003b4:	01c80833          	add	x16,x16,x28
800003b8:	00ee0733          	add	x14,x28,x14
800003bc:	fe8eaf83          	lw	x31,-24(x29)
800003c0:	fe8f2e03          	lw	x28,-24(x30)
800003c4:	01571293          	slli	x5,x14,0x15
800003c8:	01fe0e33          	add	x28,x28,x31
800003cc:	011e08b3          	add	x17,x28,x17
800003d0:	0067ce33          	xor	x28,x15,x6
800003d4:	00ee7e33          	and	x28,x28,x14
800003d8:	006e4e33          	xor	x28,x28,x6
800003dc:	01c888b3          	add	x17,x17,x28
800003e0:	01a71f93          	slli	x31,x14,0x1a
800003e4:	00675e13          	srli	x28,x14,0x6
800003e8:	01fe6e33          	or	x28,x28,x31
800003ec:	00b75f93          	srli	x31,x14,0xb
800003f0:	005fefb3          	or	x31,x31,x5
800003f4:	01fe4e33          	xor	x28,x28,x31
800003f8:	01975293          	srli	x5,x14,0x19
800003fc:	00771f93          	slli	x31,x14,0x7
80000400:	005fefb3          	or	x31,x31,x5
80000404:	01fe4e33          	xor	x28,x28,x31
80000408:	011e0e33          	add	x28,x28,x17
8000040c:	01e81f93          	slli	x31,x16,0x1e
80000410:	00285893          	srli	x17,x16,0x2
80000414:	01381293          	slli	x5,x16,0x13
80000418:	01f8e8b3          	or	x17,x17,x31
8000041c:	00d85f93          	srli	x31,x16,0xd
80000420:	005fefb3          	or	x31,x31,x5
80000424:	01f8c8b3          	xor	x17,x17,x31
80000428:	01685293          	srli	x5,x16,0x16
8000042c:	00a81f93          	slli	x31,x16,0xa
80000430:	005fefb3          	or	x31,x31,x5
80000434:	01f8c8b3          	xor	x17,x17,x31
80000438:	0105cfb3          	xor	x31,x11,x16
8000043c:	0105f2b3          	and	x5,x11,x16
80000440:	016fffb3          	and	x31,x31,x22
80000444:	005fcfb3          	xor	x31,x31,x5
80000448:	01f888b3          	add	x17,x17,x31
8000044c:	01c888b3          	add	x17,x17,x28
80000450:	00de06b3          	add	x13,x28,x13
80000454:	feceaf83          	lw	x31,-20(x29)
80000458:	fecf2e03          	lw	x28,-20(x30)
8000045c:	01569293          	slli	x5,x13,0x15
80000460:	01fe0e33          	add	x28,x28,x31
80000464:	006e0333          	add	x6,x28,x6
80000468:	00e7ce33          	xor	x28,x15,x14
8000046c:	00de7e33          	and	x28,x28,x13
80000470:	00fe4e33          	xor	x28,x28,x15
80000474:	01c30333          	add	x6,x6,x28
80000478:	01a69f93          	slli	x31,x13,0x1a
8000047c:	0066de13          	srli	x28,x13,0x6
80000480:	01fe6e33          	or	x28,x28,x31
80000484:	00b6df93          	srli	x31,x13,0xb
80000488:	005fefb3          	or	x31,x31,x5
8000048c:	01fe4e33          	xor	x28,x28,x31
80000490:	0196d293          	srli	x5,x13,0x19
80000494:	00769f93          	slli	x31,x13,0x7
80000498:	005fefb3          	or	x31,x31,x5
8000049c:	01fe4e33          	xor	x28,x28,x31
800004a0:	006e0e33          	add	x28,x28,x6
800004a4:	01e89f93          	slli	x31,x17,0x1e
800004a8:	0028d313          	srli	x6,x17,0x2
800004ac:	01389293          	slli	x5,x17,0x13
800004b0:	01f36333          	or	x6,x6,x31
800004b4:	00d8df93          	srli	x31,x17,0xd
800004b8:	005fefb3          	or	x31,x31,x5
800004bc:	01f34333          	xor	x6,x6,x31
800004c0:	0168d293          	srli	x5,x17,0x16
800004c4:	00a89f93          	slli	x31,x17,0xa
800004c8:	005fefb3          	or	x31,x31,x5
800004cc:	01f34333          	xor	x6,x6,x31
800004d0:	01184fb3          	xor	x31,x16,x17
800004d4:	011872b3          	and	x5,x16,x17
800004d8:	00bfffb3          	and	x31,x31,x11
800004dc:	005fcfb3          	xor	x31,x31,x5
800004e0:	01f30333          	add	x6,x6,x31
800004e4:	016e0b33          	add	x22,x28,x22
800004e8:	01c30333          	add	x6,x6,x28
800004ec:	ff0eaf83          	lw	x31,-16(x29)
800004f0:	ff0f2e03          	lw	x28,-16(x30)
800004f4:	015b1293          	slli	x5,x22,0x15
800004f8:	01fe0e33          	add	x28,x28,x31
800004fc:	00fe07b3          	add	x15,x28,x15
80000500:	00d74e33          	xor	x28,x14,x13
80000504:	016e7e33          	and	x28,x28,x22
80000508:	00ee4e33          	xor	x28,x28,x14
8000050c:	01c787b3          	add	x15,x15,x28
80000510:	01ab1f93          	slli	x31,x22,0x1a
80000514:	006b5e13          	srli	x28,x22,0x6
80000518:	01fe6e33          	or	x28,x28,x31
8000051c:	00bb5f93          	srli	x31,x22,0xb
80000520:	005fefb3          	or	x31,x31,x5
80000524:	01fe4e33          	xor	x28,x28,x31
80000528:	019b5293          	srli	x5,x22,0x19
8000052c:	007b1f93          	slli	x31,x22,0x7
80000530:	005fefb3          	or	x31,x31,x5
80000534:	01fe4e33          	xor	x28,x28,x31
80000538:	00fe0e33          	add	x28,x28,x15
8000053c:	01e31f93          	slli	x31,x6,0x1e
80000540:	00235793          	srli	x15,x6,0x2
80000544:	01331293          	slli	x5,x6,0x13
80000548:	01f7e7b3          	or	x15,x15,x31
8000054c:	00d35f93          	srli	x31,x6,0xd
80000550:	005fefb3          	or	x31,x31,x5
80000554:	01f7c7b3          	xor	x15,x15,x31
80000558:	01635293          	srli	x5,x6,0x16
8000055c:	00a31f93          	slli	x31,x6,0xa
80000560:	005fefb3          	or	x31,x31,x5
80000564:	01f7c7b3          	xor	x15,x15,x31
80000568:	0068cfb3          	xor	x31,x17,x6
8000056c:	0068f2b3          	and	x5,x17,x6
80000570:	010fffb3          	and	x31,x31,x16
80000574:	005fcfb3          	xor	x31,x31,x5
80000578:	01f787b3          	add	x15,x15,x31
8000057c:	01c787b3          	add	x15,x15,x28
80000580:	01c585b3          	add	x11,x11,x28
80000584:	ff4eaf83          	lw	x31,-12(x29)
80000588:	ff4f2e03          	lw	x28,-12(x30)
8000058c:	01559293          	slli	x5,x11,0x15
80000590:	01fe0e33          	add	x28,x28,x31
80000594:	00ee0733          	add	x14,x28,x14
80000598:	0166ce33          	xor	x28,x13,x22
8000059c:	00be7e33          	and	x28,x28,x11
800005a0:	00de4e33          	xor	x28,x28,x13
800005a4:	01c70733          	add	x14,x14,x28
800005a8:	01a59f93          	slli	x31,x11,0x1a
800005ac:	0065de13          	srli	x28,x11,0x6
800005b0:	01fe6e33          	or	x28,x28,x31
800005b4:	00b5df93          	srli	x31,x11,0xb
800005b8:	005fefb3          	or	x31,x31,x5
800005bc:	01fe4e33          	xor	x28,x28,x31
800005c0:	0195d293          	srli	x5,x11,0x19
800005c4:	00759f93          	slli	x31,x11,0x7
800005c8:	005fefb3          	or	x31,x31,x5
800005cc:	01fe4e33          	xor	x28,x28,x31
800005d0:	00ee0e33          	add	x28,x28,x14
800005d4:	01e79f93          	slli	x31,x15,0x1e
800005d8:	0027d713          	srli	x14,x15,0x2
800005dc:	01f76733          	or	x14,x14,x31
800005e0:	01379293          	slli	x5,x15,0x13
800005e4:	00d7df93          	srli	x31,x15,0xd
800005e8:	005fefb3          	or	x31,x31,x5
800005ec:	01f74733          	xor	x14,x14,x31
800005f0:	0167d293          	srli	x5,x15,0x16
800005f4:	00a79f93          	slli	x31,x15,0xa
800005f8:	005fefb3          	or	x31,x31,x5
800005fc:	01f74733          	xor	x14,x14,x31
80000600:	00f34fb3          	xor	x31,x6,x15
80000604:	00f372b3          	and	x5,x6,x15
80000608:	011fffb3          	and	x31,x31,x17
8000060c:	005fcfb3          	xor	x31,x31,x5
80000610:	01f70733          	add	x14,x14,x31
80000614:	01c70733          	add	x14,x14,x28
80000618:	01c80833          	add	x16,x16,x28
8000061c:	ff8eaf83          	lw	x31,-8(x29)
80000620:	ff8f2e03          	lw	x28,-8(x30)
80000624:	01581293          	slli	x5,x16,0x15
80000628:	01fe0e33          	add	x28,x28,x31
8000062c:	00de06b3          	add	x13,x28,x13
80000630:	00bb4e33          	xor	x28,x22,x11
80000634:	010e7e33          	and	x28,x28,x16
80000638:	016e4e33          	xor	x28,x28,x22
8000063c:	01c686b3          	add	x13,x13,x28
80000640:	01a81f93          	slli	x31,x16,0x1a
80000644:	00685e13          	srli	x28,x16,0x6
80000648:	01fe6e33          	or	x28,x28,x31
8000064c:	00b85f93          	srli	x31,x16,0xb
80000650:	005fefb3          	or	x31,x31,x5
80000654:	01fe4e33          	xor	x28,x28,x31
80000658:	01985293          	srli	x5,x16,0x19
8000065c:	00781f93          	slli	x31,x16,0x7
80000660:	005fefb3          	or	x31,x31,x5
80000664:	01fe4e33          	xor	x28,x28,x31
80000668:	00de0e33          	add	x28,x28,x13
8000066c:	01e71f93          	slli	x31,x14,0x1e
80000670:	00275693          	srli	x13,x14,0x2
80000674:	01f6e6b3          	or	x13,x13,x31
80000678:	01371293          	slli	x5,x14,0x13
8000067c:	00d75f93          	srli	x31,x14,0xd
80000680:	005fefb3          	or	x31,x31,x5
80000684:	01f6c6b3          	xor	x13,x13,x31
80000688:	01675293          	srli	x5,x14,0x16
8000068c:	00a71f93          	slli	x31,x14,0xa
80000690:	005fefb3          	or	x31,x31,x5
80000694:	01f6c6b3          	xor	x13,x13,x31
80000698:	00e7cfb3          	xor	x31,x15,x14
8000069c:	006fffb3          	and	x31,x31,x6
800006a0:	00e7f2b3          	and	x5,x15,x14
800006a4:	005fcfb3          	xor	x31,x31,x5
800006a8:	01f686b3          	add	x13,x13,x31
800006ac:	01c686b3          	add	x13,x13,x28
800006b0:	01c888b3          	add	x17,x17,x28
800006b4:	ffcf2f83          	lw	x31,-4(x30)
800006b8:	ffceae03          	lw	x28,-4(x29)
800006bc:	01a89293          	slli	x5,x17,0x1a
800006c0:	01589393          	slli	x7,x17,0x15
800006c4:	01cf8fb3          	add	x31,x31,x28
800006c8:	0105ce33          	xor	x28,x11,x16
800006cc:	011e7e33          	and	x28,x28,x17
800006d0:	016f8fb3          	add	x31,x31,x22
800006d4:	00be4e33          	xor	x28,x28,x11
800006d8:	01cf8fb3          	add	x31,x31,x28
800006dc:	0068de13          	srli	x28,x17,0x6
800006e0:	005e6e33          	or	x28,x28,x5
800006e4:	00b8d293          	srli	x5,x17,0xb
800006e8:	0072e2b3          	or	x5,x5,x7
800006ec:	005e4e33          	xor	x28,x28,x5
800006f0:	0198d393          	srli	x7,x17,0x19
800006f4:	00789293          	slli	x5,x17,0x7
800006f8:	0072e2b3          	or	x5,x5,x7
800006fc:	005e4e33          	xor	x28,x28,x5
80000700:	01fe0e33          	add	x28,x28,x31
80000704:	0026db13          	srli	x22,x13,0x2
80000708:	01e69f93          	slli	x31,x13,0x1e
8000070c:	01fb6b33          	or	x22,x22,x31
80000710:	01369293          	slli	x5,x13,0x13
80000714:	00d6df93          	srli	x31,x13,0xd
80000718:	005fefb3          	or	x31,x31,x5
8000071c:	01fb4b33          	xor	x22,x22,x31
80000720:	0166d293          	srli	x5,x13,0x16
80000724:	00a69f93          	slli	x31,x13,0xa
80000728:	005fefb3          	or	x31,x31,x5
8000072c:	01fb4b33          	xor	x22,x22,x31
80000730:	00d74fb3          	xor	x31,x14,x13
80000734:	00ffffb3          	and	x31,x31,x15
80000738:	00d772b3          	and	x5,x14,x13
8000073c:	005fcfb3          	xor	x31,x31,x5
80000740:	01fb0b33          	add	x22,x22,x31
80000744:	01c30333          	add	x6,x6,x28
80000748:	01cb0b33          	add	x22,x22,x28
8000074c:	b35f1ce3          	bne	x30,x21,80000284 <_nettle_sha256_compress+0xe0>
80000750:	03012e03          	lw	x28,48(x2)
80000754:	06812c83          	lw	x25,104(x2)
80000758:	05412a03          	lw	x20,84(x2)
8000075c:	01c12023          	sw	x28,0(x2)
80000760:	06412e03          	lw	x28,100(x2)
80000764:	03412383          	lw	x7,52(x2)
80000768:	06c12d83          	lw	x27,108(x2)
8000076c:	01c12223          	sw	x28,4(x2)
80000770:	05812983          	lw	x19,88(x2)
80000774:	03812283          	lw	x5,56(x2)
80000778:	05c12903          	lw	x18,92(x2)
8000077c:	03c12f83          	lw	x31,60(x2)
80000780:	06012403          	lw	x8,96(x2)
80000784:	04012f03          	lw	x30,64(x2)
80000788:	04412e83          	lw	x29,68(x2)
8000078c:	04812e03          	lw	x28,72(x2)
80000790:	04c12483          	lw	x9,76(x2)
80000794:	05012d03          	lw	x26,80(x2)
80000798:	10060613          	addi	x12,x12,256
8000079c:	02c12423          	sw	x12,40(x2)
800007a0:	011cd613          	srli	x12,x25,0x11
800007a4:	00fc9b93          	slli	x23,x25,0xf
800007a8:	00cbebb3          	or	x23,x23,x12
800007ac:	013cdc13          	srli	x24,x25,0x13
800007b0:	00dc9613          	slli	x12,x25,0xd
800007b4:	01866633          	or	x12,x12,x24
800007b8:	00cbc633          	xor	x12,x23,x12
800007bc:	00acdb93          	srli	x23,x25,0xa
800007c0:	01764633          	xor	x12,x12,x23
800007c4:	0073dc13          	srli	x24,x7,0x7
800007c8:	01939b93          	slli	x23,x7,0x19
800007cc:	02c12623          	sw	x12,44(x2)
800007d0:	017c6c33          	or	x24,x24,x23
800007d4:	0123d613          	srli	x12,x7,0x12
800007d8:	00e39b93          	slli	x23,x7,0xe
800007dc:	00cbebb3          	or	x23,x23,x12
800007e0:	02c12603          	lw	x12,44(x2)
800007e4:	017c4bb3          	xor	x23,x24,x23
800007e8:	0033dc13          	srli	x24,x7,0x3
800007ec:	018bcbb3          	xor	x23,x23,x24
800007f0:	01760633          	add	x12,x12,x23
800007f4:	00012b83          	lw	x23,0(x2)
800007f8:	01460633          	add	x12,x12,x20
800007fc:	01531c13          	slli	x24,x6,0x15
80000800:	00cb8633          	add	x12,x23,x12
80000804:	00c12023          	sw	x12,0(x2)
80000808:	01a31b93          	slli	x23,x6,0x1a
8000080c:	00635613          	srli	x12,x6,0x6
80000810:	01766633          	or	x12,x12,x23
80000814:	00b35b93          	srli	x23,x6,0xb
80000818:	018bebb3          	or	x23,x23,x24
8000081c:	01764bb3          	xor	x23,x12,x23
80000820:	01935c13          	srli	x24,x6,0x19
80000824:	00731613          	slli	x12,x6,0x7
80000828:	01866633          	or	x12,x12,x24
8000082c:	00cbcbb3          	xor	x23,x23,x12
80000830:	0108c633          	xor	x12,x17,x16
80000834:	00667633          	and	x12,x12,x6
80000838:	01064633          	xor	x12,x12,x16
8000083c:	00cb8633          	add	x12,x23,x12
80000840:	000aab83          	lw	x23,0(x21)
80000844:	013b1c13          	slli	x24,x22,0x13
80000848:	013383b3          	add	x7,x7,x19
8000084c:	01760633          	add	x12,x12,x23
80000850:	00012b83          	lw	x23,0(x2)
80000854:	040a8a93          	addi	x21,x21,64
80000858:	01760633          	add	x12,x12,x23
8000085c:	00b60633          	add	x12,x12,x11
80000860:	01eb1b93          	slli	x23,x22,0x1e
80000864:	002b5593          	srli	x11,x22,0x2
80000868:	0175e5b3          	or	x11,x11,x23
8000086c:	00db5b93          	srli	x23,x22,0xd
80000870:	018bebb3          	or	x23,x23,x24
80000874:	0175cbb3          	xor	x23,x11,x23
80000878:	016b5c13          	srli	x24,x22,0x16
8000087c:	00ab1593          	slli	x11,x22,0xa
80000880:	0185e5b3          	or	x11,x11,x24
80000884:	00bbc5b3          	xor	x11,x23,x11
80000888:	00db4bb3          	xor	x23,x22,x13
8000088c:	00db7c33          	and	x24,x22,x13
80000890:	00ebfbb3          	and	x23,x23,x14
80000894:	018bcbb3          	xor	x23,x23,x24
80000898:	017585b3          	add	x11,x11,x23
8000089c:	00c585b3          	add	x11,x11,x12
800008a0:	00f607b3          	add	x15,x12,x15
800008a4:	00fd9b93          	slli	x23,x27,0xf
800008a8:	011dd613          	srli	x12,x27,0x11
800008ac:	00cbebb3          	or	x23,x23,x12
800008b0:	013ddc13          	srli	x24,x27,0x13
800008b4:	00dd9613          	slli	x12,x27,0xd
800008b8:	01866633          	or	x12,x12,x24
800008bc:	00cbc633          	xor	x12,x23,x12
800008c0:	00addb93          	srli	x23,x27,0xa
800008c4:	01764bb3          	xor	x23,x12,x23
800008c8:	0072dc13          	srli	x24,x5,0x7
800008cc:	01929613          	slli	x12,x5,0x19
800008d0:	007b8bb3          	add	x23,x23,x7
800008d4:	00cc6c33          	or	x24,x24,x12
800008d8:	0122d393          	srli	x7,x5,0x12
800008dc:	00e29613          	slli	x12,x5,0xe
800008e0:	00766633          	or	x12,x12,x7
800008e4:	00cc4633          	xor	x12,x24,x12
800008e8:	0032d393          	srli	x7,x5,0x3
800008ec:	00764633          	xor	x12,x12,x7
800008f0:	00cb83b3          	add	x7,x23,x12
800008f4:	fc4aab83          	lw	x23,-60(x21)
800008f8:	01134633          	xor	x12,x6,x17
800008fc:	00f67633          	and	x12,x12,x15
80000900:	01780bb3          	add	x23,x16,x23
80000904:	01164633          	xor	x12,x12,x17
80000908:	007b8bb3          	add	x23,x23,x7
8000090c:	01760633          	add	x12,x12,x23
80000910:	01a79813          	slli	x16,x15,0x1a
80000914:	0067db93          	srli	x23,x15,0x6
80000918:	010bebb3          	or	x23,x23,x16
8000091c:	01579c13          	slli	x24,x15,0x15
80000920:	00b7d813          	srli	x16,x15,0xb
80000924:	01886833          	or	x16,x16,x24
80000928:	010bc833          	xor	x16,x23,x16
8000092c:	0197dc13          	srli	x24,x15,0x19
80000930:	00779b93          	slli	x23,x15,0x7
80000934:	018bebb3          	or	x23,x23,x24
80000938:	01784833          	xor	x16,x16,x23
8000093c:	00c80833          	add	x16,x16,x12
80000940:	01e59b93          	slli	x23,x11,0x1e
80000944:	0025d613          	srli	x12,x11,0x2
80000948:	01766633          	or	x12,x12,x23
8000094c:	01359c13          	slli	x24,x11,0x13
80000950:	00d5db93          	srli	x23,x11,0xd
80000954:	018bebb3          	or	x23,x23,x24
80000958:	01764bb3          	xor	x23,x12,x23
8000095c:	0165dc13          	srli	x24,x11,0x16
80000960:	00a59613          	slli	x12,x11,0xa
80000964:	01866633          	or	x12,x12,x24
80000968:	00cbc633          	xor	x12,x23,x12
8000096c:	0165cbb3          	xor	x23,x11,x22
80000970:	0165fc33          	and	x24,x11,x22
80000974:	00dbfbb3          	and	x23,x23,x13
80000978:	018bcbb3          	xor	x23,x23,x24
8000097c:	01760633          	add	x12,x12,x23
80000980:	01060633          	add	x12,x12,x16
80000984:	00e80733          	add	x14,x16,x14
80000988:	007fdb93          	srli	x23,x31,0x7
8000098c:	019f9813          	slli	x16,x31,0x19
80000990:	010bebb3          	or	x23,x23,x16
80000994:	012fdc13          	srli	x24,x31,0x12
80000998:	00ef9813          	slli	x16,x31,0xe
8000099c:	01886833          	or	x16,x16,x24
800009a0:	010bc833          	xor	x16,x23,x16
800009a4:	003fdb93          	srli	x23,x31,0x3
800009a8:	01784bb3          	xor	x23,x16,x23
800009ac:	00012803          	lw	x16,0(x2)
800009b0:	012282b3          	add	x5,x5,x18
800009b4:	005b8bb3          	add	x23,x23,x5
800009b8:	00f81c13          	slli	x24,x16,0xf
800009bc:	01185813          	srli	x16,x16,0x11
800009c0:	010c6c33          	or	x24,x24,x16
800009c4:	00012283          	lw	x5,0(x2)
800009c8:	00012803          	lw	x16,0(x2)
800009cc:	008f8fb3          	add	x31,x31,x8
800009d0:	0132d293          	srli	x5,x5,0x13
800009d4:	00d81813          	slli	x16,x16,0xd
800009d8:	00586833          	or	x16,x16,x5
800009dc:	00012283          	lw	x5,0(x2)
800009e0:	010c4833          	xor	x16,x24,x16
800009e4:	01571c13          	slli	x24,x14,0x15
800009e8:	00a2d293          	srli	x5,x5,0xa
800009ec:	00584833          	xor	x16,x16,x5
800009f0:	010b82b3          	add	x5,x23,x16
800009f4:	fc8aa803          	lw	x16,-56(x21)
800009f8:	0067cbb3          	xor	x23,x15,x6
800009fc:	00ebfbb3          	and	x23,x23,x14
80000a00:	01088833          	add	x16,x17,x16
80000a04:	006bcbb3          	xor	x23,x23,x6
80000a08:	00580833          	add	x16,x16,x5
80000a0c:	010b88b3          	add	x17,x23,x16
80000a10:	01a71813          	slli	x16,x14,0x1a
80000a14:	00675b93          	srli	x23,x14,0x6
80000a18:	010bebb3          	or	x23,x23,x16
80000a1c:	00b75813          	srli	x16,x14,0xb
80000a20:	01886833          	or	x16,x16,x24
80000a24:	010bc833          	xor	x16,x23,x16
80000a28:	01975c13          	srli	x24,x14,0x19
80000a2c:	00771b93          	slli	x23,x14,0x7
80000a30:	018bebb3          	or	x23,x23,x24
80000a34:	01784833          	xor	x16,x16,x23
80000a38:	01180833          	add	x16,x16,x17
80000a3c:	01e61b93          	slli	x23,x12,0x1e
80000a40:	00265893          	srli	x17,x12,0x2
80000a44:	0178e8b3          	or	x17,x17,x23
80000a48:	01361c13          	slli	x24,x12,0x13
80000a4c:	00d65b93          	srli	x23,x12,0xd
80000a50:	018bebb3          	or	x23,x23,x24
80000a54:	0178cbb3          	xor	x23,x17,x23
80000a58:	01665c13          	srli	x24,x12,0x16
80000a5c:	00a61893          	slli	x17,x12,0xa
80000a60:	0188e8b3          	or	x17,x17,x24
80000a64:	011bc8b3          	xor	x17,x23,x17
80000a68:	00c5cbb3          	xor	x23,x11,x12
80000a6c:	00c5fc33          	and	x24,x11,x12
80000a70:	016bfbb3          	and	x23,x23,x22
80000a74:	018bcbb3          	xor	x23,x23,x24
80000a78:	017888b3          	add	x17,x17,x23
80000a7c:	010888b3          	add	x17,x17,x16
80000a80:	00d806b3          	add	x13,x16,x13
80000a84:	007f5b93          	srli	x23,x30,0x7
80000a88:	019f1813          	slli	x16,x30,0x19
80000a8c:	010bebb3          	or	x23,x23,x16
80000a90:	012f5c13          	srli	x24,x30,0x12
80000a94:	00ef1813          	slli	x16,x30,0xe
80000a98:	01886833          	or	x16,x16,x24
80000a9c:	010bc833          	xor	x16,x23,x16
80000aa0:	003f5b93          	srli	x23,x30,0x3
80000aa4:	01784bb3          	xor	x23,x16,x23
80000aa8:	00f39c13          	slli	x24,x7,0xf
80000aac:	0113d813          	srli	x16,x7,0x11
80000ab0:	01fb8bb3          	add	x23,x23,x31
80000ab4:	010c6c33          	or	x24,x24,x16
80000ab8:	0133df93          	srli	x31,x7,0x13
80000abc:	00d39813          	slli	x16,x7,0xd
80000ac0:	01f86833          	or	x16,x16,x31
80000ac4:	010c4833          	xor	x16,x24,x16
80000ac8:	00a3df93          	srli	x31,x7,0xa
80000acc:	01f84833          	xor	x16,x16,x31
80000ad0:	010b8fb3          	add	x31,x23,x16
80000ad4:	fccaab83          	lw	x23,-52(x21)
80000ad8:	00e7c833          	xor	x16,x15,x14
80000adc:	00d87833          	and	x16,x16,x13
80000ae0:	01730bb3          	add	x23,x6,x23
80000ae4:	00f84833          	xor	x16,x16,x15
80000ae8:	01fb8bb3          	add	x23,x23,x31
80000aec:	01780833          	add	x16,x16,x23
80000af0:	01a69313          	slli	x6,x13,0x1a
80000af4:	0066db93          	srli	x23,x13,0x6
80000af8:	006bebb3          	or	x23,x23,x6
80000afc:	01569c13          	slli	x24,x13,0x15
80000b00:	00b6d313          	srli	x6,x13,0xb
80000b04:	01836333          	or	x6,x6,x24
80000b08:	006bc333          	xor	x6,x23,x6
80000b0c:	0196dc13          	srli	x24,x13,0x19
80000b10:	00769b93          	slli	x23,x13,0x7
80000b14:	018bebb3          	or	x23,x23,x24
80000b18:	01734333          	xor	x6,x6,x23
80000b1c:	01030333          	add	x6,x6,x16
80000b20:	01e89b93          	slli	x23,x17,0x1e
80000b24:	0028d813          	srli	x16,x17,0x2
80000b28:	01786833          	or	x16,x16,x23
80000b2c:	01389c13          	slli	x24,x17,0x13
80000b30:	00d8db93          	srli	x23,x17,0xd
80000b34:	018bebb3          	or	x23,x23,x24
80000b38:	01784bb3          	xor	x23,x16,x23
80000b3c:	0168dc13          	srli	x24,x17,0x16
80000b40:	00a89813          	slli	x16,x17,0xa
80000b44:	01886833          	or	x16,x16,x24
80000b48:	010bc833          	xor	x16,x23,x16
80000b4c:	01164bb3          	xor	x23,x12,x17
80000b50:	01167c33          	and	x24,x12,x17
80000b54:	00bbfbb3          	and	x23,x23,x11
80000b58:	018bcbb3          	xor	x23,x23,x24
80000b5c:	01780833          	add	x16,x16,x23
80000b60:	00680833          	add	x16,x16,x6
80000b64:	01630b33          	add	x22,x6,x22
80000b68:	007edb93          	srli	x23,x29,0x7
80000b6c:	019e9313          	slli	x6,x29,0x19
80000b70:	006bebb3          	or	x23,x23,x6
80000b74:	012edc13          	srli	x24,x29,0x12
80000b78:	00ee9313          	slli	x6,x29,0xe
80000b7c:	01836333          	or	x6,x6,x24
80000b80:	006bc333          	xor	x6,x23,x6
80000b84:	003edb93          	srli	x23,x29,0x3
80000b88:	01734bb3          	xor	x23,x6,x23
80000b8c:	00412303          	lw	x6,4(x2)
80000b90:	00f29c13          	slli	x24,x5,0xf
80000b94:	01dc8eb3          	add	x29,x25,x29
80000b98:	006f0f33          	add	x30,x30,x6
80000b9c:	0112d313          	srli	x6,x5,0x11
80000ba0:	01eb8bb3          	add	x23,x23,x30
80000ba4:	006c6c33          	or	x24,x24,x6
80000ba8:	0132df13          	srli	x30,x5,0x13
80000bac:	00d29313          	slli	x6,x5,0xd
80000bb0:	01e36333          	or	x6,x6,x30
80000bb4:	006c4333          	xor	x6,x24,x6
80000bb8:	00a2df13          	srli	x30,x5,0xa
80000bbc:	01e34333          	xor	x6,x6,x30
80000bc0:	006b8f33          	add	x30,x23,x6
80000bc4:	fd0aab83          	lw	x23,-48(x21)
80000bc8:	00d74333          	xor	x6,x14,x13
80000bcc:	01637333          	and	x6,x6,x22
80000bd0:	017787b3          	add	x15,x15,x23
80000bd4:	00e34333          	xor	x6,x6,x14
80000bd8:	01e787b3          	add	x15,x15,x30
80000bdc:	00f30333          	add	x6,x6,x15
80000be0:	006b5b93          	srli	x23,x22,0x6
80000be4:	01ab1793          	slli	x15,x22,0x1a
80000be8:	00fbebb3          	or	x23,x23,x15
80000bec:	015b1c13          	slli	x24,x22,0x15
80000bf0:	00bb5793          	srli	x15,x22,0xb
80000bf4:	0187e7b3          	or	x15,x15,x24
80000bf8:	00fbc7b3          	xor	x15,x23,x15
80000bfc:	019b5c13          	srli	x24,x22,0x19
80000c00:	007b1b93          	slli	x23,x22,0x7
80000c04:	018bebb3          	or	x23,x23,x24
80000c08:	0177c7b3          	xor	x15,x15,x23
80000c0c:	006787b3          	add	x15,x15,x6
80000c10:	00f58bb3          	add	x23,x11,x15
80000c14:	01e81313          	slli	x6,x16,0x1e
80000c18:	00285593          	srli	x11,x16,0x2
80000c1c:	0065e5b3          	or	x11,x11,x6
80000c20:	01381c13          	slli	x24,x16,0x13
80000c24:	00d85313          	srli	x6,x16,0xd
80000c28:	01836333          	or	x6,x6,x24
80000c2c:	0065c333          	xor	x6,x11,x6
80000c30:	01685c13          	srli	x24,x16,0x16
80000c34:	00a81593          	slli	x11,x16,0xa
80000c38:	0185e5b3          	or	x11,x11,x24
80000c3c:	00b345b3          	xor	x11,x6,x11
80000c40:	0108c333          	xor	x6,x17,x16
80000c44:	0108fc33          	and	x24,x17,x16
80000c48:	00c37333          	and	x6,x6,x12
80000c4c:	01834333          	xor	x6,x6,x24
80000c50:	006585b3          	add	x11,x11,x6
80000c54:	00f585b3          	add	x11,x11,x15
80000c58:	007e5313          	srli	x6,x28,0x7
80000c5c:	019e1793          	slli	x15,x28,0x19
80000c60:	00f36333          	or	x6,x6,x15
80000c64:	012e5c13          	srli	x24,x28,0x12
80000c68:	00ee1793          	slli	x15,x28,0xe
80000c6c:	0187e7b3          	or	x15,x15,x24
80000c70:	00f347b3          	xor	x15,x6,x15
80000c74:	003e5313          	srli	x6,x28,0x3
80000c78:	0067c333          	xor	x6,x15,x6
80000c7c:	00ff9c13          	slli	x24,x31,0xf
80000c80:	011fd793          	srli	x15,x31,0x11
80000c84:	01d30333          	add	x6,x6,x29
80000c88:	00fc6c33          	or	x24,x24,x15
80000c8c:	013fde93          	srli	x29,x31,0x13
80000c90:	00df9793          	slli	x15,x31,0xd
80000c94:	01d7e7b3          	or	x15,x15,x29
80000c98:	00fc47b3          	xor	x15,x24,x15
80000c9c:	00afde93          	srli	x29,x31,0xa
80000ca0:	01d7c7b3          	xor	x15,x15,x29
80000ca4:	00f30eb3          	add	x29,x6,x15
80000ca8:	fd4aa303          	lw	x6,-44(x21)
80000cac:	0166c7b3          	xor	x15,x13,x22
80000cb0:	0177f7b3          	and	x15,x15,x23
80000cb4:	00670733          	add	x14,x14,x6
80000cb8:	00d7c7b3          	xor	x15,x15,x13
80000cbc:	01d70733          	add	x14,x14,x29
80000cc0:	00e78733          	add	x14,x15,x14
80000cc4:	006bd313          	srli	x6,x23,0x6
80000cc8:	01ab9793          	slli	x15,x23,0x1a
80000ccc:	00f36333          	or	x6,x6,x15
80000cd0:	015b9c13          	slli	x24,x23,0x15
80000cd4:	00bbd793          	srli	x15,x23,0xb
80000cd8:	0187e7b3          	or	x15,x15,x24
80000cdc:	00f347b3          	xor	x15,x6,x15
80000ce0:	019bdc13          	srli	x24,x23,0x19
80000ce4:	007b9313          	slli	x6,x23,0x7
80000ce8:	01836333          	or	x6,x6,x24
80000cec:	0067c7b3          	xor	x15,x15,x6
80000cf0:	00e787b3          	add	x15,x15,x14
80000cf4:	00f60c33          	add	x24,x12,x15
80000cf8:	01e59713          	slli	x14,x11,0x1e
80000cfc:	0025d613          	srli	x12,x11,0x2
80000d00:	00e66633          	or	x12,x12,x14
80000d04:	01359313          	slli	x6,x11,0x13
80000d08:	00d5d713          	srli	x14,x11,0xd
80000d0c:	00676733          	or	x14,x14,x6
80000d10:	00e64733          	xor	x14,x12,x14
80000d14:	0165d313          	srli	x6,x11,0x16
80000d18:	00a59613          	slli	x12,x11,0xa
80000d1c:	00666633          	or	x12,x12,x6
80000d20:	00c74633          	xor	x12,x14,x12
80000d24:	00b84733          	xor	x14,x16,x11
80000d28:	00b87333          	and	x6,x16,x11
80000d2c:	01177733          	and	x14,x14,x17
80000d30:	00674733          	xor	x14,x14,x6
80000d34:	00e60633          	add	x12,x12,x14
80000d38:	00f60633          	add	x12,x12,x15
80000d3c:	0074d713          	srli	x14,x9,0x7
80000d40:	01949793          	slli	x15,x9,0x19
80000d44:	00f76733          	or	x14,x14,x15
80000d48:	0124d313          	srli	x6,x9,0x12
80000d4c:	00e49793          	slli	x15,x9,0xe
80000d50:	0067e7b3          	or	x15,x15,x6
80000d54:	00f747b3          	xor	x15,x14,x15
80000d58:	0034d713          	srli	x14,x9,0x3
80000d5c:	01cd8e33          	add	x28,x27,x28
80000d60:	00e7c733          	xor	x14,x15,x14
80000d64:	00ff1313          	slli	x6,x30,0xf
80000d68:	011f5793          	srli	x15,x30,0x11
80000d6c:	01c70733          	add	x14,x14,x28
80000d70:	00f36333          	or	x6,x6,x15
80000d74:	013f5e13          	srli	x28,x30,0x13
80000d78:	00df1793          	slli	x15,x30,0xd
80000d7c:	01c7e7b3          	or	x15,x15,x28
80000d80:	00f347b3          	xor	x15,x6,x15
80000d84:	00af5e13          	srli	x28,x30,0xa
80000d88:	01c7c7b3          	xor	x15,x15,x28
80000d8c:	00f70e33          	add	x28,x14,x15
80000d90:	fd8aa703          	lw	x14,-40(x21)
80000d94:	017b47b3          	xor	x15,x22,x23
80000d98:	0187f7b3          	and	x15,x15,x24
80000d9c:	00e686b3          	add	x13,x13,x14
80000da0:	0167c7b3          	xor	x15,x15,x22
80000da4:	01c686b3          	add	x13,x13,x28
80000da8:	00d786b3          	add	x13,x15,x13
80000dac:	006c5713          	srli	x14,x24,0x6
80000db0:	01ac1793          	slli	x15,x24,0x1a
80000db4:	00f76733          	or	x14,x14,x15
80000db8:	015c1313          	slli	x6,x24,0x15
80000dbc:	00bc5793          	srli	x15,x24,0xb
80000dc0:	0067e7b3          	or	x15,x15,x6
80000dc4:	00f747b3          	xor	x15,x14,x15
80000dc8:	019c5313          	srli	x6,x24,0x19
80000dcc:	007c1713          	slli	x14,x24,0x7
80000dd0:	00676733          	or	x14,x14,x6
80000dd4:	00e7c7b3          	xor	x15,x15,x14
80000dd8:	00d787b3          	add	x15,x15,x13
80000ddc:	00265713          	srli	x14,x12,0x2
80000de0:	01e61693          	slli	x13,x12,0x1e
80000de4:	00d76733          	or	x14,x14,x13
80000de8:	01361313          	slli	x6,x12,0x13
80000dec:	00d65693          	srli	x13,x12,0xd
80000df0:	0066e6b3          	or	x13,x13,x6
80000df4:	00d746b3          	xor	x13,x14,x13
80000df8:	01665313          	srli	x6,x12,0x16
80000dfc:	00a61713          	slli	x14,x12,0xa
80000e00:	00676733          	or	x14,x14,x6
80000e04:	00e6c733          	xor	x14,x13,x14
80000e08:	00c5c6b3          	xor	x13,x11,x12
80000e0c:	00c5f333          	and	x6,x11,x12
80000e10:	0106f6b3          	and	x13,x13,x16
80000e14:	0066c6b3          	xor	x13,x13,x6
80000e18:	00d70733          	add	x14,x14,x13
80000e1c:	00f70733          	add	x14,x14,x15
80000e20:	00f888b3          	add	x17,x17,x15
80000e24:	007d5693          	srli	x13,x26,0x7
80000e28:	019d1793          	slli	x15,x26,0x19
80000e2c:	00f6e6b3          	or	x13,x13,x15
80000e30:	012d5313          	srli	x6,x26,0x12
80000e34:	00ed1793          	slli	x15,x26,0xe
80000e38:	0067e7b3          	or	x15,x15,x6
80000e3c:	00f6c7b3          	xor	x15,x13,x15
80000e40:	003d5693          	srli	x13,x26,0x3
80000e44:	00d7c7b3          	xor	x15,x15,x13
80000e48:	00012683          	lw	x13,0(x2)
80000e4c:	009787b3          	add	x15,x15,x9
80000e50:	011ed313          	srli	x6,x29,0x11
80000e54:	00d787b3          	add	x15,x15,x13
80000e58:	00fe9693          	slli	x13,x29,0xf
80000e5c:	0066e6b3          	or	x13,x13,x6
80000e60:	00de9493          	slli	x9,x29,0xd
80000e64:	013ed313          	srli	x6,x29,0x13
80000e68:	0064e4b3          	or	x9,x9,x6
80000e6c:	0096c4b3          	xor	x9,x13,x9
80000e70:	00aed693          	srli	x13,x29,0xa
80000e74:	00d4c4b3          	xor	x9,x9,x13
80000e78:	fdcaa683          	lw	x13,-36(x21)
80000e7c:	009784b3          	add	x9,x15,x9
80000e80:	018bc7b3          	xor	x15,x23,x24
80000e84:	0117f7b3          	and	x15,x15,x17
80000e88:	00d486b3          	add	x13,x9,x13
80000e8c:	016686b3          	add	x13,x13,x22
80000e90:	0177c7b3          	xor	x15,x15,x23
80000e94:	00d787b3          	add	x15,x15,x13
80000e98:	0068d313          	srli	x6,x17,0x6
80000e9c:	01a89693          	slli	x13,x17,0x1a
80000ea0:	00d36333          	or	x6,x6,x13
80000ea4:	01589b13          	slli	x22,x17,0x15
80000ea8:	00b8d693          	srli	x13,x17,0xb
80000eac:	0166e6b3          	or	x13,x13,x22
80000eb0:	00d346b3          	xor	x13,x6,x13
80000eb4:	0198db13          	srli	x22,x17,0x19
80000eb8:	00789313          	slli	x6,x17,0x7
80000ebc:	01636333          	or	x6,x6,x22
80000ec0:	0066c6b3          	xor	x13,x13,x6
80000ec4:	00f686b3          	add	x13,x13,x15
80000ec8:	00d80333          	add	x6,x16,x13
80000ecc:	00275793          	srli	x15,x14,0x2
80000ed0:	01e71813          	slli	x16,x14,0x1e
80000ed4:	0107e7b3          	or	x15,x15,x16
80000ed8:	01371b13          	slli	x22,x14,0x13
80000edc:	00d75813          	srli	x16,x14,0xd
80000ee0:	01686833          	or	x16,x16,x22
80000ee4:	0107c833          	xor	x16,x15,x16
80000ee8:	01675b13          	srli	x22,x14,0x16
80000eec:	00a71793          	slli	x15,x14,0xa
80000ef0:	0167e7b3          	or	x15,x15,x22
80000ef4:	00f847b3          	xor	x15,x16,x15
80000ef8:	00e64833          	xor	x16,x12,x14
80000efc:	00e67b33          	and	x22,x12,x14
80000f00:	00b87833          	and	x16,x16,x11
80000f04:	01684833          	xor	x16,x16,x22
80000f08:	010787b3          	add	x15,x15,x16
80000f0c:	00d787b3          	add	x15,x15,x13
80000f10:	007a5813          	srli	x16,x20,0x7
80000f14:	019a1693          	slli	x13,x20,0x19
80000f18:	00d86833          	or	x16,x16,x13
80000f1c:	012a5b13          	srli	x22,x20,0x12
80000f20:	00ea1693          	slli	x13,x20,0xe
80000f24:	0166e6b3          	or	x13,x13,x22
80000f28:	00d846b3          	xor	x13,x16,x13
80000f2c:	003a5813          	srli	x16,x20,0x3
80000f30:	0106c6b3          	xor	x13,x13,x16
80000f34:	00fe1b13          	slli	x22,x28,0xf
80000f38:	011e5813          	srli	x16,x28,0x11
80000f3c:	010b6b33          	or	x22,x22,x16
80000f40:	01a686b3          	add	x13,x13,x26
80000f44:	00de1813          	slli	x16,x28,0xd
80000f48:	013e5d13          	srli	x26,x28,0x13
80000f4c:	01a86833          	or	x16,x16,x26
80000f50:	010b4833          	xor	x16,x22,x16
80000f54:	00ae5b13          	srli	x22,x28,0xa
80000f58:	01684833          	xor	x16,x16,x22
80000f5c:	007686b3          	add	x13,x13,x7
80000f60:	01068d33          	add	x26,x13,x16
80000f64:	fe0aa683          	lw	x13,-32(x21)
80000f68:	011c4833          	xor	x16,x24,x17
80000f6c:	00687833          	and	x16,x16,x6
80000f70:	00dd06b3          	add	x13,x26,x13
80000f74:	017686b3          	add	x13,x13,x23
80000f78:	01884833          	xor	x16,x16,x24
80000f7c:	00d80833          	add	x16,x16,x13
80000f80:	00635b13          	srli	x22,x6,0x6
80000f84:	01a31693          	slli	x13,x6,0x1a
80000f88:	00db6b33          	or	x22,x22,x13
80000f8c:	01531b93          	slli	x23,x6,0x15
80000f90:	00b35693          	srli	x13,x6,0xb
80000f94:	0176e6b3          	or	x13,x13,x23
80000f98:	00db46b3          	xor	x13,x22,x13
80000f9c:	01935b93          	srli	x23,x6,0x19
80000fa0:	00731b13          	slli	x22,x6,0x7
80000fa4:	017b6b33          	or	x22,x22,x23
80000fa8:	0166c6b3          	xor	x13,x13,x22
80000fac:	010686b3          	add	x13,x13,x16
80000fb0:	00d58bb3          	add	x23,x11,x13
80000fb4:	01e79813          	slli	x16,x15,0x1e
80000fb8:	0027d593          	srli	x11,x15,0x2
80000fbc:	0105e5b3          	or	x11,x11,x16
80000fc0:	01379b13          	slli	x22,x15,0x13
80000fc4:	00d7d813          	srli	x16,x15,0xd
80000fc8:	01686833          	or	x16,x16,x22
80000fcc:	0105c833          	xor	x16,x11,x16
80000fd0:	0167db13          	srli	x22,x15,0x16
80000fd4:	00a79593          	slli	x11,x15,0xa
80000fd8:	0165e5b3          	or	x11,x11,x22
80000fdc:	00b845b3          	xor	x11,x16,x11
80000fe0:	00f74833          	xor	x16,x14,x15
80000fe4:	00f77b33          	and	x22,x14,x15
80000fe8:	00c87833          	and	x16,x16,x12
80000fec:	01684833          	xor	x16,x16,x22
80000ff0:	010585b3          	add	x11,x11,x16
80000ff4:	00d585b3          	add	x11,x11,x13
80000ff8:	0079d813          	srli	x16,x19,0x7
80000ffc:	01999693          	slli	x13,x19,0x19
80001000:	00d86833          	or	x16,x16,x13
80001004:	0129db13          	srli	x22,x19,0x12
80001008:	00e99693          	slli	x13,x19,0xe
8000100c:	0166e6b3          	or	x13,x13,x22
80001010:	00d846b3          	xor	x13,x16,x13
80001014:	0039d813          	srli	x16,x19,0x3
80001018:	0106c6b3          	xor	x13,x13,x16
8000101c:	014686b3          	add	x13,x13,x20
80001020:	00f49813          	slli	x16,x9,0xf
80001024:	0114da13          	srli	x20,x9,0x11
80001028:	01486833          	or	x16,x16,x20
8000102c:	0134db13          	srli	x22,x9,0x13
80001030:	00d49a13          	slli	x20,x9,0xd
80001034:	016a6a33          	or	x20,x20,x22
80001038:	01484a33          	xor	x20,x16,x20
8000103c:	00a4d813          	srli	x16,x9,0xa
80001040:	005686b3          	add	x13,x13,x5
80001044:	010a4a33          	xor	x20,x20,x16
80001048:	01468a33          	add	x20,x13,x20
8000104c:	fe4aa683          	lw	x13,-28(x21)
80001050:	0068c833          	xor	x16,x17,x6
80001054:	01787833          	and	x16,x16,x23
80001058:	00da06b3          	add	x13,x20,x13
8000105c:	018686b3          	add	x13,x13,x24
80001060:	01184833          	xor	x16,x16,x17
80001064:	00d80833          	add	x16,x16,x13
80001068:	006bdb13          	srli	x22,x23,0x6
8000106c:	01ab9693          	slli	x13,x23,0x1a
80001070:	00db6b33          	or	x22,x22,x13
80001074:	015b9c13          	slli	x24,x23,0x15
80001078:	00bbd693          	srli	x13,x23,0xb
8000107c:	0186e6b3          	or	x13,x13,x24
80001080:	00db46b3          	xor	x13,x22,x13
80001084:	019bdc13          	srli	x24,x23,0x19
80001088:	007b9b13          	slli	x22,x23,0x7
8000108c:	018b6b33          	or	x22,x22,x24
80001090:	0166c6b3          	xor	x13,x13,x22
80001094:	010686b3          	add	x13,x13,x16
80001098:	00d60b33          	add	x22,x12,x13
8000109c:	0025d813          	srli	x16,x11,0x2
800010a0:	01e59613          	slli	x12,x11,0x1e
800010a4:	00c86833          	or	x16,x16,x12
800010a8:	01359c13          	slli	x24,x11,0x13
800010ac:	00d5d613          	srli	x12,x11,0xd
800010b0:	01866633          	or	x12,x12,x24
800010b4:	00c84633          	xor	x12,x16,x12
800010b8:	0165dc13          	srli	x24,x11,0x16
800010bc:	00a59813          	slli	x16,x11,0xa
800010c0:	01886833          	or	x16,x16,x24
800010c4:	01064833          	xor	x16,x12,x16
800010c8:	00b7c633          	xor	x12,x15,x11
800010cc:	00b7fc33          	and	x24,x15,x11
800010d0:	00e67633          	and	x12,x12,x14
800010d4:	01864633          	xor	x12,x12,x24
800010d8:	00c80833          	add	x16,x16,x12
800010dc:	00d80833          	add	x16,x16,x13
800010e0:	00795613          	srli	x12,x18,0x7
800010e4:	01991693          	slli	x13,x18,0x19
800010e8:	00d66633          	or	x12,x12,x13
800010ec:	01295c13          	srli	x24,x18,0x12
800010f0:	00e91693          	slli	x13,x18,0xe
800010f4:	0186e6b3          	or	x13,x13,x24
800010f8:	00d646b3          	xor	x13,x12,x13
800010fc:	00395613          	srli	x12,x18,0x3
80001100:	00c6c6b3          	xor	x13,x13,x12
80001104:	013686b3          	add	x13,x13,x19
80001108:	00fd1613          	slli	x12,x26,0xf
8000110c:	011d5993          	srli	x19,x26,0x11
80001110:	01366633          	or	x12,x12,x19
80001114:	013d5c13          	srli	x24,x26,0x13
80001118:	00dd1993          	slli	x19,x26,0xd
8000111c:	0189e9b3          	or	x19,x19,x24
80001120:	013649b3          	xor	x19,x12,x19
80001124:	00ad5613          	srli	x12,x26,0xa
80001128:	01f686b3          	add	x13,x13,x31
8000112c:	00c9c9b3          	xor	x19,x19,x12
80001130:	013689b3          	add	x19,x13,x19
80001134:	fe8aa683          	lw	x13,-24(x21)
80001138:	01734633          	xor	x12,x6,x23
8000113c:	01667633          	and	x12,x12,x22
80001140:	00d986b3          	add	x13,x19,x13
80001144:	00664633          	xor	x12,x12,x6
80001148:	011686b3          	add	x13,x13,x17
8000114c:	00c686b3          	add	x13,x13,x12
80001150:	006b5893          	srli	x17,x22,0x6
80001154:	01ab1613          	slli	x12,x22,0x1a
80001158:	00c8e8b3          	or	x17,x17,x12
8000115c:	015b1c13          	slli	x24,x22,0x15
80001160:	00bb5613          	srli	x12,x22,0xb
80001164:	01866633          	or	x12,x12,x24
80001168:	00c8c633          	xor	x12,x17,x12
8000116c:	019b5c13          	srli	x24,x22,0x19
80001170:	007b1893          	slli	x17,x22,0x7
80001174:	0188e8b3          	or	x17,x17,x24
80001178:	01164633          	xor	x12,x12,x17
8000117c:	00d60633          	add	x12,x12,x13
80001180:	00c706b3          	add	x13,x14,x12
80001184:	00285893          	srli	x17,x16,0x2
80001188:	01e81713          	slli	x14,x16,0x1e
8000118c:	00e8e8b3          	or	x17,x17,x14
80001190:	01381c13          	slli	x24,x16,0x13
80001194:	00d85713          	srli	x14,x16,0xd
80001198:	01876733          	or	x14,x14,x24
8000119c:	00e8c733          	xor	x14,x17,x14
800011a0:	01685c13          	srli	x24,x16,0x16
800011a4:	00a81893          	slli	x17,x16,0xa
800011a8:	0188e8b3          	or	x17,x17,x24
800011ac:	011748b3          	xor	x17,x14,x17
800011b0:	0105c733          	xor	x14,x11,x16
800011b4:	0105fc33          	and	x24,x11,x16
800011b8:	00f77733          	and	x14,x14,x15
800011bc:	01874733          	xor	x14,x14,x24
800011c0:	00e888b3          	add	x17,x17,x14
800011c4:	00c888b3          	add	x17,x17,x12
800011c8:	01941713          	slli	x14,x8,0x19
800011cc:	00745613          	srli	x12,x8,0x7
800011d0:	00e66633          	or	x12,x12,x14
800011d4:	01245c13          	srli	x24,x8,0x12
800011d8:	00e41713          	slli	x14,x8,0xe
800011dc:	01876733          	or	x14,x14,x24
800011e0:	00e64733          	xor	x14,x12,x14
800011e4:	00345613          	srli	x12,x8,0x3
800011e8:	00c74733          	xor	x14,x14,x12
800011ec:	01270733          	add	x14,x14,x18
800011f0:	00fa1613          	slli	x12,x20,0xf
800011f4:	011a5913          	srli	x18,x20,0x11
800011f8:	01266633          	or	x12,x12,x18
800011fc:	013a5c13          	srli	x24,x20,0x13
80001200:	00da1913          	slli	x18,x20,0xd
80001204:	01896933          	or	x18,x18,x24
80001208:	01264933          	xor	x18,x12,x18
8000120c:	00aa5613          	srli	x12,x20,0xa
80001210:	01e70733          	add	x14,x14,x30
80001214:	00c94933          	xor	x18,x18,x12
80001218:	01270933          	add	x18,x14,x18
8000121c:	fecaa703          	lw	x14,-20(x21)
80001220:	016bc633          	xor	x12,x23,x22
80001224:	00d67633          	and	x12,x12,x13
80001228:	00e90733          	add	x14,x18,x14
8000122c:	00670733          	add	x14,x14,x6
80001230:	01764633          	xor	x12,x12,x23
80001234:	00e60633          	add	x12,x12,x14
80001238:	0066d313          	srli	x6,x13,0x6
8000123c:	01a69713          	slli	x14,x13,0x1a
80001240:	00e36333          	or	x6,x6,x14
80001244:	01569c13          	slli	x24,x13,0x15
80001248:	00b6d713          	srli	x14,x13,0xb
8000124c:	01876733          	or	x14,x14,x24
80001250:	00e34733          	xor	x14,x6,x14
80001254:	0196dc13          	srli	x24,x13,0x19
80001258:	00769313          	slli	x6,x13,0x7
8000125c:	01836333          	or	x6,x6,x24
80001260:	00674733          	xor	x14,x14,x6
80001264:	00c70733          	add	x14,x14,x12
80001268:	00e78633          	add	x12,x15,x14
8000126c:	0028d313          	srli	x6,x17,0x2
80001270:	01e89793          	slli	x15,x17,0x1e
80001274:	00f36333          	or	x6,x6,x15
80001278:	01389c13          	slli	x24,x17,0x13
8000127c:	00d8d793          	srli	x15,x17,0xd
80001280:	0187e7b3          	or	x15,x15,x24
80001284:	00f347b3          	xor	x15,x6,x15
80001288:	0168dc13          	srli	x24,x17,0x16
8000128c:	00a89313          	slli	x6,x17,0xa
80001290:	01836333          	or	x6,x6,x24
80001294:	0067c333          	xor	x6,x15,x6
80001298:	011847b3          	xor	x15,x16,x17
8000129c:	01187c33          	and	x24,x16,x17
800012a0:	00b7f7b3          	and	x15,x15,x11
800012a4:	0187c7b3          	xor	x15,x15,x24
800012a8:	00f30333          	add	x6,x6,x15
800012ac:	00412783          	lw	x15,4(x2)
800012b0:	00e30333          	add	x6,x6,x14
800012b4:	00412c03          	lw	x24,4(x2)
800012b8:	0077d713          	srli	x14,x15,0x7
800012bc:	01979793          	slli	x15,x15,0x19
800012c0:	00f76733          	or	x14,x14,x15
800012c4:	00412783          	lw	x15,4(x2)
800012c8:	012c5c13          	srli	x24,x24,0x12
800012cc:	00e79793          	slli	x15,x15,0xe
800012d0:	0187e7b3          	or	x15,x15,x24
800012d4:	00f747b3          	xor	x15,x14,x15
800012d8:	00412703          	lw	x14,4(x2)
800012dc:	0139dc13          	srli	x24,x19,0x13
800012e0:	00375713          	srli	x14,x14,0x3
800012e4:	00e7c7b3          	xor	x15,x15,x14
800012e8:	008787b3          	add	x15,x15,x8
800012ec:	00f99713          	slli	x14,x19,0xf
800012f0:	0119d413          	srli	x8,x19,0x11
800012f4:	00876733          	or	x14,x14,x8
800012f8:	00d99413          	slli	x8,x19,0xd
800012fc:	01846433          	or	x8,x8,x24
80001300:	00874433          	xor	x8,x14,x8
80001304:	00a9d713          	srli	x14,x19,0xa
80001308:	00e44433          	xor	x8,x8,x14
8000130c:	ff0aa703          	lw	x14,-16(x21)
80001310:	01d787b3          	add	x15,x15,x29
80001314:	00878433          	add	x8,x15,x8
80001318:	00db47b3          	xor	x15,x22,x13
8000131c:	00c7f7b3          	and	x15,x15,x12
80001320:	00e40733          	add	x14,x8,x14
80001324:	01770733          	add	x14,x14,x23
80001328:	0167c7b3          	xor	x15,x15,x22
8000132c:	00e787b3          	add	x15,x15,x14
80001330:	00665b93          	srli	x23,x12,0x6
80001334:	01a61713          	slli	x14,x12,0x1a
80001338:	00ebebb3          	or	x23,x23,x14
8000133c:	01561c13          	slli	x24,x12,0x15
80001340:	00b65713          	srli	x14,x12,0xb
80001344:	01876733          	or	x14,x14,x24
80001348:	00ebc733          	xor	x14,x23,x14
8000134c:	01965c13          	srli	x24,x12,0x19
80001350:	00761b93          	slli	x23,x12,0x7
80001354:	018bebb3          	or	x23,x23,x24
80001358:	01774733          	xor	x14,x14,x23
8000135c:	00f70733          	add	x14,x14,x15
80001360:	01e31b93          	slli	x23,x6,0x1e
80001364:	00235793          	srli	x15,x6,0x2
80001368:	0177e7b3          	or	x15,x15,x23
8000136c:	01331c13          	slli	x24,x6,0x13
80001370:	00d35b93          	srli	x23,x6,0xd
80001374:	018bebb3          	or	x23,x23,x24
80001378:	0177cbb3          	xor	x23,x15,x23
8000137c:	01635c13          	srli	x24,x6,0x16
80001380:	00a31793          	slli	x15,x6,0xa
80001384:	0187e7b3          	or	x15,x15,x24
80001388:	00fbc7b3          	xor	x15,x23,x15
8000138c:	0068cbb3          	xor	x23,x17,x6
80001390:	0068fc33          	and	x24,x17,x6
80001394:	010bfbb3          	and	x23,x23,x16
80001398:	018bcbb3          	xor	x23,x23,x24
8000139c:	017787b3          	add	x15,x15,x23
800013a0:	00e787b3          	add	x15,x15,x14
800013a4:	00e585b3          	add	x11,x11,x14
800013a8:	007cdb93          	srli	x23,x25,0x7
800013ac:	019c9713          	slli	x14,x25,0x19
800013b0:	00ebebb3          	or	x23,x23,x14
800013b4:	012cdc13          	srli	x24,x25,0x12
800013b8:	00ec9713          	slli	x14,x25,0xe
800013bc:	01876733          	or	x14,x14,x24
800013c0:	00ebc733          	xor	x14,x23,x14
800013c4:	003cdb93          	srli	x23,x25,0x3
800013c8:	01774733          	xor	x14,x14,x23
800013cc:	00412b83          	lw	x23,4(x2)
800013d0:	00f91c13          	slli	x24,x18,0xf
800013d4:	01770733          	add	x14,x14,x23
800013d8:	01c70733          	add	x14,x14,x28
800013dc:	01195b93          	srli	x23,x18,0x11
800013e0:	00e12223          	sw	x14,4(x2)
800013e4:	017c6c33          	or	x24,x24,x23
800013e8:	01395713          	srli	x14,x18,0x13
800013ec:	00d91b93          	slli	x23,x18,0xd
800013f0:	00ebebb3          	or	x23,x23,x14
800013f4:	00412703          	lw	x14,4(x2)
800013f8:	017c4bb3          	xor	x23,x24,x23
800013fc:	00a95c13          	srli	x24,x18,0xa
80001400:	018bcbb3          	xor	x23,x23,x24
80001404:	01770733          	add	x14,x14,x23
80001408:	00e12223          	sw	x14,4(x2)
8000140c:	ff4aab83          	lw	x23,-12(x21)
80001410:	00412c03          	lw	x24,4(x2)
80001414:	00c6c733          	xor	x14,x13,x12
80001418:	00b77733          	and	x14,x14,x11
8000141c:	017c0bb3          	add	x23,x24,x23
80001420:	016b8bb3          	add	x23,x23,x22
80001424:	00d74733          	xor	x14,x14,x13
80001428:	01770733          	add	x14,x14,x23
8000142c:	01a59b13          	slli	x22,x11,0x1a
80001430:	0065db93          	srli	x23,x11,0x6
80001434:	016bebb3          	or	x23,x23,x22
80001438:	01559c13          	slli	x24,x11,0x15
8000143c:	00b5db13          	srli	x22,x11,0xb
80001440:	018b6b33          	or	x22,x22,x24
80001444:	016bcb33          	xor	x22,x23,x22
80001448:	0195dc13          	srli	x24,x11,0x19
8000144c:	00759b93          	slli	x23,x11,0x7
80001450:	018bebb3          	or	x23,x23,x24
80001454:	017b4b33          	xor	x22,x22,x23
80001458:	00eb0b33          	add	x22,x22,x14
8000145c:	01e79b93          	slli	x23,x15,0x1e
80001460:	0027d713          	srli	x14,x15,0x2
80001464:	01776733          	or	x14,x14,x23
80001468:	01379c13          	slli	x24,x15,0x13
8000146c:	00d7db93          	srli	x23,x15,0xd
80001470:	018bebb3          	or	x23,x23,x24
80001474:	01774bb3          	xor	x23,x14,x23
80001478:	0167dc13          	srli	x24,x15,0x16
8000147c:	00a79713          	slli	x14,x15,0xa
80001480:	01876733          	or	x14,x14,x24
80001484:	00ebc733          	xor	x14,x23,x14
80001488:	00f34bb3          	xor	x23,x6,x15
8000148c:	00f37c33          	and	x24,x6,x15
80001490:	011bfbb3          	and	x23,x23,x17
80001494:	018bcbb3          	xor	x23,x23,x24
80001498:	01770733          	add	x14,x14,x23
8000149c:	01670733          	add	x14,x14,x22
800014a0:	01680833          	add	x16,x16,x22
800014a4:	007ddb93          	srli	x23,x27,0x7
800014a8:	019d9b13          	slli	x22,x27,0x19
800014ac:	016bebb3          	or	x23,x23,x22
800014b0:	012ddc13          	srli	x24,x27,0x12
800014b4:	00ed9b13          	slli	x22,x27,0xe
800014b8:	018b6b33          	or	x22,x22,x24
800014bc:	016bcb33          	xor	x22,x23,x22
800014c0:	003ddb93          	srli	x23,x27,0x3
800014c4:	017b4b33          	xor	x22,x22,x23
800014c8:	00f41c13          	slli	x24,x8,0xf
800014cc:	01145b93          	srli	x23,x8,0x11
800014d0:	017c6c33          	or	x24,x24,x23
800014d4:	019b0b33          	add	x22,x22,x25
800014d8:	00d41b93          	slli	x23,x8,0xd
800014dc:	01345c93          	srli	x25,x8,0x13
800014e0:	019bebb3          	or	x23,x23,x25
800014e4:	017c4bb3          	xor	x23,x24,x23
800014e8:	00a45c13          	srli	x24,x8,0xa
800014ec:	018bcbb3          	xor	x23,x23,x24
800014f0:	009b0b33          	add	x22,x22,x9
800014f4:	017b0cb3          	add	x25,x22,x23
800014f8:	ff8aab03          	lw	x22,-8(x21)
800014fc:	00b64bb3          	xor	x23,x12,x11
80001500:	010bfbb3          	and	x23,x23,x16
80001504:	016c8b33          	add	x22,x25,x22
80001508:	00cbcbb3          	xor	x23,x23,x12
8000150c:	00db0b33          	add	x22,x22,x13
80001510:	016b86b3          	add	x13,x23,x22
80001514:	01a81b13          	slli	x22,x16,0x1a
80001518:	00685b93          	srli	x23,x16,0x6
8000151c:	016bebb3          	or	x23,x23,x22
80001520:	01581c13          	slli	x24,x16,0x15
80001524:	00b85b13          	srli	x22,x16,0xb
80001528:	018b6b33          	or	x22,x22,x24
8000152c:	016bcb33          	xor	x22,x23,x22
80001530:	01985c13          	srli	x24,x16,0x19
80001534:	00781b93          	slli	x23,x16,0x7
80001538:	018bebb3          	or	x23,x23,x24
8000153c:	017b4b33          	xor	x22,x22,x23
80001540:	00db0b33          	add	x22,x22,x13
80001544:	01e71b93          	slli	x23,x14,0x1e
80001548:	00275693          	srli	x13,x14,0x2
8000154c:	0176e6b3          	or	x13,x13,x23
80001550:	01371c13          	slli	x24,x14,0x13
80001554:	00d75b93          	srli	x23,x14,0xd
80001558:	018bebb3          	or	x23,x23,x24
8000155c:	0176cbb3          	xor	x23,x13,x23
80001560:	01675c13          	srli	x24,x14,0x16
80001564:	00a71693          	slli	x13,x14,0xa
80001568:	0186e6b3          	or	x13,x13,x24
8000156c:	00dbc6b3          	xor	x13,x23,x13
80001570:	00e7cbb3          	xor	x23,x15,x14
80001574:	006bfbb3          	and	x23,x23,x6
80001578:	00e7fc33          	and	x24,x15,x14
8000157c:	018bcbb3          	xor	x23,x23,x24
80001580:	017686b3          	add	x13,x13,x23
80001584:	016686b3          	add	x13,x13,x22
80001588:	016888b3          	add	x17,x17,x22
8000158c:	00012b03          	lw	x22,0(x2)
80001590:	00012c03          	lw	x24,0(x2)
80001594:	007b5b93          	srli	x23,x22,0x7
80001598:	019b1b13          	slli	x22,x22,0x19
8000159c:	016bebb3          	or	x23,x23,x22
800015a0:	00012b03          	lw	x22,0(x2)
800015a4:	012c5c13          	srli	x24,x24,0x12
800015a8:	00eb1b13          	slli	x22,x22,0xe
800015ac:	018b6b33          	or	x22,x22,x24
800015b0:	016bcb33          	xor	x22,x23,x22
800015b4:	00012b83          	lw	x23,0(x2)
800015b8:	003bdb93          	srli	x23,x23,0x3
800015bc:	017b4b33          	xor	x22,x22,x23
800015c0:	00412b83          	lw	x23,4(x2)
800015c4:	01bb0b33          	add	x22,x22,x27
800015c8:	00412d83          	lw	x27,4(x2)
800015cc:	00fb9c13          	slli	x24,x23,0xf
800015d0:	011bdb93          	srli	x23,x23,0x11
800015d4:	017c6c33          	or	x24,x24,x23
800015d8:	00412b83          	lw	x23,4(x2)
800015dc:	013ddd93          	srli	x27,x27,0x13
800015e0:	01ab0b33          	add	x22,x22,x26
800015e4:	00db9b93          	slli	x23,x23,0xd
800015e8:	01bbebb3          	or	x23,x23,x27
800015ec:	017c4bb3          	xor	x23,x24,x23
800015f0:	00412c03          	lw	x24,4(x2)
800015f4:	00ac5c13          	srli	x24,x24,0xa
800015f8:	018bcbb3          	xor	x23,x23,x24
800015fc:	017b0db3          	add	x27,x22,x23
80001600:	ffcaab83          	lw	x23,-4(x21)
80001604:	0105cb33          	xor	x22,x11,x16
80001608:	011b7b33          	and	x22,x22,x17
8000160c:	017d8bb3          	add	x23,x27,x23
80001610:	00cb8bb3          	add	x23,x23,x12
80001614:	00bb4b33          	xor	x22,x22,x11
80001618:	017b0b33          	add	x22,x22,x23
8000161c:	01a89613          	slli	x12,x17,0x1a
80001620:	0068db93          	srli	x23,x17,0x6
80001624:	00cbebb3          	or	x23,x23,x12
80001628:	01589c13          	slli	x24,x17,0x15
8000162c:	00b8d613          	srli	x12,x17,0xb
80001630:	01866633          	or	x12,x12,x24
80001634:	00cbc633          	xor	x12,x23,x12
80001638:	0198dc13          	srli	x24,x17,0x19
8000163c:	00789b93          	slli	x23,x17,0x7
80001640:	018bebb3          	or	x23,x23,x24
80001644:	01764633          	xor	x12,x12,x23
80001648:	01660633          	add	x12,x12,x22
8000164c:	01e69b93          	slli	x23,x13,0x1e
80001650:	0026db13          	srli	x22,x13,0x2
80001654:	017b6b33          	or	x22,x22,x23
80001658:	01369c13          	slli	x24,x13,0x13
8000165c:	00d6db93          	srli	x23,x13,0xd
80001660:	018bebb3          	or	x23,x23,x24
80001664:	017b4bb3          	xor	x23,x22,x23
80001668:	0166dc13          	srli	x24,x13,0x16
8000166c:	00a69b13          	slli	x22,x13,0xa
80001670:	018b6b33          	or	x22,x22,x24
80001674:	016bcb33          	xor	x22,x23,x22
80001678:	00d74bb3          	xor	x23,x14,x13
8000167c:	00fbfbb3          	and	x23,x23,x15
80001680:	00d77c33          	and	x24,x14,x13
80001684:	018bcbb3          	xor	x23,x23,x24
80001688:	017b0b33          	add	x22,x22,x23
8000168c:	00c30333          	add	x6,x6,x12
80001690:	00cb0b33          	add	x22,x22,x12
80001694:	02812603          	lw	x12,40(x2)
80001698:	90ca9463          	bne	x21,x12,800007a0 <_nettle_sha256_compress+0x5fc>
8000169c:	00812603          	lw	x12,8(x2)
800016a0:	09c12403          	lw	x8,156(x2)
800016a4:	09812483          	lw	x9,152(x2)
800016a8:	01660633          	add	x12,x12,x22
800016ac:	00c52023          	sw	x12,0(x10)
800016b0:	00c12603          	lw	x12,12(x2)
800016b4:	09412903          	lw	x18,148(x2)
800016b8:	09012983          	lw	x19,144(x2)
800016bc:	00d606b3          	add	x13,x12,x13
800016c0:	00d52223          	sw	x13,4(x10)
800016c4:	01012683          	lw	x13,16(x2)
800016c8:	08c12a03          	lw	x20,140(x2)
800016cc:	08812a83          	lw	x21,136(x2)
800016d0:	00e68733          	add	x14,x13,x14
800016d4:	00e52423          	sw	x14,8(x10)
800016d8:	01412703          	lw	x14,20(x2)
800016dc:	08412b03          	lw	x22,132(x2)
800016e0:	08012b83          	lw	x23,128(x2)
800016e4:	00f707b3          	add	x15,x14,x15
800016e8:	00f52623          	sw	x15,12(x10)
800016ec:	01812783          	lw	x15,24(x2)
800016f0:	07c12c03          	lw	x24,124(x2)
800016f4:	07812c83          	lw	x25,120(x2)
800016f8:	006787b3          	add	x15,x15,x6
800016fc:	00f52823          	sw	x15,16(x10)
80001700:	01c12783          	lw	x15,28(x2)
80001704:	07412d03          	lw	x26,116(x2)
80001708:	07012d83          	lw	x27,112(x2)
8000170c:	011787b3          	add	x15,x15,x17
80001710:	00f52a23          	sw	x15,20(x10)
80001714:	02012783          	lw	x15,32(x2)
80001718:	010787b3          	add	x15,x15,x16
8000171c:	00f52c23          	sw	x15,24(x10)
80001720:	02412783          	lw	x15,36(x2)
80001724:	00b787b3          	add	x15,x15,x11
80001728:	00f52e23          	sw	x15,28(x10)
8000172c:	0a010113          	addi	x2,x2,160
80001730:	00008067          	jalr	x0,0(x1)

80001734 <sha256_update>:
80001734:	fe010113          	addi	x2,x2,-32
80001738:	01312623          	sw	x19,12(x2)
8000173c:	06852983          	lw	x19,104(x10)
80001740:	00812c23          	sw	x8,24(x2)
80001744:	00912a23          	sw	x9,20(x2)
80001748:	01212823          	sw	x18,16(x2)
8000174c:	00112e23          	sw	x1,28(x2)
80001750:	01412423          	sw	x20,8(x2)
80001754:	01512223          	sw	x21,4(x2)
80001758:	01612023          	sw	x22,0(x2)
8000175c:	00050413          	addi	x8,x10,0
80001760:	00058493          	addi	x9,x11,0
80001764:	00060913          	addi	x18,x12,0
80001768:	0a098263          	beq	x19,x0,8000180c <sha256_update+0xd8>
8000176c:	04000a13          	addi	x20,x0,64
80001770:	413a0a33          	sub	x20,x20,x19
80001774:	02850a93          	addi	x21,x10,40
80001778:	0545f463          	bgeu	x11,x20,800017c0 <sha256_update+0x8c>
8000177c:	00058613          	addi	x12,x11,0
80001780:	013a8533          	add	x10,x21,x19
80001784:	00090593          	addi	x11,x18,0
80001788:	450000ef          	jal	x1,80001bd8 <memcpy>
8000178c:	06842783          	lw	x15,104(x8)
80001790:	00f484b3          	add	x9,x9,x15
80001794:	06942423          	sw	x9,104(x8)
80001798:	01c12083          	lw	x1,28(x2)
8000179c:	01812403          	lw	x8,24(x2)
800017a0:	01412483          	lw	x9,20(x2)
800017a4:	01012903          	lw	x18,16(x2)
800017a8:	00c12983          	lw	x19,12(x2)
800017ac:	00812a03          	lw	x20,8(x2)
800017b0:	00412a83          	lw	x21,4(x2)
800017b4:	00012b03          	lw	x22,0(x2)
800017b8:	02010113          	addi	x2,x2,32
800017bc:	00008067          	jalr	x0,0(x1)
800017c0:	00090593          	addi	x11,x18,0
800017c4:	000a0613          	addi	x12,x20,0
800017c8:	013a8533          	add	x10,x21,x19
800017cc:	40c000ef          	jal	x1,80001bd8 <memcpy>
800017d0:	80101637          	lui	x12,0x80101
800017d4:	1a460613          	addi	x12,x12,420 # 801011a4 <K>
800017d8:	000a8593          	addi	x11,x21,0
800017dc:	00040513          	addi	x10,x8,0
800017e0:	9c5fe0ef          	jal	x1,800001a4 <_nettle_sha256_compress>
800017e4:	02042783          	lw	x15,32(x8)
800017e8:	02442683          	lw	x13,36(x8)
800017ec:	fc048493          	addi	x9,x9,-64
800017f0:	00178713          	addi	x14,x15,1
800017f4:	00f737b3          	sltu	x15,x14,x15
800017f8:	00d787b3          	add	x15,x15,x13
800017fc:	02e42023          	sw	x14,32(x8)
80001800:	02f42223          	sw	x15,36(x8)
80001804:	01490933          	add	x18,x18,x20
80001808:	009984b3          	add	x9,x19,x9
8000180c:	80101a37          	lui	x20,0x80101
80001810:	00048993          	addi	x19,x9,0
80001814:	00990b33          	add	x22,x18,x9
80001818:	03f00a93          	addi	x21,x0,63
8000181c:	1a4a0a13          	addi	x20,x20,420 # 801011a4 <K>
80001820:	413b05b3          	sub	x11,x22,x19
80001824:	033ae063          	bltu	x21,x19,80001844 <sha256_update+0x110>
80001828:	fc04f593          	andi	x11,x9,-64
8000182c:	03f4f493          	andi	x9,x9,63
80001830:	00048613          	addi	x12,x9,0
80001834:	00b905b3          	add	x11,x18,x11
80001838:	02840513          	addi	x10,x8,40
8000183c:	39c000ef          	jal	x1,80001bd8 <memcpy>
80001840:	f55ff06f          	jal	x0,80001794 <sha256_update+0x60>
80001844:	000a0613          	addi	x12,x20,0
80001848:	00040513          	addi	x10,x8,0
8000184c:	959fe0ef          	jal	x1,800001a4 <_nettle_sha256_compress>
80001850:	02042783          	lw	x15,32(x8)
80001854:	02442683          	lw	x13,36(x8)
80001858:	fc098993          	addi	x19,x19,-64
8000185c:	00178713          	addi	x14,x15,1
80001860:	00f737b3          	sltu	x15,x14,x15
80001864:	00d787b3          	add	x15,x15,x13
80001868:	02e42023          	sw	x14,32(x8)
8000186c:	02f42223          	sw	x15,36(x8)
80001870:	fb1ff06f          	jal	x0,80001820 <sha256_update+0xec>

80001874 <sha256_digest>:
80001874:	fe010113          	addi	x2,x2,-32
80001878:	00112e23          	sw	x1,28(x2)
8000187c:	00812c23          	sw	x8,24(x2)
80001880:	00912a23          	sw	x9,20(x2)
80001884:	01212823          	sw	x18,16(x2)
80001888:	01312623          	sw	x19,12(x2)
8000188c:	01412423          	sw	x20,8(x2)
80001890:	01512223          	sw	x21,4(x2)
80001894:	02000793          	addi	x15,x0,32
80001898:	00b7f663          	bgeu	x15,x11,800018a4 <sha256_digest+0x30>
8000189c:	00100513          	addi	x10,x0,1
800018a0:	22c000ef          	jal	x1,80001acc <exit>
800018a4:	06852783          	lw	x15,104(x10)
800018a8:	03f00713          	addi	x14,x0,63
800018ac:	00050413          	addi	x8,x10,0
800018b0:	fef766e3          	bltu	x14,x15,8000189c <sha256_digest+0x28>
800018b4:	00178513          	addi	x10,x15,1
800018b8:	f8000713          	addi	x14,x0,-128
800018bc:	00f407b3          	add	x15,x8,x15
800018c0:	02e78423          	sb	x14,40(x15)
800018c4:	80101ab7          	lui	x21,0x80101
800018c8:	03800793          	addi	x15,x0,56
800018cc:	00058493          	addi	x9,x11,0
800018d0:	00060993          	addi	x19,x12,0
800018d4:	02840913          	addi	x18,x8,40
800018d8:	1a4a8a13          	addi	x20,x21,420 # 801011a4 <K>
800018dc:	02a7f663          	bgeu	x15,x10,80001908 <sha256_digest+0x94>
800018e0:	04000613          	addi	x12,x0,64
800018e4:	40a60633          	sub	x12,x12,x10
800018e8:	00000593          	addi	x11,x0,0
800018ec:	00a90533          	add	x10,x18,x10
800018f0:	20c000ef          	jal	x1,80001afc <memset>
800018f4:	00040513          	addi	x10,x8,0
800018f8:	1a4a8613          	addi	x12,x21,420
800018fc:	00090593          	addi	x11,x18,0
80001900:	8a5fe0ef          	jal	x1,800001a4 <_nettle_sha256_compress>
80001904:	00000513          	addi	x10,x0,0
80001908:	03800613          	addi	x12,x0,56
8000190c:	40a60633          	sub	x12,x12,x10
80001910:	00000593          	addi	x11,x0,0
80001914:	00a90533          	add	x10,x18,x10
80001918:	1e4000ef          	jal	x1,80001afc <memset>
8000191c:	02042783          	lw	x15,32(x8)
80001920:	02442703          	lw	x14,36(x8)
80001924:	000a0613          	addi	x12,x20,0
80001928:	0177d693          	srli	x13,x15,0x17
8000192c:	00971713          	slli	x14,x14,0x9
80001930:	00e6e733          	or	x14,x13,x14
80001934:	06842683          	lw	x13,104(x8)
80001938:	00979793          	slli	x15,x15,0x9
8000193c:	06e401a3          	sb	x14,99(x8)
80001940:	00369693          	slli	x13,x13,0x3
80001944:	00d7e7b3          	or	x15,x15,x13
80001948:	01875693          	srli	x13,x14,0x18
8000194c:	06d40023          	sb	x13,96(x8)
80001950:	01075693          	srli	x13,x14,0x10
80001954:	06d400a3          	sb	x13,97(x8)
80001958:	00875693          	srli	x13,x14,0x8
8000195c:	0187d713          	srli	x14,x15,0x18
80001960:	06e40223          	sb	x14,100(x8)
80001964:	0107d713          	srli	x14,x15,0x10
80001968:	06e402a3          	sb	x14,101(x8)
8000196c:	00879713          	slli	x14,x15,0x8
80001970:	01079793          	slli	x15,x15,0x10
80001974:	0107d793          	srli	x15,x15,0x10
80001978:	0087d793          	srli	x15,x15,0x8
8000197c:	00f767b3          	or	x15,x14,x15
80001980:	06d40123          	sb	x13,98(x8)
80001984:	06f41323          	sh	x15,102(x8)
80001988:	00090593          	addi	x11,x18,0
8000198c:	00040513          	addi	x10,x8,0
80001990:	815fe0ef          	jal	x1,800001a4 <_nettle_sha256_compress>
80001994:	00048513          	addi	x10,x9,0
80001998:	00040613          	addi	x12,x8,0
8000199c:	00098593          	addi	x11,x19,0
800019a0:	f88fe0ef          	jal	x1,80000128 <_nettle_write_be32>
800019a4:	00040513          	addi	x10,x8,0
800019a8:	01812403          	lw	x8,24(x2)
800019ac:	01c12083          	lw	x1,28(x2)
800019b0:	01412483          	lw	x9,20(x2)
800019b4:	01012903          	lw	x18,16(x2)
800019b8:	00c12983          	lw	x19,12(x2)
800019bc:	00812a03          	lw	x20,8(x2)
800019c0:	00412a83          	lw	x21,4(x2)
800019c4:	02010113          	addi	x2,x2,32
800019c8:	f1cfe06f          	jal	x0,800000e4 <sha256_init>

800019cc <benchmark_body>:
800019cc:	f7010113          	addi	x2,x2,-144
800019d0:	08812423          	sw	x8,136(x2)
800019d4:	08912223          	sw	x9,132(x2)
800019d8:	09212023          	sw	x18,128(x2)
800019dc:	07312e23          	sw	x19,124(x2)
800019e0:	08112623          	sw	x1,140(x2)
800019e4:	00050413          	addi	x8,x10,0
800019e8:	00000493          	addi	x9,x0,0
800019ec:	80101937          	lui	x18,0x80101
800019f0:	801009b7          	lui	x19,0x80100
800019f4:	0284c263          	blt	x9,x8,80001a18 <benchmark_body+0x4c>
800019f8:	08c12083          	lw	x1,140(x2)
800019fc:	08812403          	lw	x8,136(x2)
80001a00:	08412483          	lw	x9,132(x2)
80001a04:	08012903          	lw	x18,128(x2)
80001a08:	07c12983          	lw	x19,124(x2)
80001a0c:	00000513          	addi	x10,x0,0
80001a10:	09010113          	addi	x2,x2,144
80001a14:	00008067          	jalr	x0,0(x1)
80001a18:	02000613          	addi	x12,x0,32
80001a1c:	00000593          	addi	x11,x0,0
80001a20:	2c090513          	addi	x10,x18,704 # 801012c0 <buffer>
80001a24:	0d8000ef          	jal	x1,80001afc <memset>
80001a28:	00010513          	addi	x10,x2,0
80001a2c:	eb8fe0ef          	jal	x1,800000e4 <sha256_init>
80001a30:	00098613          	addi	x12,x19,0 # 80100000 <msg>
80001a34:	03800593          	addi	x11,x0,56
80001a38:	00010513          	addi	x10,x2,0
80001a3c:	cf9ff0ef          	jal	x1,80001734 <sha256_update>
80001a40:	2c090613          	addi	x12,x18,704
80001a44:	02000593          	addi	x11,x0,32
80001a48:	00010513          	addi	x10,x2,0
80001a4c:	e29ff0ef          	jal	x1,80001874 <sha256_digest>
80001a50:	00148493          	addi	x9,x9,1
80001a54:	fa1ff06f          	jal	x0,800019f4 <benchmark_body+0x28>

80001a58 <verify_benchmark>:
80001a58:	80100737          	lui	x14,0x80100
80001a5c:	801016b7          	lui	x13,0x80101
80001a60:	00000793          	addi	x15,x0,0
80001a64:	00100513          	addi	x10,x0,1
80001a68:	03870713          	addi	x14,x14,56 # 80100038 <hash>
80001a6c:	2c068693          	addi	x13,x13,704 # 801012c0 <buffer>
80001a70:	00800813          	addi	x16,x0,8
80001a74:	00f705b3          	add	x11,x14,x15
80001a78:	00f68633          	add	x12,x13,x15
80001a7c:	0005c583          	lbu	x11,0(x11)
80001a80:	00064603          	lbu	x12,0(x12)
80001a84:	00c58463          	beq	x11,x12,80001a8c <verify_benchmark+0x34>
80001a88:	00000513          	addi	x10,x0,0
80001a8c:	00178793          	addi	x15,x15,1
80001a90:	ff0792e3          	bne	x15,x16,80001a74 <verify_benchmark+0x1c>
80001a94:	00008067          	jalr	x0,0(x1)

80001a98 <initialise_benchmark>:
80001a98:	00008067          	jalr	x0,0(x1)

80001a9c <warm_caches>:
80001a9c:	f31ff06f          	jal	x0,800019cc <benchmark_body>

80001aa0 <benchmark>:
80001aa0:	00a00513          	addi	x10,x0,10
80001aa4:	f29ff06f          	jal	x0,800019cc <benchmark_body>

80001aa8 <initialise_board>:
80001aa8:	00000513          	addi	x10,x0,0
80001aac:	00008067          	jalr	x0,0(x1)

80001ab0 <start_trigger>:
80001ab0:	00000513          	addi	x10,x0,0
80001ab4:	deadc2b7          	lui	x5,0xdeadc
80001ab8:	eef28293          	addi	x5,x5,-273 # deadbeef <_end+0x5e9d9acf>
80001abc:	00008067          	jalr	x0,0(x1)

80001ac0 <stop_trigger>:
80001ac0:	beefe2b7          	lui	x5,0xbeefe
80001ac4:	ead28293          	addi	x5,x5,-339 # beefdead <_end+0x3edfba8d>
80001ac8:	00008067          	jalr	x0,0(x1)

80001acc <exit>:
80001acc:	ff010113          	addi	x2,x2,-16
80001ad0:	00000593          	addi	x11,x0,0
80001ad4:	00812423          	sw	x8,8(x2)
80001ad8:	00112623          	sw	x1,12(x2)
80001adc:	00050413          	addi	x8,x10,0
80001ae0:	29c000ef          	jal	x1,80001d7c <__call_exitprocs>
80001ae4:	801017b7          	lui	x15,0x80101
80001ae8:	4187a783          	lw	x15,1048(x15) # 80101418 <__stdio_exit_handler>
80001aec:	00078463          	beq	x15,x0,80001af4 <exit+0x28>
80001af0:	000780e7          	jalr	x1,0(x15)
80001af4:	00040513          	addi	x10,x8,0
80001af8:	3bc000ef          	jal	x1,80001eb4 <_exit>

80001afc <memset>:
80001afc:	00f00313          	addi	x6,x0,15
80001b00:	00050713          	addi	x14,x10,0
80001b04:	02c37e63          	bgeu	x6,x12,80001b40 <memset+0x44>
80001b08:	00f77793          	andi	x15,x14,15
80001b0c:	0a079063          	bne	x15,x0,80001bac <memset+0xb0>
80001b10:	08059263          	bne	x11,x0,80001b94 <memset+0x98>
80001b14:	ff067693          	andi	x13,x12,-16
80001b18:	00f67613          	andi	x12,x12,15
80001b1c:	00e686b3          	add	x13,x13,x14
80001b20:	00b72023          	sw	x11,0(x14)
80001b24:	00b72223          	sw	x11,4(x14)
80001b28:	00b72423          	sw	x11,8(x14)
80001b2c:	00b72623          	sw	x11,12(x14)
80001b30:	01070713          	addi	x14,x14,16
80001b34:	fed766e3          	bltu	x14,x13,80001b20 <memset+0x24>
80001b38:	00061463          	bne	x12,x0,80001b40 <memset+0x44>
80001b3c:	00008067          	jalr	x0,0(x1)
80001b40:	40c306b3          	sub	x13,x6,x12
80001b44:	00269693          	slli	x13,x13,0x2
80001b48:	00000297          	auipc	x5,0x0
80001b4c:	005686b3          	add	x13,x13,x5
80001b50:	00c68067          	jalr	x0,12(x13)
80001b54:	00b70723          	sb	x11,14(x14)
80001b58:	00b706a3          	sb	x11,13(x14)
80001b5c:	00b70623          	sb	x11,12(x14)
80001b60:	00b705a3          	sb	x11,11(x14)
80001b64:	00b70523          	sb	x11,10(x14)
80001b68:	00b704a3          	sb	x11,9(x14)
80001b6c:	00b70423          	sb	x11,8(x14)
80001b70:	00b703a3          	sb	x11,7(x14)
80001b74:	00b70323          	sb	x11,6(x14)
80001b78:	00b702a3          	sb	x11,5(x14)
80001b7c:	00b70223          	sb	x11,4(x14)
80001b80:	00b701a3          	sb	x11,3(x14)
80001b84:	00b70123          	sb	x11,2(x14)
80001b88:	00b700a3          	sb	x11,1(x14)
80001b8c:	00b70023          	sb	x11,0(x14)
80001b90:	00008067          	jalr	x0,0(x1)
80001b94:	0ff5f593          	andi	x11,x11,255
80001b98:	00859693          	slli	x13,x11,0x8
80001b9c:	00d5e5b3          	or	x11,x11,x13
80001ba0:	01059693          	slli	x13,x11,0x10
80001ba4:	00d5e5b3          	or	x11,x11,x13
80001ba8:	f6dff06f          	jal	x0,80001b14 <memset+0x18>
80001bac:	00279693          	slli	x13,x15,0x2
80001bb0:	00000297          	auipc	x5,0x0
80001bb4:	005686b3          	add	x13,x13,x5
80001bb8:	00008293          	addi	x5,x1,0
80001bbc:	fa0680e7          	jalr	x1,-96(x13)
80001bc0:	00028093          	addi	x1,x5,0 # 80001bb0 <memset+0xb4>
80001bc4:	ff078793          	addi	x15,x15,-16
80001bc8:	40f70733          	sub	x14,x14,x15
80001bcc:	00f60633          	add	x12,x12,x15
80001bd0:	f6c378e3          	bgeu	x6,x12,80001b40 <memset+0x44>
80001bd4:	f3dff06f          	jal	x0,80001b10 <memset+0x14>

80001bd8 <memcpy>:
80001bd8:	00a5c7b3          	xor	x15,x11,x10
80001bdc:	0037f793          	andi	x15,x15,3
80001be0:	00c508b3          	add	x17,x10,x12
80001be4:	06079463          	bne	x15,x0,80001c4c <memcpy+0x74>
80001be8:	00300793          	addi	x15,x0,3
80001bec:	06c7f063          	bgeu	x15,x12,80001c4c <memcpy+0x74>
80001bf0:	00357793          	andi	x15,x10,3
80001bf4:	00050713          	addi	x14,x10,0
80001bf8:	06079a63          	bne	x15,x0,80001c6c <memcpy+0x94>
80001bfc:	ffc8f613          	andi	x12,x17,-4
80001c00:	40e606b3          	sub	x13,x12,x14
80001c04:	02000793          	addi	x15,x0,32
80001c08:	08d7ce63          	blt	x15,x13,80001ca4 <memcpy+0xcc>
80001c0c:	00058693          	addi	x13,x11,0
80001c10:	00070793          	addi	x15,x14,0
80001c14:	02c77863          	bgeu	x14,x12,80001c44 <memcpy+0x6c>
80001c18:	0006a803          	lw	x16,0(x13)
80001c1c:	00478793          	addi	x15,x15,4
80001c20:	00468693          	addi	x13,x13,4
80001c24:	ff07ae23          	sw	x16,-4(x15)
80001c28:	fec7e8e3          	bltu	x15,x12,80001c18 <memcpy+0x40>
80001c2c:	fff60793          	addi	x15,x12,-1
80001c30:	40e787b3          	sub	x15,x15,x14
80001c34:	ffc7f793          	andi	x15,x15,-4
80001c38:	00478793          	addi	x15,x15,4
80001c3c:	00f70733          	add	x14,x14,x15
80001c40:	00f585b3          	add	x11,x11,x15
80001c44:	01176863          	bltu	x14,x17,80001c54 <memcpy+0x7c>
80001c48:	00008067          	jalr	x0,0(x1)
80001c4c:	00050713          	addi	x14,x10,0
80001c50:	05157863          	bgeu	x10,x17,80001ca0 <memcpy+0xc8>
80001c54:	0005c783          	lbu	x15,0(x11)
80001c58:	00170713          	addi	x14,x14,1
80001c5c:	00158593          	addi	x11,x11,1
80001c60:	fef70fa3          	sb	x15,-1(x14)
80001c64:	fee898e3          	bne	x17,x14,80001c54 <memcpy+0x7c>
80001c68:	00008067          	jalr	x0,0(x1)
80001c6c:	0005c683          	lbu	x13,0(x11)
80001c70:	00170713          	addi	x14,x14,1
80001c74:	00377793          	andi	x15,x14,3
80001c78:	fed70fa3          	sb	x13,-1(x14)
80001c7c:	00158593          	addi	x11,x11,1
80001c80:	f6078ee3          	beq	x15,x0,80001bfc <memcpy+0x24>
80001c84:	0005c683          	lbu	x13,0(x11)
80001c88:	00170713          	addi	x14,x14,1
80001c8c:	00377793          	andi	x15,x14,3
80001c90:	fed70fa3          	sb	x13,-1(x14)
80001c94:	00158593          	addi	x11,x11,1
80001c98:	fc079ae3          	bne	x15,x0,80001c6c <memcpy+0x94>
80001c9c:	f61ff06f          	jal	x0,80001bfc <memcpy+0x24>
80001ca0:	00008067          	jalr	x0,0(x1)
80001ca4:	ff010113          	addi	x2,x2,-16
80001ca8:	00812623          	sw	x8,12(x2)
80001cac:	02000413          	addi	x8,x0,32
80001cb0:	0005a383          	lw	x7,0(x11)
80001cb4:	0045a283          	lw	x5,4(x11)
80001cb8:	0085af83          	lw	x31,8(x11)
80001cbc:	00c5af03          	lw	x30,12(x11)
80001cc0:	0105ae83          	lw	x29,16(x11)
80001cc4:	0145ae03          	lw	x28,20(x11)
80001cc8:	0185a303          	lw	x6,24(x11)
80001ccc:	01c5a803          	lw	x16,28(x11)
80001cd0:	0205a683          	lw	x13,32(x11)
80001cd4:	02470713          	addi	x14,x14,36
80001cd8:	40e607b3          	sub	x15,x12,x14
80001cdc:	fc772e23          	sw	x7,-36(x14)
80001ce0:	fe572023          	sw	x5,-32(x14)
80001ce4:	fff72223          	sw	x31,-28(x14)
80001ce8:	ffe72423          	sw	x30,-24(x14)
80001cec:	ffd72623          	sw	x29,-20(x14)
80001cf0:	ffc72823          	sw	x28,-16(x14)
80001cf4:	fe672a23          	sw	x6,-12(x14)
80001cf8:	ff072c23          	sw	x16,-8(x14)
80001cfc:	fed72e23          	sw	x13,-4(x14)
80001d00:	02458593          	addi	x11,x11,36
80001d04:	faf446e3          	blt	x8,x15,80001cb0 <memcpy+0xd8>
80001d08:	00058693          	addi	x13,x11,0
80001d0c:	00070793          	addi	x15,x14,0
80001d10:	02c77863          	bgeu	x14,x12,80001d40 <memcpy+0x168>
80001d14:	0006a803          	lw	x16,0(x13)
80001d18:	00478793          	addi	x15,x15,4
80001d1c:	00468693          	addi	x13,x13,4
80001d20:	ff07ae23          	sw	x16,-4(x15)
80001d24:	fec7e8e3          	bltu	x15,x12,80001d14 <memcpy+0x13c>
80001d28:	fff60793          	addi	x15,x12,-1
80001d2c:	40e787b3          	sub	x15,x15,x14
80001d30:	ffc7f793          	andi	x15,x15,-4
80001d34:	00478793          	addi	x15,x15,4
80001d38:	00f70733          	add	x14,x14,x15
80001d3c:	00f585b3          	add	x11,x11,x15
80001d40:	01176863          	bltu	x14,x17,80001d50 <memcpy+0x178>
80001d44:	00c12403          	lw	x8,12(x2)
80001d48:	01010113          	addi	x2,x2,16
80001d4c:	00008067          	jalr	x0,0(x1)
80001d50:	0005c783          	lbu	x15,0(x11)
80001d54:	00170713          	addi	x14,x14,1
80001d58:	00158593          	addi	x11,x11,1
80001d5c:	fef70fa3          	sb	x15,-1(x14)
80001d60:	fee882e3          	beq	x17,x14,80001d44 <memcpy+0x16c>
80001d64:	0005c783          	lbu	x15,0(x11)
80001d68:	00170713          	addi	x14,x14,1
80001d6c:	00158593          	addi	x11,x11,1
80001d70:	fef70fa3          	sb	x15,-1(x14)
80001d74:	fce89ee3          	bne	x17,x14,80001d50 <memcpy+0x178>
80001d78:	fcdff06f          	jal	x0,80001d44 <memcpy+0x16c>

80001d7c <__call_exitprocs>:
80001d7c:	fd010113          	addi	x2,x2,-48
80001d80:	01412c23          	sw	x20,24(x2)
80001d84:	80101a37          	lui	x20,0x80101
80001d88:	03212023          	sw	x18,32(x2)
80001d8c:	41ca2903          	lw	x18,1052(x20) # 8010141c <__atexit>
80001d90:	02112623          	sw	x1,44(x2)
80001d94:	0a090863          	beq	x18,x0,80001e44 <__call_exitprocs+0xc8>
80001d98:	01312e23          	sw	x19,28(x2)
80001d9c:	01512a23          	sw	x21,20(x2)
80001da0:	01612823          	sw	x22,16(x2)
80001da4:	01712623          	sw	x23,12(x2)
80001da8:	02812423          	sw	x8,40(x2)
80001dac:	02912223          	sw	x9,36(x2)
80001db0:	01812423          	sw	x24,8(x2)
80001db4:	00050b13          	addi	x22,x10,0
80001db8:	00058b93          	addi	x23,x11,0
80001dbc:	fff00993          	addi	x19,x0,-1
80001dc0:	00100a93          	addi	x21,x0,1
80001dc4:	00492483          	lw	x9,4(x18)
80001dc8:	fff48413          	addi	x8,x9,-1
80001dcc:	04044e63          	blt	x8,x0,80001e28 <__call_exitprocs+0xac>
80001dd0:	00249493          	slli	x9,x9,0x2
80001dd4:	009904b3          	add	x9,x18,x9
80001dd8:	080b9063          	bne	x23,x0,80001e58 <__call_exitprocs+0xdc>
80001ddc:	00492783          	lw	x15,4(x18)
80001de0:	0044a683          	lw	x13,4(x9)
80001de4:	fff78793          	addi	x15,x15,-1
80001de8:	0a878c63          	beq	x15,x8,80001ea0 <__call_exitprocs+0x124>
80001dec:	0004a223          	sw	x0,4(x9)
80001df0:	02068663          	beq	x13,x0,80001e1c <__call_exitprocs+0xa0>
80001df4:	18892783          	lw	x15,392(x18)
80001df8:	008a9733          	sll	x14,x21,x8
80001dfc:	00492c03          	lw	x24,4(x18)
80001e00:	00f777b3          	and	x15,x14,x15
80001e04:	06079663          	bne	x15,x0,80001e70 <__call_exitprocs+0xf4>
80001e08:	000680e7          	jalr	x1,0(x13)
80001e0c:	00492703          	lw	x14,4(x18)
80001e10:	41ca2783          	lw	x15,1052(x20)
80001e14:	09871063          	bne	x14,x24,80001e94 <__call_exitprocs+0x118>
80001e18:	07279e63          	bne	x15,x18,80001e94 <__call_exitprocs+0x118>
80001e1c:	fff40413          	addi	x8,x8,-1
80001e20:	ffc48493          	addi	x9,x9,-4
80001e24:	fb341ae3          	bne	x8,x19,80001dd8 <__call_exitprocs+0x5c>
80001e28:	02812403          	lw	x8,40(x2)
80001e2c:	02412483          	lw	x9,36(x2)
80001e30:	01c12983          	lw	x19,28(x2)
80001e34:	01412a83          	lw	x21,20(x2)
80001e38:	01012b03          	lw	x22,16(x2)
80001e3c:	00c12b83          	lw	x23,12(x2)
80001e40:	00812c03          	lw	x24,8(x2)
80001e44:	02c12083          	lw	x1,44(x2)
80001e48:	02012903          	lw	x18,32(x2)
80001e4c:	01812a03          	lw	x20,24(x2)
80001e50:	03010113          	addi	x2,x2,48
80001e54:	00008067          	jalr	x0,0(x1)
80001e58:	1044a783          	lw	x15,260(x9)
80001e5c:	f97780e3          	beq	x15,x23,80001ddc <__call_exitprocs+0x60>
80001e60:	fff40413          	addi	x8,x8,-1
80001e64:	ffc48493          	addi	x9,x9,-4
80001e68:	ff3418e3          	bne	x8,x19,80001e58 <__call_exitprocs+0xdc>
80001e6c:	fbdff06f          	jal	x0,80001e28 <__call_exitprocs+0xac>
80001e70:	18c92783          	lw	x15,396(x18)
80001e74:	0844a583          	lw	x11,132(x9)
80001e78:	00f77733          	and	x14,x14,x15
80001e7c:	02071663          	bne	x14,x0,80001ea8 <__call_exitprocs+0x12c>
80001e80:	000b0513          	addi	x10,x22,0
80001e84:	000680e7          	jalr	x1,0(x13)
80001e88:	00492703          	lw	x14,4(x18)
80001e8c:	41ca2783          	lw	x15,1052(x20)
80001e90:	f98704e3          	beq	x14,x24,80001e18 <__call_exitprocs+0x9c>
80001e94:	f8078ae3          	beq	x15,x0,80001e28 <__call_exitprocs+0xac>
80001e98:	00078913          	addi	x18,x15,0
80001e9c:	f29ff06f          	jal	x0,80001dc4 <__call_exitprocs+0x48>
80001ea0:	00892223          	sw	x8,4(x18)
80001ea4:	f4dff06f          	jal	x0,80001df0 <__call_exitprocs+0x74>
80001ea8:	00058513          	addi	x10,x11,0
80001eac:	000680e7          	jalr	x1,0(x13)
80001eb0:	f5dff06f          	jal	x0,80001e0c <__call_exitprocs+0x90>

80001eb4 <_exit>:
80001eb4:	05d00893          	addi	x17,x0,93
80001eb8:	00000073          	ecall
80001ebc:	00054463          	blt	x10,x0,80001ec4 <_exit+0x10>
80001ec0:	0000006f          	jal	x0,80001ec0 <_exit+0xc>
80001ec4:	ff010113          	addi	x2,x2,-16
80001ec8:	00812423          	sw	x8,8(x2)
80001ecc:	00050413          	addi	x8,x10,0
80001ed0:	00112623          	sw	x1,12(x2)
80001ed4:	40800433          	sub	x8,x0,x8
80001ed8:	00c000ef          	jal	x1,80001ee4 <__errno>
80001edc:	00852023          	sw	x8,0(x10)
80001ee0:	0000006f          	jal	x0,80001ee0 <_exit+0x2c>

80001ee4 <__errno>:
80001ee4:	801017b7          	lui	x15,0x80101
80001ee8:	1787a503          	lw	x10,376(x15) # 80101178 <_impure_ptr>
80001eec:	00008067          	jalr	x0,0(x1)

Disassembly of section .data:

80100000 <msg>:
80100000:	6261                	.insn	2, 0x6261
80100002:	63626463          	bltu	x4,x22,8010062a <stack_begin+0x5d2>
80100006:	6564                	.insn	2, 0x6564
80100008:	66656463          	bltu	x10,x6,80100670 <stack_begin+0x618>
8010000c:	6564                	.insn	2, 0x6564
8010000e:	6766                	.insn	2, 0x6766
80100010:	6665                	.insn	2, 0x6665
80100012:	67666867          	.insn	4, 0x67666867
80100016:	6968                	.insn	2, 0x6968
80100018:	6a696867          	.insn	4, 0x6a696867
8010001c:	6968                	.insn	2, 0x6968
8010001e:	6b6a                	.insn	2, 0x6b6a
80100020:	6a69                	.insn	2, 0x6a69
80100022:	6b6a6c6b          	.insn	4, 0x6b6a6c6b
80100026:	6d6c                	.insn	2, 0x6d6c
80100028:	6e6d6c6b          	.insn	4, 0x6e6d6c6b
8010002c:	6d6c                	.insn	2, 0x6d6c
8010002e:	6f6e                	.insn	2, 0x6f6e
80100030:	6e6d                	.insn	2, 0x6e6d
80100032:	6f6e706f          	jal	x0,801e7728 <_end+0xe5308>
80100036:	7170                	.insn	2, 0x7170

80100038 <hash>:
80100038:	8d24                	.insn	2, 0x8d24
8010003a:	616a                	.insn	2, 0x616a
8010003c:	06d2                	.insn	2, 0x06d2
8010003e:	b838                	.insn	2, 0xb838
80100040:	c0e5                	.insn	2, 0xc0e5
80100042:	9326                	.insn	2, 0x9326
80100044:	3e0c                	.insn	2, 0x3e0c
80100046:	3960                	.insn	2, 0x3960
80100048:	59e43ca3          	.insn	4, 0x59e43ca3
8010004c:	ff64                	.insn	2, 0xff64
8010004e:	6721                	.insn	2, 0x6721
80100050:	ecf6                	.insn	2, 0xecf6
80100052:	d4ed                	.insn	2, 0xd4ed
80100054:	db19                	.insn	2, 0xdb19
80100056:	c106                	.insn	2, 0xc106

80100058 <stack_begin>:
	...

80101058 <_impure_data>:
80101058:	0000                	.insn	2, 0x
8010105a:	0000                	.insn	2, 0x
8010105c:	12e0                	.insn	2, 0x12e0
8010105e:	8010                	.insn	2, 0x8010
80101060:	1348                	.insn	2, 0x1348
80101062:	8010                	.insn	2, 0x8010
80101064:	13b0                	.insn	2, 0x13b0
80101066:	8010                	.insn	2, 0x8010
	...
801010f0:	0001                	.insn	2, 0x0001
801010f2:	0000                	.insn	2, 0x
801010f4:	0000                	.insn	2, 0x
801010f6:	0000                	.insn	2, 0x
801010f8:	330e                	.insn	2, 0x330e
801010fa:	abcd                	.insn	2, 0xabcd
801010fc:	1234                	.insn	2, 0x1234
801010fe:	e66d                	.insn	2, 0xe66d
80101100:	deec                	.insn	2, 0xdeec
80101102:	0005                	.insn	2, 0x0005
80101104:	0000000b          	.insn	4, 0x000b
	...

80101178 <_impure_ptr>:
80101178:	1058                	.insn	2, 0x1058
8010117a:	8010                	.insn	2, 0x8010
8010117c:	32616873          	.insn	4, 0x32616873
80101180:	3635                	.insn	2, 0x3635
	...

80101184 <H0.0>:
80101184:	6a09e667          	.insn	4, 0x6a09e667
80101188:	ae85                	.insn	2, 0xae85
8010118a:	f372bb67          	.insn	4, 0xf372bb67
8010118e:	3c6e                	.insn	2, 0x3c6e
80101190:	f53a                	.insn	2, 0xf53a
80101192:	527fa54f          	.insn	4, 0x527fa54f
80101196:	510e                	.insn	2, 0x510e
80101198:	688c                	.insn	2, 0x688c
8010119a:	9b05                	.insn	2, 0x9b05
8010119c:	1f83d9ab          	.insn	4, 0x1f83d9ab
801011a0:	cd19                	.insn	2, 0xcd19
801011a2:	5be0                	.insn	2, 0x5be0

801011a4 <K>:
801011a4:	2f98                	.insn	2, 0x2f98
801011a6:	428a                	.insn	2, 0x428a
801011a8:	4491                	.insn	2, 0x4491
801011aa:	fbcf7137          	lui	x2,0xfbcf7
801011ae:	b5c0                	.insn	2, 0xb5c0
801011b0:	dba5                	.insn	2, 0xdba5
801011b2:	e9b5                	.insn	2, 0xe9b5
801011b4:	3956c25b          	.insn	4, 0x3956c25b
801011b8:	11f1                	.insn	2, 0x11f1
801011ba:	59f1                	.insn	2, 0x59f1
801011bc:	82a4                	.insn	2, 0x82a4
801011be:	5ed5923f aa98ab1c 	.insn	8, 0xaa98ab1c5ed5923f
801011c6:	5b01d807          	.insn	4, 0x5b01d807
801011ca:	85be1283          	lh	x5,-1957(x28)
801011ce:	2431                	.insn	2, 0x2431
801011d0:	550c7dc3          	.insn	4, 0x550c7dc3
801011d4:	5d74                	.insn	2, 0x5d74
801011d6:	72be                	.insn	2, 0x72be
801011d8:	b1fe                	.insn	2, 0xb1fe
801011da:	80de                	.insn	2, 0x80de
801011dc:	9bdc06a7          	.insn	4, 0x9bdc06a7
801011e0:	f174                	.insn	2, 0xf174
801011e2:	69c1c19b          	.insn	4, 0x69c1c19b
801011e6:	4786e49b          	.insn	4, 0x4786e49b
801011ea:	efbe                	.insn	2, 0xefbe
801011ec:	9dc6                	.insn	2, 0x9dc6
801011ee:	0fc1                	.insn	2, 0x0fc1
801011f0:	a1cc                	.insn	2, 0xa1cc
801011f2:	240c                	.insn	2, 0x240c
801011f4:	2de92c6f          	jal	x24,801934d2 <_end+0x910b2>
801011f8:	84aa                	.insn	2, 0x84aa
801011fa:	4a74                	.insn	2, 0x4a74
801011fc:	a9dc                	.insn	2, 0xa9dc
801011fe:	5cb0                	.insn	2, 0x5cb0
80101200:	88da                	.insn	2, 0x88da
80101202:	76f9                	.insn	2, 0x76f9
80101204:	5152                	.insn	2, 0x5152
80101206:	983e                	.insn	2, 0x983e
80101208:	c66d                	.insn	2, 0xc66d
8010120a:	a831                	.insn	2, 0xa831
8010120c:	27c8                	.insn	2, 0x27c8
8010120e:	7fc7b003          	.insn	4, 0x7fc7b003
80101212:	bf59                	.insn	2, 0xbf59
80101214:	c6e00bf3          	.insn	4, 0xc6e00bf3
80101218:	d5a79147          	.insn	4, 0xd5a79147
8010121c:	6351                	.insn	2, 0x6351
8010121e:	06ca                	.insn	2, 0x06ca
80101220:	14292967          	.insn	4, 0x14292967
80101224:	0a85                	.insn	2, 0x0a85
80101226:	213827b7          	lui	x15,0x21382
8010122a:	6dfc2e1b          	.insn	4, 0x6dfc2e1b
8010122e:	4d2c                	.insn	2, 0x4d2c
80101230:	53380d13          	addi	x26,x16,1331
80101234:	7354                	.insn	2, 0x7354
80101236:	650a                	.insn	2, 0x650a
80101238:	766a0abb          	.insn	4, 0x766a0abb
8010123c:	c92e                	.insn	2, 0xc92e
8010123e:	81c2                	.insn	2, 0x81c2
80101240:	2c85                	.insn	2, 0x2c85
80101242:	9272                	.insn	2, 0x9272
80101244:	e8a1                	.insn	2, 0xe8a1
80101246:	664ba2bf 8b70a81a 	.insn	8, 0x8b70a81a664ba2bf
8010124e:	51a3c24b          	.insn	4, 0x51a3c24b
80101252:	c76c                	.insn	2, 0xc76c
80101254:	e819                	.insn	2, 0xe819
80101256:	d192                	.insn	2, 0xd192
80101258:	0624                	.insn	2, 0x0624
8010125a:	d699                	.insn	2, 0xd699
8010125c:	3585                	.insn	2, 0x3585
8010125e:	f40e                	.insn	2, 0xf40e
80101260:	a070                	.insn	2, 0xa070
80101262:	106a                	.insn	2, 0x106a
80101264:	c116                	.insn	2, 0xc116
80101266:	19a4                	.insn	2, 0x19a4
80101268:	6c08                	.insn	2, 0x6c08
8010126a:	774c1e37          	lui	x28,0x774c1
8010126e:	2748                	.insn	2, 0x2748
80101270:	bcb5                	.insn	2, 0xbcb5
80101272:	34b0                	.insn	2, 0x34b0
80101274:	391c0cb3          	.insn	4, 0x391c0cb3
80101278:	aa4a                	.insn	2, 0xaa4a
8010127a:	4ed8                	.insn	2, 0x4ed8
8010127c:	5b9cca4f          	.insn	4, 0x5b9cca4f
80101280:	682e6ff3          	.insn	4, 0x682e6ff3
80101284:	82ee                	.insn	2, 0x82ee
80101286:	636f748f          	.insn	4, 0x636f748f
8010128a:	78a5                	.insn	2, 0x78a5
8010128c:	7814                	.insn	2, 0x7814
8010128e:	84c8                	.insn	2, 0x84c8
80101290:	0208                	.insn	2, 0x0208
80101292:	fffa8cc7          	.insn	4, 0xfffa8cc7
80101296:	90be                	.insn	2, 0x90be
80101298:	a4506ceb          	.insn	4, 0xa4506ceb
8010129c:	bef9a3f7          	.insn	4, 0xbef9a3f7
801012a0:	78f2                	.insn	2, 0x78f2
801012a2:	c671                	.insn	2, 0xc671

801012a4 <nettle_sha256>:
801012a4:	117c                	.insn	2, 0x117c
801012a6:	8010                	.insn	2, 0x8010
801012a8:	0070                	.insn	2, 0x0070
801012aa:	0000                	.insn	2, 0x
801012ac:	0020                	.insn	2, 0x0020
801012ae:	0000                	.insn	2, 0x
801012b0:	0040                	.insn	2, 0x0040
801012b2:	0000                	.insn	2, 0x
801012b4:	00e4                	.insn	2, 0x00e4
801012b6:	8000                	.insn	2, 0x8000
801012b8:	1734                	.insn	2, 0x1734
801012ba:	8000                	.insn	2, 0x8000
801012bc:	1874                	.insn	2, 0x1874
801012be:	8000                	.insn	2, 0x8000

801012c0 <buffer>:
	...

801012e0 <__sf>:
	...

80101418 <__stdio_exit_handler>:
80101418:	0000                	.insn	2, 0x
	...

8010141c <__atexit>:
	...

Disassembly of section .comment:

00000000 <.comment>:
   0:	3a434347          	.insn	4, 0x3a434347
   4:	2820                	.insn	2, 0x2820
   6:	2029                	.insn	2, 0x2029
   8:	3331                	.insn	2, 0x3331
   a:	322e                	.insn	2, 0x322e
   c:	302e                	.insn	2, 0x302e
   e:	4700                	.insn	2, 0x4700
  10:	203a4343          	.insn	4, 0x203a4343
  14:	4728                	.insn	2, 0x4728
  16:	554e                	.insn	2, 0x554e
  18:	2029                	.insn	2, 0x2029
  1a:	3331                	.insn	2, 0x3331
  1c:	322e                	.insn	2, 0x322e
  1e:	302e                	.insn	2, 0x302e
	...

Disassembly of section .riscv.attributes:

00000000 <.riscv.attributes>:
   0:	2841                	.insn	2, 0x2841
   2:	0000                	.insn	2, 0x
   4:	7200                	.insn	2, 0x7200
   6:	7369                	.insn	2, 0x7369
   8:	01007663          	bgeu	x0,x16,14 <_heap_size+0x14>
   c:	001e                	.insn	2, 0x001e
   e:	0000                	.insn	2, 0x
  10:	1004                	.insn	2, 0x1004
  12:	7205                	.insn	2, 0x7205
  14:	3376                	.insn	2, 0x3376
  16:	6932                	.insn	2, 0x6932
  18:	7032                	.insn	2, 0x7032
  1a:	5f31                	.insn	2, 0x5f31
  1c:	697a                	.insn	2, 0x697a
  1e:	32727363          	bgeu	x4,x7,344 <_heap_size+0x344>
  22:	3070                	.insn	2, 0x3070
  24:	0800                	.insn	2, 0x0800
  26:	0a01                	.insn	2, 0x0a01
  28:	Address 0x28 is out of bounds.

