
bd/src/aha-mont64/aha-mont64:     file format elf32-littleriscv


Disassembly of section .text:

80000000 <initSection>:
80000000:	000070b3          	and	x1,x0,x0
80000004:	00007133          	and	x2,x0,x0
80000008:	000071b3          	and	x3,x0,x0
8000000c:	00007233          	and	x4,x0,x0
80000010:	000072b3          	and	x5,x0,x0
80000014:	00007333          	and	x6,x0,x0
80000018:	000073b3          	and	x7,x0,x0
8000001c:	00007433          	and	x8,x0,x0
80000020:	000074b3          	and	x9,x0,x0
80000024:	00007533          	and	x10,x0,x0
80000028:	000075b3          	and	x11,x0,x0
8000002c:	00007633          	and	x12,x0,x0
80000030:	000076b3          	and	x13,x0,x0
80000034:	00007733          	and	x14,x0,x0
80000038:	000077b3          	and	x15,x0,x0
8000003c:	00007833          	and	x16,x0,x0
80000040:	000078b3          	and	x17,x0,x0
80000044:	00007933          	and	x18,x0,x0
80000048:	000079b3          	and	x19,x0,x0
8000004c:	00007a33          	and	x20,x0,x0
80000050:	00007ab3          	and	x21,x0,x0
80000054:	00007b33          	and	x22,x0,x0
80000058:	00007bb3          	and	x23,x0,x0
8000005c:	00007c33          	and	x24,x0,x0
80000060:	00007cb3          	and	x25,x0,x0
80000064:	00007d33          	and	x26,x0,x0
80000068:	00007db3          	and	x27,x0,x0
8000006c:	00007e33          	and	x28,x0,x0
80000070:	00007eb3          	and	x29,x0,x0
80000074:	00007f33          	and	x30,x0,x0
80000078:	00007fb3          	and	x31,x0,x0
8000007c:	00101117          	auipc	x2,0x101
80000080:	f8410113          	addi	x2,x2,-124 # 80101000 <stack_end>
80000084:	020000ef          	jal	x1,800000a4 <main>

80000088 <sys_end>:
80000088:	05d00893          	addi	x17,x0,93
8000008c:	00000513          	addi	x10,x0,0
80000090:	020102b7          	lui	x5,0x2010
80000094:	f1402873          	csrrs	x16,mhartid,x0
80000098:	0102a023          	sw	x16,0(x5) # 2010000 <SYSCALL_ADDR>
8000009c:	0112a023          	sw	x17,0(x5)
800000a0:	fe9ff06f          	jal	x0,80000088 <sys_end>

800000a4 <main>:
800000a4:	fe010113          	addi	x2,x2,-32
800000a8:	00112e23          	sw	x1,28(x2)
800000ac:	6cc000ef          	jal	x1,80000778 <initialise_board>
800000b0:	674000ef          	jal	x1,80000724 <initialise_benchmark>
800000b4:	00100513          	addi	x10,x0,1
800000b8:	660000ef          	jal	x1,80000718 <warm_caches>
800000bc:	6c4000ef          	jal	x1,80000780 <start_trigger>
800000c0:	65c000ef          	jal	x1,8000071c <benchmark>
800000c4:	00a12623          	sw	x10,12(x2)
800000c8:	6c8000ef          	jal	x1,80000790 <stop_trigger>
800000cc:	00c12503          	lw	x10,12(x2)
800000d0:	6a0000ef          	jal	x1,80000770 <verify_benchmark>
800000d4:	01c12083          	lw	x1,28(x2)
800000d8:	00153513          	sltiu	x10,x10,1
800000dc:	02010113          	addi	x2,x2,32
800000e0:	00008067          	jalr	x0,0(x1)

800000e4 <mulul64>:
800000e4:	fd010113          	addi	x2,x2,-48
800000e8:	03212023          	sw	x18,32(x2)
800000ec:	01312e23          	sw	x19,28(x2)
800000f0:	00058913          	addi	x18,x11,0
800000f4:	00068993          	addi	x19,x13,0
800000f8:	00000593          	addi	x11,x0,0
800000fc:	00000693          	addi	x13,x0,0
80000100:	02112623          	sw	x1,44(x2)
80000104:	02812423          	sw	x8,40(x2)
80000108:	02912223          	sw	x9,36(x2)
8000010c:	01412c23          	sw	x20,24(x2)
80000110:	01512a23          	sw	x21,20(x2)
80000114:	01612823          	sw	x22,16(x2)
80000118:	01712623          	sw	x23,12(x2)
8000011c:	00078a93          	addi	x21,x15,0
80000120:	00070a13          	addi	x20,x14,0
80000124:	00050b13          	addi	x22,x10,0
80000128:	00060413          	addi	x8,x12,0
8000012c:	694000ef          	jal	x1,800007c0 <__muldi3>
80000130:	00050b93          	addi	x23,x10,0
80000134:	00040613          	addi	x12,x8,0
80000138:	00058493          	addi	x9,x11,0
8000013c:	00000693          	addi	x13,x0,0
80000140:	00090513          	addi	x10,x18,0
80000144:	00000593          	addi	x11,x0,0
80000148:	678000ef          	jal	x1,800007c0 <__muldi3>
8000014c:	009504b3          	add	x9,x10,x9
80000150:	00a4b833          	sltu	x16,x9,x10
80000154:	00b80433          	add	x8,x16,x11
80000158:	00098613          	addi	x12,x19,0
8000015c:	00000693          	addi	x13,x0,0
80000160:	000b0513          	addi	x10,x22,0
80000164:	00000593          	addi	x11,x0,0
80000168:	658000ef          	jal	x1,800007c0 <__muldi3>
8000016c:	00950833          	add	x16,x10,x9
80000170:	00a834b3          	sltu	x9,x16,x10
80000174:	00b484b3          	add	x9,x9,x11
80000178:	017aa023          	sw	x23,0(x21)
8000017c:	010aa223          	sw	x16,4(x21)
80000180:	00098613          	addi	x12,x19,0
80000184:	00090513          	addi	x10,x18,0
80000188:	00000693          	addi	x13,x0,0
8000018c:	00000593          	addi	x11,x0,0
80000190:	630000ef          	jal	x1,800007c0 <__muldi3>
80000194:	008507b3          	add	x15,x10,x8
80000198:	00a7b533          	sltu	x10,x15,x10
8000019c:	00b505b3          	add	x11,x10,x11
800001a0:	00978533          	add	x10,x15,x9
800001a4:	02c12083          	lw	x1,44(x2)
800001a8:	02812403          	lw	x8,40(x2)
800001ac:	00f537b3          	sltu	x15,x10,x15
800001b0:	00b787b3          	add	x15,x15,x11
800001b4:	00aa2023          	sw	x10,0(x20)
800001b8:	00fa2223          	sw	x15,4(x20)
800001bc:	02412483          	lw	x9,36(x2)
800001c0:	02012903          	lw	x18,32(x2)
800001c4:	01c12983          	lw	x19,28(x2)
800001c8:	01812a03          	lw	x20,24(x2)
800001cc:	01412a83          	lw	x21,20(x2)
800001d0:	01012b03          	lw	x22,16(x2)
800001d4:	00c12b83          	lw	x23,12(x2)
800001d8:	03010113          	addi	x2,x2,48
800001dc:	00008067          	jalr	x0,0(x1)

800001e0 <modul64>:
800001e0:	00000e13          	addi	x28,x0,0
800001e4:	04000e93          	addi	x29,x0,64
800001e8:	41f5d893          	srai	x17,x11,0x1f
800001ec:	01f55313          	srli	x6,x10,0x1f
800001f0:	00159813          	slli	x16,x11,0x1
800001f4:	00151513          	slli	x10,x10,0x1
800001f8:	01f6d593          	srli	x11,x13,0x1f
800001fc:	01036833          	or	x16,x6,x16
80000200:	01f65f13          	srli	x30,x12,0x1f
80000204:	00a5e533          	or	x10,x11,x10
80000208:	00169313          	slli	x6,x13,0x1
8000020c:	006f6333          	or	x6,x30,x6
80000210:	00a8ef33          	or	x30,x17,x10
80000214:	0108e8b3          	or	x17,x17,x16
80000218:	00080593          	addi	x11,x16,0
8000021c:	00161613          	slli	x12,x12,0x1
80000220:	00030693          	addi	x13,x6,0
80000224:	02f8e863          	bltu	x17,x15,80000254 <modul64+0x74>
80000228:	01179463          	bne	x15,x17,80000230 <modul64+0x50>
8000022c:	02ef6463          	bltu	x30,x14,80000254 <modul64+0x74>
80000230:	40e506b3          	sub	x13,x10,x14
80000234:	00d535b3          	sltu	x11,x10,x13
80000238:	40f80833          	sub	x16,x16,x15
8000023c:	40b805b3          	sub	x11,x16,x11
80000240:	00160813          	addi	x16,x12,1
80000244:	00068513          	addi	x10,x13,0
80000248:	00c836b3          	sltu	x13,x16,x12
8000024c:	006686b3          	add	x13,x13,x6
80000250:	00080613          	addi	x12,x16,0
80000254:	001e0e13          	addi	x28,x28,1
80000258:	f9de18e3          	bne	x28,x29,800001e8 <modul64+0x8>
8000025c:	00008067          	jalr	x0,0(x1)

80000260 <montmul>:
80000260:	fc010113          	addi	x2,x2,-64
80000264:	02812c23          	sw	x8,56(x2)
80000268:	02912a23          	sw	x9,52(x2)
8000026c:	00070413          	addi	x8,x14,0
80000270:	00078493          	addi	x9,x15,0
80000274:	00010713          	addi	x14,x2,0
80000278:	00810793          	addi	x15,x2,8
8000027c:	02112e23          	sw	x1,60(x2)
80000280:	03212823          	sw	x18,48(x2)
80000284:	03312623          	sw	x19,44(x2)
80000288:	03412423          	sw	x20,40(x2)
8000028c:	03512223          	sw	x21,36(x2)
80000290:	00088a13          	addi	x20,x17,0
80000294:	00080a93          	addi	x21,x16,0
80000298:	e4dff0ef          	jal	x1,800000e4 <mulul64>
8000029c:	00812983          	lw	x19,8(x2)
800002a0:	00c12903          	lw	x18,12(x2)
800002a4:	000a8613          	addi	x12,x21,0
800002a8:	000a0693          	addi	x13,x20,0
800002ac:	00098513          	addi	x10,x19,0
800002b0:	00090593          	addi	x11,x18,0
800002b4:	50c000ef          	jal	x1,800007c0 <__muldi3>
800002b8:	01810793          	addi	x15,x2,24
800002bc:	01010713          	addi	x14,x2,16
800002c0:	00040613          	addi	x12,x8,0
800002c4:	00048693          	addi	x13,x9,0
800002c8:	e1dff0ef          	jal	x1,800000e4 <mulul64>
800002cc:	01812703          	lw	x14,24(x2)
800002d0:	01c12683          	lw	x13,28(x2)
800002d4:	01012503          	lw	x10,16(x2)
800002d8:	00e98733          	add	x14,x19,x14
800002dc:	00d906b3          	add	x13,x18,x13
800002e0:	013737b3          	sltu	x15,x14,x19
800002e4:	00d787b3          	add	x15,x15,x13
800002e8:	00012683          	lw	x13,0(x2)
800002ec:	00412603          	lw	x12,4(x2)
800002f0:	01412583          	lw	x11,20(x2)
800002f4:	00a68533          	add	x10,x13,x10
800002f8:	00d53833          	sltu	x16,x10,x13
800002fc:	00b605b3          	add	x11,x12,x11
80000300:	00b80833          	add	x16,x16,x11
80000304:	0127ea63          	bltu	x15,x18,80000318 <montmul+0xb8>
80000308:	00050593          	addi	x11,x10,0
8000030c:	00080893          	addi	x17,x16,0
80000310:	00f91a63          	bne	x18,x15,80000324 <montmul+0xc4>
80000314:	01377863          	bgeu	x14,x19,80000324 <montmul+0xc4>
80000318:	00150593          	addi	x11,x10,1
8000031c:	00a5b533          	sltu	x10,x11,x10
80000320:	010508b3          	add	x17,x10,x16
80000324:	01164533          	xor	x10,x12,x17
80000328:	00b6c833          	xor	x16,x13,x11
8000032c:	00a86833          	or	x16,x16,x10
80000330:	00183813          	sltiu	x16,x16,1
80000334:	00100513          	addi	x10,x0,1
80000338:	0127e863          	bltu	x15,x18,80000348 <montmul+0xe8>
8000033c:	00f91463          	bne	x18,x15,80000344 <montmul+0xe4>
80000340:	01376463          	bltu	x14,x19,80000348 <montmul+0xe8>
80000344:	00000513          	addi	x10,x0,0
80000348:	00a87833          	and	x16,x16,x10
8000034c:	00100793          	addi	x15,x0,1
80000350:	00c8e863          	bltu	x17,x12,80000360 <montmul+0x100>
80000354:	01161463          	bne	x12,x17,8000035c <montmul+0xfc>
80000358:	00d5e463          	bltu	x11,x13,80000360 <montmul+0x100>
8000035c:	00000793          	addi	x15,x0,0
80000360:	00100713          	addi	x14,x0,1
80000364:	0098e663          	bltu	x17,x9,80000370 <montmul+0x110>
80000368:	01149663          	bne	x9,x17,80000374 <montmul+0x114>
8000036c:	0085f463          	bgeu	x11,x8,80000374 <montmul+0x114>
80000370:	00000713          	addi	x14,x0,0
80000374:	00e7e7b3          	or	x15,x15,x14
80000378:	00f86833          	or	x16,x16,x15
8000037c:	0ff87813          	andi	x16,x16,255
80000380:	41000533          	sub	x10,x0,x16
80000384:	03c12083          	lw	x1,60(x2)
80000388:	00050813          	addi	x16,x10,0
8000038c:	00857533          	and	x10,x10,x8
80000390:	03812403          	lw	x8,56(x2)
80000394:	009877b3          	and	x15,x16,x9
80000398:	40a58533          	sub	x10,x11,x10
8000039c:	00a5b5b3          	sltu	x11,x11,x10
800003a0:	40f888b3          	sub	x17,x17,x15
800003a4:	03412483          	lw	x9,52(x2)
800003a8:	03012903          	lw	x18,48(x2)
800003ac:	02c12983          	lw	x19,44(x2)
800003b0:	02812a03          	lw	x20,40(x2)
800003b4:	02412a83          	lw	x21,36(x2)
800003b8:	40b885b3          	sub	x11,x17,x11
800003bc:	04010113          	addi	x2,x2,64
800003c0:	00008067          	jalr	x0,0(x1)

800003c4 <xbinGCD>:
800003c4:	00050f13          	addi	x30,x10,0
800003c8:	00058f93          	addi	x31,x11,0
800003cc:	00000313          	addi	x6,x0,0
800003d0:	00000393          	addi	x7,x0,0
800003d4:	00100813          	addi	x16,x0,1
800003d8:	00000893          	addi	x17,x0,0
800003dc:	01ff6e33          	or	x28,x30,x31
800003e0:	000e1c63          	bne	x28,x0,800003f8 <xbinGCD+0x34>
800003e4:	01072023          	sw	x16,0(x14)
800003e8:	01172223          	sw	x17,4(x14)
800003ec:	0067a023          	sw	x6,0(x15)
800003f0:	0077a223          	sw	x7,4(x15)
800003f4:	00008067          	jalr	x0,0(x1)
800003f8:	01ff9e13          	slli	x28,x31,0x1f
800003fc:	001f5f13          	srli	x30,x30,0x1
80000400:	01ee6f33          	or	x30,x28,x30
80000404:	0013de13          	srli	x28,x7,0x1
80000408:	01f39293          	slli	x5,x7,0x1f
8000040c:	00135e93          	srli	x29,x6,0x1
80000410:	000e0393          	addi	x7,x28,0
80000414:	00187e13          	andi	x28,x16,1
80000418:	001fdf93          	srli	x31,x31,0x1
8000041c:	01d2e333          	or	x6,x5,x29
80000420:	000e1e63          	bne	x28,x0,8000043c <xbinGCD+0x78>
80000424:	01f89293          	slli	x5,x17,0x1f
80000428:	00185e93          	srli	x29,x16,0x1
8000042c:	0018de13          	srli	x28,x17,0x1
80000430:	01d2e833          	or	x16,x5,x29
80000434:	000e0893          	addi	x17,x28,0
80000438:	fa5ff06f          	jal	x0,800003dc <xbinGCD+0x18>
8000043c:	00d8ceb3          	xor	x29,x17,x13
80000440:	00c84e33          	xor	x28,x16,x12
80000444:	01fe9293          	slli	x5,x29,0x1f
80000448:	001e5e13          	srli	x28,x28,0x1
8000044c:	01c2ee33          	or	x28,x5,x28
80000450:	00c872b3          	and	x5,x16,x12
80000454:	005e02b3          	add	x5,x28,x5
80000458:	00d8f833          	and	x16,x17,x13
8000045c:	001ede93          	srli	x29,x29,0x1
80000460:	01c2be33          	sltu	x28,x5,x28
80000464:	010e8eb3          	add	x29,x29,x16
80000468:	01de08b3          	add	x17,x28,x29
8000046c:	00a30e33          	add	x28,x6,x10
80000470:	00028813          	addi	x16,x5,0
80000474:	00b38eb3          	add	x29,x7,x11
80000478:	006e32b3          	sltu	x5,x28,x6
8000047c:	01d283b3          	add	x7,x5,x29
80000480:	000e0313          	addi	x6,x28,0
80000484:	f59ff06f          	jal	x0,800003dc <xbinGCD+0x18>

80000488 <benchmark_body>:
80000488:	f9010113          	addi	x2,x2,-112
8000048c:	06812423          	sw	x8,104(x2)
80000490:	06912223          	sw	x9,100(x2)
80000494:	05612a23          	sw	x22,84(x2)
80000498:	05712823          	sw	x23,80(x2)
8000049c:	05a12223          	sw	x26,68(x2)
800004a0:	00050413          	addi	x8,x10,0
800004a4:	06112623          	sw	x1,108(x2)
800004a8:	07212023          	sw	x18,96(x2)
800004ac:	05312e23          	sw	x19,92(x2)
800004b0:	05412c23          	sw	x20,88(x2)
800004b4:	05812623          	sw	x24,76(x2)
800004b8:	05912423          	sw	x25,72(x2)
800004bc:	05b12023          	sw	x27,64(x2)
800004c0:	00000513          	addi	x10,x0,0
800004c4:	00000d13          	addi	x26,x0,0
800004c8:	801014b7          	lui	x9,0x80101
800004cc:	80101bb7          	lui	x23,0x80101
800004d0:	80101b37          	lui	x22,0x80101
800004d4:	028d4e63          	blt	x26,x8,80000510 <benchmark_body+0x88>
800004d8:	06c12083          	lw	x1,108(x2)
800004dc:	06812403          	lw	x8,104(x2)
800004e0:	06412483          	lw	x9,100(x2)
800004e4:	06012903          	lw	x18,96(x2)
800004e8:	05c12983          	lw	x19,92(x2)
800004ec:	05812a03          	lw	x20,88(x2)
800004f0:	05412b03          	lw	x22,84(x2)
800004f4:	05012b83          	lw	x23,80(x2)
800004f8:	04c12c03          	lw	x24,76(x2)
800004fc:	04812c83          	lw	x25,72(x2)
80000500:	04412d03          	lw	x26,68(x2)
80000504:	04012d83          	lw	x27,64(x2)
80000508:	07010113          	addi	x2,x2,112
8000050c:	00008067          	jalr	x0,0(x1)
80000510:	0184a783          	lw	x15,24(x9) # 80101018 <in_m>
80000514:	01c4a803          	lw	x16,28(x9)
80000518:	028b2903          	lw	x18,40(x22) # 80101028 <in_a>
8000051c:	00f12023          	sw	x15,0(x2)
80000520:	01012223          	sw	x16,4(x2)
80000524:	020ba783          	lw	x15,32(x23) # 80101020 <in_b>
80000528:	024ba803          	lw	x16,36(x23)
8000052c:	02cb2983          	lw	x19,44(x22)
80000530:	00f12423          	sw	x15,8(x2)
80000534:	01012623          	sw	x16,12(x2)
80000538:	00812603          	lw	x12,8(x2)
8000053c:	00c12683          	lw	x13,12(x2)
80000540:	00090513          	addi	x10,x18,0
80000544:	00098593          	addi	x11,x19,0
80000548:	01810793          	addi	x15,x2,24
8000054c:	01010713          	addi	x14,x2,16
80000550:	b95ff0ef          	jal	x1,800000e4 <mulul64>
80000554:	00012703          	lw	x14,0(x2)
80000558:	00412783          	lw	x15,4(x2)
8000055c:	01812603          	lw	x12,24(x2)
80000560:	01c12683          	lw	x13,28(x2)
80000564:	01012503          	lw	x10,16(x2)
80000568:	01412583          	lw	x11,20(x2)
8000056c:	c75ff0ef          	jal	x1,800001e0 <modul64>
80000570:	00050613          	addi	x12,x10,0
80000574:	00058693          	addi	x13,x11,0
80000578:	01810793          	addi	x15,x2,24
8000057c:	01010713          	addi	x14,x2,16
80000580:	b65ff0ef          	jal	x1,800000e4 <mulul64>
80000584:	00012703          	lw	x14,0(x2)
80000588:	00412783          	lw	x15,4(x2)
8000058c:	01812603          	lw	x12,24(x2)
80000590:	01c12683          	lw	x13,28(x2)
80000594:	01012503          	lw	x10,16(x2)
80000598:	01412583          	lw	x11,20(x2)
8000059c:	c45ff0ef          	jal	x1,800001e0 <modul64>
800005a0:	00050613          	addi	x12,x10,0
800005a4:	00058693          	addi	x13,x11,0
800005a8:	01810793          	addi	x15,x2,24
800005ac:	01010713          	addi	x14,x2,16
800005b0:	b35ff0ef          	jal	x1,800000e4 <mulul64>
800005b4:	00012703          	lw	x14,0(x2)
800005b8:	00412783          	lw	x15,4(x2)
800005bc:	01812603          	lw	x12,24(x2)
800005c0:	01c12683          	lw	x13,28(x2)
800005c4:	01012503          	lw	x10,16(x2)
800005c8:	01412583          	lw	x11,20(x2)
800005cc:	c15ff0ef          	jal	x1,800001e0 <modul64>
800005d0:	00012603          	lw	x12,0(x2)
800005d4:	00412683          	lw	x13,4(x2)
800005d8:	00050a13          	addi	x20,x10,0
800005dc:	03810793          	addi	x15,x2,56
800005e0:	03010713          	addi	x14,x2,48
800005e4:	00000513          	addi	x10,x0,0
800005e8:	00058d93          	addi	x27,x11,0
800005ec:	800005b7          	lui	x11,0x80000
800005f0:	dd5ff0ef          	jal	x1,800003c4 <xbinGCD>
800005f4:	03012703          	lw	x14,48(x2)
800005f8:	03412783          	lw	x15,52(x2)
800005fc:	00012703          	lw	x14,0(x2)
80000600:	00412783          	lw	x15,4(x2)
80000604:	00000613          	addi	x12,x0,0
80000608:	00000693          	addi	x13,x0,0
8000060c:	00090513          	addi	x10,x18,0
80000610:	00098593          	addi	x11,x19,0
80000614:	bcdff0ef          	jal	x1,800001e0 <modul64>
80000618:	00012703          	lw	x14,0(x2)
8000061c:	00412783          	lw	x15,4(x2)
80000620:	00050993          	addi	x19,x10,0
80000624:	00058913          	addi	x18,x11,0 # 80000000 <initSection>
80000628:	00812503          	lw	x10,8(x2)
8000062c:	00c12583          	lw	x11,12(x2)
80000630:	00000613          	addi	x12,x0,0
80000634:	00000693          	addi	x13,x0,0
80000638:	ba9ff0ef          	jal	x1,800001e0 <modul64>
8000063c:	03812c03          	lw	x24,56(x2)
80000640:	00012703          	lw	x14,0(x2)
80000644:	03c12c83          	lw	x25,60(x2)
80000648:	00412783          	lw	x15,4(x2)
8000064c:	03812803          	lw	x16,56(x2)
80000650:	03c12883          	lw	x17,60(x2)
80000654:	00050613          	addi	x12,x10,0
80000658:	00058693          	addi	x13,x11,0
8000065c:	00098513          	addi	x10,x19,0
80000660:	00090593          	addi	x11,x18,0
80000664:	bfdff0ef          	jal	x1,80000260 <montmul>
80000668:	03812803          	lw	x16,56(x2)
8000066c:	00012703          	lw	x14,0(x2)
80000670:	03c12883          	lw	x17,60(x2)
80000674:	00412783          	lw	x15,4(x2)
80000678:	00050613          	addi	x12,x10,0
8000067c:	00058693          	addi	x13,x11,0
80000680:	be1ff0ef          	jal	x1,80000260 <montmul>
80000684:	03812803          	lw	x16,56(x2)
80000688:	00012703          	lw	x14,0(x2)
8000068c:	03c12883          	lw	x17,60(x2)
80000690:	00412783          	lw	x15,4(x2)
80000694:	00050613          	addi	x12,x10,0
80000698:	00058693          	addi	x13,x11,0
8000069c:	bc5ff0ef          	jal	x1,80000260 <montmul>
800006a0:	03012603          	lw	x12,48(x2)
800006a4:	03412683          	lw	x13,52(x2)
800006a8:	02810793          	addi	x15,x2,40
800006ac:	02010713          	addi	x14,x2,32
800006b0:	a35ff0ef          	jal	x1,800000e4 <mulul64>
800006b4:	00012703          	lw	x14,0(x2)
800006b8:	00412783          	lw	x15,4(x2)
800006bc:	02812603          	lw	x12,40(x2)
800006c0:	02c12683          	lw	x13,44(x2)
800006c4:	02012503          	lw	x10,32(x2)
800006c8:	02412583          	lw	x11,36(x2)
800006cc:	b15ff0ef          	jal	x1,800001e0 <modul64>
800006d0:	04aa1063          	bne	x20,x10,80000710 <benchmark_body+0x288>
800006d4:	02bd9e63          	bne	x27,x11,80000710 <benchmark_body+0x288>
800006d8:	00012603          	lw	x12,0(x2)
800006dc:	00412683          	lw	x13,4(x2)
800006e0:	000c0513          	addi	x10,x24,0
800006e4:	000c8593          	addi	x11,x25,0
800006e8:	0d8000ef          	jal	x1,800007c0 <__muldi3>
800006ec:	40a007b3          	sub	x15,x0,x10
800006f0:	40b005b3          	sub	x11,x0,x11
800006f4:	00a03533          	sltu	x10,x0,x10
800006f8:	40a585b3          	sub	x11,x11,x10
800006fc:	0017c513          	xori	x10,x15,1
80000700:	00b56533          	or	x10,x10,x11
80000704:	00a03533          	sltu	x10,x0,x10
80000708:	001d0d13          	addi	x26,x26,1
8000070c:	dc9ff06f          	jal	x0,800004d4 <benchmark_body+0x4c>
80000710:	00100513          	addi	x10,x0,1
80000714:	ff5ff06f          	jal	x0,80000708 <benchmark_body+0x280>

80000718 <warm_caches>:
80000718:	d71ff06f          	jal	x0,80000488 <benchmark_body>

8000071c <benchmark>:
8000071c:	02a00513          	addi	x10,x0,42
80000720:	d69ff06f          	jal	x0,80000488 <benchmark_body>

80000724 <initialise_benchmark>:
80000724:	80101737          	lui	x14,0x80101
80000728:	00072603          	lw	x12,0(x14) # 80101000 <stack_end>
8000072c:	00472683          	lw	x13,4(x14)
80000730:	801017b7          	lui	x15,0x80101
80000734:	80101737          	lui	x14,0x80101
80000738:	00c7ac23          	sw	x12,24(x15) # 80101018 <in_m>
8000073c:	00d7ae23          	sw	x13,28(x15)
80000740:	00872603          	lw	x12,8(x14) # 80101008 <stack_end+0x8>
80000744:	00c72683          	lw	x13,12(x14)
80000748:	801017b7          	lui	x15,0x80101
8000074c:	80101737          	lui	x14,0x80101
80000750:	02c7a023          	sw	x12,32(x15) # 80101020 <in_b>
80000754:	02d7a223          	sw	x13,36(x15)
80000758:	01072603          	lw	x12,16(x14) # 80101010 <stack_end+0x10>
8000075c:	01472683          	lw	x13,20(x14)
80000760:	801017b7          	lui	x15,0x80101
80000764:	02c7a423          	sw	x12,40(x15) # 80101028 <in_a>
80000768:	02d7a623          	sw	x13,44(x15)
8000076c:	00008067          	jalr	x0,0(x1)

80000770 <verify_benchmark>:
80000770:	00153513          	sltiu	x10,x10,1
80000774:	00008067          	jalr	x0,0(x1)

80000778 <initialise_board>:
80000778:	00000513          	addi	x10,x0,0
8000077c:	00008067          	jalr	x0,0(x1)

80000780 <start_trigger>:
80000780:	00000513          	addi	x10,x0,0
80000784:	deadc2b7          	lui	x5,0xdeadc
80000788:	eef28293          	addi	x5,x5,-273 # deadbeef <_end+0x5e9d6dbf>
8000078c:	00008067          	jalr	x0,0(x1)

80000790 <stop_trigger>:
80000790:	beefe2b7          	lui	x5,0xbeefe
80000794:	ead28293          	addi	x5,x5,-339 # beefdead <_end+0x3edf8d7d>
80000798:	00008067          	jalr	x0,0(x1)

8000079c <__mulsi3>:
8000079c:	00050613          	addi	x12,x10,0
800007a0:	00000513          	addi	x10,x0,0
800007a4:	0015f693          	andi	x13,x11,1
800007a8:	00068463          	beq	x13,x0,800007b0 <__mulsi3+0x14>
800007ac:	00c50533          	add	x10,x10,x12
800007b0:	0015d593          	srli	x11,x11,0x1
800007b4:	00161613          	slli	x12,x12,0x1
800007b8:	fe0596e3          	bne	x11,x0,800007a4 <__mulsi3+0x8>
800007bc:	00008067          	jalr	x0,0(x1)

800007c0 <__muldi3>:
800007c0:	00050e13          	addi	x28,x10,0
800007c4:	ff010113          	addi	x2,x2,-16
800007c8:	00068313          	addi	x6,x13,0
800007cc:	00112623          	sw	x1,12(x2)
800007d0:	00060513          	addi	x10,x12,0
800007d4:	000e0893          	addi	x17,x28,0
800007d8:	00060693          	addi	x13,x12,0
800007dc:	00000713          	addi	x14,x0,0
800007e0:	00000793          	addi	x15,x0,0
800007e4:	00000813          	addi	x16,x0,0
800007e8:	0016fe93          	andi	x29,x13,1
800007ec:	00171613          	slli	x12,x14,0x1
800007f0:	000e8a63          	beq	x29,x0,80000804 <__muldi3+0x44>
800007f4:	01088833          	add	x16,x17,x16
800007f8:	00e787b3          	add	x15,x15,x14
800007fc:	01183733          	sltu	x14,x16,x17
80000800:	00f707b3          	add	x15,x14,x15
80000804:	01f8d713          	srli	x14,x17,0x1f
80000808:	0016d693          	srli	x13,x13,0x1
8000080c:	00e66733          	or	x14,x12,x14
80000810:	00189893          	slli	x17,x17,0x1
80000814:	fc069ae3          	bne	x13,x0,800007e8 <__muldi3+0x28>
80000818:	00058663          	beq	x11,x0,80000824 <__muldi3+0x64>
8000081c:	f81ff0ef          	jal	x1,8000079c <__mulsi3>
80000820:	00a787b3          	add	x15,x15,x10
80000824:	00030a63          	beq	x6,x0,80000838 <__muldi3+0x78>
80000828:	000e0513          	addi	x10,x28,0
8000082c:	00030593          	addi	x11,x6,0
80000830:	f6dff0ef          	jal	x1,8000079c <__mulsi3>
80000834:	00f507b3          	add	x15,x10,x15
80000838:	00c12083          	lw	x1,12(x2)
8000083c:	00080513          	addi	x10,x16,0
80000840:	00078593          	addi	x11,x15,0
80000844:	01010113          	addi	x2,x2,16
80000848:	00008067          	jalr	x0,0(x1)

Disassembly of section .data:

80100000 <stack_begin>:
	...

80101000 <stack_end>:
80101000:	f89f 3928 4927      	.insn	6, 0x49273928f89f
80101006:	fae8                	.insn	2, 0xfae8
80101008:	b9330573          	.insn	4, 0xb9330573
8010100c:	14736def          	jal	x27,80137952 <_end+0x32822>
80101010:	87237fef          	jal	x31,80038082 <__muldi3+0x378c2>
80101014:	3721                	.insn	2, 0x3721
80101016:	0549                	.insn	2, 0x0549

Disassembly of section .comment:

00000000 <.comment>:
   0:	3a434347          	.insn	4, 0x3a434347
   4:	2820                	.insn	2, 0x2820
   6:	2029                	.insn	2, 0x2029
   8:	3331                	.insn	2, 0x3331
   a:	322e                	.insn	2, 0x322e
   c:	302e                	.insn	2, 0x302e
	...

Disassembly of section .riscv.attributes:

00000000 <.riscv.attributes>:
   0:	2841                	.insn	2, 0x2841
   2:	0000                	.insn	2, 0x
   4:	7200                	.insn	2, 0x7200
   6:	7369                	.insn	2, 0x7369
   8:	01007663          	bgeu	x0,x16,14 <_stack_size-0xec>
   c:	001e                	.insn	2, 0x001e
   e:	0000                	.insn	2, 0x
  10:	1004                	.insn	2, 0x1004
  12:	7205                	.insn	2, 0x7205
  14:	3376                	.insn	2, 0x3376
  16:	6932                	.insn	2, 0x6932
  18:	7032                	.insn	2, 0x7032
  1a:	5f31                	.insn	2, 0x5f31
  1c:	697a                	.insn	2, 0x697a
  1e:	32727363          	bgeu	x4,x7,344 <_stack_size+0x244>
  22:	3070                	.insn	2, 0x3070
  24:	0800                	.insn	2, 0x0800
  26:	0a01                	.insn	2, 0x0a01
  28:	Address 0x28 is out of bounds.


Disassembly of section .debug_line:

00000000 <.debug_line>:
   0:	0076                	.insn	2, 0x0076
   2:	0000                	.insn	2, 0x
   4:	0005                	.insn	2, 0x0005
   6:	0004                	.insn	2, 0x0004
   8:	002e                	.insn	2, 0x002e
   a:	0000                	.insn	2, 0x
   c:	0101                	.insn	2, 0x0101
   e:	fb01                	.insn	2, 0xfb01
  10:	0d0e                	.insn	2, 0x0d0e
  12:	0100                	.insn	2, 0x0100
  14:	0101                	.insn	2, 0x0101
  16:	0001                	.insn	2, 0x0001
  18:	0000                	.insn	2, 0x
  1a:	0001                	.insn	2, 0x0001
  1c:	0100                	.insn	2, 0x0100
  1e:	0101                	.insn	2, 0x0101
  20:	021f 0000 0000      	.insn	6, 0x021f
  26:	0061                	.insn	2, 0x0061
  28:	0000                	.insn	2, 0x
  2a:	0102                	.insn	2, 0x0102
  2c:	021f 020f 0084      	.insn	6, 0x0084020f021f
  32:	0000                	.insn	2, 0x
  34:	8401                	.insn	2, 0x8401
  36:	0000                	.insn	2, 0x
  38:	0100                	.insn	2, 0x0100
  3a:	0500                	.insn	2, 0x0500
  3c:	9c02                	.insn	2, 0x9c02
  3e:	03800007          	.insn	4, 0x03800007
  42:	0124                	.insn	2, 0x0124
  44:	04090103          	lb	x2,64(x18)
  48:	0100                	.insn	2, 0x0100
  4a:	04090203          	lb	x4,64(x18)
  4e:	0100                	.insn	2, 0x0100
  50:	04090103          	lb	x2,64(x18)
  54:	0100                	.insn	2, 0x0100
  56:	04090103          	lb	x2,64(x18)
  5a:	0100                	.insn	2, 0x0100
  5c:	04090203          	lb	x4,64(x18)
  60:	0100                	.insn	2, 0x0100
  62:	04090103          	lb	x2,64(x18)
  66:	0100                	.insn	2, 0x0100
  68:	04090103          	lb	x2,64(x18)
  6c:	0100                	.insn	2, 0x0100
  6e:	04090103          	lb	x2,64(x18)
  72:	0100                	.insn	2, 0x0100
  74:	0409                	.insn	2, 0x0409
  76:	0000                	.insn	2, 0x
  78:	0101                	.insn	2, 0x0101
  7a:	021c                	.insn	2, 0x021c
  7c:	0000                	.insn	2, 0x
  7e:	0005                	.insn	2, 0x0005
  80:	0004                	.insn	2, 0x0004
  82:	00000037          	lui	x0,0x0
  86:	0101                	.insn	2, 0x0101
  88:	fb01                	.insn	2, 0xfb01
  8a:	0d0e                	.insn	2, 0x0d0e
  8c:	0100                	.insn	2, 0x0100
  8e:	0101                	.insn	2, 0x0101
  90:	0001                	.insn	2, 0x0001
  92:	0000                	.insn	2, 0x
  94:	0001                	.insn	2, 0x0001
  96:	0100                	.insn	2, 0x0100
  98:	0101                	.insn	2, 0x0101
  9a:	031f 0000 0000      	.insn	6, 0x031f
  a0:	0061                	.insn	2, 0x0061
  a2:	0000                	.insn	2, 0x
  a4:	00b9                	.insn	2, 0x00b9
  a6:	0000                	.insn	2, 0x
  a8:	0102                	.insn	2, 0x0102
  aa:	021f 030f 00b0      	.insn	6, 0x00b0030f021f
  b0:	0000                	.insn	2, 0x
  b2:	b001                	.insn	2, 0xb001
  b4:	0000                	.insn	2, 0x
  b6:	0100                	.insn	2, 0x0100
  b8:	000000cf          	.insn	4, 0x00cf
  bc:	0502                	.insn	2, 0x0502
  be:	0001                	.insn	2, 0x0001
  c0:	0205                	.insn	2, 0x0205
  c2:	07c0                	.insn	2, 0x07c0
  c4:	8000                	.insn	2, 0x8000
  c6:	05012903          	lw	x18,80(x2)
  ca:	09010303          	lb	x6,144(x2)
  ce:	0000                	.insn	2, 0x
  d0:	0301                	.insn	2, 0x0301
  d2:	0901                	.insn	2, 0x0901
  d4:	0000                	.insn	2, 0x
  d6:	0301                	.insn	2, 0x0301
  d8:	0901                	.insn	2, 0x0901
  da:	0000                	.insn	2, 0x
  dc:	0301                	.insn	2, 0x0301
  de:	0901                	.insn	2, 0x0901
  e0:	0000                	.insn	2, 0x
  e2:	0501                	.insn	2, 0x0501
  e4:	0601                	.insn	2, 0x0601
  e6:	00097c03          	.insn	4, 0x00097c03
  ea:	0100                	.insn	2, 0x0100
  ec:	10090003          	lb	x0,256(x18)
  f0:	0100                	.insn	2, 0x0100
  f2:	0a05                	.insn	2, 0x0a05
  f4:	04090403          	lb	x8,64(x18)
  f8:	0100                	.insn	2, 0x0100
  fa:	0305                	.insn	2, 0x0305
  fc:	0306                	.insn	2, 0x0306
  fe:	0901                	.insn	2, 0x0901
 100:	0004                	.insn	2, 0x0004
 102:	0301                	.insn	2, 0x0301
 104:	0901                	.insn	2, 0x0901
 106:	0000                	.insn	2, 0x
 108:	0301                	.insn	2, 0x0301
 10a:	0901                	.insn	2, 0x0901
 10c:	0000                	.insn	2, 0x
 10e:	0301                	.insn	2, 0x0301
 110:	0901                	.insn	2, 0x0901
 112:	0000                	.insn	2, 0x
 114:	0301                	.insn	2, 0x0301
 116:	0901                	.insn	2, 0x0901
 118:	0000                	.insn	2, 0x
 11a:	0301                	.insn	2, 0x0301
 11c:	0901                	.insn	2, 0x0901
 11e:	0000                	.insn	2, 0x
 120:	0501                	.insn	2, 0x0501
 122:	060a                	.insn	2, 0x060a
 124:	00097b03          	.insn	4, 0x00097b03
 128:	0100                	.insn	2, 0x0100
 12a:	04090503          	lb	x10,64(x18)
 12e:	0100                	.insn	2, 0x0100
 130:	04097f03          	.insn	4, 0x04097f03
 134:	0100                	.insn	2, 0x0100
 136:	04097e03          	.insn	4, 0x04097e03
 13a:	0100                	.insn	2, 0x0100
 13c:	0305                	.insn	2, 0x0305
 13e:	0306                	.insn	2, 0x0306
 140:	0904                	.insn	2, 0x0904
 142:	0004                	.insn	2, 0x0004
 144:	0301                	.insn	2, 0x0301
 146:	0901                	.insn	2, 0x0901
 148:	0000                	.insn	2, 0x
 14a:	0301                	.insn	2, 0x0301
 14c:	0904                	.insn	2, 0x0904
 14e:	0000                	.insn	2, 0x
 150:	0501                	.insn	2, 0x0501
 152:	09020307          	.insn	4, 0x09020307
 156:	0000                	.insn	2, 0x
 158:	0301                	.insn	2, 0x0301
 15a:	0901                	.insn	2, 0x0901
 15c:	0000                	.insn	2, 0x
 15e:	0501                	.insn	2, 0x0501
 160:	0611                	.insn	2, 0x0611
 162:	00090203          	lb	x4,0(x18)
 166:	0100                	.insn	2, 0x0100
 168:	1405                	.insn	2, 0x1405
 16a:	04097e03          	.insn	4, 0x04097e03
 16e:	0100                	.insn	2, 0x0100
 170:	0705                	.insn	2, 0x0705
 172:	0306                	.insn	2, 0x0306
 174:	0901                	.insn	2, 0x0901
 176:	0004                	.insn	2, 0x0004
 178:	0301                	.insn	2, 0x0301
 17a:	0901                	.insn	2, 0x0901
 17c:	0000                	.insn	2, 0x
 17e:	0501                	.insn	2, 0x0501
 180:	060a                	.insn	2, 0x060a
 182:	00090003          	lb	x0,0(x18)
 186:	0100                	.insn	2, 0x0100
 188:	0405                	.insn	2, 0x0405
 18a:	0306                	.insn	2, 0x0306
 18c:	0902                	.insn	2, 0x0902
 18e:	0008                	.insn	2, 0x0008
 190:	0301                	.insn	2, 0x0301
 192:	0901                	.insn	2, 0x0901
 194:	0000                	.insn	2, 0x
 196:	0301                	.insn	2, 0x0301
 198:	0901                	.insn	2, 0x0901
 19a:	0000                	.insn	2, 0x
 19c:	0501                	.insn	2, 0x0501
 19e:	0612                	.insn	2, 0x0612
 1a0:	00097b03          	.insn	4, 0x00097b03
 1a4:	0100                	.insn	2, 0x0100
 1a6:	1605                	.insn	2, 0x1605
 1a8:	04090303          	lb	x6,64(x18)
 1ac:	0100                	.insn	2, 0x0100
 1ae:	0b05                	.insn	2, 0x0b05
 1b0:	04090203          	lb	x4,64(x18)
 1b4:	0100                	.insn	2, 0x0100
 1b6:	0705                	.insn	2, 0x0705
 1b8:	0306                	.insn	2, 0x0306
 1ba:	0902                	.insn	2, 0x0902
 1bc:	0004                	.insn	2, 0x0004
 1be:	0501                	.insn	2, 0x0501
 1c0:	0611                	.insn	2, 0x0611
 1c2:	00090003          	lb	x0,0(x18)
 1c6:	0100                	.insn	2, 0x0100
 1c8:	0705                	.insn	2, 0x0705
 1ca:	0306                	.insn	2, 0x0306
 1cc:	0901                	.insn	2, 0x0901
 1ce:	0004                	.insn	2, 0x0004
 1d0:	0501                	.insn	2, 0x0501
 1d2:	060d                	.insn	2, 0x060d
 1d4:	00090003          	lb	x0,0(x18)
 1d8:	0100                	.insn	2, 0x0100
 1da:	0705                	.insn	2, 0x0705
 1dc:	0306                	.insn	2, 0x0306
 1de:	0901                	.insn	2, 0x0901
 1e0:	0004                	.insn	2, 0x0004
 1e2:	0301                	.insn	2, 0x0301
 1e4:	0901                	.insn	2, 0x0901
 1e6:	0000                	.insn	2, 0x
 1e8:	0501                	.insn	2, 0x0501
 1ea:	0612                	.insn	2, 0x0612
 1ec:	00090003          	lb	x0,0(x18)
 1f0:	0100                	.insn	2, 0x0100
 1f2:	0a05                	.insn	2, 0x0a05
 1f4:	0306                	.insn	2, 0x0306
 1f6:	0902                	.insn	2, 0x0902
 1f8:	0008                	.insn	2, 0x0008
 1fa:	0501                	.insn	2, 0x0501
 1fc:	09020303          	lb	x6,144(x4) # 90 <_stack_size-0x70>
 200:	0004                	.insn	2, 0x0004
 202:	0301                	.insn	2, 0x0301
 204:	0901                	.insn	2, 0x0901
 206:	0000                	.insn	2, 0x
 208:	0301                	.insn	2, 0x0301
 20a:	0902                	.insn	2, 0x0902
 20c:	0000                	.insn	2, 0x
 20e:	0501                	.insn	2, 0x0501
 210:	0606                	.insn	2, 0x0606
 212:	00090003          	lb	x0,0(x18)
 216:	0100                	.insn	2, 0x0100
 218:	0505                	.insn	2, 0x0505
 21a:	0306                	.insn	2, 0x0306
 21c:	0901                	.insn	2, 0x0901
 21e:	0004                	.insn	2, 0x0004
 220:	0501                	.insn	2, 0x0501
 222:	0900031b          	.insn	4, 0x0900031b
 226:	0000                	.insn	2, 0x
 228:	0301                	.insn	2, 0x0301
 22a:	0900                	.insn	2, 0x0900
 22c:	0000                	.insn	2, 0x
 22e:	0301                	.insn	2, 0x0301
 230:	0900                	.insn	2, 0x0900
 232:	0000                	.insn	2, 0x
 234:	0301                	.insn	2, 0x0301
 236:	0900                	.insn	2, 0x0900
 238:	0004                	.insn	2, 0x0004
 23a:	0501                	.insn	2, 0x0501
 23c:	0619                	.insn	2, 0x0619
 23e:	00090003          	lb	x0,0(x18)
 242:	0100                	.insn	2, 0x0100
 244:	0305                	.insn	2, 0x0305
 246:	0306                	.insn	2, 0x0306
 248:	0902                	.insn	2, 0x0902
 24a:	0004                	.insn	2, 0x0004
 24c:	0501                	.insn	2, 0x0501
 24e:	0606                	.insn	2, 0x0606
 250:	00090003          	lb	x0,0(x18)
 254:	0100                	.insn	2, 0x0100
 256:	0505                	.insn	2, 0x0505
 258:	0306                	.insn	2, 0x0306
 25a:	0901                	.insn	2, 0x0901
 25c:	0004                	.insn	2, 0x0004
 25e:	0501                	.insn	2, 0x0501
 260:	0311                	.insn	2, 0x0311
 262:	0900                	.insn	2, 0x0900
 264:	0000                	.insn	2, 0x
 266:	0301                	.insn	2, 0x0301
 268:	0900                	.insn	2, 0x0900
 26a:	0004                	.insn	2, 0x0004
 26c:	0301                	.insn	2, 0x0301
 26e:	0900                	.insn	2, 0x0900
 270:	0004                	.insn	2, 0x0004
 272:	0301                	.insn	2, 0x0301
 274:	0900                	.insn	2, 0x0900
 276:	0004                	.insn	2, 0x0004
 278:	0501                	.insn	2, 0x0501
 27a:	060e                	.insn	2, 0x060e
 27c:	00090003          	lb	x0,0(x18)
 280:	0100                	.insn	2, 0x0100
 282:	0305                	.insn	2, 0x0305
 284:	0306                	.insn	2, 0x0306
 286:	0902                	.insn	2, 0x0902
 288:	0004                	.insn	2, 0x0004
 28a:	0501                	.insn	2, 0x0501
 28c:	0601                	.insn	2, 0x0601
 28e:	00090103          	lb	x2,0(x18)
 292:	0100                	.insn	2, 0x0100
 294:	1409                	.insn	2, 0x1409
 296:	0000                	.insn	2, 0x
 298:	0101                	.insn	2, 0x0101

Disassembly of section .debug_line_str:

00000000 <.debug_line_str>:
   0:	6d6f682f          	.insn	4, 0x6d6f682f
   4:	2f65                	.insn	2, 0x2f65
   6:	6f6e7473          	.insn	4, 0x6f6e7473
   a:	746c                	.insn	2, 0x746c
   c:	6e69                	.insn	2, 0x6e69
   e:	6d742f67          	.insn	4, 0x6d742f67
  12:	2f70                	.insn	2, 0x2f70
  14:	7672                	.insn	2, 0x7672
  16:	2f636367          	.insn	4, 0x2f636367
  1a:	6972                	.insn	2, 0x6972
  1c:	2d766373          	.insn	4, 0x2d766373
  20:	2d756e67          	.insn	4, 0x2d756e67
  24:	6f74                	.insn	2, 0x6f74
  26:	68636c6f          	jal	x24,366ac <_heap_size+0x326ac>
  2a:	6961                	.insn	2, 0x6961
  2c:	2f6e                	.insn	2, 0x2f6e
  2e:	7562                	.insn	2, 0x7562
  30:	6c69                	.insn	2, 0x6c69
  32:	2d64                	.insn	2, 0x2d64
  34:	2d636367          	.insn	4, 0x2d636367
  38:	656e                	.insn	2, 0x656e
  3a:	62696c77          	.insn	4, 0x62696c77
  3e:	732d                	.insn	2, 0x732d
  40:	6174                	.insn	2, 0x6174
  42:	2f326567          	.insn	4, 0x2f326567
  46:	6972                	.insn	2, 0x6972
  48:	33766373          	.insn	4, 0x33766373
  4c:	2d32                	.insn	2, 0x2d32
  4e:	6e75                	.insn	2, 0x6e75
  50:	776f6e6b          	.insn	4, 0x776f6e6b
  54:	2d6e                	.insn	2, 0x2d6e
  56:	6c65                	.insn	2, 0x6c65
  58:	2f66                	.insn	2, 0x2f66
  5a:	696c                	.insn	2, 0x696c
  5c:	6762                	.insn	2, 0x6762
  5e:	2e006363          	bltu	x0,x0,344 <_stack_size+0x244>
  62:	2f2e                	.insn	2, 0x2f2e
  64:	2e2e                	.insn	2, 0x2e2e
  66:	2f2e2e2f          	.insn	4, 0x2f2e2e2f
  6a:	2f2e                	.insn	2, 0x2f2e
  6c:	2f636367          	.insn	4, 0x2f636367
  70:	696c                	.insn	2, 0x696c
  72:	6762                	.insn	2, 0x6762
  74:	632f6363          	bltu	x30,x18,69a <_stack_size+0x59a>
  78:	69666e6f          	jal	x28,6670e <_heap_size+0x6270e>
  7c:	69722f67          	.insn	4, 0x69722f67
  80:	00766373          	.insn	4, 0x00766373
  84:	756d                	.insn	2, 0x756d
  86:	646c                	.insn	2, 0x646c
  88:	3369                	.insn	2, 0x3369
  8a:	532e                	.insn	2, 0x532e
  8c:	2e00                	.insn	2, 0x2e00
  8e:	2f2e                	.insn	2, 0x2f2e
  90:	2e2e                	.insn	2, 0x2e2e
  92:	2f2e2e2f          	.insn	4, 0x2f2e2e2f
  96:	2f2e                	.insn	2, 0x2f2e
  98:	2f636367          	.insn	4, 0x2f636367
  9c:	696c                	.insn	2, 0x696c
  9e:	6762                	.insn	2, 0x6762
  a0:	632f6363          	bltu	x30,x18,6c6 <_stack_size+0x5c6>
  a4:	69666e6f          	jal	x28,6673a <_heap_size+0x6273a>
  a8:	69722f67          	.insn	4, 0x69722f67
  ac:	2f766373          	.insn	4, 0x2f766373
  b0:	756d                	.insn	2, 0x756d
  b2:	746c                	.insn	2, 0x746c
  b4:	3369                	.insn	2, 0x3369
  b6:	632e                	.insn	2, 0x632e
  b8:	2e00                	.insn	2, 0x2e00
  ba:	2f2e                	.insn	2, 0x2f2e
  bc:	2e2e                	.insn	2, 0x2e2e
  be:	2f2e2e2f          	.insn	4, 0x2f2e2e2f
  c2:	2f2e                	.insn	2, 0x2f2e
  c4:	2f636367          	.insn	4, 0x2f636367
  c8:	696c                	.insn	2, 0x696c
  ca:	6762                	.insn	2, 0x6762
  cc:	6c006363          	bltu	x0,x0,792 <_stack_size+0x692>
  d0:	6269                	.insn	2, 0x6269
  d2:	32636367          	.insn	4, 0x32636367
  d6:	682e                	.insn	2, 0x682e
	...

Disassembly of section .debug_info:

00000000 <.debug_info>:
   0:	002d                	.insn	2, 0x002d
   2:	0000                	.insn	2, 0x
   4:	0005                	.insn	2, 0x0005
   6:	0401                	.insn	2, 0x0401
   8:	0000                	.insn	2, 0x
   a:	0000                	.insn	2, 0x
   c:	0001                	.insn	2, 0x0001
   e:	0000                	.insn	2, 0x
  10:	9c00                	.insn	2, 0x9c00
  12:	24800007          	.insn	4, 0x24800007
  16:	0000                	.insn	2, 0x
  18:	0000                	.insn	2, 0x
  1a:	002c                	.insn	2, 0x002c
  1c:	0000                	.insn	2, 0x
  1e:	008d                	.insn	2, 0x008d
  20:	0000                	.insn	2, 0x
  22:	8001                	.insn	2, 0x8001
  24:	9902                	.insn	2, 0x9902
  26:	0000                	.insn	2, 0x
  28:	2f00                	.insn	2, 0x2f00
  2a:	079c                	.insn	2, 0x079c
  2c:	8000                	.insn	2, 0x8000
  2e:	0324                	.insn	2, 0x0324
  30:	3b00                	.insn	2, 0x3b00
  32:	0002                	.insn	2, 0x0002
  34:	0500                	.insn	2, 0x0500
  36:	0100                	.insn	2, 0x0100
  38:	2804                	.insn	2, 0x2804
  3a:	0000                	.insn	2, 0x
  3c:	0800                	.insn	2, 0x0800
  3e:	0184                	.insn	2, 0x0184
  40:	0000                	.insn	2, 0x
  42:	8d1d                	.insn	2, 0x8d1d
  44:	0000                	.insn	2, 0x
  46:	0000                	.insn	2, 0x
  48:	0000                	.insn	2, 0x
  4a:	c000                	.insn	2, 0xc000
  4c:	8c800007          	.insn	4, 0x8c800007
  50:	0000                	.insn	2, 0x
  52:	7a00                	.insn	2, 0x7a00
  54:	0000                	.insn	2, 0x
  56:	0100                	.insn	2, 0x0100
  58:	0708                	.insn	2, 0x0708
  5a:	00000117          	auipc	x2,0x0
  5e:	0409                	.insn	2, 0x0409
  60:	6905                	.insn	2, 0x6905
  62:	746e                	.insn	2, 0x746e
  64:	0100                	.insn	2, 0x0100
  66:	0704                	.insn	2, 0x0704
  68:	0121                	.insn	2, 0x0121
  6a:	0000                	.insn	2, 0x
  6c:	0801                	.insn	2, 0x0801
  6e:	7605                	.insn	2, 0x7605
  70:	0001                	.insn	2, 0x0001
  72:	0100                	.insn	2, 0x0100
  74:	0410                	.insn	2, 0x0410
  76:	0155                	.insn	2, 0x0155
  78:	0000                	.insn	2, 0x
  7a:	0101                	.insn	2, 0x0101
  7c:	0206                	.insn	2, 0x0206
  7e:	0001                	.insn	2, 0x0001
  80:	0100                	.insn	2, 0x0100
  82:	0801                	.insn	2, 0x0801
  84:	0100                	.insn	2, 0x0100
  86:	0000                	.insn	2, 0x
  88:	0201                	.insn	2, 0x0201
  8a:	3805                	.insn	2, 0x3805
  8c:	0002                	.insn	2, 0x0002
  8e:	0100                	.insn	2, 0x0100
  90:	0702                	.insn	2, 0x0702
  92:	012e                	.insn	2, 0x012e
  94:	0000                	.insn	2, 0x
  96:	0401                	.insn	2, 0x0401
  98:	7b05                	.insn	2, 0x7b05
  9a:	0001                	.insn	2, 0x0001
  9c:	0100                	.insn	2, 0x0100
  9e:	0704                	.insn	2, 0x0704
  a0:	011c                	.insn	2, 0x011c
  a2:	0000                	.insn	2, 0x
  a4:	0101                	.insn	2, 0x0101
  a6:	0908                	.insn	2, 0x0908
  a8:	0001                	.insn	2, 0x0001
  aa:	0400                	.insn	2, 0x0400
  ac:	000000ef          	jal	x1,ac <_stack_size-0x54>
  b0:	0f80                	.insn	2, 0x0f80
  b2:	002d                	.insn	2, 0x002d
  b4:	0000                	.insn	2, 0x
  b6:	ee04                	.insn	2, 0xee04
  b8:	0000                	.insn	2, 0x
  ba:	8100                	.insn	2, 0x8100
  bc:	3416                	.insn	2, 0x3416
  be:	0000                	.insn	2, 0x
  c0:	0400                	.insn	2, 0x0400
  c2:	0000025b          	.insn	4, 0x025b
  c6:	0f84                	.insn	2, 0x0f84
  c8:	0000003b          	.insn	4, 0x003b
  cc:	0201                	.insn	2, 0x0201
  ce:	df04                	.insn	2, 0xdf04
  d0:	0000                	.insn	2, 0x
  d2:	0100                	.insn	2, 0x0100
  d4:	0304                	.insn	2, 0x0304
  d6:	000000d7          	.insn	4, 0x00d7
  da:	0401                	.insn	2, 0x0401
  dc:	7004                	.insn	2, 0x7004
  de:	0001                	.insn	2, 0x0001
  e0:	0100                	.insn	2, 0x0100
  e2:	0308                	.insn	2, 0x0308
  e4:	0168                	.insn	2, 0x0168
  e6:	0000                	.insn	2, 0x
  e8:	0801                	.insn	2, 0x0801
  ea:	5a04                	.insn	2, 0x5a04
  ec:	0001                	.insn	2, 0x0001
  ee:	0100                	.insn	2, 0x0100
  f0:	0310                	.insn	2, 0x0310
  f2:	0242                	.insn	2, 0x0242
  f4:	0000                	.insn	2, 0x
  f6:	2001                	.insn	2, 0x2001
  f8:	00014d03          	lbu	x26,0(x2) # 5a <_stack_size-0xa6>
  fc:	0a00                	.insn	2, 0x0a00
  fe:	00a2                	.insn	2, 0x00a2
 100:	0000                	.insn	2, 0x
 102:	0208                	.insn	2, 0x0208
 104:	01f1                	.insn	2, 0x01f1
 106:	f70a                	.insn	2, 0xf70a
 108:	0000                	.insn	2, 0x
 10a:	0b00                	.insn	2, 0x0b00
 10c:	6f6c                	.insn	2, 0x6f6c
 10e:	f1020077          	.insn	4, 0xf1020077
 112:	1a01                	.insn	2, 0x1a01
 114:	007a                	.insn	2, 0x007a
 116:	0000                	.insn	2, 0x
 118:	0c00                	.insn	2, 0x0c00
 11a:	00000163          	beq	x0,x0,11c <_stack_size+0x1c>
 11e:	f102                	.insn	2, 0xf102
 120:	1f01                	.insn	2, 0x1f01
 122:	007a                	.insn	2, 0x007a
 124:	0000                	.insn	2, 0x
 126:	0004                	.insn	2, 0x0004
 128:	080d                	.insn	2, 0x080d
 12a:	f802                	.insn	2, 0xf802
 12c:	0901                	.insn	2, 0x0901
 12e:	00000117          	auipc	x2,0x0
 132:	7306                	.insn	2, 0x7306
 134:	fa00                	.insn	2, 0xfa00
 136:	1301                	.insn	2, 0x1301
 138:	00cc                	.insn	2, 0x00cc
 13a:	0000                	.insn	2, 0x
 13c:	6c06                	.insn	2, 0x6c06
 13e:	006c                	.insn	2, 0x006c
 140:	900a01fb          	.insn	4, 0x900a01fb
 144:	0000                	.insn	2, 0x
 146:	0000                	.insn	2, 0x
 148:	b60e                	.insn	2, 0xb60e
 14a:	0000                	.insn	2, 0x
 14c:	0200                	.insn	2, 0x0200
 14e:	01fc                	.insn	2, 0x01fc
 150:	0000f703          	.insn	4, 0xf703
 154:	0f00                	.insn	2, 0x0f00
 156:	00000117          	auipc	x2,0x0
 15a:	0e10                	.insn	2, 0x0e10
 15c:	0001                	.insn	2, 0x0001
 15e:	0100                	.insn	2, 0x0100
 160:	0129                	.insn	2, 0x0129
 162:	0090                	.insn	2, 0x0090
 164:	0000                	.insn	2, 0x
 166:	07c0                	.insn	2, 0x07c0
 168:	8000                	.insn	2, 0x8000
 16a:	008c                	.insn	2, 0x008c
 16c:	0000                	.insn	2, 0x
 16e:	9c01                	.insn	2, 0x9c01
 170:	12007507          	.insn	4, 0x12007507
 174:	0090                	.insn	2, 0x0090
 176:	0000                	.insn	2, 0x
 178:	000c                	.insn	2, 0x000c
 17a:	0000                	.insn	2, 0x
 17c:	1c007607          	.insn	4, 0x1c007607
 180:	0090                	.insn	2, 0x0090
 182:	0000                	.insn	2, 0x
 184:	0022                	.insn	2, 0x0022
 186:	0000                	.insn	2, 0x
 188:	7505                	.insn	2, 0x7505
 18a:	0075                	.insn	2, 0x0075
 18c:	0124112b          	.insn	4, 0x0124112b
 190:	0000                	.insn	2, 0x
 192:	7605                	.insn	2, 0x7605
 194:	0076                	.insn	2, 0x0076
 196:	112c                	.insn	2, 0x112c
 198:	0124                	.insn	2, 0x0124
 19a:	0000                	.insn	2, 0x
 19c:	7705                	.insn	2, 0x7705
 19e:	2d00                	.insn	2, 0x2d00
 1a0:	0001170b          	.insn	4, 0x0001170b
 1a4:	0200                	.insn	2, 0x0200
 1a6:	0141                	.insn	2, 0x0141
 1a8:	0000                	.insn	2, 0x
 1aa:	852e                	.insn	2, 0x852e
 1ac:	0000                	.insn	2, 0x
 1ae:	3800                	.insn	2, 0x3800
 1b0:	0000                	.insn	2, 0x
 1b2:	0200                	.insn	2, 0x0200
 1b4:	00000147          	.insn	4, 0x0147
 1b8:	0000852f          	.insn	4, 0x852f
 1bc:	3e00                	.insn	2, 0x3e00
 1be:	0000                	.insn	2, 0x
 1c0:	0300                	.insn	2, 0x0300
 1c2:	00f6                	.insn	2, 0x00f6
 1c4:	0000                	.insn	2, 0x
 1c6:	0a30                	.insn	2, 0x0a30
 1c8:	0085                	.insn	2, 0x0085
 1ca:	0000                	.insn	2, 0x
 1cc:	5e01                	.insn	2, 0x5e01
 1ce:	5502                	.insn	2, 0x5502
 1d0:	0002                	.insn	2, 0x0002
 1d2:	3100                	.insn	2, 0x3100
 1d4:	0085                	.insn	2, 0x0085
 1d6:	0000                	.insn	2, 0x
 1d8:	0049                	.insn	2, 0x0049
 1da:	0000                	.insn	2, 0x
 1dc:	5102                	.insn	2, 0x5102
 1de:	0002                	.insn	2, 0x0002
 1e0:	3200                	.insn	2, 0x3200
 1e2:	0085                	.insn	2, 0x0085
 1e4:	0000                	.insn	2, 0x
 1e6:	0056                	.insn	2, 0x0056
 1e8:	0000                	.insn	2, 0x
 1ea:	6102                	.insn	2, 0x6102
 1ec:	0001                	.insn	2, 0x0001
 1ee:	3300                	.insn	2, 0x3300
 1f0:	0085                	.insn	2, 0x0085
 1f2:	0000                	.insn	2, 0x
 1f4:	0066                	.insn	2, 0x0066
 1f6:	0000                	.insn	2, 0x
 1f8:	ab02                	.insn	2, 0xab02
 1fa:	0000                	.insn	2, 0x
 1fc:	3400                	.insn	2, 0x3400
 1fe:	0085                	.insn	2, 0x0085
 200:	0000                	.insn	2, 0x
 202:	00000077          	.insn	4, 0x0077
 206:	ca02                	.insn	2, 0xca02
 208:	0000                	.insn	2, 0x
 20a:	3500                	.insn	2, 0x3500
 20c:	0085                	.insn	2, 0x0085
 20e:	0000                	.insn	2, 0x
 210:	0098                	.insn	2, 0x0098
 212:	0000                	.insn	2, 0x
 214:	e802                	.insn	2, 0xe802
 216:	0000                	.insn	2, 0x
 218:	3600                	.insn	2, 0x3600
 21a:	0085                	.insn	2, 0x0085
 21c:	0000                	.insn	2, 0x
 21e:	009e                	.insn	2, 0x009e
 220:	0000                	.insn	2, 0x
 222:	1c11                	.insn	2, 0x1c11
 224:	0008                	.insn	2, 0x0008
 226:	0480                	.insn	2, 0x0480
 228:	0000                	.insn	2, 0x
 22a:	1900                	.insn	2, 0x1900
 22c:	0002                	.insn	2, 0x0002
 22e:	0300                	.insn	2, 0x0300
 230:	00be                	.insn	2, 0x00be
 232:	0000                	.insn	2, 0x
 234:	1b50                	.insn	2, 0x1b50
 236:	0085                	.insn	2, 0x0085
 238:	0000                	.insn	2, 0x
 23a:	5a01                	.insn	2, 0x5a01
 23c:	0000c403          	lbu	x8,0(x1)
 240:	5000                	.insn	2, 0x5000
 242:	0000851b          	.insn	4, 0x851b
 246:	0100                	.insn	2, 0x0100
 248:	2812005b          	.insn	4, 0x2812005b
 24c:	0008                	.insn	2, 0x0008
 24e:	0c80                	.insn	2, 0x0c80
 250:	0000                	.insn	2, 0x
 252:	0300                	.insn	2, 0x0300
 254:	00be                	.insn	2, 0x00be
 256:	0000                	.insn	2, 0x
 258:	00851153          	.insn	4, 0x00851153
 25c:	0000                	.insn	2, 0x
 25e:	5a01                	.insn	2, 0x5a01
 260:	0000c403          	lbu	x8,0(x1)
 264:	5300                	.insn	2, 0x5300
 266:	8511                	.insn	2, 0x8511
 268:	0000                	.insn	2, 0x
 26a:	0100                	.insn	2, 0x0100
 26c:	0000005b          	.insn	4, 0x005b

Disassembly of section .debug_abbrev:

00000000 <.debug_abbrev>:
   0:	1101                	.insn	2, 0x1101
   2:	1001                	.insn	2, 0x1001
   4:	12011117          	auipc	x2,0x12011
   8:	1b0e030f          	.insn	4, 0x1b0e030f
   c:	250e                	.insn	2, 0x250e
   e:	130e                	.insn	2, 0x130e
  10:	0005                	.insn	2, 0x0005
  12:	0200                	.insn	2, 0x0200
  14:	002e                	.insn	2, 0x002e
  16:	193f0e03          	lb	x28,403(x30)
  1a:	1549                	.insn	2, 0x1549
  1c:	0111                	.insn	2, 0x0111
  1e:	0f12                	.insn	2, 0x0f12
  20:	0000                	.insn	2, 0x
  22:	00003b03          	.insn	4, 0x3b03
  26:	0000                	.insn	2, 0x
  28:	2401                	.insn	2, 0x2401
  2a:	0b00                	.insn	2, 0x0b00
  2c:	030b3e0b          	.insn	4, 0x030b3e0b
  30:	000e                	.insn	2, 0x000e
  32:	0200                	.insn	2, 0x0200
  34:	0034                	.insn	2, 0x0034
  36:	213a0e03          	lb	x28,531(x20)
  3a:	3b01                	.insn	2, 0x3b01
  3c:	0a21390b          	.insn	4, 0x0a21390b
  40:	1349                	.insn	2, 0x1349
  42:	1702                	.insn	2, 0x1702
  44:	0000                	.insn	2, 0x
  46:	03003403          	.insn	4, 0x03003403
  4a:	3a0e                	.insn	2, 0x3a0e
  4c:	0121                	.insn	2, 0x0121
  4e:	0b390b3b          	.insn	4, 0x0b390b3b
  52:	1349                	.insn	2, 0x1349
  54:	1802                	.insn	2, 0x1802
  56:	0000                	.insn	2, 0x
  58:	1604                	.insn	2, 0x1604
  5a:	0300                	.insn	2, 0x0300
  5c:	3a0e                	.insn	2, 0x3a0e
  5e:	0221                	.insn	2, 0x0221
  60:	0b390b3b          	.insn	4, 0x0b390b3b
  64:	1349                	.insn	2, 0x1349
  66:	0000                	.insn	2, 0x
  68:	3405                	.insn	2, 0x3405
  6a:	0300                	.insn	2, 0x0300
  6c:	3a08                	.insn	2, 0x3a08
  6e:	0121                	.insn	2, 0x0121
  70:	0b390b3b          	.insn	4, 0x0b390b3b
  74:	1349                	.insn	2, 0x1349
  76:	0000                	.insn	2, 0x
  78:	0d06                	.insn	2, 0x0d06
  7a:	0300                	.insn	2, 0x0300
  7c:	3a08                	.insn	2, 0x3a08
  7e:	0221                	.insn	2, 0x0221
  80:	0b39053b          	.insn	4, 0x0b39053b
  84:	1349                	.insn	2, 0x1349
  86:	0000                	.insn	2, 0x
  88:	03000507          	.insn	4, 0x03000507
  8c:	3a08                	.insn	2, 0x3a08
  8e:	0121                	.insn	2, 0x0121
  90:	3929213b          	.insn	4, 0x3929213b
  94:	0213490b          	.insn	4, 0x0213490b
  98:	08000017          	auipc	x0,0x8000
  9c:	0111                	.insn	2, 0x0111
  9e:	0e25                	.insn	2, 0x0e25
  a0:	1f030b13          	addi	x22,x6,496
  a4:	01111f1b          	.insn	4, 0x01111f1b
  a8:	0612                	.insn	2, 0x0612
  aa:	1710                	.insn	2, 0x1710
  ac:	0000                	.insn	2, 0x
  ae:	2409                	.insn	2, 0x2409
  b0:	0b00                	.insn	2, 0x0b00
  b2:	030b3e0b          	.insn	4, 0x030b3e0b
  b6:	0008                	.insn	2, 0x0008
  b8:	0a00                	.insn	2, 0x0a00
  ba:	0e030113          	addi	x2,x6,224
  be:	0b3a0b0b          	.insn	4, 0x0b3a0b0b
  c2:	0b39053b          	.insn	4, 0x0b39053b
  c6:	1301                	.insn	2, 0x1301
  c8:	0000                	.insn	2, 0x
  ca:	03000d0b          	.insn	4, 0x03000d0b
  ce:	3a08                	.insn	2, 0x3a08
  d0:	39053b0b          	.insn	4, 0x39053b0b
  d4:	3813490b          	.insn	4, 0x3813490b
  d8:	0c00000b          	.insn	4, 0x0c00000b
  dc:	000d                	.insn	2, 0x000d
  de:	0b3a0e03          	lb	x28,179(x20)
  e2:	0b39053b          	.insn	4, 0x0b39053b
  e6:	1349                	.insn	2, 0x1349
  e8:	0b38                	.insn	2, 0x0b38
  ea:	0000                	.insn	2, 0x
  ec:	170d                	.insn	2, 0x170d
  ee:	0b01                	.insn	2, 0x0b01
  f0:	3b0b3a0b          	.insn	4, 0x3b0b3a0b
  f4:	3905                	.insn	2, 0x3905
  f6:	0013010b          	.insn	4, 0x0013010b
  fa:	0e00                	.insn	2, 0x0e00
  fc:	0016                	.insn	2, 0x0016
  fe:	0b3a0e03          	lb	x28,179(x20)
 102:	0b39053b          	.insn	4, 0x0b39053b
 106:	1349                	.insn	2, 0x1349
 108:	0000                	.insn	2, 0x
 10a:	4900260f          	.insn	4, 0x4900260f
 10e:	10000013          	addi	x0,x0,256
 112:	012e                	.insn	2, 0x012e
 114:	0e03193f 0b3b0b3a 	.insn	8, 0x0b3b0b3a0e03193f
 11c:	0b39                	.insn	2, 0x0b39
 11e:	13491927          	.insn	4, 0x13491927
 122:	0111                	.insn	2, 0x0111
 124:	0612                	.insn	2, 0x0612
 126:	1840                	.insn	2, 0x1840
 128:	197a                	.insn	2, 0x197a
 12a:	0000                	.insn	2, 0x
 12c:	0b11                	.insn	2, 0x0b11
 12e:	1101                	.insn	2, 0x1101
 130:	1201                	.insn	2, 0x1201
 132:	0106                	.insn	2, 0x0106
 134:	12000013          	addi	x0,x0,288
 138:	0111010b          	.insn	4, 0x0111010b
 13c:	0612                	.insn	2, 0x0612
 13e:	0000                	.insn	2, 0x
	...

Disassembly of section .debug_aranges:

00000000 <.debug_aranges>:
   0:	001c                	.insn	2, 0x001c
   2:	0000                	.insn	2, 0x
   4:	0002                	.insn	2, 0x0002
   6:	0000                	.insn	2, 0x
   8:	0000                	.insn	2, 0x
   a:	0004                	.insn	2, 0x0004
   c:	0000                	.insn	2, 0x
   e:	0000                	.insn	2, 0x
  10:	079c                	.insn	2, 0x079c
  12:	8000                	.insn	2, 0x8000
  14:	0024                	.insn	2, 0x0024
	...
  1e:	0000                	.insn	2, 0x
  20:	001c                	.insn	2, 0x001c
  22:	0000                	.insn	2, 0x
  24:	0002                	.insn	2, 0x0002
  26:	0031                	.insn	2, 0x0031
  28:	0000                	.insn	2, 0x
  2a:	0004                	.insn	2, 0x0004
  2c:	0000                	.insn	2, 0x
  2e:	0000                	.insn	2, 0x
  30:	07c0                	.insn	2, 0x07c0
  32:	8000                	.insn	2, 0x8000
  34:	008c                	.insn	2, 0x008c
	...

Disassembly of section .debug_str:

00000000 <.debug_str>:
   0:	2e2e                	.insn	2, 0x2e2e
   2:	2f2e2e2f          	.insn	4, 0x2f2e2e2f
   6:	2e2e                	.insn	2, 0x2e2e
   8:	672f2e2f          	.insn	4, 0x672f2e2f
   c:	6c2f6363          	bltu	x30,x2,6d2 <_stack_size+0x5d2>
  10:	6269                	.insn	2, 0x6269
  12:	2f636367          	.insn	4, 0x2f636367
  16:	666e6f63          	bltu	x28,x6,694 <_stack_size+0x594>
  1a:	6769                	.insn	2, 0x6769
  1c:	7369722f          	.insn	4, 0x7369722f
  20:	6d2f7663          	bgeu	x30,x18,6ec <_stack_size+0x5ec>
  24:	6c75                	.insn	2, 0x6c75
  26:	6964                	.insn	2, 0x6964
  28:	00532e33          	slt	x28,x6,x5
  2c:	6d6f682f          	.insn	4, 0x6d6f682f
  30:	2f65                	.insn	2, 0x2f65
  32:	6f6e7473          	.insn	4, 0x6f6e7473
  36:	746c                	.insn	2, 0x746c
  38:	6e69                	.insn	2, 0x6e69
  3a:	6d742f67          	.insn	4, 0x6d742f67
  3e:	2f70                	.insn	2, 0x2f70
  40:	7672                	.insn	2, 0x7672
  42:	2f636367          	.insn	4, 0x2f636367
  46:	6972                	.insn	2, 0x6972
  48:	2d766373          	.insn	4, 0x2d766373
  4c:	2d756e67          	.insn	4, 0x2d756e67
  50:	6f74                	.insn	2, 0x6f74
  52:	68636c6f          	jal	x24,366d8 <_heap_size+0x326d8>
  56:	6961                	.insn	2, 0x6961
  58:	2f6e                	.insn	2, 0x2f6e
  5a:	7562                	.insn	2, 0x7562
  5c:	6c69                	.insn	2, 0x6c69
  5e:	2d64                	.insn	2, 0x2d64
  60:	2d636367          	.insn	4, 0x2d636367
  64:	656e                	.insn	2, 0x656e
  66:	62696c77          	.insn	4, 0x62696c77
  6a:	732d                	.insn	2, 0x732d
  6c:	6174                	.insn	2, 0x6174
  6e:	2f326567          	.insn	4, 0x2f326567
  72:	6972                	.insn	2, 0x6972
  74:	33766373          	.insn	4, 0x33766373
  78:	2d32                	.insn	2, 0x2d32
  7a:	6e75                	.insn	2, 0x6e75
  7c:	776f6e6b          	.insn	4, 0x776f6e6b
  80:	2d6e                	.insn	2, 0x2d6e
  82:	6c65                	.insn	2, 0x6c65
  84:	2f66                	.insn	2, 0x2f66
  86:	696c                	.insn	2, 0x696c
  88:	6762                	.insn	2, 0x6762
  8a:	47006363          	bltu	x0,x16,4f0 <_stack_size+0x3f0>
  8e:	554e                	.insn	2, 0x554e
  90:	4120                	.insn	2, 0x4120
  92:	2e322053          	.insn	4, 0x2e322053
  96:	3134                	.insn	2, 0x3134
  98:	5f00                	.insn	2, 0x5f00
  9a:	6d5f 6c75 6973      	.insn	6, 0x69736c756d5f
  a0:	57440033          	.insn	4, 0x57440033
  a4:	75727473          	.insn	4, 0x75727473
  a8:	77007463          	bgeu	x0,x16,810 <_stack_size+0x710>
  ac:	685f 6769 5f68      	.insn	6, 0x5f686769685f
  b2:	6d74                	.insn	2, 0x6d74
  b4:	0070                	.insn	2, 0x0070
  b6:	5744                	.insn	2, 0x5744
  b8:	6e75                	.insn	2, 0x6e75
  ba:	6f69                	.insn	2, 0x6f69
  bc:	006e                	.insn	2, 0x006e
  be:	5f5f 706f 0030      	.insn	6, 0x0030706f5f5f
  c4:	5f5f 706f 0031      	.insn	6, 0x0031706f5f5f
  ca:	69685f77          	.insn	4, 0x69685f77
  ce:	745f6867          	.insn	4, 0x745f6867
  d2:	706d                	.insn	2, 0x706d
  d4:	7832                	.insn	2, 0x7832
  d6:	6300                	.insn	2, 0x6300
  d8:	6c706d6f          	jal	x26,6f9e <_heap_size+0x2f9e>
  dc:	7865                	.insn	2, 0x7865
  de:	5f20                	.insn	2, 0x5f20
  e0:	6c46                	.insn	2, 0x6c46
  e2:	3174616f          	jal	x2,46bf8 <_heap_size+0x42bf8>
  e6:	0036                	.insn	2, 0x0036
  e8:	72726163          	bltu	x4,x7,80a <_stack_size+0x70a>
  ec:	0079                	.insn	2, 0x0079
  ee:	5355                	.insn	2, 0x5355
  f0:	7449                	.insn	2, 0x7449
  f2:	7079                	.insn	2, 0x7079
  f4:	0065                	.insn	2, 0x0065
  f6:	5f75                	.insn	2, 0x5f75
  f8:	6f6c                	.insn	2, 0x6f6c
  fa:	736d5f77          	.insn	4, 0x736d5f77
  fe:	0062                	.insn	2, 0x0062
 100:	6e75                	.insn	2, 0x6e75
 102:	6e676973          	.insn	4, 0x6e676973
 106:	6465                	.insn	2, 0x6465
 108:	6320                	.insn	2, 0x6320
 10a:	6168                	.insn	2, 0x6168
 10c:	0072                	.insn	2, 0x0072
 10e:	5f5f 756d 646c      	.insn	6, 0x646c756d5f5f
 114:	3369                	.insn	2, 0x3369
 116:	6c00                	.insn	2, 0x6c00
 118:	20676e6f          	jal	x28,7631e <_heap_size+0x7231e>
 11c:	6f6c                	.insn	2, 0x6f6c
 11e:	676e                	.insn	2, 0x676e
 120:	7520                	.insn	2, 0x7520
 122:	736e                	.insn	2, 0x736e
 124:	6769                	.insn	2, 0x6769
 126:	656e                	.insn	2, 0x656e
 128:	2064                	.insn	2, 0x2064
 12a:	6e69                	.insn	2, 0x6e69
 12c:	0074                	.insn	2, 0x0074
 12e:	726f6873          	.insn	4, 0x726f6873
 132:	2074                	.insn	2, 0x2074
 134:	6e75                	.insn	2, 0x6e75
 136:	6e676973          	.insn	4, 0x6e676973
 13a:	6465                	.insn	2, 0x6465
 13c:	6920                	.insn	2, 0x6920
 13e:	746e                	.insn	2, 0x746e
 140:	7500                	.insn	2, 0x7500
 142:	6c5f 776f 7600      	.insn	6, 0x7600776f6c5f
 148:	6c5f 776f 6300      	.insn	6, 0x6300776f6c5f
 14e:	6c706d6f          	jal	x26,7014 <_heap_size+0x3014>
 152:	7865                	.insn	2, 0x7865
 154:	6c20                	.insn	2, 0x6c20
 156:	20676e6f          	jal	x28,7635c <_heap_size+0x7235c>
 15a:	6f64                	.insn	2, 0x6f64
 15c:	6275                	.insn	2, 0x6275
 15e:	656c                	.insn	2, 0x656c
 160:	7700                	.insn	2, 0x7700
 162:	685f 6769 0068      	.insn	6, 0x00686769685f
 168:	706d6f63          	bltu	x26,x6,886 <_stack_size+0x786>
 16c:	656c                	.insn	2, 0x656c
 16e:	2078                	.insn	2, 0x2078
 170:	6c66                	.insn	2, 0x6c66
 172:	0074616f          	jal	x2,46978 <_heap_size+0x42978>
 176:	6f6c                	.insn	2, 0x6f6c
 178:	676e                	.insn	2, 0x676e
 17a:	6c20                	.insn	2, 0x6c20
 17c:	20676e6f          	jal	x28,76382 <_heap_size+0x72382>
 180:	6e69                	.insn	2, 0x6e69
 182:	0074                	.insn	2, 0x0074
 184:	20554e47          	.insn	4, 0x20554e47
 188:	20373143          	.insn	4, 0x20373143
 18c:	3331                	.insn	2, 0x3331
 18e:	322e                	.insn	2, 0x322e
 190:	302e                	.insn	2, 0x302e
 192:	2d20                	.insn	2, 0x2d20
 194:	636d                	.insn	2, 0x636d
 196:	6f6d                	.insn	2, 0x6f6d
 198:	6564                	.insn	2, 0x6564
 19a:	3d6c                	.insn	2, 0x3d6c
 19c:	656d                	.insn	2, 0x656d
 19e:	6c64                	.insn	2, 0x6c64
 1a0:	2d20776f          	jal	x14,7472 <_heap_size+0x3472>
 1a4:	636d                	.insn	2, 0x636d
 1a6:	6f6d                	.insn	2, 0x6f6d
 1a8:	6564                	.insn	2, 0x6564
 1aa:	3d6c                	.insn	2, 0x3d6c
 1ac:	656d                	.insn	2, 0x656d
 1ae:	6c64                	.insn	2, 0x6c64
 1b0:	2d20776f          	jal	x14,7482 <_heap_size+0x3482>
 1b4:	746d                	.insn	2, 0x746d
 1b6:	6e75                	.insn	2, 0x6e75
 1b8:	3d65                	.insn	2, 0x3d65
 1ba:	6f72                	.insn	2, 0x6f72
 1bc:	74656b63          	bltu	x10,x6,912 <_stack_size+0x812>
 1c0:	2d20                	.insn	2, 0x2d20
 1c2:	616d                	.insn	2, 0x616d
 1c4:	6962                	.insn	2, 0x6962
 1c6:	693d                	.insn	2, 0x693d
 1c8:	706c                	.insn	2, 0x706c
 1ca:	2d203233          	.insn	4, 0x2d203233
 1ce:	696d                	.insn	2, 0x696d
 1d0:	732d6173          	.insn	4, 0x732d6173
 1d4:	6570                	.insn	2, 0x6570
 1d6:	30323d63          	.insn	4, 0x30323d63
 1da:	3931                	.insn	2, 0x3931
 1dc:	3231                	.insn	2, 0x3231
 1de:	3331                	.insn	2, 0x3331
 1e0:	2d20                	.insn	2, 0x2d20
 1e2:	616d                	.insn	2, 0x616d
 1e4:	6372                	.insn	2, 0x6372
 1e6:	3d68                	.insn	2, 0x3d68
 1e8:	7672                	.insn	2, 0x7672
 1ea:	20693233          	.insn	4, 0x20693233
 1ee:	672d                	.insn	2, 0x672d
 1f0:	2d20                	.insn	2, 0x2d20
 1f2:	2d20734f          	.insn	4, 0x2d20734f
 1f6:	2d20324f          	.insn	4, 0x2d20324f
 1fa:	2d20734f          	.insn	4, 0x2d20734f
 1fe:	6266                	.insn	2, 0x6266
 200:	6975                	.insn	2, 0x6975
 202:	646c                	.insn	2, 0x646c
 204:	6e69                	.insn	2, 0x6e69
 206:	696c2d67          	.insn	4, 0x696c2d67
 20a:	6762                	.insn	2, 0x6762
 20c:	2d206363          	bltu	x0,x18,4d2 <_stack_size+0x3d2>
 210:	6e66                	.insn	2, 0x6e66
 212:	74732d6f          	jal	x26,33158 <_heap_size+0x2f158>
 216:	6361                	.insn	2, 0x6361
 218:	72702d6b          	.insn	4, 0x72702d6b
 21c:	6365746f          	jal	x8,57852 <_heap_size+0x53852>
 220:	6f74                	.insn	2, 0x6f74
 222:	2072                	.insn	2, 0x2072
 224:	662d                	.insn	2, 0x662d
 226:	6976                	.insn	2, 0x6976
 228:	69626973          	.insn	4, 0x69626973
 22c:	696c                	.insn	2, 0x696c
 22e:	7974                	.insn	2, 0x7974
 230:	683d                	.insn	2, 0x683d
 232:	6469                	.insn	2, 0x6469
 234:	6564                	.insn	2, 0x6564
 236:	006e                	.insn	2, 0x006e
 238:	726f6873          	.insn	4, 0x726f6873
 23c:	2074                	.insn	2, 0x2074
 23e:	6e69                	.insn	2, 0x6e69
 240:	0074                	.insn	2, 0x0074
 242:	706d6f63          	bltu	x26,x6,960 <_stack_size+0x860>
 246:	656c                	.insn	2, 0x656c
 248:	2078                	.insn	2, 0x2078
 24a:	6f64                	.insn	2, 0x6f64
 24c:	6275                	.insn	2, 0x6275
 24e:	656c                	.insn	2, 0x656c
 250:	6e00                	.insn	2, 0x6e00
 252:	7765                	.insn	2, 0x7765
 254:	775f 6c5f 776f      	.insn	6, 0x776f6c5f775f
 25a:	4400                	.insn	2, 0x4400
 25c:	7449                	.insn	2, 0x7449
 25e:	7079                	.insn	2, 0x7079
 260:	0065                	.insn	2, 0x0065

Disassembly of section .debug_loclists:

00000000 <.debug_loclists>:
   0:	00bc                	.insn	2, 0x00bc
   2:	0000                	.insn	2, 0x
   4:	0005                	.insn	2, 0x0005
   6:	0004                	.insn	2, 0x0004
   8:	0000                	.insn	2, 0x
   a:	0000                	.insn	2, 0x
   c:	0004                	.insn	2, 0x0004
   e:	0614                	.insn	2, 0x0614
  10:	935a                	.insn	2, 0x935a
  12:	5b04                	.insn	2, 0x5b04
  14:	14040493          	addi	x9,x8,320
  18:	018c                	.insn	2, 0x018c
  1a:	a306                	.insn	2, 0xa306
  1c:	260aa503          	lw	x10,608(x21)
  20:	009f 0004 0628      	.insn	6, 0x06280004009f
  26:	935c                	.insn	2, 0x935c
  28:	5d04                	.insn	2, 0x5d04
  2a:	28040493          	addi	x9,x8,640
  2e:	018c                	.insn	2, 0x018c
  30:	a306                	.insn	2, 0xa306
  32:	260ca503          	lw	x10,608(x25)
  36:	009f 1804 0154      	.insn	6, 0x01541804009f
  3c:	0061                	.insn	2, 0x0061
  3e:	1804                	.insn	2, 0x1804
  40:	0128                	.insn	2, 0x0128
  42:	045a                	.insn	2, 0x045a
  44:	6028                	.insn	2, 0x6028
  46:	5d01                	.insn	2, 0x5d01
  48:	0400                	.insn	2, 0x0400
  4a:	2818                	.insn	2, 0x2818
  4c:	3002                	.insn	2, 0x3002
  4e:	049f 8c28 0101      	.insn	6, 0x01018c28049f
  54:	0060                	.insn	2, 0x0060
  56:	2804                	.insn	2, 0x2804
  58:	0638                	.insn	2, 0x0638
  5a:	0081                	.insn	2, 0x0081
  5c:	0080                	.insn	2, 0x0080
  5e:	9f22                	.insn	2, 0x9f22
  60:	3804                	.insn	2, 0x3804
  62:	0144                	.insn	2, 0x0144
  64:	0060                	.insn	2, 0x0060
  66:	1804                	.insn	2, 0x1804
  68:	0228                	.insn	2, 0x0228
  6a:	9f30                	.insn	2, 0x9f30
  6c:	2804                	.insn	2, 0x2804
  6e:	013c                	.insn	2, 0x013c
  70:	045f 6444 5f01      	.insn	6, 0x5f016444045f
  76:	0400                	.insn	2, 0x0400
  78:	2818                	.insn	2, 0x2818
  7a:	3002                	.insn	2, 0x3002
  7c:	049f 3028 5e01      	.insn	6, 0x5e013028049f
  82:	3004                	.insn	2, 0x3004
  84:	063c                	.insn	2, 0x063c
  86:	007f 007e 9f22 3c04 	.insn	10, 0x01443c049f22007e007f
  8e:	0144 
  90:	045f 8c54 0101      	.insn	6, 0x01018c54045f
  96:	005e                	.insn	2, 0x005e
  98:	3004                	.insn	2, 0x3004
  9a:	0160                	.insn	2, 0x0160
  9c:	005c                	.insn	2, 0x005c
  9e:	3804                	.insn	2, 0x3804
  a0:	1140                	.insn	2, 0x1140
  a2:	0080                	.insn	2, 0x0080
  a4:	4b40                	.insn	2, 0x4b40
  a6:	2224                	.insn	2, 0x2224
  a8:	0081                	.insn	2, 0x0081
  aa:	4b40                	.insn	2, 0x4b40
  ac:	2224                	.insn	2, 0x2224
  ae:	082d                	.insn	2, 0x082d
  b0:	049f1aff 7e084440 	.insn	12, 0x082e30007e084440049f1aff
  b8:	082e3000 
  bc:	Address 0xbc is out of bounds.


Disassembly of section .debug_frame:

00000000 <.debug_frame>:
   0:	000c                	.insn	2, 0x000c
   2:	0000                	.insn	2, 0x
   4:	ffff                	.insn	2, 0xffff
   6:	ffff                	.insn	2, 0xffff
   8:	7c010003          	lb	x0,1984(x2) # 120117c4 <SYSCALL_ADDR+0x100017c4>
   c:	0d01                	.insn	2, 0x0d01
   e:	0002                	.insn	2, 0x0002
  10:	0018                	.insn	2, 0x0018
  12:	0000                	.insn	2, 0x
  14:	0000                	.insn	2, 0x
  16:	0000                	.insn	2, 0x
  18:	07c0                	.insn	2, 0x07c0
  1a:	8000                	.insn	2, 0x8000
  1c:	008c                	.insn	2, 0x008c
  1e:	0000                	.insn	2, 0x
  20:	0e48                	.insn	2, 0x0e48
  22:	4810                	.insn	2, 0x4810
  24:	0181                	.insn	2, 0x0181
  26:	6c02                	.insn	2, 0x6c02
  28:	4cc1                	.insn	2, 0x4cc1
  2a:	000e                	.insn	2, 0x000e
