
bd/src/tarfind/tarfind:     Dateiformat elf32-littleriscv


Disassembly of section .text:

80000000 <initSection>:
80000000:	000070b3          	and	x1,x0,x0
80000004:	00007133          	and	x2,x0,x0
80000008:	000071b3          	and	x3,x0,x0
8000000c:	00007233          	and	x4,x0,x0
80000010:	000072b3          	and	x5,x0,x0
80000014:	00007333          	and	x6,x0,x0
80000018:	000073b3          	and	x7,x0,x0
8000001c:	00007433          	and	x8,x0,x0
80000020:	000074b3          	and	x9,x0,x0
80000024:	00007533          	and	x10,x0,x0
80000028:	000075b3          	and	x11,x0,x0
8000002c:	00007633          	and	x12,x0,x0
80000030:	000076b3          	and	x13,x0,x0
80000034:	00007733          	and	x14,x0,x0
80000038:	000077b3          	and	x15,x0,x0
8000003c:	00007833          	and	x16,x0,x0
80000040:	000078b3          	and	x17,x0,x0
80000044:	00007933          	and	x18,x0,x0
80000048:	000079b3          	and	x19,x0,x0
8000004c:	00007a33          	and	x20,x0,x0
80000050:	00007ab3          	and	x21,x0,x0
80000054:	00007b33          	and	x22,x0,x0
80000058:	00007bb3          	and	x23,x0,x0
8000005c:	00007c33          	and	x24,x0,x0
80000060:	00007cb3          	and	x25,x0,x0
80000064:	00007d33          	and	x26,x0,x0
80000068:	00007db3          	and	x27,x0,x0
8000006c:	00007e33          	and	x28,x0,x0
80000070:	00007eb3          	and	x29,x0,x0
80000074:	00007f33          	and	x30,x0,x0
80000078:	00007fb3          	and	x31,x0,x0
8000007c:	00101117          	auipc	x2,0x101
80000080:	f8410113          	addi	x2,x2,-124 # 80101000 <__sglue>
80000084:	020000ef          	jal	x1,800000a4 <main>

80000088 <sys_end>:
80000088:	05d00893          	addi	x17,x0,93
8000008c:	00000513          	addi	x10,x0,0
80000090:	020102b7          	lui	x5,0x2010
80000094:	f1402873          	csrrs	x16,mhartid,x0
80000098:	0102a023          	sw	x16,0(x5) # 2010000 <SYSCALL_ADDR>
8000009c:	0112a023          	sw	x17,0(x5)
800000a0:	fe9ff06f          	jal	x0,80000088 <sys_end>

800000a4 <main>:
800000a4:	fe010113          	addi	x2,x2,-32
800000a8:	00112e23          	sw	x1,28(x2)
800000ac:	1e8000ef          	jal	x1,80000294 <initialise_board>
800000b0:	1c8000ef          	jal	x1,80000278 <initialise_benchmark>
800000b4:	00100513          	addi	x10,x0,1
800000b8:	1c4000ef          	jal	x1,8000027c <warm_caches>
800000bc:	1e0000ef          	jal	x1,8000029c <start_trigger>
800000c0:	1c0000ef          	jal	x1,80000280 <benchmark>
800000c4:	00a12623          	sw	x10,12(x2)
800000c8:	1e4000ef          	jal	x1,800002ac <stop_trigger>
800000cc:	00c12503          	lw	x10,12(x2)
800000d0:	1b8000ef          	jal	x1,80000288 <verify_benchmark>
800000d4:	01c12083          	lw	x1,28(x2)
800000d8:	00153513          	sltiu	x10,x10,1
800000dc:	02010113          	addi	x2,x2,32
800000e0:	00008067          	jalr	x0,0(x1)

800000e4 <benchmark_body>:
800000e4:	fb010113          	addi	x2,x2,-80
800000e8:	05212023          	sw	x18,64(x2)
800000ec:	03512a23          	sw	x21,52(x2)
800000f0:	03612823          	sw	x22,48(x2)
800000f4:	03712623          	sw	x23,44(x2)
800000f8:	00002ab7          	lui	x21,0x2
800000fc:	00002937          	lui	x18,0x2
80000100:	00001b37          	lui	x22,0x1
80000104:	00001bb7          	lui	x23,0x1
80000108:	03312e23          	sw	x19,60(x2)
8000010c:	03812423          	sw	x24,40(x2)
80000110:	03912223          	sw	x25,36(x2)
80000114:	03a12023          	sw	x26,32(x2)
80000118:	04112623          	sw	x1,76(x2)
8000011c:	04812423          	sw	x8,72(x2)
80000120:	04912223          	sw	x9,68(x2)
80000124:	03412c23          	sw	x20,56(x2)
80000128:	01b12e23          	sw	x27,28(x2)
8000012c:	00a12423          	sw	x10,8(x2)
80000130:	00000993          	addi	x19,x0,0
80000134:	324a8a93          	addi	x21,x21,804 # 2324 <_stack_size+0x1324>
80000138:	80102cb7          	lui	x25,0x80102
8000013c:	32390913          	addi	x18,x18,803 # 2323 <_stack_size+0x1323>
80000140:	03000c13          	addi	x24,x0,48
80000144:	02800d13          	addi	x26,x0,40
80000148:	111b0b13          	addi	x22,x22,273 # 1111 <_stack_size+0x111>
8000014c:	616b8b93          	addi	x23,x23,1558 # 1616 <_stack_size+0x616>
80000150:	00812783          	lw	x15,8(x2)
80000154:	04f9c463          	blt	x19,x15,8000019c <benchmark_body+0xb8>
80000158:	04c12083          	lw	x1,76(x2)
8000015c:	04812403          	lw	x8,72(x2)
80000160:	ffb48513          	addi	x10,x9,-5
80000164:	04012903          	lw	x18,64(x2)
80000168:	04412483          	lw	x9,68(x2)
8000016c:	03c12983          	lw	x19,60(x2)
80000170:	03812a03          	lw	x20,56(x2)
80000174:	03412a83          	lw	x21,52(x2)
80000178:	03012b03          	lw	x22,48(x2)
8000017c:	02c12b83          	lw	x23,44(x2)
80000180:	02812c03          	lw	x24,40(x2)
80000184:	02412c83          	lw	x25,36(x2)
80000188:	02012d03          	lw	x26,32(x2)
8000018c:	01c12d83          	lw	x27,28(x2)
80000190:	00153513          	sltiu	x10,x10,1
80000194:	05010113          	addi	x2,x2,80
80000198:	00008067          	jalr	x0,0(x1)
8000019c:	000a8593          	addi	x11,x21,0
800001a0:	b20c8513          	addi	x10,x25,-1248 # 80101b20 <heap>
800001a4:	16c000ef          	jal	x1,80000310 <init_heap_beebs>
800001a8:	00090513          	addi	x10,x18,0
800001ac:	1d4000ef          	jal	x1,80000380 <malloc_beebs>
800001b0:	00050413          	addi	x8,x10,0
800001b4:	00050493          	addi	x9,x10,0
800001b8:	00500d93          	addi	x27,x0,5
800001bc:	10100613          	addi	x12,x0,257
800001c0:	00000593          	addi	x11,x0,0
800001c4:	00048513          	addi	x10,x9,0
800001c8:	7d8020ef          	jal	x1,800029a0 <memset>
800001cc:	00000a13          	addi	x20,x0,0
800001d0:	09848e23          	sb	x24,156(x9)
800001d4:	0e4000ef          	jal	x1,800002b8 <rand_beebs>
800001d8:	01448733          	add	x14,x9,x20
800001dc:	01a00593          	addi	x11,x0,26
800001e0:	00e12623          	sw	x14,12(x2)
800001e4:	348000ef          	jal	x1,8000052c <__modsi3>
800001e8:	00c12703          	lw	x14,12(x2)
800001ec:	04150513          	addi	x10,x10,65
800001f0:	001a0a13          	addi	x20,x20,1
800001f4:	00a70023          	sb	x10,0(x14)
800001f8:	fdba4ee3          	blt	x20,x27,800001d4 <benchmark_body+0xf0>
800001fc:	07848e23          	sb	x24,124(x9)
80000200:	001d8d93          	addi	x27,x27,1
80000204:	10148493          	addi	x9,x9,257
80000208:	fbad9ae3          	bne	x27,x26,800001bc <benchmark_body+0xd8>
8000020c:	016407b3          	add	x15,x8,x22
80000210:	017408b3          	add	x17,x8,x23
80000214:	00000493          	addi	x9,x0,0
80000218:	01240833          	add	x16,x8,x18
8000021c:	00040693          	addi	x13,x8,0
80000220:	00068613          	addi	x12,x13,0
80000224:	00078713          	addi	x14,x15,0
80000228:	00064503          	lbu	x10,0(x12)
8000022c:	02050463          	beq	x10,x0,80000254 <benchmark_body+0x170>
80000230:	00074583          	lbu	x11,0(x14)
80000234:	00058463          	beq	x11,x0,8000023c <benchmark_body+0x158>
80000238:	00b50863          	beq	x10,x11,80000248 <benchmark_body+0x164>
8000023c:	10168693          	addi	x13,x13,257
80000240:	ff0690e3          	bne	x13,x16,80000220 <benchmark_body+0x13c>
80000244:	01c0006f          	jal	x0,80000260 <benchmark_body+0x17c>
80000248:	00160613          	addi	x12,x12,1
8000024c:	00170713          	addi	x14,x14,1
80000250:	fd9ff06f          	jal	x0,80000228 <benchmark_body+0x144>
80000254:	00074703          	lbu	x14,0(x14)
80000258:	fe0712e3          	bne	x14,x0,8000023c <benchmark_body+0x158>
8000025c:	00148493          	addi	x9,x9,1
80000260:	10178793          	addi	x15,x15,257
80000264:	fb179ce3          	bne	x15,x17,8000021c <benchmark_body+0x138>
80000268:	00040513          	addi	x10,x8,0
8000026c:	214000ef          	jal	x1,80000480 <free_beebs>
80000270:	00198993          	addi	x19,x19,1
80000274:	eddff06f          	jal	x0,80000150 <benchmark_body+0x6c>

80000278 <initialise_benchmark>:
80000278:	00008067          	jalr	x0,0(x1)

8000027c <warm_caches>:
8000027c:	e69ff06f          	jal	x0,800000e4 <benchmark_body>

80000280 <benchmark>:
80000280:	00500513          	addi	x10,x0,5
80000284:	e61ff06f          	jal	x0,800000e4 <benchmark_body>

80000288 <verify_benchmark>:
80000288:	fff50513          	addi	x10,x10,-1
8000028c:	00153513          	sltiu	x10,x10,1
80000290:	00008067          	jalr	x0,0(x1)

80000294 <initialise_board>:
80000294:	00000513          	addi	x10,x0,0
80000298:	00008067          	jalr	x0,0(x1)

8000029c <start_trigger>:
8000029c:	00000513          	addi	x10,x0,0
800002a0:	deadc2b7          	lui	x5,0xdeadc
800002a4:	eef28293          	addi	x5,x5,-273 # deadbeef <_end+0x5e9d6f1f>
800002a8:	00008067          	jalr	x0,0(x1)

800002ac <stop_trigger>:
800002ac:	beefe2b7          	lui	x5,0xbeefe
800002b0:	ead28293          	addi	x5,x5,-339 # beefdead <_end+0x3edf8edd>
800002b4:	00008067          	jalr	x0,0(x1)

800002b8 <rand_beebs>:
800002b8:	ff010113          	addi	x2,x2,-16
800002bc:	00812423          	sw	x8,8(x2)
800002c0:	80104437          	lui	x8,0x80104
800002c4:	fb042503          	lw	x10,-80(x8) # 80103fb0 <seed>
800002c8:	41c655b7          	lui	x11,0x41c65
800002cc:	e6d58593          	addi	x11,x11,-403 # 41c64e6d <SYSCALL_ADDR+0x3fc54e6d>
800002d0:	00112623          	sw	x1,12(x2)
800002d4:	1b0000ef          	jal	x1,80000484 <__mulsi3>
800002d8:	000037b7          	lui	x15,0x3
800002dc:	03978793          	addi	x15,x15,57 # 3039 <_stack_size+0x2039>
800002e0:	00f50533          	add	x10,x10,x15
800002e4:	00151513          	slli	x10,x10,0x1
800002e8:	00155513          	srli	x10,x10,0x1
800002ec:	faa42823          	sw	x10,-80(x8)
800002f0:	00c12083          	lw	x1,12(x2)
800002f4:	00812403          	lw	x8,8(x2)
800002f8:	01055513          	srli	x10,x10,0x10
800002fc:	01010113          	addi	x2,x2,16
80000300:	00008067          	jalr	x0,0(x1)

80000304 <srand_beebs>:
80000304:	801047b7          	lui	x15,0x80104
80000308:	faa7a823          	sw	x10,-80(x15) # 80103fb0 <seed>
8000030c:	00008067          	jalr	x0,0(x1)

80000310 <init_heap_beebs>:
80000310:	0035f793          	andi	x15,x11,3
80000314:	02078663          	beq	x15,x0,80000340 <init_heap_beebs+0x30>
80000318:	801016b7          	lui	x13,0x80101
8000031c:	80101637          	lui	x12,0x80101
80000320:	80101537          	lui	x10,0x80101
80000324:	ff010113          	addi	x2,x2,-16
80000328:	6b068693          	addi	x13,x13,1712 # 801016b0 <__malloc_trim_threshold+0x4>
8000032c:	78060613          	addi	x12,x12,1920 # 80101780 <__func__.0>
80000330:	04100593          	addi	x11,x0,65
80000334:	6d050513          	addi	x10,x10,1744 # 801016d0 <__malloc_trim_threshold+0x24>
80000338:	00112623          	sw	x1,12(x2)
8000033c:	220000ef          	jal	x1,8000055c <__assert_func>
80000340:	801047b7          	lui	x15,0x80104
80000344:	faa7a623          	sw	x10,-84(x15) # 80103fac <heap_ptr>
80000348:	801047b7          	lui	x15,0x80104
8000034c:	00b50533          	add	x10,x10,x11
80000350:	faa7a423          	sw	x10,-88(x15) # 80103fa8 <heap_end>
80000354:	801047b7          	lui	x15,0x80104
80000358:	fa07a223          	sw	x0,-92(x15) # 80103fa4 <heap_requested>
8000035c:	00008067          	jalr	x0,0(x1)

80000360 <check_heap_beebs>:
80000360:	801047b7          	lui	x15,0x80104
80000364:	fa47a783          	lw	x15,-92(x15) # 80103fa4 <heap_requested>
80000368:	80104737          	lui	x14,0x80104
8000036c:	00f507b3          	add	x15,x10,x15
80000370:	fa872503          	lw	x10,-88(x14) # 80103fa8 <heap_end>
80000374:	00f53533          	sltu	x10,x10,x15
80000378:	00154513          	xori	x10,x10,1
8000037c:	00008067          	jalr	x0,0(x1)

80000380 <malloc_beebs>:
80000380:	00050793          	addi	x15,x10,0
80000384:	00051663          	bne	x10,x0,80000390 <malloc_beebs+0x10>
80000388:	00000513          	addi	x10,x0,0
8000038c:	00008067          	jalr	x0,0(x1)
80000390:	80104637          	lui	x12,0x80104
80000394:	fac62503          	lw	x10,-84(x12) # 80103fac <heap_ptr>
80000398:	801045b7          	lui	x11,0x80104
8000039c:	fa45a683          	lw	x13,-92(x11) # 80103fa4 <heap_requested>
800003a0:	00f50733          	add	x14,x10,x15
800003a4:	00377813          	andi	x16,x14,3
800003a8:	00d787b3          	add	x15,x15,x13
800003ac:	00080a63          	beq	x16,x0,800003c0 <malloc_beebs+0x40>
800003b0:	00400693          	addi	x13,x0,4
800003b4:	410686b3          	sub	x13,x13,x16
800003b8:	00d70733          	add	x14,x14,x13
800003bc:	00d787b3          	add	x15,x15,x13
800003c0:	faf5a223          	sw	x15,-92(x11)
800003c4:	801047b7          	lui	x15,0x80104
800003c8:	fa87a783          	lw	x15,-88(x15) # 80103fa8 <heap_end>
800003cc:	fae7eee3          	bltu	x15,x14,80000388 <malloc_beebs+0x8>
800003d0:	fae62623          	sw	x14,-84(x12)
800003d4:	00008067          	jalr	x0,0(x1)

800003d8 <calloc_beebs>:
800003d8:	fe010113          	addi	x2,x2,-32
800003dc:	00112e23          	sw	x1,28(x2)
800003e0:	00812c23          	sw	x8,24(x2)
800003e4:	0a0000ef          	jal	x1,80000484 <__mulsi3>
800003e8:	00a12623          	sw	x10,12(x2)
800003ec:	f95ff0ef          	jal	x1,80000380 <malloc_beebs>
800003f0:	00050413          	addi	x8,x10,0
800003f4:	00050863          	beq	x10,x0,80000404 <calloc_beebs+0x2c>
800003f8:	00c12603          	lw	x12,12(x2)
800003fc:	00000593          	addi	x11,x0,0
80000400:	5a0020ef          	jal	x1,800029a0 <memset>
80000404:	01c12083          	lw	x1,28(x2)
80000408:	00040513          	addi	x10,x8,0
8000040c:	01812403          	lw	x8,24(x2)
80000410:	02010113          	addi	x2,x2,32
80000414:	00008067          	jalr	x0,0(x1)

80000418 <realloc_beebs>:
80000418:	00051663          	bne	x10,x0,80000424 <realloc_beebs+0xc>
8000041c:	00000513          	addi	x10,x0,0
80000420:	00008067          	jalr	x0,0(x1)
80000424:	ff010113          	addi	x2,x2,-16
80000428:	00912223          	sw	x9,4(x2)
8000042c:	00050493          	addi	x9,x10,0
80000430:	00058513          	addi	x10,x11,0
80000434:	00812423          	sw	x8,8(x2)
80000438:	00112623          	sw	x1,12(x2)
8000043c:	00058413          	addi	x8,x11,0
80000440:	f41ff0ef          	jal	x1,80000380 <malloc_beebs>
80000444:	00000793          	addi	x15,x0,0
80000448:	02051863          	bne	x10,x0,80000478 <realloc_beebs+0x60>
8000044c:	00000513          	addi	x10,x0,0
80000450:	00c12083          	lw	x1,12(x2)
80000454:	00812403          	lw	x8,8(x2)
80000458:	00412483          	lw	x9,4(x2)
8000045c:	01010113          	addi	x2,x2,16
80000460:	00008067          	jalr	x0,0(x1)
80000464:	00f48733          	add	x14,x9,x15
80000468:	00074683          	lbu	x13,0(x14)
8000046c:	00f50733          	add	x14,x10,x15
80000470:	00178793          	addi	x15,x15,1
80000474:	00d70023          	sb	x13,0(x14)
80000478:	fe8796e3          	bne	x15,x8,80000464 <realloc_beebs+0x4c>
8000047c:	fd5ff06f          	jal	x0,80000450 <realloc_beebs+0x38>

80000480 <free_beebs>:
80000480:	00008067          	jalr	x0,0(x1)

80000484 <__mulsi3>:
80000484:	00050613          	addi	x12,x10,0
80000488:	00000513          	addi	x10,x0,0
8000048c:	0015f693          	andi	x13,x11,1
80000490:	00068463          	beq	x13,x0,80000498 <__mulsi3+0x14>
80000494:	00c50533          	add	x10,x10,x12
80000498:	0015d593          	srli	x11,x11,0x1
8000049c:	00161613          	slli	x12,x12,0x1
800004a0:	fe0596e3          	bne	x11,x0,8000048c <__mulsi3+0x8>
800004a4:	00008067          	jalr	x0,0(x1)

800004a8 <__divsi3>:
800004a8:	06054063          	blt	x10,x0,80000508 <__umodsi3+0x10>
800004ac:	0605c663          	blt	x11,x0,80000518 <__umodsi3+0x20>

800004b0 <__hidden___udivsi3>:
800004b0:	00058613          	addi	x12,x11,0
800004b4:	00050593          	addi	x11,x10,0
800004b8:	fff00513          	addi	x10,x0,-1
800004bc:	02060c63          	beq	x12,x0,800004f4 <__hidden___udivsi3+0x44>
800004c0:	00100693          	addi	x13,x0,1
800004c4:	00b67a63          	bgeu	x12,x11,800004d8 <__hidden___udivsi3+0x28>
800004c8:	00c05863          	bge	x0,x12,800004d8 <__hidden___udivsi3+0x28>
800004cc:	00161613          	slli	x12,x12,0x1
800004d0:	00169693          	slli	x13,x13,0x1
800004d4:	feb66ae3          	bltu	x12,x11,800004c8 <__hidden___udivsi3+0x18>
800004d8:	00000513          	addi	x10,x0,0
800004dc:	00c5e663          	bltu	x11,x12,800004e8 <__hidden___udivsi3+0x38>
800004e0:	40c585b3          	sub	x11,x11,x12
800004e4:	00d56533          	or	x10,x10,x13
800004e8:	0016d693          	srli	x13,x13,0x1
800004ec:	00165613          	srli	x12,x12,0x1
800004f0:	fe0696e3          	bne	x13,x0,800004dc <__hidden___udivsi3+0x2c>
800004f4:	00008067          	jalr	x0,0(x1)

800004f8 <__umodsi3>:
800004f8:	00008293          	addi	x5,x1,0
800004fc:	fb5ff0ef          	jal	x1,800004b0 <__hidden___udivsi3>
80000500:	00058513          	addi	x10,x11,0
80000504:	00028067          	jalr	x0,0(x5)
80000508:	40a00533          	sub	x10,x0,x10
8000050c:	00b04863          	blt	x0,x11,8000051c <__umodsi3+0x24>
80000510:	40b005b3          	sub	x11,x0,x11
80000514:	f9dff06f          	jal	x0,800004b0 <__hidden___udivsi3>
80000518:	40b005b3          	sub	x11,x0,x11
8000051c:	00008293          	addi	x5,x1,0
80000520:	f91ff0ef          	jal	x1,800004b0 <__hidden___udivsi3>
80000524:	40a00533          	sub	x10,x0,x10
80000528:	00028067          	jalr	x0,0(x5)

8000052c <__modsi3>:
8000052c:	00008293          	addi	x5,x1,0
80000530:	0005ca63          	blt	x11,x0,80000544 <__modsi3+0x18>
80000534:	00054c63          	blt	x10,x0,8000054c <__modsi3+0x20>
80000538:	f79ff0ef          	jal	x1,800004b0 <__hidden___udivsi3>
8000053c:	00058513          	addi	x10,x11,0
80000540:	00028067          	jalr	x0,0(x5)
80000544:	40b005b3          	sub	x11,x0,x11
80000548:	fe0558e3          	bge	x10,x0,80000538 <__modsi3+0xc>
8000054c:	40a00533          	sub	x10,x0,x10
80000550:	f61ff0ef          	jal	x1,800004b0 <__hidden___udivsi3>
80000554:	40b00533          	sub	x10,x0,x11
80000558:	00028067          	jalr	x0,0(x5)

8000055c <__assert_func>:
8000055c:	801017b7          	lui	x15,0x80101
80000560:	6a47a703          	lw	x14,1700(x15) # 801016a4 <_impure_ptr>
80000564:	ff010113          	addi	x2,x2,-16
80000568:	00068793          	addi	x15,x13,0
8000056c:	00060813          	addi	x16,x12,0
80000570:	00112623          	sw	x1,12(x2)
80000574:	00c72883          	lw	x17,12(x14)
80000578:	00050693          	addi	x13,x10,0
8000057c:	00058713          	addi	x14,x11,0
80000580:	00078613          	addi	x12,x15,0
80000584:	02080063          	beq	x16,x0,800005a4 <__assert_func+0x48>
80000588:	801017b7          	lui	x15,0x80101
8000058c:	70078793          	addi	x15,x15,1792 # 80101700 <__malloc_trim_threshold+0x54>
80000590:	801015b7          	lui	x11,0x80101
80000594:	71058593          	addi	x11,x11,1808 # 80101710 <__malloc_trim_threshold+0x64>
80000598:	00088513          	addi	x10,x17,0
8000059c:	018000ef          	jal	x1,800005b4 <fiprintf>
800005a0:	70c020ef          	jal	x1,80002cac <abort>
800005a4:	80101837          	lui	x16,0x80101
800005a8:	70c80793          	addi	x15,x16,1804 # 8010170c <__malloc_trim_threshold+0x60>
800005ac:	70c80813          	addi	x16,x16,1804
800005b0:	fe1ff06f          	jal	x0,80000590 <__assert_func+0x34>

800005b4 <fiprintf>:
800005b4:	00050e13          	addi	x28,x10,0
800005b8:	80101537          	lui	x10,0x80101
800005bc:	fc010113          	addi	x2,x2,-64
800005c0:	6a452503          	lw	x10,1700(x10) # 801016a4 <_impure_ptr>
800005c4:	02810313          	addi	x6,x2,40
800005c8:	02c12423          	sw	x12,40(x2)
800005cc:	02d12623          	sw	x13,44(x2)
800005d0:	00058613          	addi	x12,x11,0
800005d4:	00030693          	addi	x13,x6,0
800005d8:	000e0593          	addi	x11,x28,0
800005dc:	00112e23          	sw	x1,28(x2)
800005e0:	02e12823          	sw	x14,48(x2)
800005e4:	02f12a23          	sw	x15,52(x2)
800005e8:	03012c23          	sw	x16,56(x2)
800005ec:	03112e23          	sw	x17,60(x2)
800005f0:	00612623          	sw	x6,12(x2)
800005f4:	010000ef          	jal	x1,80000604 <_vfiprintf_r>
800005f8:	01c12083          	lw	x1,28(x2)
800005fc:	04010113          	addi	x2,x2,64
80000600:	00008067          	jalr	x0,0(x1)

80000604 <_vfiprintf_r>:
80000604:	ed010113          	addi	x2,x2,-304
80000608:	12912223          	sw	x9,292(x2)
8000060c:	13212023          	sw	x18,288(x2)
80000610:	11312e23          	sw	x19,284(x2)
80000614:	11812423          	sw	x24,264(x2)
80000618:	12112623          	sw	x1,300(x2)
8000061c:	11612823          	sw	x22,272(x2)
80000620:	00050993          	addi	x19,x10,0
80000624:	00058493          	addi	x9,x11,0
80000628:	00060c13          	addi	x24,x12,0
8000062c:	00068913          	addi	x18,x13,0
80000630:	00050863          	beq	x10,x0,80000640 <_vfiprintf_r+0x3c>
80000634:	03452783          	lw	x15,52(x10)
80000638:	00079463          	bne	x15,x0,80000640 <_vfiprintf_r+0x3c>
8000063c:	7b10006f          	jal	x0,800015ec <_vfiprintf_r+0xfe8>
80000640:	00c49703          	lh	x14,12(x9)
80000644:	0644a783          	lw	x15,100(x9)
80000648:	01271693          	slli	x13,x14,0x12
8000064c:	0206c063          	blt	x13,x0,8000066c <_vfiprintf_r+0x68>
80000650:	ffffe6b7          	lui	x13,0xffffe
80000654:	fff68693          	addi	x13,x13,-1 # ffffdfff <_end+0x7fef902f>
80000658:	00002637          	lui	x12,0x2
8000065c:	00c76733          	or	x14,x14,x12
80000660:	00d7f7b3          	and	x15,x15,x13
80000664:	00e49623          	sh	x14,12(x9)
80000668:	06f4a223          	sw	x15,100(x9)
8000066c:	01279713          	slli	x14,x15,0x12
80000670:	00075463          	bge	x14,x0,80000678 <_vfiprintf_r+0x74>
80000674:	0800106f          	jal	x0,800016f4 <_vfiprintf_r+0x10f0>
80000678:	00c49783          	lh	x15,12(x9)
8000067c:	0087f713          	andi	x14,x15,8
80000680:	2a070063          	beq	x14,x0,80000920 <_vfiprintf_r+0x31c>
80000684:	0104a703          	lw	x14,16(x9)
80000688:	28070c63          	beq	x14,x0,80000920 <_vfiprintf_r+0x31c>
8000068c:	01a7f793          	andi	x15,x15,26
80000690:	00a00713          	addi	x14,x0,10
80000694:	2ae78663          	beq	x15,x14,80000940 <_vfiprintf_r+0x33c>
80000698:	80101737          	lui	x14,0x80101
8000069c:	11412c23          	sw	x20,280(x2)
800006a0:	11512a23          	sw	x21,276(x2)
800006a4:	04c10a13          	addi	x20,x2,76
800006a8:	00000b13          	addi	x22,x0,0
800006ac:	79070713          	addi	x14,x14,1936 # 80101790 <__func__.0+0x10>
800006b0:	80102ab7          	lui	x21,0x80102
800006b4:	12812423          	sw	x8,296(x2)
800006b8:	11912223          	sw	x25,260(x2)
800006bc:	11712623          	sw	x23,268(x2)
800006c0:	11a12023          	sw	x26,256(x2)
800006c4:	0fb12e23          	sw	x27,252(x2)
800006c8:	05412023          	sw	x20,64(x2)
800006cc:	04012423          	sw	x0,72(x2)
800006d0:	04012223          	sw	x0,68(x2)
800006d4:	000a0793          	addi	x15,x20,0
800006d8:	00012223          	sw	x0,4(x2)
800006dc:	00012c23          	sw	x0,24(x2)
800006e0:	00012e23          	sw	x0,28(x2)
800006e4:	02012023          	sw	x0,32(x2)
800006e8:	00e12023          	sw	x14,0(x2)
800006ec:	01000413          	addi	x8,x0,16
800006f0:	8fca8a93          	addi	x21,x21,-1796 # 801018fc <zeroes.0>
800006f4:	000b0c93          	addi	x25,x22,0
800006f8:	00090813          	addi	x16,x18,0
800006fc:	000c4703          	lbu	x14,0(x24)
80000700:	1e070063          	beq	x14,x0,800008e0 <_vfiprintf_r+0x2dc>
80000704:	000c0b93          	addi	x23,x24,0
80000708:	02500693          	addi	x13,x0,37
8000070c:	26d70663          	beq	x14,x13,80000978 <_vfiprintf_r+0x374>
80000710:	001bc703          	lbu	x14,1(x23)
80000714:	001b8b93          	addi	x23,x23,1
80000718:	fe071ae3          	bne	x14,x0,8000070c <_vfiprintf_r+0x108>
8000071c:	418b8933          	sub	x18,x23,x24
80000720:	1d8b8063          	beq	x23,x24,800008e0 <_vfiprintf_r+0x2dc>
80000724:	04812683          	lw	x13,72(x2)
80000728:	04412703          	lw	x14,68(x2)
8000072c:	0187a023          	sw	x24,0(x15)
80000730:	012686b3          	add	x13,x13,x18
80000734:	00170713          	addi	x14,x14,1
80000738:	0127a223          	sw	x18,4(x15)
8000073c:	04d12423          	sw	x13,72(x2)
80000740:	04e12223          	sw	x14,68(x2)
80000744:	00700693          	addi	x13,x0,7
80000748:	00878793          	addi	x15,x15,8
8000074c:	22e6ce63          	blt	x13,x14,80000988 <_vfiprintf_r+0x384>
80000750:	000bc703          	lbu	x14,0(x23)
80000754:	012c8cb3          	add	x25,x25,x18
80000758:	18070463          	beq	x14,x0,800008e0 <_vfiprintf_r+0x2dc>
8000075c:	00000313          	addi	x6,x0,0
80000760:	001bc703          	lbu	x14,1(x23)
80000764:	001b8c13          	addi	x24,x23,1
80000768:	02010da3          	sb	x0,59(x2)
8000076c:	fff00d13          	addi	x26,x0,-1
80000770:	00000b13          	addi	x22,x0,0
80000774:	05a00913          	addi	x18,x0,90
80000778:	00078b93          	addi	x23,x15,0
8000077c:	00030d93          	addi	x27,x6,0
80000780:	001c0c13          	addi	x24,x24,1
80000784:	00070613          	addi	x12,x14,0
80000788:	fe060693          	addi	x13,x12,-32 # 1fe0 <_stack_size+0xfe0>
8000078c:	04d96663          	bltu	x18,x13,800007d8 <_vfiprintf_r+0x1d4>
80000790:	00012783          	lw	x15,0(x2)
80000794:	00269693          	slli	x13,x13,0x2
80000798:	00f686b3          	add	x13,x13,x15
8000079c:	0006a703          	lw	x14,0(x13)
800007a0:	00070067          	jalr	x0,0(x14)
800007a4:	00000b13          	addi	x22,x0,0
800007a8:	fd060713          	addi	x14,x12,-48
800007ac:	00900593          	addi	x11,x0,9
800007b0:	000c4603          	lbu	x12,0(x24)
800007b4:	002b1693          	slli	x13,x22,0x2
800007b8:	01668b33          	add	x22,x13,x22
800007bc:	001b1b13          	slli	x22,x22,0x1
800007c0:	01670b33          	add	x22,x14,x22
800007c4:	fd060713          	addi	x14,x12,-48
800007c8:	001c0c13          	addi	x24,x24,1
800007cc:	fee5f2e3          	bgeu	x11,x14,800007b0 <_vfiprintf_r+0x1ac>
800007d0:	fe060693          	addi	x13,x12,-32
800007d4:	fad97ee3          	bgeu	x18,x13,80000790 <_vfiprintf_r+0x18c>
800007d8:	000b8793          	addi	x15,x23,0
800007dc:	000d8313          	addi	x6,x27,0
800007e0:	10060063          	beq	x12,x0,800008e0 <_vfiprintf_r+0x2dc>
800007e4:	08c10623          	sb	x12,140(x2)
800007e8:	02010da3          	sb	x0,59(x2)
800007ec:	00100d93          	addi	x27,x0,1
800007f0:	00100e93          	addi	x29,x0,1
800007f4:	08c10b93          	addi	x23,x2,140
800007f8:	00000d13          	addi	x26,x0,0
800007fc:	00000f93          	addi	x31,x0,0
80000800:	08437293          	andi	x5,x6,132
80000804:	04812683          	lw	x13,72(x2)
80000808:	04412703          	lw	x14,68(x2)
8000080c:	00029663          	bne	x5,x0,80000818 <_vfiprintf_r+0x214>
80000810:	41bb0933          	sub	x18,x22,x27
80000814:	1f204ee3          	blt	x0,x18,80001210 <_vfiprintf_r+0xc0c>
80000818:	03b14603          	lbu	x12,59(x2)
8000081c:	02060863          	beq	x12,x0,8000084c <_vfiprintf_r+0x248>
80000820:	03b10613          	addi	x12,x2,59
80000824:	00c7a023          	sw	x12,0(x15)
80000828:	00170713          	addi	x14,x14,1
8000082c:	00100613          	addi	x12,x0,1
80000830:	00168693          	addi	x13,x13,1
80000834:	00c7a223          	sw	x12,4(x15)
80000838:	04d12423          	sw	x13,72(x2)
8000083c:	04e12223          	sw	x14,68(x2)
80000840:	00700613          	addi	x12,x0,7
80000844:	00878793          	addi	x15,x15,8
80000848:	1ce64863          	blt	x12,x14,80000a18 <_vfiprintf_r+0x414>
8000084c:	020f8863          	beq	x31,x0,8000087c <_vfiprintf_r+0x278>
80000850:	03c10613          	addi	x12,x2,60
80000854:	00c7a023          	sw	x12,0(x15)
80000858:	00170713          	addi	x14,x14,1
8000085c:	00200613          	addi	x12,x0,2
80000860:	00268693          	addi	x13,x13,2
80000864:	00c7a223          	sw	x12,4(x15)
80000868:	04d12423          	sw	x13,72(x2)
8000086c:	04e12223          	sw	x14,68(x2)
80000870:	00700613          	addi	x12,x0,7
80000874:	00878793          	addi	x15,x15,8
80000878:	2ae64ae3          	blt	x12,x14,8000132c <_vfiprintf_r+0xd28>
8000087c:	08000613          	addi	x12,x0,128
80000880:	70c28663          	beq	x5,x12,80000f8c <_vfiprintf_r+0x988>
80000884:	41dd0d33          	sub	x26,x26,x29
80000888:	01a046e3          	blt	x0,x26,80001094 <_vfiprintf_r+0xa90>
8000088c:	00de86b3          	add	x13,x29,x13
80000890:	00170713          	addi	x14,x14,1
80000894:	0177a023          	sw	x23,0(x15)
80000898:	01d7a223          	sw	x29,4(x15)
8000089c:	04d12423          	sw	x13,72(x2)
800008a0:	04e12223          	sw	x14,68(x2)
800008a4:	00700613          	addi	x12,x0,7
800008a8:	00878793          	addi	x15,x15,8
800008ac:	0ce64ee3          	blt	x12,x14,80001188 <_vfiprintf_r+0xb84>
800008b0:	00437313          	andi	x6,x6,4
800008b4:	00030663          	beq	x6,x0,800008c0 <_vfiprintf_r+0x2bc>
800008b8:	41bb0933          	sub	x18,x22,x27
800008bc:	1b204463          	blt	x0,x18,80000a64 <_vfiprintf_r+0x460>
800008c0:	01bb5463          	bge	x22,x27,800008c8 <_vfiprintf_r+0x2c4>
800008c4:	000d8b13          	addi	x22,x27,0
800008c8:	016c8cb3          	add	x25,x25,x22
800008cc:	0e069063          	bne	x13,x0,800009ac <_vfiprintf_r+0x3a8>
800008d0:	000c4703          	lbu	x14,0(x24)
800008d4:	04012223          	sw	x0,68(x2)
800008d8:	000a0793          	addi	x15,x20,0
800008dc:	e20714e3          	bne	x14,x0,80000704 <_vfiprintf_r+0x100>
800008e0:	04812783          	lw	x15,72(x2)
800008e4:	000c8b13          	addi	x22,x25,0
800008e8:	0e078263          	beq	x15,x0,800009cc <_vfiprintf_r+0x3c8>
800008ec:	04010613          	addi	x12,x2,64
800008f0:	00048593          	addi	x11,x9,0
800008f4:	00098513          	addi	x10,x19,0
800008f8:	6ed000ef          	jal	x1,800017e4 <__sprint_r>
800008fc:	0d00006f          	jal	x0,800009cc <_vfiprintf_r+0x3c8>
80000900:	00082b03          	lw	x22,0(x16)
80000904:	00480813          	addi	x16,x16,4
80000908:	320b4063          	blt	x22,x0,80000c28 <_vfiprintf_r+0x624>
8000090c:	000c4703          	lbu	x14,0(x24)
80000910:	e71ff06f          	jal	x0,80000780 <_vfiprintf_r+0x17c>
80000914:	000c4703          	lbu	x14,0(x24)
80000918:	020ded93          	ori	x27,x27,32
8000091c:	e65ff06f          	jal	x0,80000780 <_vfiprintf_r+0x17c>
80000920:	00048593          	addi	x11,x9,0
80000924:	00098513          	addi	x10,x19,0
80000928:	309010ef          	jal	x1,80002430 <__swsetup_r>
8000092c:	5c0514e3          	bne	x10,x0,800016f4 <_vfiprintf_r+0x10f0>
80000930:	00c49783          	lh	x15,12(x9)
80000934:	00a00713          	addi	x14,x0,10
80000938:	01a7f793          	andi	x15,x15,26
8000093c:	d4e79ee3          	bne	x15,x14,80000698 <_vfiprintf_r+0x94>
80000940:	00e49783          	lh	x15,14(x9)
80000944:	d407cae3          	blt	x15,x0,80000698 <_vfiprintf_r+0x94>
80000948:	12c12083          	lw	x1,300(x2)
8000094c:	11012b03          	lw	x22,272(x2)
80000950:	00090693          	addi	x13,x18,0
80000954:	000c0613          	addi	x12,x24,0
80000958:	12012903          	lw	x18,288(x2)
8000095c:	10812c03          	lw	x24,264(x2)
80000960:	00048593          	addi	x11,x9,0
80000964:	00098513          	addi	x10,x19,0
80000968:	12412483          	lw	x9,292(x2)
8000096c:	11c12983          	lw	x19,284(x2)
80000970:	13010113          	addi	x2,x2,304
80000974:	5a50006f          	jal	x0,80001718 <__sbprintf>
80000978:	418b8933          	sub	x18,x23,x24
8000097c:	db8b94e3          	bne	x23,x24,80000724 <_vfiprintf_r+0x120>
80000980:	000bc703          	lbu	x14,0(x23)
80000984:	dd5ff06f          	jal	x0,80000758 <_vfiprintf_r+0x154>
80000988:	04010613          	addi	x12,x2,64
8000098c:	00048593          	addi	x11,x9,0
80000990:	00098513          	addi	x10,x19,0
80000994:	01012423          	sw	x16,8(x2)
80000998:	64d000ef          	jal	x1,800017e4 <__sprint_r>
8000099c:	02051663          	bne	x10,x0,800009c8 <_vfiprintf_r+0x3c4>
800009a0:	00812803          	lw	x16,8(x2)
800009a4:	000a0793          	addi	x15,x20,0
800009a8:	da9ff06f          	jal	x0,80000750 <_vfiprintf_r+0x14c>
800009ac:	04010613          	addi	x12,x2,64
800009b0:	00048593          	addi	x11,x9,0
800009b4:	00098513          	addi	x10,x19,0
800009b8:	01012423          	sw	x16,8(x2)
800009bc:	629000ef          	jal	x1,800017e4 <__sprint_r>
800009c0:	00812803          	lw	x16,8(x2)
800009c4:	f00506e3          	beq	x10,x0,800008d0 <_vfiprintf_r+0x2cc>
800009c8:	000c8b13          	addi	x22,x25,0
800009cc:	00c4d783          	lhu	x15,12(x9)
800009d0:	12812403          	lw	x8,296(x2)
800009d4:	11812a03          	lw	x20,280(x2)
800009d8:	0407f793          	andi	x15,x15,64
800009dc:	11412a83          	lw	x21,276(x2)
800009e0:	10c12b83          	lw	x23,268(x2)
800009e4:	10412c83          	lw	x25,260(x2)
800009e8:	10012d03          	lw	x26,256(x2)
800009ec:	0fc12d83          	lw	x27,252(x2)
800009f0:	500792e3          	bne	x15,x0,800016f4 <_vfiprintf_r+0x10f0>
800009f4:	12c12083          	lw	x1,300(x2)
800009f8:	12412483          	lw	x9,292(x2)
800009fc:	12012903          	lw	x18,288(x2)
80000a00:	11c12983          	lw	x19,284(x2)
80000a04:	10812c03          	lw	x24,264(x2)
80000a08:	000b0513          	addi	x10,x22,0
80000a0c:	11012b03          	lw	x22,272(x2)
80000a10:	13010113          	addi	x2,x2,304
80000a14:	00008067          	jalr	x0,0(x1)
80000a18:	04010613          	addi	x12,x2,64
80000a1c:	00048593          	addi	x11,x9,0
80000a20:	00098513          	addi	x10,x19,0
80000a24:	03012223          	sw	x16,36(x2)
80000a28:	01d12a23          	sw	x29,20(x2)
80000a2c:	00612823          	sw	x6,16(x2)
80000a30:	00512623          	sw	x5,12(x2)
80000a34:	01f12423          	sw	x31,8(x2)
80000a38:	5ad000ef          	jal	x1,800017e4 <__sprint_r>
80000a3c:	f80516e3          	bne	x10,x0,800009c8 <_vfiprintf_r+0x3c4>
80000a40:	04812683          	lw	x13,72(x2)
80000a44:	04412703          	lw	x14,68(x2)
80000a48:	02412803          	lw	x16,36(x2)
80000a4c:	01412e83          	lw	x29,20(x2)
80000a50:	01012303          	lw	x6,16(x2)
80000a54:	00c12283          	lw	x5,12(x2)
80000a58:	00812f83          	lw	x31,8(x2)
80000a5c:	000a0793          	addi	x15,x20,0
80000a60:	dedff06f          	jal	x0,8000084c <_vfiprintf_r+0x248>
80000a64:	80102e37          	lui	x28,0x80102
80000a68:	01000613          	addi	x12,x0,16
80000a6c:	04412703          	lw	x14,68(x2)
80000a70:	90ce0e13          	addi	x28,x28,-1780 # 8010190c <blanks.1>
80000a74:	07265c63          	bge	x12,x18,80000aec <_vfiprintf_r+0x4e8>
80000a78:	01612423          	sw	x22,8(x2)
80000a7c:	01000b93          	addi	x23,x0,16
80000a80:	00700d13          	addi	x26,x0,7
80000a84:	01012623          	sw	x16,12(x2)
80000a88:	000e0b13          	addi	x22,x28,0
80000a8c:	00c0006f          	jal	x0,80000a98 <_vfiprintf_r+0x494>
80000a90:	ff090913          	addi	x18,x18,-16
80000a94:	052bd663          	bge	x23,x18,80000ae0 <_vfiprintf_r+0x4dc>
80000a98:	01068693          	addi	x13,x13,16
80000a9c:	00170713          	addi	x14,x14,1
80000aa0:	0167a023          	sw	x22,0(x15)
80000aa4:	0177a223          	sw	x23,4(x15)
80000aa8:	04d12423          	sw	x13,72(x2)
80000aac:	04e12223          	sw	x14,68(x2)
80000ab0:	00878793          	addi	x15,x15,8
80000ab4:	fced5ee3          	bge	x26,x14,80000a90 <_vfiprintf_r+0x48c>
80000ab8:	04010613          	addi	x12,x2,64
80000abc:	00048593          	addi	x11,x9,0
80000ac0:	00098513          	addi	x10,x19,0
80000ac4:	521000ef          	jal	x1,800017e4 <__sprint_r>
80000ac8:	f00510e3          	bne	x10,x0,800009c8 <_vfiprintf_r+0x3c4>
80000acc:	ff090913          	addi	x18,x18,-16
80000ad0:	04812683          	lw	x13,72(x2)
80000ad4:	04412703          	lw	x14,68(x2)
80000ad8:	000a0793          	addi	x15,x20,0
80000adc:	fb2bcee3          	blt	x23,x18,80000a98 <_vfiprintf_r+0x494>
80000ae0:	000b0e13          	addi	x28,x22,0
80000ae4:	00c12803          	lw	x16,12(x2)
80000ae8:	00812b03          	lw	x22,8(x2)
80000aec:	012686b3          	add	x13,x13,x18
80000af0:	00170713          	addi	x14,x14,1
80000af4:	01c7a023          	sw	x28,0(x15)
80000af8:	0127a223          	sw	x18,4(x15)
80000afc:	04d12423          	sw	x13,72(x2)
80000b00:	04e12223          	sw	x14,68(x2)
80000b04:	00700793          	addi	x15,x0,7
80000b08:	dae7dce3          	bge	x15,x14,800008c0 <_vfiprintf_r+0x2bc>
80000b0c:	04010613          	addi	x12,x2,64
80000b10:	00048593          	addi	x11,x9,0
80000b14:	00098513          	addi	x10,x19,0
80000b18:	01012423          	sw	x16,8(x2)
80000b1c:	4c9000ef          	jal	x1,800017e4 <__sprint_r>
80000b20:	ea0514e3          	bne	x10,x0,800009c8 <_vfiprintf_r+0x3c4>
80000b24:	04812683          	lw	x13,72(x2)
80000b28:	00812803          	lw	x16,8(x2)
80000b2c:	d95ff06f          	jal	x0,800008c0 <_vfiprintf_r+0x2bc>
80000b30:	000b8793          	addi	x15,x23,0
80000b34:	00082b83          	lw	x23,0(x16)
80000b38:	02010da3          	sb	x0,59(x2)
80000b3c:	000d8313          	addi	x6,x27,0
80000b40:	00480913          	addi	x18,x16,4
80000b44:	2e0b80e3          	beq	x23,x0,80001624 <_vfiprintf_r+0x1020>
80000b48:	00f12623          	sw	x15,12(x2)
80000b4c:	01b12423          	sw	x27,8(x2)
80000b50:	180d4ee3          	blt	x26,x0,800014ec <_vfiprintf_r+0xee8>
80000b54:	000d0613          	addi	x12,x26,0
80000b58:	00000593          	addi	x11,x0,0
80000b5c:	000b8513          	addi	x10,x23,0
80000b60:	215010ef          	jal	x1,80002574 <memchr>
80000b64:	00812303          	lw	x6,8(x2)
80000b68:	00c12783          	lw	x15,12(x2)
80000b6c:	000d0e93          	addi	x29,x26,0
80000b70:	00050463          	beq	x10,x0,80000b78 <_vfiprintf_r+0x574>
80000b74:	41750eb3          	sub	x29,x10,x23
80000b78:	03b14703          	lbu	x14,59(x2)
80000b7c:	fffecd93          	xori	x27,x29,-1
80000b80:	41fddd93          	srai	x27,x27,0x1f
80000b84:	01befdb3          	and	x27,x29,x27
80000b88:	00090813          	addi	x16,x18,0
80000b8c:	00000d13          	addi	x26,x0,0
80000b90:	00000f93          	addi	x31,x0,0
80000b94:	c60706e3          	beq	x14,x0,80000800 <_vfiprintf_r+0x1fc>
80000b98:	001d8d93          	addi	x27,x27,1
80000b9c:	00237f93          	andi	x31,x6,2
80000ba0:	c60f80e3          	beq	x31,x0,80000800 <_vfiprintf_r+0x1fc>
80000ba4:	002d8d93          	addi	x27,x27,2
80000ba8:	00200f93          	addi	x31,x0,2
80000bac:	c55ff06f          	jal	x0,80000800 <_vfiprintf_r+0x1fc>
80000bb0:	00082703          	lw	x14,0(x16)
80000bb4:	000b8793          	addi	x15,x23,0
80000bb8:	000d8313          	addi	x6,x27,0
80000bbc:	02010da3          	sb	x0,59(x2)
80000bc0:	00480813          	addi	x16,x16,4
80000bc4:	08e10623          	sb	x14,140(x2)
80000bc8:	00100d93          	addi	x27,x0,1
80000bcc:	00100e93          	addi	x29,x0,1
80000bd0:	08c10b93          	addi	x23,x2,140
80000bd4:	c25ff06f          	jal	x0,800007f8 <_vfiprintf_r+0x1f4>
80000bd8:	000d8313          	addi	x6,x27,0
80000bdc:	02037713          	andi	x14,x6,32
80000be0:	000b8793          	addi	x15,x23,0
80000be4:	22070a63          	beq	x14,x0,80000e18 <_vfiprintf_r+0x814>
80000be8:	00780813          	addi	x16,x16,7
80000bec:	ff887813          	andi	x16,x16,-8
80000bf0:	00482683          	lw	x13,4(x16)
80000bf4:	00082903          	lw	x18,0(x16)
80000bf8:	00880813          	addi	x16,x16,8
80000bfc:	00068d93          	addi	x27,x13,0
80000c00:	2406c263          	blt	x13,x0,80000e44 <_vfiprintf_r+0x840>
80000c04:	260d4063          	blt	x26,x0,80000e64 <_vfiprintf_r+0x860>
80000c08:	01b966b3          	or	x13,x18,x27
80000c0c:	f7f37313          	andi	x6,x6,-129
80000c10:	24069a63          	bne	x13,x0,80000e64 <_vfiprintf_r+0x860>
80000c14:	2c0d1ce3          	bne	x26,x0,800016ec <_vfiprintf_r+0x10e8>
80000c18:	00000d93          	addi	x27,x0,0
80000c1c:	00000e93          	addi	x29,x0,0
80000c20:	0f010b93          	addi	x23,x2,240
80000c24:	26c0006f          	jal	x0,80000e90 <_vfiprintf_r+0x88c>
80000c28:	41600b33          	sub	x22,x0,x22
80000c2c:	000c4703          	lbu	x14,0(x24)
80000c30:	004ded93          	ori	x27,x27,4
80000c34:	b4dff06f          	jal	x0,80000780 <_vfiprintf_r+0x17c>
80000c38:	02b00693          	addi	x13,x0,43
80000c3c:	000c4703          	lbu	x14,0(x24)
80000c40:	02d10da3          	sb	x13,59(x2)
80000c44:	b3dff06f          	jal	x0,80000780 <_vfiprintf_r+0x17c>
80000c48:	000086b7          	lui	x13,0x8
80000c4c:	83068693          	addi	x13,x13,-2000 # 7830 <_stack_size+0x6830>
80000c50:	02d11e23          	sh	x13,60(x2)
80000c54:	801016b7          	lui	x13,0x80101
80000c58:	75468693          	addi	x13,x13,1876 # 80101754 <__malloc_trim_threshold+0xa8>
80000c5c:	00082703          	lw	x14,0(x16)
80000c60:	000b8793          	addi	x15,x23,0
80000c64:	00000593          	addi	x11,x0,0
80000c68:	002de313          	ori	x6,x27,2
80000c6c:	00480813          	addi	x16,x16,4
80000c70:	00d12223          	sw	x13,4(x2)
80000c74:	02010da3          	sb	x0,59(x2)
80000c78:	540d4663          	blt	x26,x0,800011c4 <_vfiprintf_r+0xbc0>
80000c7c:	00b766b3          	or	x13,x14,x11
80000c80:	f7f37613          	andi	x12,x6,-129
80000c84:	52069a63          	bne	x13,x0,800011b8 <_vfiprintf_r+0xbb4>
80000c88:	00030e93          	addi	x29,x6,0
80000c8c:	00200713          	addi	x14,x0,2
80000c90:	00060313          	addi	x6,x12,0
80000c94:	0a0d1863          	bne	x26,x0,80000d44 <_vfiprintf_r+0x740>
80000c98:	f80710e3          	bne	x14,x0,80000c18 <_vfiprintf_r+0x614>
80000c9c:	001efe93          	andi	x29,x29,1
80000ca0:	740e8e63          	beq	x29,x0,800013fc <_vfiprintf_r+0xdf8>
80000ca4:	03000713          	addi	x14,x0,48
80000ca8:	0ee107a3          	sb	x14,239(x2)
80000cac:	000e8d93          	addi	x27,x29,0
80000cb0:	0ef10b93          	addi	x23,x2,239
80000cb4:	1dc0006f          	jal	x0,80000e90 <_vfiprintf_r+0x88c>
80000cb8:	020df713          	andi	x14,x27,32
80000cbc:	000b8793          	addi	x15,x23,0
80000cc0:	74071463          	bne	x14,x0,80001408 <_vfiprintf_r+0xe04>
80000cc4:	010df713          	andi	x14,x27,16
80000cc8:	140716e3          	bne	x14,x0,80001614 <_vfiprintf_r+0x1010>
80000ccc:	040df713          	andi	x14,x27,64
80000cd0:	1e071ce3          	bne	x14,x0,800016c8 <_vfiprintf_r+0x10c4>
80000cd4:	200df313          	andi	x6,x27,512
80000cd8:	12030ee3          	beq	x6,x0,80001614 <_vfiprintf_r+0x1010>
80000cdc:	00082703          	lw	x14,0(x16)
80000ce0:	00480813          	addi	x16,x16,4
80000ce4:	01970023          	sb	x25,0(x14)
80000ce8:	a15ff06f          	jal	x0,800006fc <_vfiprintf_r+0xf8>
80000cec:	000c4703          	lbu	x14,0(x24)
80000cf0:	06800693          	addi	x13,x0,104
80000cf4:	10d708e3          	beq	x14,x13,80001604 <_vfiprintf_r+0x1000>
80000cf8:	040ded93          	ori	x27,x27,64
80000cfc:	a85ff06f          	jal	x0,80000780 <_vfiprintf_r+0x17c>
80000d00:	000b8793          	addi	x15,x23,0
80000d04:	010dee93          	ori	x29,x27,16
80000d08:	020ef713          	andi	x14,x29,32
80000d0c:	68070e63          	beq	x14,x0,800013a8 <_vfiprintf_r+0xda4>
80000d10:	00780813          	addi	x16,x16,7
80000d14:	ff887813          	andi	x16,x16,-8
80000d18:	00082903          	lw	x18,0(x16)
80000d1c:	00482d83          	lw	x27,4(x16)
80000d20:	00880813          	addi	x16,x16,8
80000d24:	02010da3          	sb	x0,59(x2)
80000d28:	000e8313          	addi	x6,x29,0
80000d2c:	120d4c63          	blt	x26,x0,80000e64 <_vfiprintf_r+0x860>
80000d30:	01b966b3          	or	x13,x18,x27
80000d34:	f7fef313          	andi	x6,x29,-129
80000d38:	12069663          	bne	x13,x0,80000e64 <_vfiprintf_r+0x860>
80000d3c:	00100713          	addi	x14,x0,1
80000d40:	f40d0ce3          	beq	x26,x0,80000c98 <_vfiprintf_r+0x694>
80000d44:	00100693          	addi	x13,x0,1
80000d48:	1ad702e3          	beq	x14,x13,800016ec <_vfiprintf_r+0x10e8>
80000d4c:	00200693          	addi	x13,x0,2
80000d50:	0ed70ae3          	beq	x14,x13,80001644 <_vfiprintf_r+0x1040>
80000d54:	00000713          	addi	x14,x0,0
80000d58:	00000593          	addi	x11,x0,0
80000d5c:	0f010b93          	addi	x23,x2,240
80000d60:	01d59613          	slli	x12,x11,0x1d
80000d64:	00777693          	andi	x13,x14,7
80000d68:	00375713          	srli	x14,x14,0x3
80000d6c:	03068693          	addi	x13,x13,48
80000d70:	00e66733          	or	x14,x12,x14
80000d74:	0035d593          	srli	x11,x11,0x3
80000d78:	fedb8fa3          	sb	x13,-1(x23)
80000d7c:	00b76633          	or	x12,x14,x11
80000d80:	000b8513          	addi	x10,x23,0
80000d84:	fffb8b93          	addi	x23,x23,-1
80000d88:	fc061ce3          	bne	x12,x0,80000d60 <_vfiprintf_r+0x75c>
80000d8c:	00137713          	andi	x14,x6,1
80000d90:	46070463          	beq	x14,x0,800011f8 <_vfiprintf_r+0xbf4>
80000d94:	03000713          	addi	x14,x0,48
80000d98:	46e68063          	beq	x13,x14,800011f8 <_vfiprintf_r+0xbf4>
80000d9c:	ffe50513          	addi	x10,x10,-2
80000da0:	feeb8fa3          	sb	x14,-1(x23)
80000da4:	0f010713          	addi	x14,x2,240
80000da8:	40a70eb3          	sub	x29,x14,x10
80000dac:	000d0d93          	addi	x27,x26,0
80000db0:	67dd4863          	blt	x26,x29,80001420 <_vfiprintf_r+0xe1c>
80000db4:	00050b93          	addi	x23,x10,0
80000db8:	0d80006f          	jal	x0,80000e90 <_vfiprintf_r+0x88c>
80000dbc:	000b8793          	addi	x15,x23,0
80000dc0:	010de693          	ori	x13,x27,16
80000dc4:	0206f713          	andi	x14,x13,32
80000dc8:	5a070463          	beq	x14,x0,80001370 <_vfiprintf_r+0xd6c>
80000dcc:	00780813          	addi	x16,x16,7
80000dd0:	ff887813          	andi	x16,x16,-8
80000dd4:	00082703          	lw	x14,0(x16)
80000dd8:	00482583          	lw	x11,4(x16)
80000ddc:	00880813          	addi	x16,x16,8
80000de0:	02010da3          	sb	x0,59(x2)
80000de4:	bff6f313          	andi	x6,x13,-1025
80000de8:	f60d4ae3          	blt	x26,x0,80000d5c <_vfiprintf_r+0x758>
80000dec:	00b76633          	or	x12,x14,x11
80000df0:	b7f6f693          	andi	x13,x13,-1153
80000df4:	7e061463          	bne	x12,x0,800015dc <_vfiprintf_r+0xfd8>
80000df8:	00030e93          	addi	x29,x6,0
80000dfc:	00000713          	addi	x14,x0,0
80000e00:	00068313          	addi	x6,x13,0
80000e04:	e91ff06f          	jal	x0,80000c94 <_vfiprintf_r+0x690>
80000e08:	010de313          	ori	x6,x27,16
80000e0c:	02037713          	andi	x14,x6,32
80000e10:	000b8793          	addi	x15,x23,0
80000e14:	dc071ae3          	bne	x14,x0,80000be8 <_vfiprintf_r+0x5e4>
80000e18:	01037693          	andi	x13,x6,16
80000e1c:	00082703          	lw	x14,0(x16)
80000e20:	00480813          	addi	x16,x16,4
80000e24:	5c069463          	bne	x13,x0,800013ec <_vfiprintf_r+0xde8>
80000e28:	04037693          	andi	x13,x6,64
80000e2c:	5a068c63          	beq	x13,x0,800013e4 <_vfiprintf_r+0xde0>
80000e30:	01071913          	slli	x18,x14,0x10
80000e34:	41095913          	srai	x18,x18,0x10
80000e38:	41f95d93          	srai	x27,x18,0x1f
80000e3c:	000d8693          	addi	x13,x27,0
80000e40:	dc06d2e3          	bge	x13,x0,80000c04 <_vfiprintf_r+0x600>
80000e44:	02d00613          	addi	x12,x0,45
80000e48:	012036b3          	sltu	x13,x0,x18
80000e4c:	41b00e33          	sub	x28,x0,x27
80000e50:	02c10da3          	sb	x12,59(x2)
80000e54:	40de0db3          	sub	x27,x28,x13
80000e58:	41200933          	sub	x18,x0,x18
80000e5c:	000d4463          	blt	x26,x0,80000e64 <_vfiprintf_r+0x860>
80000e60:	f7f37313          	andi	x6,x6,-129
80000e64:	6a0d9863          	bne	x27,x0,80001514 <_vfiprintf_r+0xf10>
80000e68:	00900693          	addi	x13,x0,9
80000e6c:	6b26e463          	bltu	x13,x18,80001514 <_vfiprintf_r+0xf10>
80000e70:	03090713          	addi	x14,x18,48
80000e74:	0ff77713          	andi	x14,x14,255
80000e78:	0ee107a3          	sb	x14,239(x2)
80000e7c:	000d0d93          	addi	x27,x26,0
80000e80:	01a04463          	blt	x0,x26,80000e88 <_vfiprintf_r+0x884>
80000e84:	00100d93          	addi	x27,x0,1
80000e88:	00100e93          	addi	x29,x0,1
80000e8c:	0ef10b93          	addi	x23,x2,239
80000e90:	03b14703          	lbu	x14,59(x2)
80000e94:	d00712e3          	bne	x14,x0,80000b98 <_vfiprintf_r+0x594>
80000e98:	d05ff06f          	jal	x0,80000b9c <_vfiprintf_r+0x598>
80000e9c:	00098513          	addi	x10,x19,0
80000ea0:	01012423          	sw	x16,8(x2)
80000ea4:	041010ef          	jal	x1,800026e4 <_localeconv_r>
80000ea8:	00452783          	lw	x15,4(x10)
80000eac:	00078513          	addi	x10,x15,0
80000eb0:	02f12023          	sw	x15,32(x2)
80000eb4:	56d010ef          	jal	x1,80002c20 <strlen>
80000eb8:	00050713          	addi	x14,x10,0
80000ebc:	00098513          	addi	x10,x19,0
80000ec0:	00e12e23          	sw	x14,28(x2)
80000ec4:	021010ef          	jal	x1,800026e4 <_localeconv_r>
80000ec8:	00852683          	lw	x13,8(x10)
80000ecc:	01c12783          	lw	x15,28(x2)
80000ed0:	00812803          	lw	x16,8(x2)
80000ed4:	00d12c23          	sw	x13,24(x2)
80000ed8:	a2078ae3          	beq	x15,x0,8000090c <_vfiprintf_r+0x308>
80000edc:	01812783          	lw	x15,24(x2)
80000ee0:	000c4703          	lbu	x14,0(x24)
80000ee4:	88078ee3          	beq	x15,x0,80000780 <_vfiprintf_r+0x17c>
80000ee8:	0007c683          	lbu	x13,0(x15)
80000eec:	88068ae3          	beq	x13,x0,80000780 <_vfiprintf_r+0x17c>
80000ef0:	400ded93          	ori	x27,x27,1024
80000ef4:	88dff06f          	jal	x0,80000780 <_vfiprintf_r+0x17c>
80000ef8:	000c4703          	lbu	x14,0(x24)
80000efc:	001ded93          	ori	x27,x27,1
80000f00:	881ff06f          	jal	x0,80000780 <_vfiprintf_r+0x17c>
80000f04:	03b14683          	lbu	x13,59(x2)
80000f08:	000c4703          	lbu	x14,0(x24)
80000f0c:	86069ae3          	bne	x13,x0,80000780 <_vfiprintf_r+0x17c>
80000f10:	02000693          	addi	x13,x0,32
80000f14:	02d10da3          	sb	x13,59(x2)
80000f18:	869ff06f          	jal	x0,80000780 <_vfiprintf_r+0x17c>
80000f1c:	000c4703          	lbu	x14,0(x24)
80000f20:	080ded93          	ori	x27,x27,128
80000f24:	85dff06f          	jal	x0,80000780 <_vfiprintf_r+0x17c>
80000f28:	000c4603          	lbu	x12,0(x24)
80000f2c:	02a00713          	addi	x14,x0,42
80000f30:	001c0593          	addi	x11,x24,1
80000f34:	7ce60463          	beq	x12,x14,800016fc <_vfiprintf_r+0x10f8>
80000f38:	fd060713          	addi	x14,x12,-48
80000f3c:	00900693          	addi	x13,x0,9
80000f40:	00000d13          	addi	x26,x0,0
80000f44:	00900513          	addi	x10,x0,9
80000f48:	02e6e463          	bltu	x13,x14,80000f70 <_vfiprintf_r+0x96c>
80000f4c:	0005c603          	lbu	x12,0(x11)
80000f50:	002d1693          	slli	x13,x26,0x2
80000f54:	01a68d33          	add	x26,x13,x26
80000f58:	001d1d13          	slli	x26,x26,0x1
80000f5c:	00ed0d33          	add	x26,x26,x14
80000f60:	fd060713          	addi	x14,x12,-48
80000f64:	00158593          	addi	x11,x11,1
80000f68:	fee572e3          	bgeu	x10,x14,80000f4c <_vfiprintf_r+0x948>
80000f6c:	4c0d4063          	blt	x26,x0,8000142c <_vfiprintf_r+0xe28>
80000f70:	00058c13          	addi	x24,x11,0
80000f74:	815ff06f          	jal	x0,80000788 <_vfiprintf_r+0x184>
80000f78:	000c4703          	lbu	x14,0(x24)
80000f7c:	06c00693          	addi	x13,x0,108
80000f80:	66d70a63          	beq	x14,x13,800015f4 <_vfiprintf_r+0xff0>
80000f84:	010ded93          	ori	x27,x27,16
80000f88:	ff8ff06f          	jal	x0,80000780 <_vfiprintf_r+0x17c>
80000f8c:	41bb0933          	sub	x18,x22,x27
80000f90:	8f205ae3          	bge	x0,x18,80000884 <_vfiprintf_r+0x280>
80000f94:	80102f37          	lui	x30,0x80102
80000f98:	01000613          	addi	x12,x0,16
80000f9c:	8fcf0f13          	addi	x30,x30,-1796 # 801018fc <zeroes.0>
80000fa0:	09265863          	bge	x12,x18,80001030 <_vfiprintf_r+0xa2c>
80000fa4:	01612423          	sw	x22,8(x2)
80000fa8:	01000e13          	addi	x28,x0,16
80000fac:	00700f93          	addi	x31,x0,7
80000fb0:	00612623          	sw	x6,12(x2)
80000fb4:	01d12823          	sw	x29,16(x2)
80000fb8:	01012a23          	sw	x16,20(x2)
80000fbc:	000f0b13          	addi	x22,x30,0
80000fc0:	00c0006f          	jal	x0,80000fcc <_vfiprintf_r+0x9c8>
80000fc4:	ff090913          	addi	x18,x18,-16
80000fc8:	052e5a63          	bge	x28,x18,8000101c <_vfiprintf_r+0xa18>
80000fcc:	01068693          	addi	x13,x13,16
80000fd0:	00170713          	addi	x14,x14,1
80000fd4:	0167a023          	sw	x22,0(x15)
80000fd8:	01c7a223          	sw	x28,4(x15)
80000fdc:	04d12423          	sw	x13,72(x2)
80000fe0:	04e12223          	sw	x14,68(x2)
80000fe4:	00878793          	addi	x15,x15,8
80000fe8:	fcefdee3          	bge	x31,x14,80000fc4 <_vfiprintf_r+0x9c0>
80000fec:	04010613          	addi	x12,x2,64
80000ff0:	00048593          	addi	x11,x9,0
80000ff4:	00098513          	addi	x10,x19,0
80000ff8:	7ec000ef          	jal	x1,800017e4 <__sprint_r>
80000ffc:	9c0516e3          	bne	x10,x0,800009c8 <_vfiprintf_r+0x3c4>
80001000:	01000e13          	addi	x28,x0,16
80001004:	ff090913          	addi	x18,x18,-16
80001008:	04812683          	lw	x13,72(x2)
8000100c:	04412703          	lw	x14,68(x2)
80001010:	000a0793          	addi	x15,x20,0
80001014:	00700f93          	addi	x31,x0,7
80001018:	fb2e4ae3          	blt	x28,x18,80000fcc <_vfiprintf_r+0x9c8>
8000101c:	000b0f13          	addi	x30,x22,0
80001020:	00c12303          	lw	x6,12(x2)
80001024:	01012e83          	lw	x29,16(x2)
80001028:	01412803          	lw	x16,20(x2)
8000102c:	00812b03          	lw	x22,8(x2)
80001030:	012686b3          	add	x13,x13,x18
80001034:	00170713          	addi	x14,x14,1
80001038:	01e7a023          	sw	x30,0(x15)
8000103c:	0127a223          	sw	x18,4(x15)
80001040:	04d12423          	sw	x13,72(x2)
80001044:	04e12223          	sw	x14,68(x2)
80001048:	00700613          	addi	x12,x0,7
8000104c:	00878793          	addi	x15,x15,8
80001050:	82e65ae3          	bge	x12,x14,80000884 <_vfiprintf_r+0x280>
80001054:	04010613          	addi	x12,x2,64
80001058:	00048593          	addi	x11,x9,0
8000105c:	00098513          	addi	x10,x19,0
80001060:	01012823          	sw	x16,16(x2)
80001064:	01d12623          	sw	x29,12(x2)
80001068:	00612423          	sw	x6,8(x2)
8000106c:	778000ef          	jal	x1,800017e4 <__sprint_r>
80001070:	94051ce3          	bne	x10,x0,800009c8 <_vfiprintf_r+0x3c4>
80001074:	00c12e83          	lw	x29,12(x2)
80001078:	04812683          	lw	x13,72(x2)
8000107c:	04412703          	lw	x14,68(x2)
80001080:	41dd0d33          	sub	x26,x26,x29
80001084:	01012803          	lw	x16,16(x2)
80001088:	00812303          	lw	x6,8(x2)
8000108c:	000a0793          	addi	x15,x20,0
80001090:	ffa05e63          	bge	x0,x26,8000088c <_vfiprintf_r+0x288>
80001094:	80102f37          	lui	x30,0x80102
80001098:	8fcf0f13          	addi	x30,x30,-1796 # 801018fc <zeroes.0>
8000109c:	09a45663          	bge	x8,x26,80001128 <_vfiprintf_r+0xb24>
800010a0:	01612423          	sw	x22,8(x2)
800010a4:	00700913          	addi	x18,x0,7
800010a8:	000d0b13          	addi	x22,x26,0
800010ac:	00612623          	sw	x6,12(x2)
800010b0:	01d12823          	sw	x29,16(x2)
800010b4:	01012a23          	sw	x16,20(x2)
800010b8:	000a8d13          	addi	x26,x21,0
800010bc:	00c0006f          	jal	x0,800010c8 <_vfiprintf_r+0xac4>
800010c0:	ff0b0b13          	addi	x22,x22,-16
800010c4:	05645663          	bge	x8,x22,80001110 <_vfiprintf_r+0xb0c>
800010c8:	01068693          	addi	x13,x13,16
800010cc:	00170713          	addi	x14,x14,1
800010d0:	0157a023          	sw	x21,0(x15)
800010d4:	0087a223          	sw	x8,4(x15)
800010d8:	04d12423          	sw	x13,72(x2)
800010dc:	04e12223          	sw	x14,68(x2)
800010e0:	00878793          	addi	x15,x15,8
800010e4:	fce95ee3          	bge	x18,x14,800010c0 <_vfiprintf_r+0xabc>
800010e8:	04010613          	addi	x12,x2,64
800010ec:	00048593          	addi	x11,x9,0
800010f0:	00098513          	addi	x10,x19,0
800010f4:	6f0000ef          	jal	x1,800017e4 <__sprint_r>
800010f8:	8c0518e3          	bne	x10,x0,800009c8 <_vfiprintf_r+0x3c4>
800010fc:	ff0b0b13          	addi	x22,x22,-16
80001100:	04812683          	lw	x13,72(x2)
80001104:	04412703          	lw	x14,68(x2)
80001108:	000a0793          	addi	x15,x20,0
8000110c:	fb644ee3          	blt	x8,x22,800010c8 <_vfiprintf_r+0xac4>
80001110:	000d0f13          	addi	x30,x26,0
80001114:	00c12303          	lw	x6,12(x2)
80001118:	000b0d13          	addi	x26,x22,0
8000111c:	01012e83          	lw	x29,16(x2)
80001120:	01412803          	lw	x16,20(x2)
80001124:	00812b03          	lw	x22,8(x2)
80001128:	01a686b3          	add	x13,x13,x26
8000112c:	00170713          	addi	x14,x14,1
80001130:	01e7a023          	sw	x30,0(x15)
80001134:	01a7a223          	sw	x26,4(x15)
80001138:	04d12423          	sw	x13,72(x2)
8000113c:	04e12223          	sw	x14,68(x2)
80001140:	00700613          	addi	x12,x0,7
80001144:	00878793          	addi	x15,x15,8
80001148:	f4e65263          	bge	x12,x14,8000088c <_vfiprintf_r+0x288>
8000114c:	04010613          	addi	x12,x2,64
80001150:	00048593          	addi	x11,x9,0
80001154:	00098513          	addi	x10,x19,0
80001158:	01012823          	sw	x16,16(x2)
8000115c:	01d12623          	sw	x29,12(x2)
80001160:	00612423          	sw	x6,8(x2)
80001164:	680000ef          	jal	x1,800017e4 <__sprint_r>
80001168:	860510e3          	bne	x10,x0,800009c8 <_vfiprintf_r+0x3c4>
8000116c:	04812683          	lw	x13,72(x2)
80001170:	04412703          	lw	x14,68(x2)
80001174:	01012803          	lw	x16,16(x2)
80001178:	00c12e83          	lw	x29,12(x2)
8000117c:	00812303          	lw	x6,8(x2)
80001180:	000a0793          	addi	x15,x20,0
80001184:	f08ff06f          	jal	x0,8000088c <_vfiprintf_r+0x288>
80001188:	04010613          	addi	x12,x2,64
8000118c:	00048593          	addi	x11,x9,0
80001190:	00098513          	addi	x10,x19,0
80001194:	01012623          	sw	x16,12(x2)
80001198:	00612423          	sw	x6,8(x2)
8000119c:	648000ef          	jal	x1,800017e4 <__sprint_r>
800011a0:	820514e3          	bne	x10,x0,800009c8 <_vfiprintf_r+0x3c4>
800011a4:	04812683          	lw	x13,72(x2)
800011a8:	00c12803          	lw	x16,12(x2)
800011ac:	00812303          	lw	x6,8(x2)
800011b0:	000a0793          	addi	x15,x20,0
800011b4:	efcff06f          	jal	x0,800008b0 <_vfiprintf_r+0x2ac>
800011b8:	00200693          	addi	x13,x0,2
800011bc:	00060313          	addi	x6,x12,0
800011c0:	b8068ee3          	beq	x13,x0,80000d5c <_vfiprintf_r+0x758>
800011c4:	00412503          	lw	x10,4(x2)
800011c8:	0f010b93          	addi	x23,x2,240
800011cc:	00f77693          	andi	x13,x14,15
800011d0:	00d506b3          	add	x13,x10,x13
800011d4:	0006c603          	lbu	x12,0(x13)
800011d8:	00475713          	srli	x14,x14,0x4
800011dc:	01c59693          	slli	x13,x11,0x1c
800011e0:	00e6e733          	or	x14,x13,x14
800011e4:	0045d593          	srli	x11,x11,0x4
800011e8:	fecb8fa3          	sb	x12,-1(x23)
800011ec:	00b766b3          	or	x13,x14,x11
800011f0:	fffb8b93          	addi	x23,x23,-1
800011f4:	fc069ce3          	bne	x13,x0,800011cc <_vfiprintf_r+0xbc8>
800011f8:	0f010713          	addi	x14,x2,240
800011fc:	41770eb3          	sub	x29,x14,x23
80001200:	000d0d93          	addi	x27,x26,0
80001204:	c9dd56e3          	bge	x26,x29,80000e90 <_vfiprintf_r+0x88c>
80001208:	000e8d93          	addi	x27,x29,0
8000120c:	c85ff06f          	jal	x0,80000e90 <_vfiprintf_r+0x88c>
80001210:	80102e37          	lui	x28,0x80102
80001214:	01000613          	addi	x12,x0,16
80001218:	90ce0e13          	addi	x28,x28,-1780 # 8010190c <blanks.1>
8000121c:	0b265063          	bge	x12,x18,800012bc <_vfiprintf_r+0xcb8>
80001220:	01612823          	sw	x22,16(x2)
80001224:	01000f13          	addi	x30,x0,16
80001228:	00700393          	addi	x7,x0,7
8000122c:	01f12423          	sw	x31,8(x2)
80001230:	00512623          	sw	x5,12(x2)
80001234:	00612a23          	sw	x6,20(x2)
80001238:	03d12223          	sw	x29,36(x2)
8000123c:	03012423          	sw	x16,40(x2)
80001240:	000e0b13          	addi	x22,x28,0
80001244:	00c0006f          	jal	x0,80001250 <_vfiprintf_r+0xc4c>
80001248:	ff090913          	addi	x18,x18,-16
8000124c:	052f5a63          	bge	x30,x18,800012a0 <_vfiprintf_r+0xc9c>
80001250:	01068693          	addi	x13,x13,16
80001254:	00170713          	addi	x14,x14,1
80001258:	0167a023          	sw	x22,0(x15)
8000125c:	01e7a223          	sw	x30,4(x15)
80001260:	04d12423          	sw	x13,72(x2)
80001264:	04e12223          	sw	x14,68(x2)
80001268:	00878793          	addi	x15,x15,8
8000126c:	fce3dee3          	bge	x7,x14,80001248 <_vfiprintf_r+0xc44>
80001270:	04010613          	addi	x12,x2,64
80001274:	00048593          	addi	x11,x9,0
80001278:	00098513          	addi	x10,x19,0
8000127c:	568000ef          	jal	x1,800017e4 <__sprint_r>
80001280:	f4051463          	bne	x10,x0,800009c8 <_vfiprintf_r+0x3c4>
80001284:	01000f13          	addi	x30,x0,16
80001288:	ff090913          	addi	x18,x18,-16
8000128c:	04812683          	lw	x13,72(x2)
80001290:	04412703          	lw	x14,68(x2)
80001294:	000a0793          	addi	x15,x20,0
80001298:	00700393          	addi	x7,x0,7
8000129c:	fb2f4ae3          	blt	x30,x18,80001250 <_vfiprintf_r+0xc4c>
800012a0:	000b0e13          	addi	x28,x22,0
800012a4:	00812f83          	lw	x31,8(x2)
800012a8:	00c12283          	lw	x5,12(x2)
800012ac:	01412303          	lw	x6,20(x2)
800012b0:	02412e83          	lw	x29,36(x2)
800012b4:	02812803          	lw	x16,40(x2)
800012b8:	01012b03          	lw	x22,16(x2)
800012bc:	012686b3          	add	x13,x13,x18
800012c0:	00170713          	addi	x14,x14,1
800012c4:	01c7a023          	sw	x28,0(x15)
800012c8:	0127a223          	sw	x18,4(x15)
800012cc:	04d12423          	sw	x13,72(x2)
800012d0:	04e12223          	sw	x14,68(x2)
800012d4:	00700613          	addi	x12,x0,7
800012d8:	00878793          	addi	x15,x15,8
800012dc:	d2e65e63          	bge	x12,x14,80000818 <_vfiprintf_r+0x214>
800012e0:	04010613          	addi	x12,x2,64
800012e4:	00048593          	addi	x11,x9,0
800012e8:	00098513          	addi	x10,x19,0
800012ec:	03012223          	sw	x16,36(x2)
800012f0:	01d12a23          	sw	x29,20(x2)
800012f4:	00612823          	sw	x6,16(x2)
800012f8:	00512623          	sw	x5,12(x2)
800012fc:	01f12423          	sw	x31,8(x2)
80001300:	4e4000ef          	jal	x1,800017e4 <__sprint_r>
80001304:	ec051263          	bne	x10,x0,800009c8 <_vfiprintf_r+0x3c4>
80001308:	04812683          	lw	x13,72(x2)
8000130c:	04412703          	lw	x14,68(x2)
80001310:	02412803          	lw	x16,36(x2)
80001314:	01412e83          	lw	x29,20(x2)
80001318:	01012303          	lw	x6,16(x2)
8000131c:	00c12283          	lw	x5,12(x2)
80001320:	00812f83          	lw	x31,8(x2)
80001324:	000a0793          	addi	x15,x20,0
80001328:	cf0ff06f          	jal	x0,80000818 <_vfiprintf_r+0x214>
8000132c:	04010613          	addi	x12,x2,64
80001330:	00048593          	addi	x11,x9,0
80001334:	00098513          	addi	x10,x19,0
80001338:	01012a23          	sw	x16,20(x2)
8000133c:	01d12823          	sw	x29,16(x2)
80001340:	00612623          	sw	x6,12(x2)
80001344:	00512423          	sw	x5,8(x2)
80001348:	49c000ef          	jal	x1,800017e4 <__sprint_r>
8000134c:	e6051e63          	bne	x10,x0,800009c8 <_vfiprintf_r+0x3c4>
80001350:	04812683          	lw	x13,72(x2)
80001354:	04412703          	lw	x14,68(x2)
80001358:	01412803          	lw	x16,20(x2)
8000135c:	01012e83          	lw	x29,16(x2)
80001360:	00c12303          	lw	x6,12(x2)
80001364:	00812283          	lw	x5,8(x2)
80001368:	000a0793          	addi	x15,x20,0
8000136c:	d10ff06f          	jal	x0,8000087c <_vfiprintf_r+0x278>
80001370:	0106f613          	andi	x12,x13,16
80001374:	00082703          	lw	x14,0(x16)
80001378:	00480813          	addi	x16,x16,4
8000137c:	02061263          	bne	x12,x0,800013a0 <_vfiprintf_r+0xd9c>
80001380:	0406f613          	andi	x12,x13,64
80001384:	00060a63          	beq	x12,x0,80001398 <_vfiprintf_r+0xd94>
80001388:	01071713          	slli	x14,x14,0x10
8000138c:	01075713          	srli	x14,x14,0x10
80001390:	00000593          	addi	x11,x0,0
80001394:	a4dff06f          	jal	x0,80000de0 <_vfiprintf_r+0x7dc>
80001398:	2006f613          	andi	x12,x13,512
8000139c:	30061463          	bne	x12,x0,800016a4 <_vfiprintf_r+0x10a0>
800013a0:	00000593          	addi	x11,x0,0
800013a4:	a3dff06f          	jal	x0,80000de0 <_vfiprintf_r+0x7dc>
800013a8:	010ef693          	andi	x13,x29,16
800013ac:	00082703          	lw	x14,0(x16)
800013b0:	00480813          	addi	x16,x16,4
800013b4:	02069263          	bne	x13,x0,800013d8 <_vfiprintf_r+0xdd4>
800013b8:	040ef693          	andi	x13,x29,64
800013bc:	00068a63          	beq	x13,x0,800013d0 <_vfiprintf_r+0xdcc>
800013c0:	01071913          	slli	x18,x14,0x10
800013c4:	01095913          	srli	x18,x18,0x10
800013c8:	00000d93          	addi	x27,x0,0
800013cc:	959ff06f          	jal	x0,80000d24 <_vfiprintf_r+0x720>
800013d0:	200ef693          	andi	x13,x29,512
800013d4:	2c069e63          	bne	x13,x0,800016b0 <_vfiprintf_r+0x10ac>
800013d8:	00070913          	addi	x18,x14,0
800013dc:	00000d93          	addi	x27,x0,0
800013e0:	945ff06f          	jal	x0,80000d24 <_vfiprintf_r+0x720>
800013e4:	20037693          	andi	x13,x6,512
800013e8:	2e069863          	bne	x13,x0,800016d8 <_vfiprintf_r+0x10d4>
800013ec:	41f75d93          	srai	x27,x14,0x1f
800013f0:	00070913          	addi	x18,x14,0
800013f4:	000d8693          	addi	x13,x27,0
800013f8:	809ff06f          	jal	x0,80000c00 <_vfiprintf_r+0x5fc>
800013fc:	00000d93          	addi	x27,x0,0
80001400:	0f010b93          	addi	x23,x2,240
80001404:	a8dff06f          	jal	x0,80000e90 <_vfiprintf_r+0x88c>
80001408:	00082703          	lw	x14,0(x16)
8000140c:	41fcd693          	srai	x13,x25,0x1f
80001410:	00480813          	addi	x16,x16,4
80001414:	01972023          	sw	x25,0(x14)
80001418:	00d72223          	sw	x13,4(x14)
8000141c:	ae0ff06f          	jal	x0,800006fc <_vfiprintf_r+0xf8>
80001420:	000e8d93          	addi	x27,x29,0
80001424:	00050b93          	addi	x23,x10,0
80001428:	a69ff06f          	jal	x0,80000e90 <_vfiprintf_r+0x88c>
8000142c:	fff00d13          	addi	x26,x0,-1
80001430:	00058c13          	addi	x24,x11,0
80001434:	b54ff06f          	jal	x0,80000788 <_vfiprintf_r+0x184>
80001438:	80101737          	lui	x14,0x80101
8000143c:	74070713          	addi	x14,x14,1856 # 80101740 <__malloc_trim_threshold+0x94>
80001440:	000d8313          	addi	x6,x27,0
80001444:	00e12223          	sw	x14,4(x2)
80001448:	02037713          	andi	x14,x6,32
8000144c:	000b8793          	addi	x15,x23,0
80001450:	06070a63          	beq	x14,x0,800014c4 <_vfiprintf_r+0xec0>
80001454:	00780813          	addi	x16,x16,7
80001458:	ff887813          	andi	x16,x16,-8
8000145c:	00082703          	lw	x14,0(x16)
80001460:	00482583          	lw	x11,4(x16)
80001464:	00880813          	addi	x16,x16,8
80001468:	00137693          	andi	x13,x6,1
8000146c:	00068e63          	beq	x13,x0,80001488 <_vfiprintf_r+0xe84>
80001470:	00b766b3          	or	x13,x14,x11
80001474:	00068a63          	beq	x13,x0,80001488 <_vfiprintf_r+0xe84>
80001478:	03000693          	addi	x13,x0,48
8000147c:	02d10e23          	sb	x13,60(x2)
80001480:	02c10ea3          	sb	x12,61(x2)
80001484:	00236313          	ori	x6,x6,2
80001488:	bff37313          	andi	x6,x6,-1025
8000148c:	fe8ff06f          	jal	x0,80000c74 <_vfiprintf_r+0x670>
80001490:	000b8793          	addi	x15,x23,0
80001494:	000d8e93          	addi	x29,x27,0
80001498:	871ff06f          	jal	x0,80000d08 <_vfiprintf_r+0x704>
8000149c:	000b8793          	addi	x15,x23,0
800014a0:	000d8693          	addi	x13,x27,0
800014a4:	921ff06f          	jal	x0,80000dc4 <_vfiprintf_r+0x7c0>
800014a8:	80101737          	lui	x14,0x80101
800014ac:	75470713          	addi	x14,x14,1876 # 80101754 <__malloc_trim_threshold+0xa8>
800014b0:	000d8313          	addi	x6,x27,0
800014b4:	00e12223          	sw	x14,4(x2)
800014b8:	02037713          	andi	x14,x6,32
800014bc:	000b8793          	addi	x15,x23,0
800014c0:	f8071ae3          	bne	x14,x0,80001454 <_vfiprintf_r+0xe50>
800014c4:	01037693          	andi	x13,x6,16
800014c8:	00082703          	lw	x14,0(x16)
800014cc:	00480813          	addi	x16,x16,4
800014d0:	02069e63          	bne	x13,x0,8000150c <_vfiprintf_r+0xf08>
800014d4:	04037693          	andi	x13,x6,64
800014d8:	02068663          	beq	x13,x0,80001504 <_vfiprintf_r+0xf00>
800014dc:	01071713          	slli	x14,x14,0x10
800014e0:	01075713          	srli	x14,x14,0x10
800014e4:	00000593          	addi	x11,x0,0
800014e8:	f81ff06f          	jal	x0,80001468 <_vfiprintf_r+0xe64>
800014ec:	000b8513          	addi	x10,x23,0
800014f0:	730010ef          	jal	x1,80002c20 <strlen>
800014f4:	00812303          	lw	x6,8(x2)
800014f8:	00c12783          	lw	x15,12(x2)
800014fc:	00050e93          	addi	x29,x10,0
80001500:	e78ff06f          	jal	x0,80000b78 <_vfiprintf_r+0x574>
80001504:	20037693          	andi	x13,x6,512
80001508:	1a069a63          	bne	x13,x0,800016bc <_vfiprintf_r+0x10b8>
8000150c:	00000593          	addi	x11,x0,0
80001510:	f59ff06f          	jal	x0,80001468 <_vfiprintf_r+0xe64>
80001514:	40037713          	andi	x14,x6,1024
80001518:	00000693          	addi	x13,x0,0
8000151c:	0f010e93          	addi	x29,x2,240
80001520:	01612423          	sw	x22,8(x2)
80001524:	01a12623          	sw	x26,12(x2)
80001528:	03912223          	sw	x25,36(x2)
8000152c:	02912423          	sw	x9,40(x2)
80001530:	01812d03          	lw	x26,24(x2)
80001534:	00f12823          	sw	x15,16(x2)
80001538:	00612a23          	sw	x6,20(x2)
8000153c:	00068b13          	addi	x22,x13,0
80001540:	00070c93          	addi	x25,x14,0
80001544:	000e8493          	addi	x9,x29,0
80001548:	03012623          	sw	x16,44(x2)
8000154c:	0280006f          	jal	x0,80001574 <_vfiprintf_r+0xf70>
80001550:	00a00613          	addi	x12,x0,10
80001554:	00000693          	addi	x13,x0,0
80001558:	00090513          	addi	x10,x18,0
8000155c:	000d8593          	addi	x11,x27,0
80001560:	1cc030ef          	jal	x1,8000472c <__udivdi3>
80001564:	120d8663          	beq	x27,x0,80001690 <_vfiprintf_r+0x108c>
80001568:	00050913          	addi	x18,x10,0
8000156c:	00058d93          	addi	x27,x11,0
80001570:	000b8493          	addi	x9,x23,0
80001574:	00a00613          	addi	x12,x0,10
80001578:	00000693          	addi	x13,x0,0
8000157c:	00090513          	addi	x10,x18,0
80001580:	000d8593          	addi	x11,x27,0
80001584:	76c030ef          	jal	x1,80004cf0 <__umoddi3>
80001588:	03050513          	addi	x10,x10,48
8000158c:	fea48fa3          	sb	x10,-1(x9)
80001590:	fff48b93          	addi	x23,x9,-1
80001594:	001b0b13          	addi	x22,x22,1
80001598:	fa0c8ce3          	beq	x25,x0,80001550 <_vfiprintf_r+0xf4c>
8000159c:	000d4783          	lbu	x15,0(x26)
800015a0:	fb6798e3          	bne	x15,x22,80001550 <_vfiprintf_r+0xf4c>
800015a4:	0ff00793          	addi	x15,x0,255
800015a8:	fafb04e3          	beq	x22,x15,80001550 <_vfiprintf_r+0xf4c>
800015ac:	0a0d9263          	bne	x27,x0,80001650 <_vfiprintf_r+0x104c>
800015b0:	00900793          	addi	x15,x0,9
800015b4:	0927ee63          	bltu	x15,x18,80001650 <_vfiprintf_r+0x104c>
800015b8:	01a12c23          	sw	x26,24(x2)
800015bc:	00812b03          	lw	x22,8(x2)
800015c0:	00c12d03          	lw	x26,12(x2)
800015c4:	01012783          	lw	x15,16(x2)
800015c8:	01412303          	lw	x6,20(x2)
800015cc:	02412c83          	lw	x25,36(x2)
800015d0:	02812483          	lw	x9,40(x2)
800015d4:	02c12803          	lw	x16,44(x2)
800015d8:	c21ff06f          	jal	x0,800011f8 <_vfiprintf_r+0xbf4>
800015dc:	00068313          	addi	x6,x13,0
800015e0:	00000693          	addi	x13,x0,0
800015e4:	f6068c63          	beq	x13,x0,80000d5c <_vfiprintf_r+0x758>
800015e8:	bddff06f          	jal	x0,800011c4 <_vfiprintf_r+0xbc0>
800015ec:	6e8000ef          	jal	x1,80001cd4 <__sinit>
800015f0:	850ff06f          	jal	x0,80000640 <_vfiprintf_r+0x3c>
800015f4:	001c4703          	lbu	x14,1(x24)
800015f8:	020ded93          	ori	x27,x27,32
800015fc:	001c0c13          	addi	x24,x24,1
80001600:	980ff06f          	jal	x0,80000780 <_vfiprintf_r+0x17c>
80001604:	001c4703          	lbu	x14,1(x24)
80001608:	200ded93          	ori	x27,x27,512
8000160c:	001c0c13          	addi	x24,x24,1
80001610:	970ff06f          	jal	x0,80000780 <_vfiprintf_r+0x17c>
80001614:	00082703          	lw	x14,0(x16)
80001618:	00480813          	addi	x16,x16,4
8000161c:	01972023          	sw	x25,0(x14)
80001620:	8dcff06f          	jal	x0,800006fc <_vfiprintf_r+0xf8>
80001624:	00600713          	addi	x14,x0,6
80001628:	000d0e93          	addi	x29,x26,0
8000162c:	07a76863          	bltu	x14,x26,8000169c <_vfiprintf_r+0x1098>
80001630:	80101bb7          	lui	x23,0x80101
80001634:	000e8d93          	addi	x27,x29,0
80001638:	00090813          	addi	x16,x18,0
8000163c:	768b8b93          	addi	x23,x23,1896 # 80101768 <__malloc_trim_threshold+0xbc>
80001640:	9b8ff06f          	jal	x0,800007f8 <_vfiprintf_r+0x1f4>
80001644:	00000713          	addi	x14,x0,0
80001648:	00000593          	addi	x11,x0,0
8000164c:	b79ff06f          	jal	x0,800011c4 <_vfiprintf_r+0xbc0>
80001650:	01c12783          	lw	x15,28(x2)
80001654:	02012583          	lw	x11,32(x2)
80001658:	00000b13          	addi	x22,x0,0
8000165c:	40fb8bb3          	sub	x23,x23,x15
80001660:	00078613          	addi	x12,x15,0
80001664:	000b8513          	addi	x10,x23,0
80001668:	7d1000ef          	jal	x1,80002638 <strncpy>
8000166c:	001d4783          	lbu	x15,1(x26)
80001670:	00a00613          	addi	x12,x0,10
80001674:	00000693          	addi	x13,x0,0
80001678:	00f037b3          	sltu	x15,x0,x15
8000167c:	00090513          	addi	x10,x18,0
80001680:	000d8593          	addi	x11,x27,0
80001684:	00fd0d33          	add	x26,x26,x15
80001688:	0a4030ef          	jal	x1,8000472c <__udivdi3>
8000168c:	eddff06f          	jal	x0,80001568 <_vfiprintf_r+0xf64>
80001690:	00900793          	addi	x15,x0,9
80001694:	ed27eae3          	bltu	x15,x18,80001568 <_vfiprintf_r+0xf64>
80001698:	f21ff06f          	jal	x0,800015b8 <_vfiprintf_r+0xfb4>
8000169c:	00600e93          	addi	x29,x0,6
800016a0:	f91ff06f          	jal	x0,80001630 <_vfiprintf_r+0x102c>
800016a4:	0ff77713          	andi	x14,x14,255
800016a8:	00000593          	addi	x11,x0,0
800016ac:	f34ff06f          	jal	x0,80000de0 <_vfiprintf_r+0x7dc>
800016b0:	0ff77913          	andi	x18,x14,255
800016b4:	00000d93          	addi	x27,x0,0
800016b8:	e6cff06f          	jal	x0,80000d24 <_vfiprintf_r+0x720>
800016bc:	0ff77713          	andi	x14,x14,255
800016c0:	00000593          	addi	x11,x0,0
800016c4:	da5ff06f          	jal	x0,80001468 <_vfiprintf_r+0xe64>
800016c8:	00082703          	lw	x14,0(x16)
800016cc:	00480813          	addi	x16,x16,4
800016d0:	01971023          	sh	x25,0(x14)
800016d4:	828ff06f          	jal	x0,800006fc <_vfiprintf_r+0xf8>
800016d8:	01871913          	slli	x18,x14,0x18
800016dc:	41895913          	srai	x18,x18,0x18
800016e0:	41f95d93          	srai	x27,x18,0x1f
800016e4:	000d8693          	addi	x13,x27,0
800016e8:	d18ff06f          	jal	x0,80000c00 <_vfiprintf_r+0x5fc>
800016ec:	03000713          	addi	x14,x0,48
800016f0:	f88ff06f          	jal	x0,80000e78 <_vfiprintf_r+0x874>
800016f4:	fff00b13          	addi	x22,x0,-1
800016f8:	afcff06f          	jal	x0,800009f4 <_vfiprintf_r+0x3f0>
800016fc:	00082d03          	lw	x26,0(x16)
80001700:	00480813          	addi	x16,x16,4
80001704:	000d5463          	bge	x26,x0,8000170c <_vfiprintf_r+0x1108>
80001708:	fff00d13          	addi	x26,x0,-1
8000170c:	001c4703          	lbu	x14,1(x24)
80001710:	00058c13          	addi	x24,x11,0
80001714:	86cff06f          	jal	x0,80000780 <_vfiprintf_r+0x17c>

80001718 <__sbprintf>:
80001718:	b8010113          	addi	x2,x2,-1152
8000171c:	00c59783          	lh	x15,12(x11)
80001720:	00e5d703          	lhu	x14,14(x11)
80001724:	46812c23          	sw	x8,1144(x2)
80001728:	00058413          	addi	x8,x11,0
8000172c:	000105b7          	lui	x11,0x10
80001730:	ffd58593          	addi	x11,x11,-3 # fffd <_stack_size+0xeffd>
80001734:	06442e03          	lw	x28,100(x8)
80001738:	01c42303          	lw	x6,28(x8)
8000173c:	02442883          	lw	x17,36(x8)
80001740:	01071713          	slli	x14,x14,0x10
80001744:	00b7f7b3          	and	x15,x15,x11
80001748:	00e7e7b3          	or	x15,x15,x14
8000174c:	40000813          	addi	x16,x0,1024
80001750:	00f12a23          	sw	x15,20(x2)
80001754:	00810593          	addi	x11,x2,8
80001758:	07010793          	addi	x15,x2,112
8000175c:	46912a23          	sw	x9,1140(x2)
80001760:	47212823          	sw	x18,1136(x2)
80001764:	46112e23          	sw	x1,1148(x2)
80001768:	00050913          	addi	x18,x10,0
8000176c:	07c12623          	sw	x28,108(x2)
80001770:	02612223          	sw	x6,36(x2)
80001774:	03112623          	sw	x17,44(x2)
80001778:	00f12423          	sw	x15,8(x2)
8000177c:	00f12c23          	sw	x15,24(x2)
80001780:	01012823          	sw	x16,16(x2)
80001784:	01012e23          	sw	x16,28(x2)
80001788:	02012023          	sw	x0,32(x2)
8000178c:	e79fe0ef          	jal	x1,80000604 <_vfiprintf_r>
80001790:	00050493          	addi	x9,x10,0
80001794:	02055c63          	bge	x10,x0,800017cc <__sbprintf+0xb4>
80001798:	01415783          	lhu	x15,20(x2)
8000179c:	0407f793          	andi	x15,x15,64
800017a0:	00078863          	beq	x15,x0,800017b0 <__sbprintf+0x98>
800017a4:	00c45783          	lhu	x15,12(x8)
800017a8:	0407e793          	ori	x15,x15,64
800017ac:	00f41623          	sh	x15,12(x8)
800017b0:	47c12083          	lw	x1,1148(x2)
800017b4:	47812403          	lw	x8,1144(x2)
800017b8:	47012903          	lw	x18,1136(x2)
800017bc:	00048513          	addi	x10,x9,0
800017c0:	47412483          	lw	x9,1140(x2)
800017c4:	48010113          	addi	x2,x2,1152
800017c8:	00008067          	jalr	x0,0(x1)
800017cc:	00810593          	addi	x11,x2,8
800017d0:	00090513          	addi	x10,x18,0
800017d4:	2a8000ef          	jal	x1,80001a7c <_fflush_r>
800017d8:	fc0500e3          	beq	x10,x0,80001798 <__sbprintf+0x80>
800017dc:	fff00493          	addi	x9,x0,-1
800017e0:	fb9ff06f          	jal	x0,80001798 <__sbprintf+0x80>

800017e4 <__sprint_r>:
800017e4:	00862783          	lw	x15,8(x12)
800017e8:	ff010113          	addi	x2,x2,-16
800017ec:	00812423          	sw	x8,8(x2)
800017f0:	00112623          	sw	x1,12(x2)
800017f4:	00060413          	addi	x8,x12,0
800017f8:	00079e63          	bne	x15,x0,80001814 <__sprint_r+0x30>
800017fc:	00c12083          	lw	x1,12(x2)
80001800:	00042223          	sw	x0,4(x8)
80001804:	00812403          	lw	x8,8(x2)
80001808:	00000513          	addi	x10,x0,0
8000180c:	01010113          	addi	x2,x2,16
80001810:	00008067          	jalr	x0,0(x1)
80001814:	4f0000ef          	jal	x1,80001d04 <__sfvwrite_r>
80001818:	00c12083          	lw	x1,12(x2)
8000181c:	00042423          	sw	x0,8(x8)
80001820:	00042223          	sw	x0,4(x8)
80001824:	00812403          	lw	x8,8(x2)
80001828:	01010113          	addi	x2,x2,16
8000182c:	00008067          	jalr	x0,0(x1)

80001830 <__sflush_r>:
80001830:	00c59703          	lh	x14,12(x11)
80001834:	fe010113          	addi	x2,x2,-32
80001838:	00812c23          	sw	x8,24(x2)
8000183c:	01312623          	sw	x19,12(x2)
80001840:	00112e23          	sw	x1,28(x2)
80001844:	00877793          	andi	x15,x14,8
80001848:	00058413          	addi	x8,x11,0
8000184c:	00050993          	addi	x19,x10,0
80001850:	12079063          	bne	x15,x0,80001970 <__sflush_r+0x140>
80001854:	000017b7          	lui	x15,0x1
80001858:	80078793          	addi	x15,x15,-2048 # 800 <_heap_size+0x800>
8000185c:	0045a683          	lw	x13,4(x11)
80001860:	00f767b3          	or	x15,x14,x15
80001864:	00f59623          	sh	x15,12(x11)
80001868:	18d05263          	bge	x0,x13,800019ec <__sflush_r+0x1bc>
8000186c:	02842803          	lw	x16,40(x8)
80001870:	0e080463          	beq	x16,x0,80001958 <__sflush_r+0x128>
80001874:	00912a23          	sw	x9,20(x2)
80001878:	01371693          	slli	x13,x14,0x13
8000187c:	0009a483          	lw	x9,0(x19)
80001880:	0009a023          	sw	x0,0(x19)
80001884:	01c42583          	lw	x11,28(x8)
80001888:	1606ce63          	blt	x13,x0,80001a04 <__sflush_r+0x1d4>
8000188c:	00000613          	addi	x12,x0,0
80001890:	00100693          	addi	x13,x0,1
80001894:	00098513          	addi	x10,x19,0
80001898:	000800e7          	jalr	x1,0(x16)
8000189c:	fff00793          	addi	x15,x0,-1
800018a0:	00050613          	addi	x12,x10,0
800018a4:	1af50463          	beq	x10,x15,80001a4c <__sflush_r+0x21c>
800018a8:	00c41783          	lh	x15,12(x8)
800018ac:	02842803          	lw	x16,40(x8)
800018b0:	01c42583          	lw	x11,28(x8)
800018b4:	0047f793          	andi	x15,x15,4
800018b8:	00078e63          	beq	x15,x0,800018d4 <__sflush_r+0xa4>
800018bc:	00442703          	lw	x14,4(x8)
800018c0:	03042783          	lw	x15,48(x8)
800018c4:	40e60633          	sub	x12,x12,x14
800018c8:	00078663          	beq	x15,x0,800018d4 <__sflush_r+0xa4>
800018cc:	03c42783          	lw	x15,60(x8)
800018d0:	40f60633          	sub	x12,x12,x15
800018d4:	00000693          	addi	x13,x0,0
800018d8:	00098513          	addi	x10,x19,0
800018dc:	000800e7          	jalr	x1,0(x16)
800018e0:	fff00793          	addi	x15,x0,-1
800018e4:	12f51463          	bne	x10,x15,80001a0c <__sflush_r+0x1dc>
800018e8:	0009a683          	lw	x13,0(x19)
800018ec:	01d00793          	addi	x15,x0,29
800018f0:	00c41703          	lh	x14,12(x8)
800018f4:	16d7ea63          	bltu	x15,x13,80001a68 <__sflush_r+0x238>
800018f8:	204007b7          	lui	x15,0x20400
800018fc:	00178793          	addi	x15,x15,1 # 20400001 <SYSCALL_ADDR+0x1e3f0001>
80001900:	00d7d7b3          	srl	x15,x15,x13
80001904:	0017f793          	andi	x15,x15,1
80001908:	16078063          	beq	x15,x0,80001a68 <__sflush_r+0x238>
8000190c:	01042603          	lw	x12,16(x8)
80001910:	fffff7b7          	lui	x15,0xfffff
80001914:	7ff78793          	addi	x15,x15,2047 # fffff7ff <_end+0x7fefa82f>
80001918:	00f777b3          	and	x15,x14,x15
8000191c:	00f41623          	sh	x15,12(x8)
80001920:	00042223          	sw	x0,4(x8)
80001924:	00c42023          	sw	x12,0(x8)
80001928:	01371793          	slli	x15,x14,0x13
8000192c:	0007d463          	bge	x15,x0,80001934 <__sflush_r+0x104>
80001930:	10068263          	beq	x13,x0,80001a34 <__sflush_r+0x204>
80001934:	03042583          	lw	x11,48(x8)
80001938:	0099a023          	sw	x9,0(x19)
8000193c:	10058463          	beq	x11,x0,80001a44 <__sflush_r+0x214>
80001940:	04040793          	addi	x15,x8,64
80001944:	00f58663          	beq	x11,x15,80001950 <__sflush_r+0x120>
80001948:	00098513          	addi	x10,x19,0
8000194c:	4bc010ef          	jal	x1,80002e08 <_free_r>
80001950:	01412483          	lw	x9,20(x2)
80001954:	02042823          	sw	x0,48(x8)
80001958:	00000513          	addi	x10,x0,0
8000195c:	01c12083          	lw	x1,28(x2)
80001960:	01812403          	lw	x8,24(x2)
80001964:	00c12983          	lw	x19,12(x2)
80001968:	02010113          	addi	x2,x2,32
8000196c:	00008067          	jalr	x0,0(x1)
80001970:	01212823          	sw	x18,16(x2)
80001974:	0105a903          	lw	x18,16(x11)
80001978:	08090263          	beq	x18,x0,800019fc <__sflush_r+0x1cc>
8000197c:	00912a23          	sw	x9,20(x2)
80001980:	0005a483          	lw	x9,0(x11)
80001984:	00377713          	andi	x14,x14,3
80001988:	0125a023          	sw	x18,0(x11)
8000198c:	412484b3          	sub	x9,x9,x18
80001990:	00000793          	addi	x15,x0,0
80001994:	00071463          	bne	x14,x0,8000199c <__sflush_r+0x16c>
80001998:	0145a783          	lw	x15,20(x11)
8000199c:	00f42423          	sw	x15,8(x8)
800019a0:	00904863          	blt	x0,x9,800019b0 <__sflush_r+0x180>
800019a4:	0540006f          	jal	x0,800019f8 <__sflush_r+0x1c8>
800019a8:	00a90933          	add	x18,x18,x10
800019ac:	04905663          	bge	x0,x9,800019f8 <__sflush_r+0x1c8>
800019b0:	02442783          	lw	x15,36(x8)
800019b4:	01c42583          	lw	x11,28(x8)
800019b8:	00048693          	addi	x13,x9,0
800019bc:	00090613          	addi	x12,x18,0
800019c0:	00098513          	addi	x10,x19,0
800019c4:	000780e7          	jalr	x1,0(x15)
800019c8:	40a484b3          	sub	x9,x9,x10
800019cc:	fca04ee3          	blt	x0,x10,800019a8 <__sflush_r+0x178>
800019d0:	00c41703          	lh	x14,12(x8)
800019d4:	01012903          	lw	x18,16(x2)
800019d8:	04076713          	ori	x14,x14,64
800019dc:	01412483          	lw	x9,20(x2)
800019e0:	00e41623          	sh	x14,12(x8)
800019e4:	fff00513          	addi	x10,x0,-1
800019e8:	f75ff06f          	jal	x0,8000195c <__sflush_r+0x12c>
800019ec:	03c5a683          	lw	x13,60(x11)
800019f0:	e6d04ee3          	blt	x0,x13,8000186c <__sflush_r+0x3c>
800019f4:	f65ff06f          	jal	x0,80001958 <__sflush_r+0x128>
800019f8:	01412483          	lw	x9,20(x2)
800019fc:	01012903          	lw	x18,16(x2)
80001a00:	f59ff06f          	jal	x0,80001958 <__sflush_r+0x128>
80001a04:	05042603          	lw	x12,80(x8)
80001a08:	eadff06f          	jal	x0,800018b4 <__sflush_r+0x84>
80001a0c:	00c41703          	lh	x14,12(x8)
80001a10:	01042683          	lw	x13,16(x8)
80001a14:	fffff7b7          	lui	x15,0xfffff
80001a18:	7ff78793          	addi	x15,x15,2047 # fffff7ff <_end+0x7fefa82f>
80001a1c:	00f777b3          	and	x15,x14,x15
80001a20:	00f41623          	sh	x15,12(x8)
80001a24:	00042223          	sw	x0,4(x8)
80001a28:	00d42023          	sw	x13,0(x8)
80001a2c:	01371793          	slli	x15,x14,0x13
80001a30:	f007d2e3          	bge	x15,x0,80001934 <__sflush_r+0x104>
80001a34:	03042583          	lw	x11,48(x8)
80001a38:	04a42823          	sw	x10,80(x8)
80001a3c:	0099a023          	sw	x9,0(x19)
80001a40:	f00590e3          	bne	x11,x0,80001940 <__sflush_r+0x110>
80001a44:	01412483          	lw	x9,20(x2)
80001a48:	f11ff06f          	jal	x0,80001958 <__sflush_r+0x128>
80001a4c:	0009a783          	lw	x15,0(x19)
80001a50:	e4078ce3          	beq	x15,x0,800018a8 <__sflush_r+0x78>
80001a54:	01d00713          	addi	x14,x0,29
80001a58:	00e78c63          	beq	x15,x14,80001a70 <__sflush_r+0x240>
80001a5c:	01600713          	addi	x14,x0,22
80001a60:	00e78863          	beq	x15,x14,80001a70 <__sflush_r+0x240>
80001a64:	00c41703          	lh	x14,12(x8)
80001a68:	04076713          	ori	x14,x14,64
80001a6c:	f71ff06f          	jal	x0,800019dc <__sflush_r+0x1ac>
80001a70:	0099a023          	sw	x9,0(x19)
80001a74:	01412483          	lw	x9,20(x2)
80001a78:	ee1ff06f          	jal	x0,80001958 <__sflush_r+0x128>

80001a7c <_fflush_r>:
80001a7c:	fe010113          	addi	x2,x2,-32
80001a80:	00812c23          	sw	x8,24(x2)
80001a84:	00112e23          	sw	x1,28(x2)
80001a88:	00050413          	addi	x8,x10,0
80001a8c:	00050663          	beq	x10,x0,80001a98 <_fflush_r+0x1c>
80001a90:	03452783          	lw	x15,52(x10)
80001a94:	02078a63          	beq	x15,x0,80001ac8 <_fflush_r+0x4c>
80001a98:	00c59783          	lh	x15,12(x11)
80001a9c:	00079c63          	bne	x15,x0,80001ab4 <_fflush_r+0x38>
80001aa0:	01c12083          	lw	x1,28(x2)
80001aa4:	01812403          	lw	x8,24(x2)
80001aa8:	00000513          	addi	x10,x0,0
80001aac:	02010113          	addi	x2,x2,32
80001ab0:	00008067          	jalr	x0,0(x1)
80001ab4:	00040513          	addi	x10,x8,0
80001ab8:	01812403          	lw	x8,24(x2)
80001abc:	01c12083          	lw	x1,28(x2)
80001ac0:	02010113          	addi	x2,x2,32
80001ac4:	d6dff06f          	jal	x0,80001830 <__sflush_r>
80001ac8:	00b12623          	sw	x11,12(x2)
80001acc:	208000ef          	jal	x1,80001cd4 <__sinit>
80001ad0:	00c12583          	lw	x11,12(x2)
80001ad4:	fc5ff06f          	jal	x0,80001a98 <_fflush_r+0x1c>

80001ad8 <stdio_exit_handler>:
80001ad8:	80101637          	lui	x12,0x80101
80001adc:	800045b7          	lui	x11,0x80004
80001ae0:	80101537          	lui	x10,0x80101
80001ae4:	00060613          	addi	x12,x12,0 # 80101000 <__sglue>
80001ae8:	e6058593          	addi	x11,x11,-416 # 80003e60 <_fclose_r>
80001aec:	01050513          	addi	x10,x10,16 # 80101010 <_impure_data>
80001af0:	7280006f          	jal	x0,80002218 <_fwalk_sglue>

80001af4 <cleanup_stdio>:
80001af4:	00452583          	lw	x11,4(x10)
80001af8:	ff010113          	addi	x2,x2,-16
80001afc:	801047b7          	lui	x15,0x80104
80001b00:	00812423          	sw	x8,8(x2)
80001b04:	00112623          	sw	x1,12(x2)
80001b08:	e4478793          	addi	x15,x15,-444 # 80103e44 <__sf>
80001b0c:	00050413          	addi	x8,x10,0
80001b10:	00f58463          	beq	x11,x15,80001b18 <cleanup_stdio+0x24>
80001b14:	34c020ef          	jal	x1,80003e60 <_fclose_r>
80001b18:	00842583          	lw	x11,8(x8)
80001b1c:	801047b7          	lui	x15,0x80104
80001b20:	eac78793          	addi	x15,x15,-340 # 80103eac <__sf+0x68>
80001b24:	00f58663          	beq	x11,x15,80001b30 <cleanup_stdio+0x3c>
80001b28:	00040513          	addi	x10,x8,0
80001b2c:	334020ef          	jal	x1,80003e60 <_fclose_r>
80001b30:	00c42583          	lw	x11,12(x8)
80001b34:	801047b7          	lui	x15,0x80104
80001b38:	f1478793          	addi	x15,x15,-236 # 80103f14 <__sf+0xd0>
80001b3c:	00f58c63          	beq	x11,x15,80001b54 <cleanup_stdio+0x60>
80001b40:	00040513          	addi	x10,x8,0
80001b44:	00812403          	lw	x8,8(x2)
80001b48:	00c12083          	lw	x1,12(x2)
80001b4c:	01010113          	addi	x2,x2,16
80001b50:	3100206f          	jal	x0,80003e60 <_fclose_r>
80001b54:	00c12083          	lw	x1,12(x2)
80001b58:	00812403          	lw	x8,8(x2)
80001b5c:	01010113          	addi	x2,x2,16
80001b60:	00008067          	jalr	x0,0(x1)

80001b64 <global_stdio_init.part.0>:
80001b64:	fe010113          	addi	x2,x2,-32
80001b68:	800027b7          	lui	x15,0x80002
80001b6c:	00812c23          	sw	x8,24(x2)
80001b70:	80104737          	lui	x14,0x80104
80001b74:	ad878793          	addi	x15,x15,-1320 # 80001ad8 <stdio_exit_handler>
80001b78:	80104437          	lui	x8,0x80104
80001b7c:	80104537          	lui	x10,0x80104
80001b80:	e4440413          	addi	x8,x8,-444 # 80103e44 <__sf>
80001b84:	00112e23          	sw	x1,28(x2)
80001b88:	00912a23          	sw	x9,20(x2)
80001b8c:	01212823          	sw	x18,16(x2)
80001b90:	01312623          	sw	x19,12(x2)
80001b94:	01412423          	sw	x20,8(x2)
80001b98:	faf72a23          	sw	x15,-76(x14) # 80103fb4 <__stdio_exit_handler>
80001b9c:	00800613          	addi	x12,x0,8
80001ba0:	00400793          	addi	x15,x0,4
80001ba4:	00000593          	addi	x11,x0,0
80001ba8:	ea050513          	addi	x10,x10,-352 # 80103ea0 <__sf+0x5c>
80001bac:	00f42623          	sw	x15,12(x8)
80001bb0:	00042023          	sw	x0,0(x8)
80001bb4:	00042223          	sw	x0,4(x8)
80001bb8:	00042423          	sw	x0,8(x8)
80001bbc:	06042223          	sw	x0,100(x8)
80001bc0:	00042823          	sw	x0,16(x8)
80001bc4:	00042a23          	sw	x0,20(x8)
80001bc8:	00042c23          	sw	x0,24(x8)
80001bcc:	5d5000ef          	jal	x1,800029a0 <memset>
80001bd0:	000107b7          	lui	x15,0x10
80001bd4:	80002a37          	lui	x20,0x80002
80001bd8:	800029b7          	lui	x19,0x80002
80001bdc:	80002937          	lui	x18,0x80002
80001be0:	800024b7          	lui	x9,0x80002
80001be4:	80104537          	lui	x10,0x80104
80001be8:	2cca0a13          	addi	x20,x20,716 # 800022cc <__sread>
80001bec:	32898993          	addi	x19,x19,808 # 80002328 <__swrite>
80001bf0:	3b090913          	addi	x18,x18,944 # 800023b0 <__sseek>
80001bf4:	42848493          	addi	x9,x9,1064 # 80002428 <__sclose>
80001bf8:	00978793          	addi	x15,x15,9 # 10009 <_stack_size+0xf009>
80001bfc:	00800613          	addi	x12,x0,8
80001c00:	00000593          	addi	x11,x0,0
80001c04:	f0850513          	addi	x10,x10,-248 # 80103f08 <__sf+0xc4>
80001c08:	03442023          	sw	x20,32(x8)
80001c0c:	03342223          	sw	x19,36(x8)
80001c10:	03242423          	sw	x18,40(x8)
80001c14:	02942623          	sw	x9,44(x8)
80001c18:	06f42a23          	sw	x15,116(x8)
80001c1c:	00842e23          	sw	x8,28(x8)
80001c20:	06042423          	sw	x0,104(x8)
80001c24:	06042623          	sw	x0,108(x8)
80001c28:	06042823          	sw	x0,112(x8)
80001c2c:	0c042623          	sw	x0,204(x8)
80001c30:	06042c23          	sw	x0,120(x8)
80001c34:	06042e23          	sw	x0,124(x8)
80001c38:	08042023          	sw	x0,128(x8)
80001c3c:	565000ef          	jal	x1,800029a0 <memset>
80001c40:	000207b7          	lui	x15,0x20
80001c44:	80104537          	lui	x10,0x80104
80001c48:	80104737          	lui	x14,0x80104
80001c4c:	01278793          	addi	x15,x15,18 # 20012 <_stack_size+0x1f012>
80001c50:	eac70713          	addi	x14,x14,-340 # 80103eac <__sf+0x68>
80001c54:	00800613          	addi	x12,x0,8
80001c58:	00000593          	addi	x11,x0,0
80001c5c:	f7050513          	addi	x10,x10,-144 # 80103f70 <__sf+0x12c>
80001c60:	09442423          	sw	x20,136(x8)
80001c64:	09342623          	sw	x19,140(x8)
80001c68:	09242823          	sw	x18,144(x8)
80001c6c:	08942a23          	sw	x9,148(x8)
80001c70:	0cf42e23          	sw	x15,220(x8)
80001c74:	08e42223          	sw	x14,132(x8)
80001c78:	0c042823          	sw	x0,208(x8)
80001c7c:	0c042a23          	sw	x0,212(x8)
80001c80:	0c042c23          	sw	x0,216(x8)
80001c84:	12042a23          	sw	x0,308(x8)
80001c88:	0e042023          	sw	x0,224(x8)
80001c8c:	0e042223          	sw	x0,228(x8)
80001c90:	0e042423          	sw	x0,232(x8)
80001c94:	50d000ef          	jal	x1,800029a0 <memset>
80001c98:	801047b7          	lui	x15,0x80104
80001c9c:	f1478793          	addi	x15,x15,-236 # 80103f14 <__sf+0xd0>
80001ca0:	0f442823          	sw	x20,240(x8)
80001ca4:	0f342a23          	sw	x19,244(x8)
80001ca8:	0f242c23          	sw	x18,248(x8)
80001cac:	0e942e23          	sw	x9,252(x8)
80001cb0:	01c12083          	lw	x1,28(x2)
80001cb4:	0ef42623          	sw	x15,236(x8)
80001cb8:	01812403          	lw	x8,24(x2)
80001cbc:	01412483          	lw	x9,20(x2)
80001cc0:	01012903          	lw	x18,16(x2)
80001cc4:	00c12983          	lw	x19,12(x2)
80001cc8:	00812a03          	lw	x20,8(x2)
80001ccc:	02010113          	addi	x2,x2,32
80001cd0:	00008067          	jalr	x0,0(x1)

80001cd4 <__sinit>:
80001cd4:	03452783          	lw	x15,52(x10)
80001cd8:	00078463          	beq	x15,x0,80001ce0 <__sinit+0xc>
80001cdc:	00008067          	jalr	x0,0(x1)
80001ce0:	801047b7          	lui	x15,0x80104
80001ce4:	fb47a703          	lw	x14,-76(x15) # 80103fb4 <__stdio_exit_handler>
80001ce8:	800027b7          	lui	x15,0x80002
80001cec:	af478793          	addi	x15,x15,-1292 # 80001af4 <cleanup_stdio>
80001cf0:	02f52a23          	sw	x15,52(x10)
80001cf4:	fe0714e3          	bne	x14,x0,80001cdc <__sinit+0x8>
80001cf8:	e6dff06f          	jal	x0,80001b64 <global_stdio_init.part.0>

80001cfc <__sfp_lock_acquire>:
80001cfc:	00008067          	jalr	x0,0(x1)

80001d00 <__sfp_lock_release>:
80001d00:	00008067          	jalr	x0,0(x1)

80001d04 <__sfvwrite_r>:
80001d04:	00862783          	lw	x15,8(x12)
80001d08:	2c078463          	beq	x15,x0,80001fd0 <__sfvwrite_r+0x2cc>
80001d0c:	00c59683          	lh	x13,12(x11)
80001d10:	fd010113          	addi	x2,x2,-48
80001d14:	02812423          	sw	x8,40(x2)
80001d18:	01412c23          	sw	x20,24(x2)
80001d1c:	01612823          	sw	x22,16(x2)
80001d20:	02112623          	sw	x1,44(x2)
80001d24:	0086f793          	andi	x15,x13,8
80001d28:	00060b13          	addi	x22,x12,0
80001d2c:	00050a13          	addi	x20,x10,0
80001d30:	00058413          	addi	x8,x11,0
80001d34:	08078e63          	beq	x15,x0,80001dd0 <__sfvwrite_r+0xcc>
80001d38:	0105a783          	lw	x15,16(x11)
80001d3c:	08078a63          	beq	x15,x0,80001dd0 <__sfvwrite_r+0xcc>
80001d40:	02912223          	sw	x9,36(x2)
80001d44:	03212023          	sw	x18,32(x2)
80001d48:	01312e23          	sw	x19,28(x2)
80001d4c:	01512a23          	sw	x21,20(x2)
80001d50:	0026f793          	andi	x15,x13,2
80001d54:	000b2483          	lw	x9,0(x22)
80001d58:	0a078463          	beq	x15,x0,80001e00 <__sfvwrite_r+0xfc>
80001d5c:	02442783          	lw	x15,36(x8)
80001d60:	01c42583          	lw	x11,28(x8)
80001d64:	80000ab7          	lui	x21,0x80000
80001d68:	00000993          	addi	x19,x0,0
80001d6c:	00000913          	addi	x18,x0,0
80001d70:	c00a8a93          	addi	x21,x21,-1024 # 7ffffc00 <SYSCALL_ADDR+0x7dfefc00>
80001d74:	00098613          	addi	x12,x19,0
80001d78:	000a0513          	addi	x10,x20,0
80001d7c:	04090263          	beq	x18,x0,80001dc0 <__sfvwrite_r+0xbc>
80001d80:	00090693          	addi	x13,x18,0
80001d84:	012af463          	bgeu	x21,x18,80001d8c <__sfvwrite_r+0x88>
80001d88:	000a8693          	addi	x13,x21,0
80001d8c:	000780e7          	jalr	x1,0(x15)
80001d90:	46a05263          	bge	x0,x10,800021f4 <__sfvwrite_r+0x4f0>
80001d94:	008b2783          	lw	x15,8(x22)
80001d98:	00a989b3          	add	x19,x19,x10
80001d9c:	40a90933          	sub	x18,x18,x10
80001da0:	40a787b3          	sub	x15,x15,x10
80001da4:	00fb2423          	sw	x15,8(x22)
80001da8:	1a078663          	beq	x15,x0,80001f54 <__sfvwrite_r+0x250>
80001dac:	02442783          	lw	x15,36(x8)
80001db0:	01c42583          	lw	x11,28(x8)
80001db4:	00098613          	addi	x12,x19,0
80001db8:	000a0513          	addi	x10,x20,0
80001dbc:	fc0912e3          	bne	x18,x0,80001d80 <__sfvwrite_r+0x7c>
80001dc0:	0004a983          	lw	x19,0(x9)
80001dc4:	0044a903          	lw	x18,4(x9)
80001dc8:	00848493          	addi	x9,x9,8
80001dcc:	fa9ff06f          	jal	x0,80001d74 <__sfvwrite_r+0x70>
80001dd0:	00040593          	addi	x11,x8,0
80001dd4:	000a0513          	addi	x10,x20,0
80001dd8:	658000ef          	jal	x1,80002430 <__swsetup_r>
80001ddc:	1c051c63          	bne	x10,x0,80001fb4 <__sfvwrite_r+0x2b0>
80001de0:	00c41683          	lh	x13,12(x8)
80001de4:	02912223          	sw	x9,36(x2)
80001de8:	03212023          	sw	x18,32(x2)
80001dec:	01312e23          	sw	x19,28(x2)
80001df0:	01512a23          	sw	x21,20(x2)
80001df4:	0026f793          	andi	x15,x13,2
80001df8:	000b2483          	lw	x9,0(x22)
80001dfc:	f60790e3          	bne	x15,x0,80001d5c <__sfvwrite_r+0x58>
80001e00:	01712623          	sw	x23,12(x2)
80001e04:	01812423          	sw	x24,8(x2)
80001e08:	0016f793          	andi	x15,x13,1
80001e0c:	1c079663          	bne	x15,x0,80001fd8 <__sfvwrite_r+0x2d4>
80001e10:	00042783          	lw	x15,0(x8)
80001e14:	00842703          	lw	x14,8(x8)
80001e18:	80000ab7          	lui	x21,0x80000
80001e1c:	01912223          	sw	x25,4(x2)
80001e20:	00000b93          	addi	x23,x0,0
80001e24:	00000993          	addi	x19,x0,0
80001e28:	fffa8a93          	addi	x21,x21,-1 # 7fffffff <SYSCALL_ADDR+0x7dfeffff>
80001e2c:	00078513          	addi	x10,x15,0
80001e30:	00070c13          	addi	x24,x14,0
80001e34:	10098263          	beq	x19,x0,80001f38 <__sfvwrite_r+0x234>
80001e38:	2006f613          	andi	x12,x13,512
80001e3c:	28060863          	beq	x12,x0,800020cc <__sfvwrite_r+0x3c8>
80001e40:	00070c93          	addi	x25,x14,0
80001e44:	32e9e863          	bltu	x19,x14,80002174 <__sfvwrite_r+0x470>
80001e48:	4806f713          	andi	x14,x13,1152
80001e4c:	08070a63          	beq	x14,x0,80001ee0 <__sfvwrite_r+0x1dc>
80001e50:	01442603          	lw	x12,20(x8)
80001e54:	01042583          	lw	x11,16(x8)
80001e58:	00161713          	slli	x14,x12,0x1
80001e5c:	00c70733          	add	x14,x14,x12
80001e60:	40b78933          	sub	x18,x15,x11
80001e64:	01f75c13          	srli	x24,x14,0x1f
80001e68:	00ec0c33          	add	x24,x24,x14
80001e6c:	00190793          	addi	x15,x18,1
80001e70:	401c5c13          	srai	x24,x24,0x1
80001e74:	013787b3          	add	x15,x15,x19
80001e78:	000c0613          	addi	x12,x24,0
80001e7c:	00fc7663          	bgeu	x24,x15,80001e88 <__sfvwrite_r+0x184>
80001e80:	00078c13          	addi	x24,x15,0
80001e84:	00078613          	addi	x12,x15,0
80001e88:	4006f693          	andi	x13,x13,1024
80001e8c:	32068063          	beq	x13,x0,800021ac <__sfvwrite_r+0x4a8>
80001e90:	00060593          	addi	x11,x12,0
80001e94:	000a0513          	addi	x10,x20,0
80001e98:	27c010ef          	jal	x1,80003114 <_malloc_r>
80001e9c:	00050c93          	addi	x25,x10,0
80001ea0:	34050e63          	beq	x10,x0,800021fc <__sfvwrite_r+0x4f8>
80001ea4:	01042583          	lw	x11,16(x8)
80001ea8:	00090613          	addi	x12,x18,0
80001eac:	3d1000ef          	jal	x1,80002a7c <memcpy>
80001eb0:	00c45783          	lhu	x15,12(x8)
80001eb4:	b7f7f793          	andi	x15,x15,-1153
80001eb8:	0807e793          	ori	x15,x15,128
80001ebc:	00f41623          	sh	x15,12(x8)
80001ec0:	012c8533          	add	x10,x25,x18
80001ec4:	412c07b3          	sub	x15,x24,x18
80001ec8:	01942823          	sw	x25,16(x8)
80001ecc:	01842a23          	sw	x24,20(x8)
80001ed0:	00a42023          	sw	x10,0(x8)
80001ed4:	00098c13          	addi	x24,x19,0
80001ed8:	00f42423          	sw	x15,8(x8)
80001edc:	00098c93          	addi	x25,x19,0
80001ee0:	000c8613          	addi	x12,x25,0
80001ee4:	000b8593          	addi	x11,x23,0
80001ee8:	1ad000ef          	jal	x1,80002894 <memmove>
80001eec:	00842703          	lw	x14,8(x8)
80001ef0:	00042783          	lw	x15,0(x8)
80001ef4:	00098913          	addi	x18,x19,0
80001ef8:	41870733          	sub	x14,x14,x24
80001efc:	019787b3          	add	x15,x15,x25
80001f00:	00e42423          	sw	x14,8(x8)
80001f04:	00f42023          	sw	x15,0(x8)
80001f08:	00000993          	addi	x19,x0,0
80001f0c:	008b2783          	lw	x15,8(x22)
80001f10:	012b8bb3          	add	x23,x23,x18
80001f14:	412787b3          	sub	x15,x15,x18
80001f18:	00fb2423          	sw	x15,8(x22)
80001f1c:	02078663          	beq	x15,x0,80001f48 <__sfvwrite_r+0x244>
80001f20:	00042783          	lw	x15,0(x8)
80001f24:	00842703          	lw	x14,8(x8)
80001f28:	00c41683          	lh	x13,12(x8)
80001f2c:	00078513          	addi	x10,x15,0
80001f30:	00070c13          	addi	x24,x14,0
80001f34:	f00992e3          	bne	x19,x0,80001e38 <__sfvwrite_r+0x134>
80001f38:	0004ab83          	lw	x23,0(x9)
80001f3c:	0044a983          	lw	x19,4(x9)
80001f40:	00848493          	addi	x9,x9,8
80001f44:	ee9ff06f          	jal	x0,80001e2c <__sfvwrite_r+0x128>
80001f48:	00c12b83          	lw	x23,12(x2)
80001f4c:	00812c03          	lw	x24,8(x2)
80001f50:	00412c83          	lw	x25,4(x2)
80001f54:	02c12083          	lw	x1,44(x2)
80001f58:	02812403          	lw	x8,40(x2)
80001f5c:	02412483          	lw	x9,36(x2)
80001f60:	02012903          	lw	x18,32(x2)
80001f64:	01c12983          	lw	x19,28(x2)
80001f68:	01412a83          	lw	x21,20(x2)
80001f6c:	01812a03          	lw	x20,24(x2)
80001f70:	01012b03          	lw	x22,16(x2)
80001f74:	00000513          	addi	x10,x0,0
80001f78:	03010113          	addi	x2,x2,48
80001f7c:	00008067          	jalr	x0,0(x1)
80001f80:	00040593          	addi	x11,x8,0
80001f84:	000a0513          	addi	x10,x20,0
80001f88:	af5ff0ef          	jal	x1,80001a7c <_fflush_r>
80001f8c:	0a050e63          	beq	x10,x0,80002048 <__sfvwrite_r+0x344>
80001f90:	00c41783          	lh	x15,12(x8)
80001f94:	00c12b83          	lw	x23,12(x2)
80001f98:	00812c03          	lw	x24,8(x2)
80001f9c:	02412483          	lw	x9,36(x2)
80001fa0:	02012903          	lw	x18,32(x2)
80001fa4:	01c12983          	lw	x19,28(x2)
80001fa8:	01412a83          	lw	x21,20(x2)
80001fac:	0407e793          	ori	x15,x15,64
80001fb0:	00f41623          	sh	x15,12(x8)
80001fb4:	02c12083          	lw	x1,44(x2)
80001fb8:	02812403          	lw	x8,40(x2)
80001fbc:	01812a03          	lw	x20,24(x2)
80001fc0:	01012b03          	lw	x22,16(x2)
80001fc4:	fff00513          	addi	x10,x0,-1
80001fc8:	03010113          	addi	x2,x2,48
80001fcc:	00008067          	jalr	x0,0(x1)
80001fd0:	00000513          	addi	x10,x0,0
80001fd4:	00008067          	jalr	x0,0(x1)
80001fd8:	00000a93          	addi	x21,x0,0
80001fdc:	00000513          	addi	x10,x0,0
80001fe0:	00000c13          	addi	x24,x0,0
80001fe4:	00000993          	addi	x19,x0,0
80001fe8:	08098263          	beq	x19,x0,8000206c <__sfvwrite_r+0x368>
80001fec:	08050a63          	beq	x10,x0,80002080 <__sfvwrite_r+0x37c>
80001ff0:	000a8793          	addi	x15,x21,0
80001ff4:	00098b93          	addi	x23,x19,0
80001ff8:	0137f463          	bgeu	x15,x19,80002000 <__sfvwrite_r+0x2fc>
80001ffc:	00078b93          	addi	x23,x15,0
80002000:	00042503          	lw	x10,0(x8)
80002004:	01042783          	lw	x15,16(x8)
80002008:	00842903          	lw	x18,8(x8)
8000200c:	01442683          	lw	x13,20(x8)
80002010:	00a7f663          	bgeu	x15,x10,8000201c <__sfvwrite_r+0x318>
80002014:	00d90933          	add	x18,x18,x13
80002018:	09794463          	blt	x18,x23,800020a0 <__sfvwrite_r+0x39c>
8000201c:	16dbc263          	blt	x23,x13,80002180 <__sfvwrite_r+0x47c>
80002020:	02442783          	lw	x15,36(x8)
80002024:	01c42583          	lw	x11,28(x8)
80002028:	000c0613          	addi	x12,x24,0
8000202c:	000a0513          	addi	x10,x20,0
80002030:	000780e7          	jalr	x1,0(x15)
80002034:	00050913          	addi	x18,x10,0
80002038:	f4a05ce3          	bge	x0,x10,80001f90 <__sfvwrite_r+0x28c>
8000203c:	412a8ab3          	sub	x21,x21,x18
80002040:	00100513          	addi	x10,x0,1
80002044:	f20a8ee3          	beq	x21,x0,80001f80 <__sfvwrite_r+0x27c>
80002048:	008b2783          	lw	x15,8(x22)
8000204c:	012c0c33          	add	x24,x24,x18
80002050:	412989b3          	sub	x19,x19,x18
80002054:	412787b3          	sub	x15,x15,x18
80002058:	00fb2423          	sw	x15,8(x22)
8000205c:	f80796e3          	bne	x15,x0,80001fe8 <__sfvwrite_r+0x2e4>
80002060:	00c12b83          	lw	x23,12(x2)
80002064:	00812c03          	lw	x24,8(x2)
80002068:	eedff06f          	jal	x0,80001f54 <__sfvwrite_r+0x250>
8000206c:	0044a983          	lw	x19,4(x9)
80002070:	00048793          	addi	x15,x9,0
80002074:	00848493          	addi	x9,x9,8
80002078:	fe098ae3          	beq	x19,x0,8000206c <__sfvwrite_r+0x368>
8000207c:	0007ac03          	lw	x24,0(x15)
80002080:	00098613          	addi	x12,x19,0
80002084:	00a00593          	addi	x11,x0,10
80002088:	000c0513          	addi	x10,x24,0
8000208c:	4e8000ef          	jal	x1,80002574 <memchr>
80002090:	14050c63          	beq	x10,x0,800021e8 <__sfvwrite_r+0x4e4>
80002094:	00150513          	addi	x10,x10,1
80002098:	41850ab3          	sub	x21,x10,x24
8000209c:	f55ff06f          	jal	x0,80001ff0 <__sfvwrite_r+0x2ec>
800020a0:	000c0593          	addi	x11,x24,0
800020a4:	00090613          	addi	x12,x18,0
800020a8:	7ec000ef          	jal	x1,80002894 <memmove>
800020ac:	00042783          	lw	x15,0(x8)
800020b0:	00040593          	addi	x11,x8,0
800020b4:	000a0513          	addi	x10,x20,0
800020b8:	012787b3          	add	x15,x15,x18
800020bc:	00f42023          	sw	x15,0(x8)
800020c0:	9bdff0ef          	jal	x1,80001a7c <_fflush_r>
800020c4:	f6050ce3          	beq	x10,x0,8000203c <__sfvwrite_r+0x338>
800020c8:	ec9ff06f          	jal	x0,80001f90 <__sfvwrite_r+0x28c>
800020cc:	01042683          	lw	x13,16(x8)
800020d0:	04f6e463          	bltu	x13,x15,80002118 <__sfvwrite_r+0x414>
800020d4:	01442583          	lw	x11,20(x8)
800020d8:	04b9e063          	bltu	x19,x11,80002118 <__sfvwrite_r+0x414>
800020dc:	00098913          	addi	x18,x19,0
800020e0:	013af463          	bgeu	x21,x19,800020e8 <__sfvwrite_r+0x3e4>
800020e4:	000a8913          	addi	x18,x21,0
800020e8:	00090513          	addi	x10,x18,0
800020ec:	c40fe0ef          	jal	x1,8000052c <__modsi3>
800020f0:	02442783          	lw	x15,36(x8)
800020f4:	01c42583          	lw	x11,28(x8)
800020f8:	40a906b3          	sub	x13,x18,x10
800020fc:	000b8613          	addi	x12,x23,0
80002100:	000a0513          	addi	x10,x20,0
80002104:	000780e7          	jalr	x1,0(x15)
80002108:	00050913          	addi	x18,x10,0
8000210c:	04a05a63          	bge	x0,x10,80002160 <__sfvwrite_r+0x45c>
80002110:	412989b3          	sub	x19,x19,x18
80002114:	df9ff06f          	jal	x0,80001f0c <__sfvwrite_r+0x208>
80002118:	00070913          	addi	x18,x14,0
8000211c:	00e9f463          	bgeu	x19,x14,80002124 <__sfvwrite_r+0x420>
80002120:	00098913          	addi	x18,x19,0
80002124:	00078513          	addi	x10,x15,0
80002128:	00090613          	addi	x12,x18,0
8000212c:	000b8593          	addi	x11,x23,0
80002130:	764000ef          	jal	x1,80002894 <memmove>
80002134:	00842703          	lw	x14,8(x8)
80002138:	00042783          	lw	x15,0(x8)
8000213c:	41270733          	sub	x14,x14,x18
80002140:	012787b3          	add	x15,x15,x18
80002144:	00e42423          	sw	x14,8(x8)
80002148:	00f42023          	sw	x15,0(x8)
8000214c:	fc0712e3          	bne	x14,x0,80002110 <__sfvwrite_r+0x40c>
80002150:	00040593          	addi	x11,x8,0
80002154:	000a0513          	addi	x10,x20,0
80002158:	925ff0ef          	jal	x1,80001a7c <_fflush_r>
8000215c:	fa050ae3          	beq	x10,x0,80002110 <__sfvwrite_r+0x40c>
80002160:	00c41783          	lh	x15,12(x8)
80002164:	00c12b83          	lw	x23,12(x2)
80002168:	00812c03          	lw	x24,8(x2)
8000216c:	00412c83          	lw	x25,4(x2)
80002170:	e2dff06f          	jal	x0,80001f9c <__sfvwrite_r+0x298>
80002174:	00098c13          	addi	x24,x19,0
80002178:	00098c93          	addi	x25,x19,0
8000217c:	d65ff06f          	jal	x0,80001ee0 <__sfvwrite_r+0x1dc>
80002180:	000b8613          	addi	x12,x23,0
80002184:	000c0593          	addi	x11,x24,0
80002188:	70c000ef          	jal	x1,80002894 <memmove>
8000218c:	00842703          	lw	x14,8(x8)
80002190:	00042783          	lw	x15,0(x8)
80002194:	000b8913          	addi	x18,x23,0
80002198:	41770733          	sub	x14,x14,x23
8000219c:	017787b3          	add	x15,x15,x23
800021a0:	00e42423          	sw	x14,8(x8)
800021a4:	00f42023          	sw	x15,0(x8)
800021a8:	e95ff06f          	jal	x0,8000203c <__sfvwrite_r+0x338>
800021ac:	000a0513          	addi	x10,x20,0
800021b0:	740010ef          	jal	x1,800038f0 <_realloc_r>
800021b4:	00050c93          	addi	x25,x10,0
800021b8:	d00514e3          	bne	x10,x0,80001ec0 <__sfvwrite_r+0x1bc>
800021bc:	01042583          	lw	x11,16(x8)
800021c0:	000a0513          	addi	x10,x20,0
800021c4:	445000ef          	jal	x1,80002e08 <_free_r>
800021c8:	00c41783          	lh	x15,12(x8)
800021cc:	00c00713          	addi	x14,x0,12
800021d0:	00c12b83          	lw	x23,12(x2)
800021d4:	00812c03          	lw	x24,8(x2)
800021d8:	00412c83          	lw	x25,4(x2)
800021dc:	00ea2023          	sw	x14,0(x20)
800021e0:	f7f7f793          	andi	x15,x15,-129
800021e4:	db9ff06f          	jal	x0,80001f9c <__sfvwrite_r+0x298>
800021e8:	00198793          	addi	x15,x19,1
800021ec:	00078a93          	addi	x21,x15,0
800021f0:	e05ff06f          	jal	x0,80001ff4 <__sfvwrite_r+0x2f0>
800021f4:	00c41783          	lh	x15,12(x8)
800021f8:	da5ff06f          	jal	x0,80001f9c <__sfvwrite_r+0x298>
800021fc:	00c00713          	addi	x14,x0,12
80002200:	00c41783          	lh	x15,12(x8)
80002204:	00c12b83          	lw	x23,12(x2)
80002208:	00812c03          	lw	x24,8(x2)
8000220c:	00412c83          	lw	x25,4(x2)
80002210:	00ea2023          	sw	x14,0(x20)
80002214:	d89ff06f          	jal	x0,80001f9c <__sfvwrite_r+0x298>

80002218 <_fwalk_sglue>:
80002218:	fd010113          	addi	x2,x2,-48
8000221c:	03212023          	sw	x18,32(x2)
80002220:	01312e23          	sw	x19,28(x2)
80002224:	01412c23          	sw	x20,24(x2)
80002228:	01512a23          	sw	x21,20(x2)
8000222c:	01612823          	sw	x22,16(x2)
80002230:	01712623          	sw	x23,12(x2)
80002234:	02112623          	sw	x1,44(x2)
80002238:	02812423          	sw	x8,40(x2)
8000223c:	02912223          	sw	x9,36(x2)
80002240:	00050b13          	addi	x22,x10,0
80002244:	00058b93          	addi	x23,x11,0
80002248:	00060a93          	addi	x21,x12,0
8000224c:	00000a13          	addi	x20,x0,0
80002250:	00100993          	addi	x19,x0,1
80002254:	fff00913          	addi	x18,x0,-1
80002258:	004aa483          	lw	x9,4(x21)
8000225c:	008aa403          	lw	x8,8(x21)
80002260:	fff48493          	addi	x9,x9,-1
80002264:	0204c863          	blt	x9,x0,80002294 <_fwalk_sglue+0x7c>
80002268:	00c45783          	lhu	x15,12(x8)
8000226c:	00f9fe63          	bgeu	x19,x15,80002288 <_fwalk_sglue+0x70>
80002270:	00e41783          	lh	x15,14(x8)
80002274:	00040593          	addi	x11,x8,0
80002278:	000b0513          	addi	x10,x22,0
8000227c:	01278663          	beq	x15,x18,80002288 <_fwalk_sglue+0x70>
80002280:	000b80e7          	jalr	x1,0(x23)
80002284:	00aa6a33          	or	x20,x20,x10
80002288:	fff48493          	addi	x9,x9,-1
8000228c:	06840413          	addi	x8,x8,104
80002290:	fd249ce3          	bne	x9,x18,80002268 <_fwalk_sglue+0x50>
80002294:	000aaa83          	lw	x21,0(x21)
80002298:	fc0a90e3          	bne	x21,x0,80002258 <_fwalk_sglue+0x40>
8000229c:	02c12083          	lw	x1,44(x2)
800022a0:	02812403          	lw	x8,40(x2)
800022a4:	02412483          	lw	x9,36(x2)
800022a8:	02012903          	lw	x18,32(x2)
800022ac:	01c12983          	lw	x19,28(x2)
800022b0:	01412a83          	lw	x21,20(x2)
800022b4:	01012b03          	lw	x22,16(x2)
800022b8:	00c12b83          	lw	x23,12(x2)
800022bc:	000a0513          	addi	x10,x20,0
800022c0:	01812a03          	lw	x20,24(x2)
800022c4:	03010113          	addi	x2,x2,48
800022c8:	00008067          	jalr	x0,0(x1)

800022cc <__sread>:
800022cc:	ff010113          	addi	x2,x2,-16
800022d0:	00812423          	sw	x8,8(x2)
800022d4:	00058413          	addi	x8,x11,0
800022d8:	00e59583          	lh	x11,14(x11)
800022dc:	00112623          	sw	x1,12(x2)
800022e0:	4dc000ef          	jal	x1,800027bc <_read_r>
800022e4:	02054063          	blt	x10,x0,80002304 <__sread+0x38>
800022e8:	05042783          	lw	x15,80(x8)
800022ec:	00c12083          	lw	x1,12(x2)
800022f0:	00a787b3          	add	x15,x15,x10
800022f4:	04f42823          	sw	x15,80(x8)
800022f8:	00812403          	lw	x8,8(x2)
800022fc:	01010113          	addi	x2,x2,16
80002300:	00008067          	jalr	x0,0(x1)
80002304:	00c45783          	lhu	x15,12(x8)
80002308:	fffff737          	lui	x14,0xfffff
8000230c:	fff70713          	addi	x14,x14,-1 # ffffefff <_end+0x7fefa02f>
80002310:	00e7f7b3          	and	x15,x15,x14
80002314:	00c12083          	lw	x1,12(x2)
80002318:	00f41623          	sh	x15,12(x8)
8000231c:	00812403          	lw	x8,8(x2)
80002320:	01010113          	addi	x2,x2,16
80002324:	00008067          	jalr	x0,0(x1)

80002328 <__swrite>:
80002328:	00c59783          	lh	x15,12(x11)
8000232c:	fe010113          	addi	x2,x2,-32
80002330:	00812c23          	sw	x8,24(x2)
80002334:	00912a23          	sw	x9,20(x2)
80002338:	01212823          	sw	x18,16(x2)
8000233c:	01312623          	sw	x19,12(x2)
80002340:	00112e23          	sw	x1,28(x2)
80002344:	1007f713          	andi	x14,x15,256
80002348:	00058413          	addi	x8,x11,0
8000234c:	00050493          	addi	x9,x10,0
80002350:	00060913          	addi	x18,x12,0
80002354:	00068993          	addi	x19,x13,0
80002358:	04071063          	bne	x14,x0,80002398 <__swrite+0x70>
8000235c:	fffff737          	lui	x14,0xfffff
80002360:	fff70713          	addi	x14,x14,-1 # ffffefff <_end+0x7fefa02f>
80002364:	00e7f7b3          	and	x15,x15,x14
80002368:	00e41583          	lh	x11,14(x8)
8000236c:	00f41623          	sh	x15,12(x8)
80002370:	01812403          	lw	x8,24(x2)
80002374:	01c12083          	lw	x1,28(x2)
80002378:	00098693          	addi	x13,x19,0
8000237c:	00090613          	addi	x12,x18,0
80002380:	00c12983          	lw	x19,12(x2)
80002384:	01012903          	lw	x18,16(x2)
80002388:	00048513          	addi	x10,x9,0
8000238c:	01412483          	lw	x9,20(x2)
80002390:	02010113          	addi	x2,x2,32
80002394:	4940006f          	jal	x0,80002828 <_write_r>
80002398:	00e59583          	lh	x11,14(x11)
8000239c:	00200693          	addi	x13,x0,2
800023a0:	00000613          	addi	x12,x0,0
800023a4:	3ac000ef          	jal	x1,80002750 <_lseek_r>
800023a8:	00c41783          	lh	x15,12(x8)
800023ac:	fb1ff06f          	jal	x0,8000235c <__swrite+0x34>

800023b0 <__sseek>:
800023b0:	ff010113          	addi	x2,x2,-16
800023b4:	00812423          	sw	x8,8(x2)
800023b8:	00058413          	addi	x8,x11,0
800023bc:	00e59583          	lh	x11,14(x11)
800023c0:	00112623          	sw	x1,12(x2)
800023c4:	38c000ef          	jal	x1,80002750 <_lseek_r>
800023c8:	fff00793          	addi	x15,x0,-1
800023cc:	02f50863          	beq	x10,x15,800023fc <__sseek+0x4c>
800023d0:	00c45783          	lhu	x15,12(x8)
800023d4:	00001737          	lui	x14,0x1
800023d8:	00c12083          	lw	x1,12(x2)
800023dc:	00e7e7b3          	or	x15,x15,x14
800023e0:	01079793          	slli	x15,x15,0x10
800023e4:	4107d793          	srai	x15,x15,0x10
800023e8:	04a42823          	sw	x10,80(x8)
800023ec:	00f41623          	sh	x15,12(x8)
800023f0:	00812403          	lw	x8,8(x2)
800023f4:	01010113          	addi	x2,x2,16
800023f8:	00008067          	jalr	x0,0(x1)
800023fc:	00c45783          	lhu	x15,12(x8)
80002400:	fffff737          	lui	x14,0xfffff
80002404:	fff70713          	addi	x14,x14,-1 # ffffefff <_end+0x7fefa02f>
80002408:	00e7f7b3          	and	x15,x15,x14
8000240c:	01079793          	slli	x15,x15,0x10
80002410:	4107d793          	srai	x15,x15,0x10
80002414:	00c12083          	lw	x1,12(x2)
80002418:	00f41623          	sh	x15,12(x8)
8000241c:	00812403          	lw	x8,8(x2)
80002420:	01010113          	addi	x2,x2,16
80002424:	00008067          	jalr	x0,0(x1)

80002428 <__sclose>:
80002428:	00e59583          	lh	x11,14(x11)
8000242c:	2c40006f          	jal	x0,800026f0 <_close_r>

80002430 <__swsetup_r>:
80002430:	801017b7          	lui	x15,0x80101
80002434:	6a47a783          	lw	x15,1700(x15) # 801016a4 <_impure_ptr>
80002438:	ff010113          	addi	x2,x2,-16
8000243c:	00812423          	sw	x8,8(x2)
80002440:	00912223          	sw	x9,4(x2)
80002444:	00112623          	sw	x1,12(x2)
80002448:	00050493          	addi	x9,x10,0
8000244c:	00058413          	addi	x8,x11,0
80002450:	00078663          	beq	x15,x0,8000245c <__swsetup_r+0x2c>
80002454:	0347a703          	lw	x14,52(x15)
80002458:	0e070c63          	beq	x14,x0,80002550 <__swsetup_r+0x120>
8000245c:	00c41783          	lh	x15,12(x8)
80002460:	0087f713          	andi	x14,x15,8
80002464:	06070a63          	beq	x14,x0,800024d8 <__swsetup_r+0xa8>
80002468:	01042703          	lw	x14,16(x8)
8000246c:	08070663          	beq	x14,x0,800024f8 <__swsetup_r+0xc8>
80002470:	0017f693          	andi	x13,x15,1
80002474:	02068863          	beq	x13,x0,800024a4 <__swsetup_r+0x74>
80002478:	01442683          	lw	x13,20(x8)
8000247c:	00042423          	sw	x0,8(x8)
80002480:	00000513          	addi	x10,x0,0
80002484:	40d006b3          	sub	x13,x0,x13
80002488:	00d42c23          	sw	x13,24(x8)
8000248c:	02070a63          	beq	x14,x0,800024c0 <__swsetup_r+0x90>
80002490:	00c12083          	lw	x1,12(x2)
80002494:	00812403          	lw	x8,8(x2)
80002498:	00412483          	lw	x9,4(x2)
8000249c:	01010113          	addi	x2,x2,16
800024a0:	00008067          	jalr	x0,0(x1)
800024a4:	0027f693          	andi	x13,x15,2
800024a8:	00000613          	addi	x12,x0,0
800024ac:	00069463          	bne	x13,x0,800024b4 <__swsetup_r+0x84>
800024b0:	01442603          	lw	x12,20(x8)
800024b4:	00c42423          	sw	x12,8(x8)
800024b8:	00000513          	addi	x10,x0,0
800024bc:	fc071ae3          	bne	x14,x0,80002490 <__swsetup_r+0x60>
800024c0:	0807f713          	andi	x14,x15,128
800024c4:	fc0706e3          	beq	x14,x0,80002490 <__swsetup_r+0x60>
800024c8:	0407e793          	ori	x15,x15,64
800024cc:	00f41623          	sh	x15,12(x8)
800024d0:	fff00513          	addi	x10,x0,-1
800024d4:	fbdff06f          	jal	x0,80002490 <__swsetup_r+0x60>
800024d8:	0107f713          	andi	x14,x15,16
800024dc:	08070063          	beq	x14,x0,8000255c <__swsetup_r+0x12c>
800024e0:	0047f713          	andi	x14,x15,4
800024e4:	02071c63          	bne	x14,x0,8000251c <__swsetup_r+0xec>
800024e8:	01042703          	lw	x14,16(x8)
800024ec:	0087e793          	ori	x15,x15,8
800024f0:	00f41623          	sh	x15,12(x8)
800024f4:	f6071ee3          	bne	x14,x0,80002470 <__swsetup_r+0x40>
800024f8:	2807f693          	andi	x13,x15,640
800024fc:	20000613          	addi	x12,x0,512
80002500:	f6c688e3          	beq	x13,x12,80002470 <__swsetup_r+0x40>
80002504:	00040593          	addi	x11,x8,0
80002508:	00048513          	addi	x10,x9,0
8000250c:	25d010ef          	jal	x1,80003f68 <__smakebuf_r>
80002510:	00c41783          	lh	x15,12(x8)
80002514:	01042703          	lw	x14,16(x8)
80002518:	f59ff06f          	jal	x0,80002470 <__swsetup_r+0x40>
8000251c:	03042583          	lw	x11,48(x8)
80002520:	00058e63          	beq	x11,x0,8000253c <__swsetup_r+0x10c>
80002524:	04040713          	addi	x14,x8,64
80002528:	00e58863          	beq	x11,x14,80002538 <__swsetup_r+0x108>
8000252c:	00048513          	addi	x10,x9,0
80002530:	0d9000ef          	jal	x1,80002e08 <_free_r>
80002534:	00c41783          	lh	x15,12(x8)
80002538:	02042823          	sw	x0,48(x8)
8000253c:	01042703          	lw	x14,16(x8)
80002540:	fdb7f793          	andi	x15,x15,-37
80002544:	00042223          	sw	x0,4(x8)
80002548:	00e42023          	sw	x14,0(x8)
8000254c:	fa1ff06f          	jal	x0,800024ec <__swsetup_r+0xbc>
80002550:	00078513          	addi	x10,x15,0
80002554:	f80ff0ef          	jal	x1,80001cd4 <__sinit>
80002558:	f05ff06f          	jal	x0,8000245c <__swsetup_r+0x2c>
8000255c:	00900713          	addi	x14,x0,9
80002560:	00e4a023          	sw	x14,0(x9)
80002564:	0407e793          	ori	x15,x15,64
80002568:	00f41623          	sh	x15,12(x8)
8000256c:	fff00513          	addi	x10,x0,-1
80002570:	f21ff06f          	jal	x0,80002490 <__swsetup_r+0x60>

80002574 <memchr>:
80002574:	00357793          	andi	x15,x10,3
80002578:	0ff5f693          	andi	x13,x11,255
8000257c:	02078a63          	beq	x15,x0,800025b0 <memchr+0x3c>
80002580:	fff60793          	addi	x15,x12,-1
80002584:	02060e63          	beq	x12,x0,800025c0 <memchr+0x4c>
80002588:	fff00613          	addi	x12,x0,-1
8000258c:	0180006f          	jal	x0,800025a4 <memchr+0x30>
80002590:	00150513          	addi	x10,x10,1
80002594:	00357713          	andi	x14,x10,3
80002598:	00070e63          	beq	x14,x0,800025b4 <memchr+0x40>
8000259c:	fff78793          	addi	x15,x15,-1
800025a0:	02c78063          	beq	x15,x12,800025c0 <memchr+0x4c>
800025a4:	00054703          	lbu	x14,0(x10)
800025a8:	fed714e3          	bne	x14,x13,80002590 <memchr+0x1c>
800025ac:	00008067          	jalr	x0,0(x1)
800025b0:	00060793          	addi	x15,x12,0
800025b4:	00300713          	addi	x14,x0,3
800025b8:	00f76863          	bltu	x14,x15,800025c8 <memchr+0x54>
800025bc:	06079063          	bne	x15,x0,8000261c <memchr+0xa8>
800025c0:	00000513          	addi	x10,x0,0
800025c4:	00008067          	jalr	x0,0(x1)
800025c8:	0ff5f593          	andi	x11,x11,255
800025cc:	00859713          	slli	x14,x11,0x8
800025d0:	00b705b3          	add	x11,x14,x11
800025d4:	01059713          	slli	x14,x11,0x10
800025d8:	feff08b7          	lui	x17,0xfeff0
800025dc:	80808837          	lui	x16,0x80808
800025e0:	00e585b3          	add	x11,x11,x14
800025e4:	eff88893          	addi	x17,x17,-257 # fefefeff <_end+0x7eeeaf2f>
800025e8:	08080813          	addi	x16,x16,128 # 80808080 <_end+0x7030b0>
800025ec:	00300313          	addi	x6,x0,3
800025f0:	0100006f          	jal	x0,80002600 <memchr+0x8c>
800025f4:	ffc78793          	addi	x15,x15,-4
800025f8:	00450513          	addi	x10,x10,4
800025fc:	fcf370e3          	bgeu	x6,x15,800025bc <memchr+0x48>
80002600:	00052703          	lw	x14,0(x10)
80002604:	00e5c733          	xor	x14,x11,x14
80002608:	01170633          	add	x12,x14,x17
8000260c:	fff74713          	xori	x14,x14,-1
80002610:	00e67733          	and	x14,x12,x14
80002614:	01077733          	and	x14,x14,x16
80002618:	fc070ee3          	beq	x14,x0,800025f4 <memchr+0x80>
8000261c:	00f507b3          	add	x15,x10,x15
80002620:	00c0006f          	jal	x0,8000262c <memchr+0xb8>
80002624:	00150513          	addi	x10,x10,1
80002628:	f8f50ce3          	beq	x10,x15,800025c0 <memchr+0x4c>
8000262c:	00054703          	lbu	x14,0(x10)
80002630:	fed71ae3          	bne	x14,x13,80002624 <memchr+0xb0>
80002634:	00008067          	jalr	x0,0(x1)

80002638 <strncpy>:
80002638:	00a5e7b3          	or	x15,x11,x10
8000263c:	0037f793          	andi	x15,x15,3
80002640:	00079663          	bne	x15,x0,8000264c <strncpy+0x14>
80002644:	00300793          	addi	x15,x0,3
80002648:	04c7e663          	bltu	x15,x12,80002694 <strncpy+0x5c>
8000264c:	00050713          	addi	x14,x10,0
80002650:	01c0006f          	jal	x0,8000266c <strncpy+0x34>
80002654:	fff5c683          	lbu	x13,-1(x11)
80002658:	fff60813          	addi	x16,x12,-1
8000265c:	fed78fa3          	sb	x13,-1(x15)
80002660:	00068e63          	beq	x13,x0,8000267c <strncpy+0x44>
80002664:	00078713          	addi	x14,x15,0
80002668:	00080613          	addi	x12,x16,0
8000266c:	00158593          	addi	x11,x11,1
80002670:	00170793          	addi	x15,x14,1
80002674:	fe0610e3          	bne	x12,x0,80002654 <strncpy+0x1c>
80002678:	00008067          	jalr	x0,0(x1)
8000267c:	00c70733          	add	x14,x14,x12
80002680:	06080063          	beq	x16,x0,800026e0 <strncpy+0xa8>
80002684:	00178793          	addi	x15,x15,1
80002688:	fe078fa3          	sb	x0,-1(x15)
8000268c:	fee79ce3          	bne	x15,x14,80002684 <strncpy+0x4c>
80002690:	00008067          	jalr	x0,0(x1)
80002694:	feff0337          	lui	x6,0xfeff0
80002698:	808088b7          	lui	x17,0x80808
8000269c:	00050713          	addi	x14,x10,0
800026a0:	eff30313          	addi	x6,x6,-257 # fefefeff <_end+0x7eeeaf2f>
800026a4:	08088893          	addi	x17,x17,128 # 80808080 <_end+0x7030b0>
800026a8:	00300e13          	addi	x28,x0,3
800026ac:	0180006f          	jal	x0,800026c4 <strncpy+0x8c>
800026b0:	00d72023          	sw	x13,0(x14)
800026b4:	ffc60613          	addi	x12,x12,-4
800026b8:	00470713          	addi	x14,x14,4
800026bc:	00458593          	addi	x11,x11,4
800026c0:	face76e3          	bgeu	x28,x12,8000266c <strncpy+0x34>
800026c4:	0005a683          	lw	x13,0(x11)
800026c8:	006687b3          	add	x15,x13,x6
800026cc:	fff6c813          	xori	x16,x13,-1
800026d0:	0107f7b3          	and	x15,x15,x16
800026d4:	0117f7b3          	and	x15,x15,x17
800026d8:	fc078ce3          	beq	x15,x0,800026b0 <strncpy+0x78>
800026dc:	f91ff06f          	jal	x0,8000266c <strncpy+0x34>
800026e0:	00008067          	jalr	x0,0(x1)

800026e4 <_localeconv_r>:
800026e4:	80101537          	lui	x10,0x80101
800026e8:	62850513          	addi	x10,x10,1576 # 80101628 <__global_locale+0xf0>
800026ec:	00008067          	jalr	x0,0(x1)

800026f0 <_close_r>:
800026f0:	ff010113          	addi	x2,x2,-16
800026f4:	00812423          	sw	x8,8(x2)
800026f8:	00912223          	sw	x9,4(x2)
800026fc:	00050413          	addi	x8,x10,0
80002700:	801044b7          	lui	x9,0x80104
80002704:	00058513          	addi	x10,x11,0
80002708:	00112623          	sw	x1,12(x2)
8000270c:	fa04ac23          	sw	x0,-72(x9) # 80103fb8 <errno>
80002710:	4e1010ef          	jal	x1,800043f0 <_close>
80002714:	fff00793          	addi	x15,x0,-1
80002718:	00f50c63          	beq	x10,x15,80002730 <_close_r+0x40>
8000271c:	00c12083          	lw	x1,12(x2)
80002720:	00812403          	lw	x8,8(x2)
80002724:	00412483          	lw	x9,4(x2)
80002728:	01010113          	addi	x2,x2,16
8000272c:	00008067          	jalr	x0,0(x1)
80002730:	fb84a783          	lw	x15,-72(x9)
80002734:	fe0784e3          	beq	x15,x0,8000271c <_close_r+0x2c>
80002738:	00c12083          	lw	x1,12(x2)
8000273c:	00f42023          	sw	x15,0(x8)
80002740:	00812403          	lw	x8,8(x2)
80002744:	00412483          	lw	x9,4(x2)
80002748:	01010113          	addi	x2,x2,16
8000274c:	00008067          	jalr	x0,0(x1)

80002750 <_lseek_r>:
80002750:	ff010113          	addi	x2,x2,-16
80002754:	00058713          	addi	x14,x11,0
80002758:	00812423          	sw	x8,8(x2)
8000275c:	00912223          	sw	x9,4(x2)
80002760:	00060593          	addi	x11,x12,0
80002764:	00050413          	addi	x8,x10,0
80002768:	801044b7          	lui	x9,0x80104
8000276c:	00068613          	addi	x12,x13,0
80002770:	00070513          	addi	x10,x14,0
80002774:	00112623          	sw	x1,12(x2)
80002778:	fa04ac23          	sw	x0,-72(x9) # 80103fb8 <errno>
8000277c:	5b5010ef          	jal	x1,80004530 <_lseek>
80002780:	fff00793          	addi	x15,x0,-1
80002784:	00f50c63          	beq	x10,x15,8000279c <_lseek_r+0x4c>
80002788:	00c12083          	lw	x1,12(x2)
8000278c:	00812403          	lw	x8,8(x2)
80002790:	00412483          	lw	x9,4(x2)
80002794:	01010113          	addi	x2,x2,16
80002798:	00008067          	jalr	x0,0(x1)
8000279c:	fb84a783          	lw	x15,-72(x9)
800027a0:	fe0784e3          	beq	x15,x0,80002788 <_lseek_r+0x38>
800027a4:	00c12083          	lw	x1,12(x2)
800027a8:	00f42023          	sw	x15,0(x8)
800027ac:	00812403          	lw	x8,8(x2)
800027b0:	00412483          	lw	x9,4(x2)
800027b4:	01010113          	addi	x2,x2,16
800027b8:	00008067          	jalr	x0,0(x1)

800027bc <_read_r>:
800027bc:	ff010113          	addi	x2,x2,-16
800027c0:	00058713          	addi	x14,x11,0
800027c4:	00812423          	sw	x8,8(x2)
800027c8:	00912223          	sw	x9,4(x2)
800027cc:	00060593          	addi	x11,x12,0
800027d0:	00050413          	addi	x8,x10,0
800027d4:	801044b7          	lui	x9,0x80104
800027d8:	00068613          	addi	x12,x13,0
800027dc:	00070513          	addi	x10,x14,0
800027e0:	00112623          	sw	x1,12(x2)
800027e4:	fa04ac23          	sw	x0,-72(x9) # 80103fb8 <errno>
800027e8:	58d010ef          	jal	x1,80004574 <_read>
800027ec:	fff00793          	addi	x15,x0,-1
800027f0:	00f50c63          	beq	x10,x15,80002808 <_read_r+0x4c>
800027f4:	00c12083          	lw	x1,12(x2)
800027f8:	00812403          	lw	x8,8(x2)
800027fc:	00412483          	lw	x9,4(x2)
80002800:	01010113          	addi	x2,x2,16
80002804:	00008067          	jalr	x0,0(x1)
80002808:	fb84a783          	lw	x15,-72(x9)
8000280c:	fe0784e3          	beq	x15,x0,800027f4 <_read_r+0x38>
80002810:	00c12083          	lw	x1,12(x2)
80002814:	00f42023          	sw	x15,0(x8)
80002818:	00812403          	lw	x8,8(x2)
8000281c:	00412483          	lw	x9,4(x2)
80002820:	01010113          	addi	x2,x2,16
80002824:	00008067          	jalr	x0,0(x1)

80002828 <_write_r>:
80002828:	ff010113          	addi	x2,x2,-16
8000282c:	00058713          	addi	x14,x11,0
80002830:	00812423          	sw	x8,8(x2)
80002834:	00912223          	sw	x9,4(x2)
80002838:	00060593          	addi	x11,x12,0
8000283c:	00050413          	addi	x8,x10,0
80002840:	801044b7          	lui	x9,0x80104
80002844:	00068613          	addi	x12,x13,0
80002848:	00070513          	addi	x10,x14,0
8000284c:	00112623          	sw	x1,12(x2)
80002850:	fa04ac23          	sw	x0,-72(x9) # 80103fb8 <errno>
80002854:	5e1010ef          	jal	x1,80004634 <_write>
80002858:	fff00793          	addi	x15,x0,-1
8000285c:	00f50c63          	beq	x10,x15,80002874 <_write_r+0x4c>
80002860:	00c12083          	lw	x1,12(x2)
80002864:	00812403          	lw	x8,8(x2)
80002868:	00412483          	lw	x9,4(x2)
8000286c:	01010113          	addi	x2,x2,16
80002870:	00008067          	jalr	x0,0(x1)
80002874:	fb84a783          	lw	x15,-72(x9)
80002878:	fe0784e3          	beq	x15,x0,80002860 <_write_r+0x38>
8000287c:	00c12083          	lw	x1,12(x2)
80002880:	00f42023          	sw	x15,0(x8)
80002884:	00812403          	lw	x8,8(x2)
80002888:	00412483          	lw	x9,4(x2)
8000288c:	01010113          	addi	x2,x2,16
80002890:	00008067          	jalr	x0,0(x1)

80002894 <memmove>:
80002894:	02a5f663          	bgeu	x11,x10,800028c0 <memmove+0x2c>
80002898:	00c58733          	add	x14,x11,x12
8000289c:	02e57263          	bgeu	x10,x14,800028c0 <memmove+0x2c>
800028a0:	00c507b3          	add	x15,x10,x12
800028a4:	04060663          	beq	x12,x0,800028f0 <memmove+0x5c>
800028a8:	fff74683          	lbu	x13,-1(x14)
800028ac:	fff78793          	addi	x15,x15,-1
800028b0:	fff70713          	addi	x14,x14,-1
800028b4:	00d78023          	sb	x13,0(x15)
800028b8:	fef518e3          	bne	x10,x15,800028a8 <memmove+0x14>
800028bc:	00008067          	jalr	x0,0(x1)
800028c0:	00f00793          	addi	x15,x0,15
800028c4:	02c7e863          	bltu	x15,x12,800028f4 <memmove+0x60>
800028c8:	00050793          	addi	x15,x10,0
800028cc:	fff60693          	addi	x13,x12,-1
800028d0:	0c060263          	beq	x12,x0,80002994 <memmove+0x100>
800028d4:	00168693          	addi	x13,x13,1
800028d8:	00d786b3          	add	x13,x15,x13
800028dc:	0005c703          	lbu	x14,0(x11)
800028e0:	00178793          	addi	x15,x15,1
800028e4:	00158593          	addi	x11,x11,1
800028e8:	fee78fa3          	sb	x14,-1(x15)
800028ec:	fed798e3          	bne	x15,x13,800028dc <memmove+0x48>
800028f0:	00008067          	jalr	x0,0(x1)
800028f4:	00b567b3          	or	x15,x10,x11
800028f8:	0037f793          	andi	x15,x15,3
800028fc:	08079663          	bne	x15,x0,80002988 <memmove+0xf4>
80002900:	ff060893          	addi	x17,x12,-16
80002904:	ff08f893          	andi	x17,x17,-16
80002908:	01088893          	addi	x17,x17,16
8000290c:	011506b3          	add	x13,x10,x17
80002910:	00058713          	addi	x14,x11,0
80002914:	00050793          	addi	x15,x10,0
80002918:	00072803          	lw	x16,0(x14)
8000291c:	01070713          	addi	x14,x14,16
80002920:	01078793          	addi	x15,x15,16
80002924:	ff07a823          	sw	x16,-16(x15)
80002928:	ff472803          	lw	x16,-12(x14)
8000292c:	ff07aa23          	sw	x16,-12(x15)
80002930:	ff872803          	lw	x16,-8(x14)
80002934:	ff07ac23          	sw	x16,-8(x15)
80002938:	ffc72803          	lw	x16,-4(x14)
8000293c:	ff07ae23          	sw	x16,-4(x15)
80002940:	fcd79ce3          	bne	x15,x13,80002918 <memmove+0x84>
80002944:	00c67813          	andi	x16,x12,12
80002948:	011585b3          	add	x11,x11,x17
8000294c:	00f67713          	andi	x14,x12,15
80002950:	04080463          	beq	x16,x0,80002998 <memmove+0x104>
80002954:	ffc70813          	addi	x16,x14,-4
80002958:	ffc87813          	andi	x16,x16,-4
8000295c:	00480813          	addi	x16,x16,4
80002960:	010687b3          	add	x15,x13,x16
80002964:	00058713          	addi	x14,x11,0
80002968:	00072883          	lw	x17,0(x14)
8000296c:	00468693          	addi	x13,x13,4
80002970:	00470713          	addi	x14,x14,4
80002974:	ff16ae23          	sw	x17,-4(x13)
80002978:	fef698e3          	bne	x13,x15,80002968 <memmove+0xd4>
8000297c:	00367613          	andi	x12,x12,3
80002980:	010585b3          	add	x11,x11,x16
80002984:	f49ff06f          	jal	x0,800028cc <memmove+0x38>
80002988:	fff60693          	addi	x13,x12,-1
8000298c:	00050793          	addi	x15,x10,0
80002990:	f45ff06f          	jal	x0,800028d4 <memmove+0x40>
80002994:	00008067          	jalr	x0,0(x1)
80002998:	00070613          	addi	x12,x14,0
8000299c:	f31ff06f          	jal	x0,800028cc <memmove+0x38>

800029a0 <memset>:
800029a0:	00f00313          	addi	x6,x0,15
800029a4:	00050713          	addi	x14,x10,0
800029a8:	02c37e63          	bgeu	x6,x12,800029e4 <memset+0x44>
800029ac:	00f77793          	andi	x15,x14,15
800029b0:	0a079063          	bne	x15,x0,80002a50 <memset+0xb0>
800029b4:	08059263          	bne	x11,x0,80002a38 <memset+0x98>
800029b8:	ff067693          	andi	x13,x12,-16
800029bc:	00f67613          	andi	x12,x12,15
800029c0:	00e686b3          	add	x13,x13,x14
800029c4:	00b72023          	sw	x11,0(x14)
800029c8:	00b72223          	sw	x11,4(x14)
800029cc:	00b72423          	sw	x11,8(x14)
800029d0:	00b72623          	sw	x11,12(x14)
800029d4:	01070713          	addi	x14,x14,16
800029d8:	fed766e3          	bltu	x14,x13,800029c4 <memset+0x24>
800029dc:	00061463          	bne	x12,x0,800029e4 <memset+0x44>
800029e0:	00008067          	jalr	x0,0(x1)
800029e4:	40c306b3          	sub	x13,x6,x12
800029e8:	00269693          	slli	x13,x13,0x2
800029ec:	00000297          	auipc	x5,0x0
800029f0:	005686b3          	add	x13,x13,x5
800029f4:	00c68067          	jalr	x0,12(x13)
800029f8:	00b70723          	sb	x11,14(x14)
800029fc:	00b706a3          	sb	x11,13(x14)
80002a00:	00b70623          	sb	x11,12(x14)
80002a04:	00b705a3          	sb	x11,11(x14)
80002a08:	00b70523          	sb	x11,10(x14)
80002a0c:	00b704a3          	sb	x11,9(x14)
80002a10:	00b70423          	sb	x11,8(x14)
80002a14:	00b703a3          	sb	x11,7(x14)
80002a18:	00b70323          	sb	x11,6(x14)
80002a1c:	00b702a3          	sb	x11,5(x14)
80002a20:	00b70223          	sb	x11,4(x14)
80002a24:	00b701a3          	sb	x11,3(x14)
80002a28:	00b70123          	sb	x11,2(x14)
80002a2c:	00b700a3          	sb	x11,1(x14)
80002a30:	00b70023          	sb	x11,0(x14)
80002a34:	00008067          	jalr	x0,0(x1)
80002a38:	0ff5f593          	andi	x11,x11,255
80002a3c:	00859693          	slli	x13,x11,0x8
80002a40:	00d5e5b3          	or	x11,x11,x13
80002a44:	01059693          	slli	x13,x11,0x10
80002a48:	00d5e5b3          	or	x11,x11,x13
80002a4c:	f6dff06f          	jal	x0,800029b8 <memset+0x18>
80002a50:	00279693          	slli	x13,x15,0x2
80002a54:	00000297          	auipc	x5,0x0
80002a58:	005686b3          	add	x13,x13,x5
80002a5c:	00008293          	addi	x5,x1,0
80002a60:	fa0680e7          	jalr	x1,-96(x13)
80002a64:	00028093          	addi	x1,x5,0 # 80002a54 <memset+0xb4>
80002a68:	ff078793          	addi	x15,x15,-16
80002a6c:	40f70733          	sub	x14,x14,x15
80002a70:	00f60633          	add	x12,x12,x15
80002a74:	f6c378e3          	bgeu	x6,x12,800029e4 <memset+0x44>
80002a78:	f3dff06f          	jal	x0,800029b4 <memset+0x14>

80002a7c <memcpy>:
80002a7c:	00a5c7b3          	xor	x15,x11,x10
80002a80:	0037f793          	andi	x15,x15,3
80002a84:	00c508b3          	add	x17,x10,x12
80002a88:	06079463          	bne	x15,x0,80002af0 <memcpy+0x74>
80002a8c:	00300793          	addi	x15,x0,3
80002a90:	06c7f063          	bgeu	x15,x12,80002af0 <memcpy+0x74>
80002a94:	00357793          	andi	x15,x10,3
80002a98:	00050713          	addi	x14,x10,0
80002a9c:	06079a63          	bne	x15,x0,80002b10 <memcpy+0x94>
80002aa0:	ffc8f613          	andi	x12,x17,-4
80002aa4:	40e606b3          	sub	x13,x12,x14
80002aa8:	02000793          	addi	x15,x0,32
80002aac:	08d7ce63          	blt	x15,x13,80002b48 <memcpy+0xcc>
80002ab0:	00058693          	addi	x13,x11,0
80002ab4:	00070793          	addi	x15,x14,0
80002ab8:	02c77863          	bgeu	x14,x12,80002ae8 <memcpy+0x6c>
80002abc:	0006a803          	lw	x16,0(x13)
80002ac0:	00478793          	addi	x15,x15,4
80002ac4:	00468693          	addi	x13,x13,4
80002ac8:	ff07ae23          	sw	x16,-4(x15)
80002acc:	fec7e8e3          	bltu	x15,x12,80002abc <memcpy+0x40>
80002ad0:	fff60793          	addi	x15,x12,-1
80002ad4:	40e787b3          	sub	x15,x15,x14
80002ad8:	ffc7f793          	andi	x15,x15,-4
80002adc:	00478793          	addi	x15,x15,4
80002ae0:	00f70733          	add	x14,x14,x15
80002ae4:	00f585b3          	add	x11,x11,x15
80002ae8:	01176863          	bltu	x14,x17,80002af8 <memcpy+0x7c>
80002aec:	00008067          	jalr	x0,0(x1)
80002af0:	00050713          	addi	x14,x10,0
80002af4:	05157863          	bgeu	x10,x17,80002b44 <memcpy+0xc8>
80002af8:	0005c783          	lbu	x15,0(x11)
80002afc:	00170713          	addi	x14,x14,1
80002b00:	00158593          	addi	x11,x11,1
80002b04:	fef70fa3          	sb	x15,-1(x14)
80002b08:	fee898e3          	bne	x17,x14,80002af8 <memcpy+0x7c>
80002b0c:	00008067          	jalr	x0,0(x1)
80002b10:	0005c683          	lbu	x13,0(x11)
80002b14:	00170713          	addi	x14,x14,1
80002b18:	00377793          	andi	x15,x14,3
80002b1c:	fed70fa3          	sb	x13,-1(x14)
80002b20:	00158593          	addi	x11,x11,1
80002b24:	f6078ee3          	beq	x15,x0,80002aa0 <memcpy+0x24>
80002b28:	0005c683          	lbu	x13,0(x11)
80002b2c:	00170713          	addi	x14,x14,1
80002b30:	00377793          	andi	x15,x14,3
80002b34:	fed70fa3          	sb	x13,-1(x14)
80002b38:	00158593          	addi	x11,x11,1
80002b3c:	fc079ae3          	bne	x15,x0,80002b10 <memcpy+0x94>
80002b40:	f61ff06f          	jal	x0,80002aa0 <memcpy+0x24>
80002b44:	00008067          	jalr	x0,0(x1)
80002b48:	ff010113          	addi	x2,x2,-16
80002b4c:	00812623          	sw	x8,12(x2)
80002b50:	02000413          	addi	x8,x0,32
80002b54:	0005a383          	lw	x7,0(x11)
80002b58:	0045a283          	lw	x5,4(x11)
80002b5c:	0085af83          	lw	x31,8(x11)
80002b60:	00c5af03          	lw	x30,12(x11)
80002b64:	0105ae83          	lw	x29,16(x11)
80002b68:	0145ae03          	lw	x28,20(x11)
80002b6c:	0185a303          	lw	x6,24(x11)
80002b70:	01c5a803          	lw	x16,28(x11)
80002b74:	0205a683          	lw	x13,32(x11)
80002b78:	02470713          	addi	x14,x14,36
80002b7c:	40e607b3          	sub	x15,x12,x14
80002b80:	fc772e23          	sw	x7,-36(x14)
80002b84:	fe572023          	sw	x5,-32(x14)
80002b88:	fff72223          	sw	x31,-28(x14)
80002b8c:	ffe72423          	sw	x30,-24(x14)
80002b90:	ffd72623          	sw	x29,-20(x14)
80002b94:	ffc72823          	sw	x28,-16(x14)
80002b98:	fe672a23          	sw	x6,-12(x14)
80002b9c:	ff072c23          	sw	x16,-8(x14)
80002ba0:	fed72e23          	sw	x13,-4(x14)
80002ba4:	02458593          	addi	x11,x11,36
80002ba8:	faf446e3          	blt	x8,x15,80002b54 <memcpy+0xd8>
80002bac:	00058693          	addi	x13,x11,0
80002bb0:	00070793          	addi	x15,x14,0
80002bb4:	02c77863          	bgeu	x14,x12,80002be4 <memcpy+0x168>
80002bb8:	0006a803          	lw	x16,0(x13)
80002bbc:	00478793          	addi	x15,x15,4
80002bc0:	00468693          	addi	x13,x13,4
80002bc4:	ff07ae23          	sw	x16,-4(x15)
80002bc8:	fec7e8e3          	bltu	x15,x12,80002bb8 <memcpy+0x13c>
80002bcc:	fff60793          	addi	x15,x12,-1
80002bd0:	40e787b3          	sub	x15,x15,x14
80002bd4:	ffc7f793          	andi	x15,x15,-4
80002bd8:	00478793          	addi	x15,x15,4
80002bdc:	00f70733          	add	x14,x14,x15
80002be0:	00f585b3          	add	x11,x11,x15
80002be4:	01176863          	bltu	x14,x17,80002bf4 <memcpy+0x178>
80002be8:	00c12403          	lw	x8,12(x2)
80002bec:	01010113          	addi	x2,x2,16
80002bf0:	00008067          	jalr	x0,0(x1)
80002bf4:	0005c783          	lbu	x15,0(x11)
80002bf8:	00170713          	addi	x14,x14,1
80002bfc:	00158593          	addi	x11,x11,1
80002c00:	fef70fa3          	sb	x15,-1(x14)
80002c04:	fee882e3          	beq	x17,x14,80002be8 <memcpy+0x16c>
80002c08:	0005c783          	lbu	x15,0(x11)
80002c0c:	00170713          	addi	x14,x14,1
80002c10:	00158593          	addi	x11,x11,1
80002c14:	fef70fa3          	sb	x15,-1(x14)
80002c18:	fce89ee3          	bne	x17,x14,80002bf4 <memcpy+0x178>
80002c1c:	fcdff06f          	jal	x0,80002be8 <memcpy+0x16c>

80002c20 <strlen>:
80002c20:	00357793          	andi	x15,x10,3
80002c24:	00050713          	addi	x14,x10,0
80002c28:	04079c63          	bne	x15,x0,80002c80 <strlen+0x60>
80002c2c:	7f7f86b7          	lui	x13,0x7f7f8
80002c30:	f7f68693          	addi	x13,x13,-129 # 7f7f7f7f <SYSCALL_ADDR+0x7d7e7f7f>
80002c34:	fff00593          	addi	x11,x0,-1
80002c38:	00072603          	lw	x12,0(x14)
80002c3c:	00470713          	addi	x14,x14,4
80002c40:	00d677b3          	and	x15,x12,x13
80002c44:	00d787b3          	add	x15,x15,x13
80002c48:	00c7e7b3          	or	x15,x15,x12
80002c4c:	00d7e7b3          	or	x15,x15,x13
80002c50:	feb784e3          	beq	x15,x11,80002c38 <strlen+0x18>
80002c54:	ffc74683          	lbu	x13,-4(x14)
80002c58:	40a707b3          	sub	x15,x14,x10
80002c5c:	04068463          	beq	x13,x0,80002ca4 <strlen+0x84>
80002c60:	ffd74683          	lbu	x13,-3(x14)
80002c64:	02068c63          	beq	x13,x0,80002c9c <strlen+0x7c>
80002c68:	ffe74503          	lbu	x10,-2(x14)
80002c6c:	00a03533          	sltu	x10,x0,x10
80002c70:	00f50533          	add	x10,x10,x15
80002c74:	ffe50513          	addi	x10,x10,-2
80002c78:	00008067          	jalr	x0,0(x1)
80002c7c:	fa0688e3          	beq	x13,x0,80002c2c <strlen+0xc>
80002c80:	00074783          	lbu	x15,0(x14)
80002c84:	00170713          	addi	x14,x14,1
80002c88:	00377693          	andi	x13,x14,3
80002c8c:	fe0798e3          	bne	x15,x0,80002c7c <strlen+0x5c>
80002c90:	40a70733          	sub	x14,x14,x10
80002c94:	fff70513          	addi	x10,x14,-1
80002c98:	00008067          	jalr	x0,0(x1)
80002c9c:	ffd78513          	addi	x10,x15,-3
80002ca0:	00008067          	jalr	x0,0(x1)
80002ca4:	ffc78513          	addi	x10,x15,-4
80002ca8:	00008067          	jalr	x0,0(x1)

80002cac <abort>:
80002cac:	ff010113          	addi	x2,x2,-16
80002cb0:	00600513          	addi	x10,x0,6
80002cb4:	00112623          	sw	x1,12(x2)
80002cb8:	448010ef          	jal	x1,80004100 <raise>
80002cbc:	00100513          	addi	x10,x0,1
80002cc0:	774010ef          	jal	x1,80004434 <_exit>

80002cc4 <_malloc_trim_r>:
80002cc4:	fe010113          	addi	x2,x2,-32
80002cc8:	01312623          	sw	x19,12(x2)
80002ccc:	801019b7          	lui	x19,0x80101
80002cd0:	00812c23          	sw	x8,24(x2)
80002cd4:	00912a23          	sw	x9,20(x2)
80002cd8:	01212823          	sw	x18,16(x2)
80002cdc:	01412423          	sw	x20,8(x2)
80002ce0:	00112e23          	sw	x1,28(x2)
80002ce4:	00058a13          	addi	x20,x11,0
80002ce8:	00050913          	addi	x18,x10,0
80002cec:	13098993          	addi	x19,x19,304 # 80101130 <__malloc_av_>
80002cf0:	3f9000ef          	jal	x1,800038e8 <__malloc_lock>
80002cf4:	0089a703          	lw	x14,8(x19)
80002cf8:	000017b7          	lui	x15,0x1
80002cfc:	fef78793          	addi	x15,x15,-17 # fef <_heap_size+0xfef>
80002d00:	00472483          	lw	x9,4(x14)
80002d04:	00001737          	lui	x14,0x1
80002d08:	ffc4f493          	andi	x9,x9,-4
80002d0c:	00f48433          	add	x8,x9,x15
80002d10:	41440433          	sub	x8,x8,x20
80002d14:	00c45413          	srli	x8,x8,0xc
80002d18:	fff40413          	addi	x8,x8,-1
80002d1c:	00c41413          	slli	x8,x8,0xc
80002d20:	00e44e63          	blt	x8,x14,80002d3c <_malloc_trim_r+0x78>
80002d24:	00000593          	addi	x11,x0,0
80002d28:	00090513          	addi	x10,x18,0
80002d2c:	5cc010ef          	jal	x1,800042f8 <_sbrk_r>
80002d30:	0089a783          	lw	x15,8(x19)
80002d34:	009787b3          	add	x15,x15,x9
80002d38:	02f50863          	beq	x10,x15,80002d68 <_malloc_trim_r+0xa4>
80002d3c:	00090513          	addi	x10,x18,0
80002d40:	3ad000ef          	jal	x1,800038ec <__malloc_unlock>
80002d44:	01c12083          	lw	x1,28(x2)
80002d48:	01812403          	lw	x8,24(x2)
80002d4c:	01412483          	lw	x9,20(x2)
80002d50:	01012903          	lw	x18,16(x2)
80002d54:	00c12983          	lw	x19,12(x2)
80002d58:	00812a03          	lw	x20,8(x2)
80002d5c:	00000513          	addi	x10,x0,0
80002d60:	02010113          	addi	x2,x2,32
80002d64:	00008067          	jalr	x0,0(x1)
80002d68:	408005b3          	sub	x11,x0,x8
80002d6c:	00090513          	addi	x10,x18,0
80002d70:	588010ef          	jal	x1,800042f8 <_sbrk_r>
80002d74:	fff00793          	addi	x15,x0,-1
80002d78:	04f50a63          	beq	x10,x15,80002dcc <_malloc_trim_r+0x108>
80002d7c:	801047b7          	lui	x15,0x80104
80002d80:	f7c78793          	addi	x15,x15,-132 # 80103f7c <__malloc_current_mallinfo>
80002d84:	0007a703          	lw	x14,0(x15)
80002d88:	0089a683          	lw	x13,8(x19)
80002d8c:	408484b3          	sub	x9,x9,x8
80002d90:	0014e493          	ori	x9,x9,1
80002d94:	40870733          	sub	x14,x14,x8
80002d98:	00090513          	addi	x10,x18,0
80002d9c:	0096a223          	sw	x9,4(x13)
80002da0:	00e7a023          	sw	x14,0(x15)
80002da4:	349000ef          	jal	x1,800038ec <__malloc_unlock>
80002da8:	01c12083          	lw	x1,28(x2)
80002dac:	01812403          	lw	x8,24(x2)
80002db0:	01412483          	lw	x9,20(x2)
80002db4:	01012903          	lw	x18,16(x2)
80002db8:	00c12983          	lw	x19,12(x2)
80002dbc:	00812a03          	lw	x20,8(x2)
80002dc0:	00100513          	addi	x10,x0,1
80002dc4:	02010113          	addi	x2,x2,32
80002dc8:	00008067          	jalr	x0,0(x1)
80002dcc:	00000593          	addi	x11,x0,0
80002dd0:	00090513          	addi	x10,x18,0
80002dd4:	524010ef          	jal	x1,800042f8 <_sbrk_r>
80002dd8:	0089a703          	lw	x14,8(x19)
80002ddc:	00f00693          	addi	x13,x0,15
80002de0:	40e507b3          	sub	x15,x10,x14
80002de4:	f4f6dce3          	bge	x13,x15,80002d3c <_malloc_trim_r+0x78>
80002de8:	801016b7          	lui	x13,0x80101
80002dec:	6a86a683          	lw	x13,1704(x13) # 801016a8 <__malloc_sbrk_base>
80002df0:	0017e793          	ori	x15,x15,1
80002df4:	00f72223          	sw	x15,4(x14) # 1004 <_stack_size+0x4>
80002df8:	40d50533          	sub	x10,x10,x13
80002dfc:	801046b7          	lui	x13,0x80104
80002e00:	f6a6ae23          	sw	x10,-132(x13) # 80103f7c <__malloc_current_mallinfo>
80002e04:	f39ff06f          	jal	x0,80002d3c <_malloc_trim_r+0x78>

80002e08 <_free_r>:
80002e08:	18058263          	beq	x11,x0,80002f8c <_free_r+0x184>
80002e0c:	ff010113          	addi	x2,x2,-16
80002e10:	00812423          	sw	x8,8(x2)
80002e14:	00912223          	sw	x9,4(x2)
80002e18:	00058413          	addi	x8,x11,0
80002e1c:	00050493          	addi	x9,x10,0
80002e20:	00112623          	sw	x1,12(x2)
80002e24:	2c5000ef          	jal	x1,800038e8 <__malloc_lock>
80002e28:	ffc42503          	lw	x10,-4(x8)
80002e2c:	ff840713          	addi	x14,x8,-8
80002e30:	801015b7          	lui	x11,0x80101
80002e34:	ffe57793          	andi	x15,x10,-2
80002e38:	00f70633          	add	x12,x14,x15
80002e3c:	13058593          	addi	x11,x11,304 # 80101130 <__malloc_av_>
80002e40:	00462683          	lw	x13,4(x12)
80002e44:	0085a803          	lw	x16,8(x11)
80002e48:	ffc6f693          	andi	x13,x13,-4
80002e4c:	1ac80263          	beq	x16,x12,80002ff0 <_free_r+0x1e8>
80002e50:	00d62223          	sw	x13,4(x12)
80002e54:	00157513          	andi	x10,x10,1
80002e58:	00d60833          	add	x16,x12,x13
80002e5c:	0a051063          	bne	x10,x0,80002efc <_free_r+0xf4>
80002e60:	ff842303          	lw	x6,-8(x8)
80002e64:	00482803          	lw	x16,4(x16)
80002e68:	80101537          	lui	x10,0x80101
80002e6c:	40670733          	sub	x14,x14,x6
80002e70:	00872883          	lw	x17,8(x14)
80002e74:	13850513          	addi	x10,x10,312 # 80101138 <__malloc_av_+0x8>
80002e78:	006787b3          	add	x15,x15,x6
80002e7c:	00187813          	andi	x16,x16,1
80002e80:	14a88263          	beq	x17,x10,80002fc4 <_free_r+0x1bc>
80002e84:	00c72303          	lw	x6,12(x14)
80002e88:	0068a623          	sw	x6,12(x17)
80002e8c:	01132423          	sw	x17,8(x6)
80002e90:	1a080a63          	beq	x16,x0,80003044 <_free_r+0x23c>
80002e94:	0017e693          	ori	x13,x15,1
80002e98:	00d72223          	sw	x13,4(x14)
80002e9c:	00f62023          	sw	x15,0(x12)
80002ea0:	1ff00693          	addi	x13,x0,511
80002ea4:	06f6ec63          	bltu	x13,x15,80002f1c <_free_r+0x114>
80002ea8:	ff87f693          	andi	x13,x15,-8
80002eac:	00868693          	addi	x13,x13,8
80002eb0:	0045a503          	lw	x10,4(x11)
80002eb4:	00d586b3          	add	x13,x11,x13
80002eb8:	0006a603          	lw	x12,0(x13)
80002ebc:	0057d813          	srli	x16,x15,0x5
80002ec0:	00100793          	addi	x15,x0,1
80002ec4:	010797b3          	sll	x15,x15,x16
80002ec8:	00a7e7b3          	or	x15,x15,x10
80002ecc:	ff868513          	addi	x10,x13,-8
80002ed0:	00a72623          	sw	x10,12(x14)
80002ed4:	00c72423          	sw	x12,8(x14)
80002ed8:	00f5a223          	sw	x15,4(x11)
80002edc:	00e6a023          	sw	x14,0(x13)
80002ee0:	00e62623          	sw	x14,12(x12)
80002ee4:	00812403          	lw	x8,8(x2)
80002ee8:	00c12083          	lw	x1,12(x2)
80002eec:	00048513          	addi	x10,x9,0
80002ef0:	00412483          	lw	x9,4(x2)
80002ef4:	01010113          	addi	x2,x2,16
80002ef8:	1f50006f          	jal	x0,800038ec <__malloc_unlock>
80002efc:	00482503          	lw	x10,4(x16)
80002f00:	00157513          	andi	x10,x10,1
80002f04:	08050663          	beq	x10,x0,80002f90 <_free_r+0x188>
80002f08:	0017e693          	ori	x13,x15,1
80002f0c:	fed42e23          	sw	x13,-4(x8)
80002f10:	00f62023          	sw	x15,0(x12)
80002f14:	1ff00693          	addi	x13,x0,511
80002f18:	f8f6f8e3          	bgeu	x13,x15,80002ea8 <_free_r+0xa0>
80002f1c:	0097d693          	srli	x13,x15,0x9
80002f20:	00400613          	addi	x12,x0,4
80002f24:	12d66463          	bltu	x12,x13,8000304c <_free_r+0x244>
80002f28:	0067d693          	srli	x13,x15,0x6
80002f2c:	03968513          	addi	x10,x13,57
80002f30:	03868613          	addi	x12,x13,56
80002f34:	00351513          	slli	x10,x10,0x3
80002f38:	00a58533          	add	x10,x11,x10
80002f3c:	00052683          	lw	x13,0(x10)
80002f40:	ff850513          	addi	x10,x10,-8
80002f44:	00d51863          	bne	x10,x13,80002f54 <_free_r+0x14c>
80002f48:	15c0006f          	jal	x0,800030a4 <_free_r+0x29c>
80002f4c:	0086a683          	lw	x13,8(x13)
80002f50:	00d50863          	beq	x10,x13,80002f60 <_free_r+0x158>
80002f54:	0046a603          	lw	x12,4(x13)
80002f58:	ffc67613          	andi	x12,x12,-4
80002f5c:	fec7e8e3          	bltu	x15,x12,80002f4c <_free_r+0x144>
80002f60:	00c6a503          	lw	x10,12(x13)
80002f64:	00a72623          	sw	x10,12(x14)
80002f68:	00d72423          	sw	x13,8(x14)
80002f6c:	00812403          	lw	x8,8(x2)
80002f70:	00e52423          	sw	x14,8(x10)
80002f74:	00c12083          	lw	x1,12(x2)
80002f78:	00048513          	addi	x10,x9,0
80002f7c:	00412483          	lw	x9,4(x2)
80002f80:	00e6a623          	sw	x14,12(x13)
80002f84:	01010113          	addi	x2,x2,16
80002f88:	1650006f          	jal	x0,800038ec <__malloc_unlock>
80002f8c:	00008067          	jalr	x0,0(x1)
80002f90:	80101537          	lui	x10,0x80101
80002f94:	00d787b3          	add	x15,x15,x13
80002f98:	13850513          	addi	x10,x10,312 # 80101138 <__malloc_av_+0x8>
80002f9c:	00862683          	lw	x13,8(x12)
80002fa0:	0ea68063          	beq	x13,x10,80003080 <_free_r+0x278>
80002fa4:	00c62803          	lw	x16,12(x12)
80002fa8:	0017e513          	ori	x10,x15,1
80002fac:	00f70633          	add	x12,x14,x15
80002fb0:	0106a623          	sw	x16,12(x13)
80002fb4:	00d82423          	sw	x13,8(x16)
80002fb8:	00a72223          	sw	x10,4(x14)
80002fbc:	00f62023          	sw	x15,0(x12)
80002fc0:	ee1ff06f          	jal	x0,80002ea0 <_free_r+0x98>
80002fc4:	14081063          	bne	x16,x0,80003104 <_free_r+0x2fc>
80002fc8:	00862583          	lw	x11,8(x12)
80002fcc:	00c62603          	lw	x12,12(x12)
80002fd0:	00f686b3          	add	x13,x13,x15
80002fd4:	0016e793          	ori	x15,x13,1
80002fd8:	00c5a623          	sw	x12,12(x11)
80002fdc:	00b62423          	sw	x11,8(x12)
80002fe0:	00f72223          	sw	x15,4(x14)
80002fe4:	00d70733          	add	x14,x14,x13
80002fe8:	00d72023          	sw	x13,0(x14)
80002fec:	ef9ff06f          	jal	x0,80002ee4 <_free_r+0xdc>
80002ff0:	00157513          	andi	x10,x10,1
80002ff4:	00d786b3          	add	x13,x15,x13
80002ff8:	02051063          	bne	x10,x0,80003018 <_free_r+0x210>
80002ffc:	ff842503          	lw	x10,-8(x8)
80003000:	40a70733          	sub	x14,x14,x10
80003004:	00c72783          	lw	x15,12(x14)
80003008:	00872603          	lw	x12,8(x14)
8000300c:	00a686b3          	add	x13,x13,x10
80003010:	00f62623          	sw	x15,12(x12)
80003014:	00c7a423          	sw	x12,8(x15)
80003018:	801017b7          	lui	x15,0x80101
8000301c:	0016e613          	ori	x12,x13,1
80003020:	6ac7a783          	lw	x15,1708(x15) # 801016ac <__malloc_trim_threshold>
80003024:	00c72223          	sw	x12,4(x14)
80003028:	00e5a423          	sw	x14,8(x11)
8000302c:	eaf6ece3          	bltu	x13,x15,80002ee4 <_free_r+0xdc>
80003030:	801047b7          	lui	x15,0x80104
80003034:	fc47a583          	lw	x11,-60(x15) # 80103fc4 <__malloc_top_pad>
80003038:	00048513          	addi	x10,x9,0
8000303c:	c89ff0ef          	jal	x1,80002cc4 <_malloc_trim_r>
80003040:	ea5ff06f          	jal	x0,80002ee4 <_free_r+0xdc>
80003044:	00d787b3          	add	x15,x15,x13
80003048:	f55ff06f          	jal	x0,80002f9c <_free_r+0x194>
8000304c:	01400613          	addi	x12,x0,20
80003050:	02d67063          	bgeu	x12,x13,80003070 <_free_r+0x268>
80003054:	05400613          	addi	x12,x0,84
80003058:	06d66463          	bltu	x12,x13,800030c0 <_free_r+0x2b8>
8000305c:	00c7d693          	srli	x13,x15,0xc
80003060:	06f68513          	addi	x10,x13,111
80003064:	06e68613          	addi	x12,x13,110
80003068:	00351513          	slli	x10,x10,0x3
8000306c:	ecdff06f          	jal	x0,80002f38 <_free_r+0x130>
80003070:	05c68513          	addi	x10,x13,92
80003074:	05b68613          	addi	x12,x13,91
80003078:	00351513          	slli	x10,x10,0x3
8000307c:	ebdff06f          	jal	x0,80002f38 <_free_r+0x130>
80003080:	00e5aa23          	sw	x14,20(x11)
80003084:	00e5a823          	sw	x14,16(x11)
80003088:	0017e693          	ori	x13,x15,1
8000308c:	00a72623          	sw	x10,12(x14)
80003090:	00a72423          	sw	x10,8(x14)
80003094:	00d72223          	sw	x13,4(x14)
80003098:	00f70733          	add	x14,x14,x15
8000309c:	00f72023          	sw	x15,0(x14)
800030a0:	e45ff06f          	jal	x0,80002ee4 <_free_r+0xdc>
800030a4:	0045a803          	lw	x16,4(x11)
800030a8:	40265613          	srai	x12,x12,0x2
800030ac:	00100793          	addi	x15,x0,1
800030b0:	00c797b3          	sll	x15,x15,x12
800030b4:	0107e7b3          	or	x15,x15,x16
800030b8:	00f5a223          	sw	x15,4(x11)
800030bc:	ea9ff06f          	jal	x0,80002f64 <_free_r+0x15c>
800030c0:	15400613          	addi	x12,x0,340
800030c4:	00d66c63          	bltu	x12,x13,800030dc <_free_r+0x2d4>
800030c8:	00f7d693          	srli	x13,x15,0xf
800030cc:	07868513          	addi	x10,x13,120
800030d0:	07768613          	addi	x12,x13,119
800030d4:	00351513          	slli	x10,x10,0x3
800030d8:	e61ff06f          	jal	x0,80002f38 <_free_r+0x130>
800030dc:	55400613          	addi	x12,x0,1364
800030e0:	00d66c63          	bltu	x12,x13,800030f8 <_free_r+0x2f0>
800030e4:	0127d693          	srli	x13,x15,0x12
800030e8:	07d68513          	addi	x10,x13,125
800030ec:	07c68613          	addi	x12,x13,124
800030f0:	00351513          	slli	x10,x10,0x3
800030f4:	e45ff06f          	jal	x0,80002f38 <_free_r+0x130>
800030f8:	3f800513          	addi	x10,x0,1016
800030fc:	07e00613          	addi	x12,x0,126
80003100:	e39ff06f          	jal	x0,80002f38 <_free_r+0x130>
80003104:	0017e693          	ori	x13,x15,1
80003108:	00d72223          	sw	x13,4(x14)
8000310c:	00f62023          	sw	x15,0(x12)
80003110:	dd5ff06f          	jal	x0,80002ee4 <_free_r+0xdc>

80003114 <_malloc_r>:
80003114:	fd010113          	addi	x2,x2,-48
80003118:	01312e23          	sw	x19,28(x2)
8000311c:	02112623          	sw	x1,44(x2)
80003120:	02812423          	sw	x8,40(x2)
80003124:	02912223          	sw	x9,36(x2)
80003128:	03212023          	sw	x18,32(x2)
8000312c:	00b58793          	addi	x15,x11,11
80003130:	01600713          	addi	x14,x0,22
80003134:	00050993          	addi	x19,x10,0
80003138:	08f76263          	bltu	x14,x15,800031bc <_malloc_r+0xa8>
8000313c:	01000793          	addi	x15,x0,16
80003140:	20b7e663          	bltu	x15,x11,8000334c <_malloc_r+0x238>
80003144:	7a4000ef          	jal	x1,800038e8 <__malloc_lock>
80003148:	01800793          	addi	x15,x0,24
8000314c:	00200593          	addi	x11,x0,2
80003150:	01000493          	addi	x9,x0,16
80003154:	80101937          	lui	x18,0x80101
80003158:	13090913          	addi	x18,x18,304 # 80101130 <__malloc_av_>
8000315c:	00f907b3          	add	x15,x18,x15
80003160:	0047a403          	lw	x8,4(x15)
80003164:	ff878713          	addi	x14,x15,-8
80003168:	34e40e63          	beq	x8,x14,800034c4 <_malloc_r+0x3b0>
8000316c:	00442783          	lw	x15,4(x8)
80003170:	00c42683          	lw	x13,12(x8)
80003174:	00842603          	lw	x12,8(x8)
80003178:	ffc7f793          	andi	x15,x15,-4
8000317c:	00f407b3          	add	x15,x8,x15
80003180:	0047a703          	lw	x14,4(x15)
80003184:	00d62623          	sw	x13,12(x12)
80003188:	00c6a423          	sw	x12,8(x13)
8000318c:	00176713          	ori	x14,x14,1
80003190:	00098513          	addi	x10,x19,0
80003194:	00e7a223          	sw	x14,4(x15)
80003198:	754000ef          	jal	x1,800038ec <__malloc_unlock>
8000319c:	00840513          	addi	x10,x8,8
800031a0:	02c12083          	lw	x1,44(x2)
800031a4:	02812403          	lw	x8,40(x2)
800031a8:	02412483          	lw	x9,36(x2)
800031ac:	02012903          	lw	x18,32(x2)
800031b0:	01c12983          	lw	x19,28(x2)
800031b4:	03010113          	addi	x2,x2,48
800031b8:	00008067          	jalr	x0,0(x1)
800031bc:	ff87f493          	andi	x9,x15,-8
800031c0:	1807c663          	blt	x15,x0,8000334c <_malloc_r+0x238>
800031c4:	18b4e463          	bltu	x9,x11,8000334c <_malloc_r+0x238>
800031c8:	720000ef          	jal	x1,800038e8 <__malloc_lock>
800031cc:	1f700793          	addi	x15,x0,503
800031d0:	4097f463          	bgeu	x15,x9,800035d8 <_malloc_r+0x4c4>
800031d4:	0094d793          	srli	x15,x9,0x9
800031d8:	18078263          	beq	x15,x0,8000335c <_malloc_r+0x248>
800031dc:	00400713          	addi	x14,x0,4
800031e0:	34f76a63          	bltu	x14,x15,80003534 <_malloc_r+0x420>
800031e4:	0064d793          	srli	x15,x9,0x6
800031e8:	03978593          	addi	x11,x15,57
800031ec:	03878813          	addi	x16,x15,56
800031f0:	00359613          	slli	x12,x11,0x3
800031f4:	80101937          	lui	x18,0x80101
800031f8:	13090913          	addi	x18,x18,304 # 80101130 <__malloc_av_>
800031fc:	00c90633          	add	x12,x18,x12
80003200:	00462403          	lw	x8,4(x12)
80003204:	ff860613          	addi	x12,x12,-8
80003208:	02860863          	beq	x12,x8,80003238 <_malloc_r+0x124>
8000320c:	00f00513          	addi	x10,x0,15
80003210:	0140006f          	jal	x0,80003224 <_malloc_r+0x110>
80003214:	00c42683          	lw	x13,12(x8)
80003218:	2a075263          	bge	x14,x0,800034bc <_malloc_r+0x3a8>
8000321c:	00d60e63          	beq	x12,x13,80003238 <_malloc_r+0x124>
80003220:	00068413          	addi	x8,x13,0
80003224:	00442783          	lw	x15,4(x8)
80003228:	ffc7f793          	andi	x15,x15,-4
8000322c:	40978733          	sub	x14,x15,x9
80003230:	fee552e3          	bge	x10,x14,80003214 <_malloc_r+0x100>
80003234:	00080593          	addi	x11,x16,0
80003238:	01092403          	lw	x8,16(x18)
8000323c:	80101837          	lui	x16,0x80101
80003240:	13880813          	addi	x16,x16,312 # 80101138 <__malloc_av_+0x8>
80003244:	27040863          	beq	x8,x16,800034b4 <_malloc_r+0x3a0>
80003248:	00442783          	lw	x15,4(x8)
8000324c:	00f00693          	addi	x13,x0,15
80003250:	ffc7f793          	andi	x15,x15,-4
80003254:	40978733          	sub	x14,x15,x9
80003258:	38e6c663          	blt	x13,x14,800035e4 <_malloc_r+0x4d0>
8000325c:	01092a23          	sw	x16,20(x18)
80003260:	01092823          	sw	x16,16(x18)
80003264:	34075a63          	bge	x14,x0,800035b8 <_malloc_r+0x4a4>
80003268:	1ff00713          	addi	x14,x0,511
8000326c:	00492503          	lw	x10,4(x18)
80003270:	26f76263          	bltu	x14,x15,800034d4 <_malloc_r+0x3c0>
80003274:	ff87f713          	andi	x14,x15,-8
80003278:	00870713          	addi	x14,x14,8
8000327c:	00e90733          	add	x14,x18,x14
80003280:	00072683          	lw	x13,0(x14)
80003284:	0057d613          	srli	x12,x15,0x5
80003288:	00100793          	addi	x15,x0,1
8000328c:	00c797b3          	sll	x15,x15,x12
80003290:	00f56533          	or	x10,x10,x15
80003294:	ff870793          	addi	x15,x14,-8
80003298:	00f42623          	sw	x15,12(x8)
8000329c:	00d42423          	sw	x13,8(x8)
800032a0:	00a92223          	sw	x10,4(x18)
800032a4:	00872023          	sw	x8,0(x14)
800032a8:	0086a623          	sw	x8,12(x13)
800032ac:	4025d793          	srai	x15,x11,0x2
800032b0:	00100613          	addi	x12,x0,1
800032b4:	00f61633          	sll	x12,x12,x15
800032b8:	0ac56a63          	bltu	x10,x12,8000336c <_malloc_r+0x258>
800032bc:	00a677b3          	and	x15,x12,x10
800032c0:	02079463          	bne	x15,x0,800032e8 <_malloc_r+0x1d4>
800032c4:	00161613          	slli	x12,x12,0x1
800032c8:	ffc5f593          	andi	x11,x11,-4
800032cc:	00a677b3          	and	x15,x12,x10
800032d0:	00458593          	addi	x11,x11,4
800032d4:	00079a63          	bne	x15,x0,800032e8 <_malloc_r+0x1d4>
800032d8:	00161613          	slli	x12,x12,0x1
800032dc:	00a677b3          	and	x15,x12,x10
800032e0:	00458593          	addi	x11,x11,4
800032e4:	fe078ae3          	beq	x15,x0,800032d8 <_malloc_r+0x1c4>
800032e8:	00f00893          	addi	x17,x0,15
800032ec:	00359313          	slli	x6,x11,0x3
800032f0:	00690333          	add	x6,x18,x6
800032f4:	00030513          	addi	x10,x6,0
800032f8:	00c52783          	lw	x15,12(x10)
800032fc:	00058e13          	addi	x28,x11,0
80003300:	24f50c63          	beq	x10,x15,80003558 <_malloc_r+0x444>
80003304:	0047a703          	lw	x14,4(x15)
80003308:	00078413          	addi	x8,x15,0
8000330c:	00c7a783          	lw	x15,12(x15)
80003310:	ffc77713          	andi	x14,x14,-4
80003314:	409706b3          	sub	x13,x14,x9
80003318:	24d8cc63          	blt	x17,x13,80003570 <_malloc_r+0x45c>
8000331c:	fe06c2e3          	blt	x13,x0,80003300 <_malloc_r+0x1ec>
80003320:	00e40733          	add	x14,x8,x14
80003324:	00472683          	lw	x13,4(x14)
80003328:	00842603          	lw	x12,8(x8)
8000332c:	00098513          	addi	x10,x19,0
80003330:	0016e693          	ori	x13,x13,1
80003334:	00d72223          	sw	x13,4(x14)
80003338:	00f62623          	sw	x15,12(x12)
8000333c:	00c7a423          	sw	x12,8(x15)
80003340:	5ac000ef          	jal	x1,800038ec <__malloc_unlock>
80003344:	00840513          	addi	x10,x8,8
80003348:	e59ff06f          	jal	x0,800031a0 <_malloc_r+0x8c>
8000334c:	00c00793          	addi	x15,x0,12
80003350:	00f9a023          	sw	x15,0(x19)
80003354:	00000513          	addi	x10,x0,0
80003358:	e49ff06f          	jal	x0,800031a0 <_malloc_r+0x8c>
8000335c:	20000613          	addi	x12,x0,512
80003360:	04000593          	addi	x11,x0,64
80003364:	03f00813          	addi	x16,x0,63
80003368:	e8dff06f          	jal	x0,800031f4 <_malloc_r+0xe0>
8000336c:	00892403          	lw	x8,8(x18)
80003370:	01612823          	sw	x22,16(x2)
80003374:	00442783          	lw	x15,4(x8)
80003378:	ffc7fb13          	andi	x22,x15,-4
8000337c:	009b6863          	bltu	x22,x9,8000338c <_malloc_r+0x278>
80003380:	409b0733          	sub	x14,x22,x9
80003384:	00f00793          	addi	x15,x0,15
80003388:	0ee7c463          	blt	x15,x14,80003470 <_malloc_r+0x35c>
8000338c:	801047b7          	lui	x15,0x80104
80003390:	01912223          	sw	x25,4(x2)
80003394:	80101cb7          	lui	x25,0x80101
80003398:	01512a23          	sw	x21,20(x2)
8000339c:	6a8ca703          	lw	x14,1704(x25) # 801016a8 <__malloc_sbrk_base>
800033a0:	fc47aa83          	lw	x21,-60(x15) # 80103fc4 <__malloc_top_pad>
800033a4:	01412c23          	sw	x20,24(x2)
800033a8:	01712623          	sw	x23,12(x2)
800033ac:	fff00793          	addi	x15,x0,-1
800033b0:	01640a33          	add	x20,x8,x22
800033b4:	01548ab3          	add	x21,x9,x21
800033b8:	3cf70e63          	beq	x14,x15,80003794 <_malloc_r+0x680>
800033bc:	000017b7          	lui	x15,0x1
800033c0:	00f78793          	addi	x15,x15,15 # 100f <_stack_size+0xf>
800033c4:	00fa8ab3          	add	x21,x21,x15
800033c8:	fffff7b7          	lui	x15,0xfffff
800033cc:	00fafab3          	and	x21,x21,x15
800033d0:	000a8593          	addi	x11,x21,0
800033d4:	00098513          	addi	x10,x19,0
800033d8:	721000ef          	jal	x1,800042f8 <_sbrk_r>
800033dc:	fff00793          	addi	x15,x0,-1
800033e0:	00050b93          	addi	x23,x10,0
800033e4:	46f50263          	beq	x10,x15,80003848 <_malloc_r+0x734>
800033e8:	01812423          	sw	x24,8(x2)
800033ec:	25456463          	bltu	x10,x20,80003634 <_malloc_r+0x520>
800033f0:	80104c37          	lui	x24,0x80104
800033f4:	f7cc0c13          	addi	x24,x24,-132 # 80103f7c <__malloc_current_mallinfo>
800033f8:	000c2583          	lw	x11,0(x24)
800033fc:	00ba85b3          	add	x11,x21,x11
80003400:	00bc2023          	sw	x11,0(x24)
80003404:	00058713          	addi	x14,x11,0
80003408:	2aaa1c63          	bne	x20,x10,800036c0 <_malloc_r+0x5ac>
8000340c:	01451793          	slli	x15,x10,0x14
80003410:	2a079863          	bne	x15,x0,800036c0 <_malloc_r+0x5ac>
80003414:	00892b83          	lw	x23,8(x18)
80003418:	015b07b3          	add	x15,x22,x21
8000341c:	0017e793          	ori	x15,x15,1
80003420:	00fba223          	sw	x15,4(x23)
80003424:	80104737          	lui	x14,0x80104
80003428:	fc072683          	lw	x13,-64(x14) # 80103fc0 <__malloc_max_sbrked_mem>
8000342c:	00b6f463          	bgeu	x13,x11,80003434 <_malloc_r+0x320>
80003430:	fcb72023          	sw	x11,-64(x14)
80003434:	80104737          	lui	x14,0x80104
80003438:	fbc72683          	lw	x13,-68(x14) # 80103fbc <__malloc_max_total_mem>
8000343c:	00b6f463          	bgeu	x13,x11,80003444 <_malloc_r+0x330>
80003440:	fab72e23          	sw	x11,-68(x14)
80003444:	00812c03          	lw	x24,8(x2)
80003448:	000b8413          	addi	x8,x23,0
8000344c:	ffc7f793          	andi	x15,x15,-4
80003450:	40978733          	sub	x14,x15,x9
80003454:	3897ec63          	bltu	x15,x9,800037ec <_malloc_r+0x6d8>
80003458:	00f00793          	addi	x15,x0,15
8000345c:	38e7d863          	bge	x15,x14,800037ec <_malloc_r+0x6d8>
80003460:	01812a03          	lw	x20,24(x2)
80003464:	01412a83          	lw	x21,20(x2)
80003468:	00c12b83          	lw	x23,12(x2)
8000346c:	00412c83          	lw	x25,4(x2)
80003470:	0014e793          	ori	x15,x9,1
80003474:	00f42223          	sw	x15,4(x8)
80003478:	009404b3          	add	x9,x8,x9
8000347c:	00992423          	sw	x9,8(x18)
80003480:	00176713          	ori	x14,x14,1
80003484:	00098513          	addi	x10,x19,0
80003488:	00e4a223          	sw	x14,4(x9)
8000348c:	460000ef          	jal	x1,800038ec <__malloc_unlock>
80003490:	02c12083          	lw	x1,44(x2)
80003494:	00840513          	addi	x10,x8,8
80003498:	02812403          	lw	x8,40(x2)
8000349c:	01012b03          	lw	x22,16(x2)
800034a0:	02412483          	lw	x9,36(x2)
800034a4:	02012903          	lw	x18,32(x2)
800034a8:	01c12983          	lw	x19,28(x2)
800034ac:	03010113          	addi	x2,x2,48
800034b0:	00008067          	jalr	x0,0(x1)
800034b4:	00492503          	lw	x10,4(x18)
800034b8:	df5ff06f          	jal	x0,800032ac <_malloc_r+0x198>
800034bc:	00842603          	lw	x12,8(x8)
800034c0:	cbdff06f          	jal	x0,8000317c <_malloc_r+0x68>
800034c4:	00c7a403          	lw	x8,12(x15) # fffff00c <_end+0x7fefa03c>
800034c8:	00258593          	addi	x11,x11,2
800034cc:	d68786e3          	beq	x15,x8,80003238 <_malloc_r+0x124>
800034d0:	c9dff06f          	jal	x0,8000316c <_malloc_r+0x58>
800034d4:	0097d713          	srli	x14,x15,0x9
800034d8:	00400693          	addi	x13,x0,4
800034dc:	14e6f263          	bgeu	x13,x14,80003620 <_malloc_r+0x50c>
800034e0:	01400693          	addi	x13,x0,20
800034e4:	32e6e663          	bltu	x13,x14,80003810 <_malloc_r+0x6fc>
800034e8:	05c70613          	addi	x12,x14,92
800034ec:	05b70693          	addi	x13,x14,91
800034f0:	00361613          	slli	x12,x12,0x3
800034f4:	00c90633          	add	x12,x18,x12
800034f8:	00062703          	lw	x14,0(x12)
800034fc:	ff860613          	addi	x12,x12,-8
80003500:	00e61863          	bne	x12,x14,80003510 <_malloc_r+0x3fc>
80003504:	2980006f          	jal	x0,8000379c <_malloc_r+0x688>
80003508:	00872703          	lw	x14,8(x14)
8000350c:	00e60863          	beq	x12,x14,8000351c <_malloc_r+0x408>
80003510:	00472683          	lw	x13,4(x14)
80003514:	ffc6f693          	andi	x13,x13,-4
80003518:	fed7e8e3          	bltu	x15,x13,80003508 <_malloc_r+0x3f4>
8000351c:	00c72603          	lw	x12,12(x14)
80003520:	00c42623          	sw	x12,12(x8)
80003524:	00e42423          	sw	x14,8(x8)
80003528:	00862423          	sw	x8,8(x12)
8000352c:	00872623          	sw	x8,12(x14)
80003530:	d7dff06f          	jal	x0,800032ac <_malloc_r+0x198>
80003534:	01400713          	addi	x14,x0,20
80003538:	10f77863          	bgeu	x14,x15,80003648 <_malloc_r+0x534>
8000353c:	05400713          	addi	x14,x0,84
80003540:	2ef76663          	bltu	x14,x15,8000382c <_malloc_r+0x718>
80003544:	00c4d793          	srli	x15,x9,0xc
80003548:	06f78593          	addi	x11,x15,111
8000354c:	06e78813          	addi	x16,x15,110
80003550:	00359613          	slli	x12,x11,0x3
80003554:	ca1ff06f          	jal	x0,800031f4 <_malloc_r+0xe0>
80003558:	001e0e13          	addi	x28,x28,1
8000355c:	003e7793          	andi	x15,x28,3
80003560:	00850513          	addi	x10,x10,8
80003564:	10078063          	beq	x15,x0,80003664 <_malloc_r+0x550>
80003568:	00c52783          	lw	x15,12(x10)
8000356c:	d95ff06f          	jal	x0,80003300 <_malloc_r+0x1ec>
80003570:	00842603          	lw	x12,8(x8)
80003574:	0014e593          	ori	x11,x9,1
80003578:	00b42223          	sw	x11,4(x8)
8000357c:	00f62623          	sw	x15,12(x12)
80003580:	00c7a423          	sw	x12,8(x15)
80003584:	009404b3          	add	x9,x8,x9
80003588:	00992a23          	sw	x9,20(x18)
8000358c:	00992823          	sw	x9,16(x18)
80003590:	0016e793          	ori	x15,x13,1
80003594:	0104a623          	sw	x16,12(x9)
80003598:	0104a423          	sw	x16,8(x9)
8000359c:	00f4a223          	sw	x15,4(x9)
800035a0:	00e40733          	add	x14,x8,x14
800035a4:	00098513          	addi	x10,x19,0
800035a8:	00d72023          	sw	x13,0(x14)
800035ac:	340000ef          	jal	x1,800038ec <__malloc_unlock>
800035b0:	00840513          	addi	x10,x8,8
800035b4:	bedff06f          	jal	x0,800031a0 <_malloc_r+0x8c>
800035b8:	00f407b3          	add	x15,x8,x15
800035bc:	0047a703          	lw	x14,4(x15)
800035c0:	00098513          	addi	x10,x19,0
800035c4:	00176713          	ori	x14,x14,1
800035c8:	00e7a223          	sw	x14,4(x15)
800035cc:	320000ef          	jal	x1,800038ec <__malloc_unlock>
800035d0:	00840513          	addi	x10,x8,8
800035d4:	bcdff06f          	jal	x0,800031a0 <_malloc_r+0x8c>
800035d8:	0034d593          	srli	x11,x9,0x3
800035dc:	00848793          	addi	x15,x9,8
800035e0:	b75ff06f          	jal	x0,80003154 <_malloc_r+0x40>
800035e4:	0014e693          	ori	x13,x9,1
800035e8:	00d42223          	sw	x13,4(x8)
800035ec:	009404b3          	add	x9,x8,x9
800035f0:	00992a23          	sw	x9,20(x18)
800035f4:	00992823          	sw	x9,16(x18)
800035f8:	00176693          	ori	x13,x14,1
800035fc:	0104a623          	sw	x16,12(x9)
80003600:	0104a423          	sw	x16,8(x9)
80003604:	00d4a223          	sw	x13,4(x9)
80003608:	00f407b3          	add	x15,x8,x15
8000360c:	00098513          	addi	x10,x19,0
80003610:	00e7a023          	sw	x14,0(x15)
80003614:	2d8000ef          	jal	x1,800038ec <__malloc_unlock>
80003618:	00840513          	addi	x10,x8,8
8000361c:	b85ff06f          	jal	x0,800031a0 <_malloc_r+0x8c>
80003620:	0067d713          	srli	x14,x15,0x6
80003624:	03970613          	addi	x12,x14,57
80003628:	03870693          	addi	x13,x14,56
8000362c:	00361613          	slli	x12,x12,0x3
80003630:	ec5ff06f          	jal	x0,800034f4 <_malloc_r+0x3e0>
80003634:	07240c63          	beq	x8,x18,800036ac <_malloc_r+0x598>
80003638:	00892403          	lw	x8,8(x18)
8000363c:	00812c03          	lw	x24,8(x2)
80003640:	00442783          	lw	x15,4(x8)
80003644:	e09ff06f          	jal	x0,8000344c <_malloc_r+0x338>
80003648:	05c78593          	addi	x11,x15,92
8000364c:	05b78813          	addi	x16,x15,91
80003650:	00359613          	slli	x12,x11,0x3
80003654:	ba1ff06f          	jal	x0,800031f4 <_malloc_r+0xe0>
80003658:	00832783          	lw	x15,8(x6)
8000365c:	fff58593          	addi	x11,x11,-1
80003660:	28679063          	bne	x15,x6,800038e0 <_malloc_r+0x7cc>
80003664:	0035f793          	andi	x15,x11,3
80003668:	ff830313          	addi	x6,x6,-8
8000366c:	fe0796e3          	bne	x15,x0,80003658 <_malloc_r+0x544>
80003670:	00492703          	lw	x14,4(x18)
80003674:	fff64793          	xori	x15,x12,-1
80003678:	00e7f7b3          	and	x15,x15,x14
8000367c:	00f92223          	sw	x15,4(x18)
80003680:	00161613          	slli	x12,x12,0x1
80003684:	cec7e4e3          	bltu	x15,x12,8000336c <_malloc_r+0x258>
80003688:	ce0602e3          	beq	x12,x0,8000336c <_malloc_r+0x258>
8000368c:	00f67733          	and	x14,x12,x15
80003690:	00071a63          	bne	x14,x0,800036a4 <_malloc_r+0x590>
80003694:	00161613          	slli	x12,x12,0x1
80003698:	00f67733          	and	x14,x12,x15
8000369c:	004e0e13          	addi	x28,x28,4
800036a0:	fe070ae3          	beq	x14,x0,80003694 <_malloc_r+0x580>
800036a4:	000e0593          	addi	x11,x28,0
800036a8:	c45ff06f          	jal	x0,800032ec <_malloc_r+0x1d8>
800036ac:	80104c37          	lui	x24,0x80104
800036b0:	f7cc0c13          	addi	x24,x24,-132 # 80103f7c <__malloc_current_mallinfo>
800036b4:	000c2703          	lw	x14,0(x24)
800036b8:	00ea8733          	add	x14,x21,x14
800036bc:	00ec2023          	sw	x14,0(x24)
800036c0:	6a8ca683          	lw	x13,1704(x25)
800036c4:	fff00793          	addi	x15,x0,-1
800036c8:	18f68663          	beq	x13,x15,80003854 <_malloc_r+0x740>
800036cc:	414b87b3          	sub	x15,x23,x20
800036d0:	00e787b3          	add	x15,x15,x14
800036d4:	00fc2023          	sw	x15,0(x24)
800036d8:	007bfc93          	andi	x25,x23,7
800036dc:	0c0c8c63          	beq	x25,x0,800037b4 <_malloc_r+0x6a0>
800036e0:	419b8bb3          	sub	x23,x23,x25
800036e4:	000017b7          	lui	x15,0x1
800036e8:	00878793          	addi	x15,x15,8 # 1008 <_stack_size+0x8>
800036ec:	008b8b93          	addi	x23,x23,8
800036f0:	419785b3          	sub	x11,x15,x25
800036f4:	015b8ab3          	add	x21,x23,x21
800036f8:	415585b3          	sub	x11,x11,x21
800036fc:	01459593          	slli	x11,x11,0x14
80003700:	0145da13          	srli	x20,x11,0x14
80003704:	000a0593          	addi	x11,x20,0
80003708:	00098513          	addi	x10,x19,0
8000370c:	3ed000ef          	jal	x1,800042f8 <_sbrk_r>
80003710:	fff00793          	addi	x15,x0,-1
80003714:	18f50063          	beq	x10,x15,80003894 <_malloc_r+0x780>
80003718:	41750533          	sub	x10,x10,x23
8000371c:	01450ab3          	add	x21,x10,x20
80003720:	000c2703          	lw	x14,0(x24)
80003724:	01792423          	sw	x23,8(x18)
80003728:	001ae793          	ori	x15,x21,1
8000372c:	00ea05b3          	add	x11,x20,x14
80003730:	00bc2023          	sw	x11,0(x24)
80003734:	00fba223          	sw	x15,4(x23)
80003738:	cf2406e3          	beq	x8,x18,80003424 <_malloc_r+0x310>
8000373c:	00f00693          	addi	x13,x0,15
80003740:	0b66f063          	bgeu	x13,x22,800037e0 <_malloc_r+0x6cc>
80003744:	00442703          	lw	x14,4(x8)
80003748:	ff4b0793          	addi	x15,x22,-12
8000374c:	ff87f793          	andi	x15,x15,-8
80003750:	00177713          	andi	x14,x14,1
80003754:	00f76733          	or	x14,x14,x15
80003758:	00e42223          	sw	x14,4(x8)
8000375c:	00500613          	addi	x12,x0,5
80003760:	00f40733          	add	x14,x8,x15
80003764:	00c72223          	sw	x12,4(x14)
80003768:	00c72423          	sw	x12,8(x14)
8000376c:	00f6e663          	bltu	x13,x15,80003778 <_malloc_r+0x664>
80003770:	004ba783          	lw	x15,4(x23)
80003774:	cb1ff06f          	jal	x0,80003424 <_malloc_r+0x310>
80003778:	00840593          	addi	x11,x8,8
8000377c:	00098513          	addi	x10,x19,0
80003780:	e88ff0ef          	jal	x1,80002e08 <_free_r>
80003784:	00892b83          	lw	x23,8(x18)
80003788:	000c2583          	lw	x11,0(x24)
8000378c:	004ba783          	lw	x15,4(x23)
80003790:	c95ff06f          	jal	x0,80003424 <_malloc_r+0x310>
80003794:	010a8a93          	addi	x21,x21,16
80003798:	c39ff06f          	jal	x0,800033d0 <_malloc_r+0x2bc>
8000379c:	4026d693          	srai	x13,x13,0x2
800037a0:	00100793          	addi	x15,x0,1
800037a4:	00d797b3          	sll	x15,x15,x13
800037a8:	00f56533          	or	x10,x10,x15
800037ac:	00a92223          	sw	x10,4(x18)
800037b0:	d71ff06f          	jal	x0,80003520 <_malloc_r+0x40c>
800037b4:	015b85b3          	add	x11,x23,x21
800037b8:	40b005b3          	sub	x11,x0,x11
800037bc:	01459593          	slli	x11,x11,0x14
800037c0:	0145da13          	srli	x20,x11,0x14
800037c4:	000a0593          	addi	x11,x20,0
800037c8:	00098513          	addi	x10,x19,0
800037cc:	32d000ef          	jal	x1,800042f8 <_sbrk_r>
800037d0:	fff00793          	addi	x15,x0,-1
800037d4:	f4f512e3          	bne	x10,x15,80003718 <_malloc_r+0x604>
800037d8:	00000a13          	addi	x20,x0,0
800037dc:	f45ff06f          	jal	x0,80003720 <_malloc_r+0x60c>
800037e0:	00812c03          	lw	x24,8(x2)
800037e4:	00100793          	addi	x15,x0,1
800037e8:	00fba223          	sw	x15,4(x23)
800037ec:	00098513          	addi	x10,x19,0
800037f0:	0fc000ef          	jal	x1,800038ec <__malloc_unlock>
800037f4:	00000513          	addi	x10,x0,0
800037f8:	01812a03          	lw	x20,24(x2)
800037fc:	01412a83          	lw	x21,20(x2)
80003800:	01012b03          	lw	x22,16(x2)
80003804:	00c12b83          	lw	x23,12(x2)
80003808:	00412c83          	lw	x25,4(x2)
8000380c:	995ff06f          	jal	x0,800031a0 <_malloc_r+0x8c>
80003810:	05400693          	addi	x13,x0,84
80003814:	04e6e463          	bltu	x13,x14,8000385c <_malloc_r+0x748>
80003818:	00c7d713          	srli	x14,x15,0xc
8000381c:	06f70613          	addi	x12,x14,111
80003820:	06e70693          	addi	x13,x14,110
80003824:	00361613          	slli	x12,x12,0x3
80003828:	ccdff06f          	jal	x0,800034f4 <_malloc_r+0x3e0>
8000382c:	15400713          	addi	x14,x0,340
80003830:	04f76463          	bltu	x14,x15,80003878 <_malloc_r+0x764>
80003834:	00f4d793          	srli	x15,x9,0xf
80003838:	07878593          	addi	x11,x15,120
8000383c:	07778813          	addi	x16,x15,119
80003840:	00359613          	slli	x12,x11,0x3
80003844:	9b1ff06f          	jal	x0,800031f4 <_malloc_r+0xe0>
80003848:	00892403          	lw	x8,8(x18)
8000384c:	00442783          	lw	x15,4(x8)
80003850:	bfdff06f          	jal	x0,8000344c <_malloc_r+0x338>
80003854:	6b7ca423          	sw	x23,1704(x25)
80003858:	e81ff06f          	jal	x0,800036d8 <_malloc_r+0x5c4>
8000385c:	15400693          	addi	x13,x0,340
80003860:	04e6e463          	bltu	x13,x14,800038a8 <_malloc_r+0x794>
80003864:	00f7d713          	srli	x14,x15,0xf
80003868:	07870613          	addi	x12,x14,120
8000386c:	07770693          	addi	x13,x14,119
80003870:	00361613          	slli	x12,x12,0x3
80003874:	c81ff06f          	jal	x0,800034f4 <_malloc_r+0x3e0>
80003878:	55400713          	addi	x14,x0,1364
8000387c:	04f76463          	bltu	x14,x15,800038c4 <_malloc_r+0x7b0>
80003880:	0124d793          	srli	x15,x9,0x12
80003884:	07d78593          	addi	x11,x15,125
80003888:	07c78813          	addi	x16,x15,124
8000388c:	00359613          	slli	x12,x11,0x3
80003890:	965ff06f          	jal	x0,800031f4 <_malloc_r+0xe0>
80003894:	ff8c8c93          	addi	x25,x25,-8
80003898:	019a8ab3          	add	x21,x21,x25
8000389c:	417a8ab3          	sub	x21,x21,x23
800038a0:	00000a13          	addi	x20,x0,0
800038a4:	e7dff06f          	jal	x0,80003720 <_malloc_r+0x60c>
800038a8:	55400693          	addi	x13,x0,1364
800038ac:	02e6e463          	bltu	x13,x14,800038d4 <_malloc_r+0x7c0>
800038b0:	0127d713          	srli	x14,x15,0x12
800038b4:	07d70613          	addi	x12,x14,125
800038b8:	07c70693          	addi	x13,x14,124
800038bc:	00361613          	slli	x12,x12,0x3
800038c0:	c35ff06f          	jal	x0,800034f4 <_malloc_r+0x3e0>
800038c4:	3f800613          	addi	x12,x0,1016
800038c8:	07f00593          	addi	x11,x0,127
800038cc:	07e00813          	addi	x16,x0,126
800038d0:	925ff06f          	jal	x0,800031f4 <_malloc_r+0xe0>
800038d4:	3f800613          	addi	x12,x0,1016
800038d8:	07e00693          	addi	x13,x0,126
800038dc:	c19ff06f          	jal	x0,800034f4 <_malloc_r+0x3e0>
800038e0:	00492783          	lw	x15,4(x18)
800038e4:	d9dff06f          	jal	x0,80003680 <_malloc_r+0x56c>

800038e8 <__malloc_lock>:
800038e8:	00008067          	jalr	x0,0(x1)

800038ec <__malloc_unlock>:
800038ec:	00008067          	jalr	x0,0(x1)

800038f0 <_realloc_r>:
800038f0:	fd010113          	addi	x2,x2,-48
800038f4:	02912223          	sw	x9,36(x2)
800038f8:	02112623          	sw	x1,44(x2)
800038fc:	00060493          	addi	x9,x12,0
80003900:	1e058863          	beq	x11,x0,80003af0 <_realloc_r+0x200>
80003904:	02812423          	sw	x8,40(x2)
80003908:	03212023          	sw	x18,32(x2)
8000390c:	00058413          	addi	x8,x11,0
80003910:	01312e23          	sw	x19,28(x2)
80003914:	01512a23          	sw	x21,20(x2)
80003918:	01412c23          	sw	x20,24(x2)
8000391c:	00050913          	addi	x18,x10,0
80003920:	fc9ff0ef          	jal	x1,800038e8 <__malloc_lock>
80003924:	ffc42703          	lw	x14,-4(x8)
80003928:	00b48793          	addi	x15,x9,11
8000392c:	01600693          	addi	x13,x0,22
80003930:	ff840a93          	addi	x21,x8,-8
80003934:	ffc77993          	andi	x19,x14,-4
80003938:	10f6f263          	bgeu	x13,x15,80003a3c <_realloc_r+0x14c>
8000393c:	ff87fa13          	andi	x20,x15,-8
80003940:	1007c263          	blt	x15,x0,80003a44 <_realloc_r+0x154>
80003944:	109a6063          	bltu	x20,x9,80003a44 <_realloc_r+0x154>
80003948:	1349d263          	bge	x19,x20,80003a6c <_realloc_r+0x17c>
8000394c:	801017b7          	lui	x15,0x80101
80003950:	01812423          	sw	x24,8(x2)
80003954:	13078c13          	addi	x24,x15,304 # 80101130 <__malloc_av_>
80003958:	008c2603          	lw	x12,8(x24)
8000395c:	013a86b3          	add	x13,x21,x19
80003960:	0046a783          	lw	x15,4(x13)
80003964:	1cd60863          	beq	x12,x13,80003b34 <_realloc_r+0x244>
80003968:	ffe7f613          	andi	x12,x15,-2
8000396c:	00c68633          	add	x12,x13,x12
80003970:	00462603          	lw	x12,4(x12)
80003974:	00167613          	andi	x12,x12,1
80003978:	14061a63          	bne	x12,x0,80003acc <_realloc_r+0x1dc>
8000397c:	ffc7f793          	andi	x15,x15,-4
80003980:	00f98633          	add	x12,x19,x15
80003984:	0d465863          	bge	x12,x20,80003a54 <_realloc_r+0x164>
80003988:	00177713          	andi	x14,x14,1
8000398c:	02071c63          	bne	x14,x0,800039c4 <_realloc_r+0xd4>
80003990:	01712623          	sw	x23,12(x2)
80003994:	ff842b83          	lw	x23,-8(x8)
80003998:	01612823          	sw	x22,16(x2)
8000399c:	417a8bb3          	sub	x23,x21,x23
800039a0:	004ba703          	lw	x14,4(x23)
800039a4:	ffc77713          	andi	x14,x14,-4
800039a8:	00e787b3          	add	x15,x15,x14
800039ac:	01378b33          	add	x22,x15,x19
800039b0:	334b5c63          	bge	x22,x20,80003ce8 <_realloc_r+0x3f8>
800039b4:	00e98b33          	add	x22,x19,x14
800039b8:	294b5863          	bge	x22,x20,80003c48 <_realloc_r+0x358>
800039bc:	01012b03          	lw	x22,16(x2)
800039c0:	00c12b83          	lw	x23,12(x2)
800039c4:	00048593          	addi	x11,x9,0
800039c8:	00090513          	addi	x10,x18,0
800039cc:	f48ff0ef          	jal	x1,80003114 <_malloc_r>
800039d0:	00050493          	addi	x9,x10,0
800039d4:	40050863          	beq	x10,x0,80003de4 <_realloc_r+0x4f4>
800039d8:	ffc42783          	lw	x15,-4(x8)
800039dc:	ff850713          	addi	x14,x10,-8
800039e0:	ffe7f793          	andi	x15,x15,-2
800039e4:	00fa87b3          	add	x15,x21,x15
800039e8:	24e78663          	beq	x15,x14,80003c34 <_realloc_r+0x344>
800039ec:	ffc98613          	addi	x12,x19,-4
800039f0:	02400793          	addi	x15,x0,36
800039f4:	2ec7e463          	bltu	x15,x12,80003cdc <_realloc_r+0x3ec>
800039f8:	01300713          	addi	x14,x0,19
800039fc:	20c76a63          	bltu	x14,x12,80003c10 <_realloc_r+0x320>
80003a00:	00050793          	addi	x15,x10,0
80003a04:	00040713          	addi	x14,x8,0
80003a08:	00072683          	lw	x13,0(x14)
80003a0c:	00d7a023          	sw	x13,0(x15)
80003a10:	00472683          	lw	x13,4(x14)
80003a14:	00d7a223          	sw	x13,4(x15)
80003a18:	00872703          	lw	x14,8(x14)
80003a1c:	00e7a423          	sw	x14,8(x15)
80003a20:	00040593          	addi	x11,x8,0
80003a24:	00090513          	addi	x10,x18,0
80003a28:	be0ff0ef          	jal	x1,80002e08 <_free_r>
80003a2c:	00090513          	addi	x10,x18,0
80003a30:	ebdff0ef          	jal	x1,800038ec <__malloc_unlock>
80003a34:	00812c03          	lw	x24,8(x2)
80003a38:	06c0006f          	jal	x0,80003aa4 <_realloc_r+0x1b4>
80003a3c:	01000a13          	addi	x20,x0,16
80003a40:	f09a74e3          	bgeu	x20,x9,80003948 <_realloc_r+0x58>
80003a44:	00c00793          	addi	x15,x0,12
80003a48:	00f92023          	sw	x15,0(x18)
80003a4c:	00000493          	addi	x9,x0,0
80003a50:	0540006f          	jal	x0,80003aa4 <_realloc_r+0x1b4>
80003a54:	00c6a783          	lw	x15,12(x13)
80003a58:	0086a703          	lw	x14,8(x13)
80003a5c:	00812c03          	lw	x24,8(x2)
80003a60:	00060993          	addi	x19,x12,0
80003a64:	00f72623          	sw	x15,12(x14)
80003a68:	00e7a423          	sw	x14,8(x15)
80003a6c:	004aa783          	lw	x15,4(x21)
80003a70:	414986b3          	sub	x13,x19,x20
80003a74:	00f00613          	addi	x12,x0,15
80003a78:	0017f793          	andi	x15,x15,1
80003a7c:	013a8733          	add	x14,x21,x19
80003a80:	08d66263          	bltu	x12,x13,80003b04 <_realloc_r+0x214>
80003a84:	0137e7b3          	or	x15,x15,x19
80003a88:	00faa223          	sw	x15,4(x21)
80003a8c:	00472783          	lw	x15,4(x14)
80003a90:	0017e793          	ori	x15,x15,1
80003a94:	00f72223          	sw	x15,4(x14)
80003a98:	00090513          	addi	x10,x18,0
80003a9c:	e51ff0ef          	jal	x1,800038ec <__malloc_unlock>
80003aa0:	00040493          	addi	x9,x8,0
80003aa4:	02812403          	lw	x8,40(x2)
80003aa8:	02c12083          	lw	x1,44(x2)
80003aac:	02012903          	lw	x18,32(x2)
80003ab0:	01c12983          	lw	x19,28(x2)
80003ab4:	01812a03          	lw	x20,24(x2)
80003ab8:	01412a83          	lw	x21,20(x2)
80003abc:	00048513          	addi	x10,x9,0
80003ac0:	02412483          	lw	x9,36(x2)
80003ac4:	03010113          	addi	x2,x2,48
80003ac8:	00008067          	jalr	x0,0(x1)
80003acc:	00177713          	andi	x14,x14,1
80003ad0:	ee071ae3          	bne	x14,x0,800039c4 <_realloc_r+0xd4>
80003ad4:	01712623          	sw	x23,12(x2)
80003ad8:	ff842b83          	lw	x23,-8(x8)
80003adc:	01612823          	sw	x22,16(x2)
80003ae0:	417a8bb3          	sub	x23,x21,x23
80003ae4:	004ba703          	lw	x14,4(x23)
80003ae8:	ffc77713          	andi	x14,x14,-4
80003aec:	ec9ff06f          	jal	x0,800039b4 <_realloc_r+0xc4>
80003af0:	02c12083          	lw	x1,44(x2)
80003af4:	02412483          	lw	x9,36(x2)
80003af8:	00060593          	addi	x11,x12,0
80003afc:	03010113          	addi	x2,x2,48
80003b00:	e14ff06f          	jal	x0,80003114 <_malloc_r>
80003b04:	0147e7b3          	or	x15,x15,x20
80003b08:	00faa223          	sw	x15,4(x21)
80003b0c:	014a85b3          	add	x11,x21,x20
80003b10:	0016e693          	ori	x13,x13,1
80003b14:	00d5a223          	sw	x13,4(x11)
80003b18:	00472783          	lw	x15,4(x14)
80003b1c:	00858593          	addi	x11,x11,8
80003b20:	00090513          	addi	x10,x18,0
80003b24:	0017e793          	ori	x15,x15,1
80003b28:	00f72223          	sw	x15,4(x14)
80003b2c:	adcff0ef          	jal	x1,80002e08 <_free_r>
80003b30:	f69ff06f          	jal	x0,80003a98 <_realloc_r+0x1a8>
80003b34:	ffc7f793          	andi	x15,x15,-4
80003b38:	013786b3          	add	x13,x15,x19
80003b3c:	010a0613          	addi	x12,x20,16
80003b40:	26c6d063          	bge	x13,x12,80003da0 <_realloc_r+0x4b0>
80003b44:	00177713          	andi	x14,x14,1
80003b48:	e6071ee3          	bne	x14,x0,800039c4 <_realloc_r+0xd4>
80003b4c:	01712623          	sw	x23,12(x2)
80003b50:	ff842b83          	lw	x23,-8(x8)
80003b54:	01612823          	sw	x22,16(x2)
80003b58:	417a8bb3          	sub	x23,x21,x23
80003b5c:	004ba703          	lw	x14,4(x23)
80003b60:	ffc77713          	andi	x14,x14,-4
80003b64:	00e787b3          	add	x15,x15,x14
80003b68:	01378b33          	add	x22,x15,x19
80003b6c:	e4cb44e3          	blt	x22,x12,800039b4 <_realloc_r+0xc4>
80003b70:	00cba783          	lw	x15,12(x23)
80003b74:	008ba703          	lw	x14,8(x23)
80003b78:	ffc98613          	addi	x12,x19,-4
80003b7c:	02400693          	addi	x13,x0,36
80003b80:	00f72623          	sw	x15,12(x14)
80003b84:	00e7a423          	sw	x14,8(x15)
80003b88:	008b8493          	addi	x9,x23,8
80003b8c:	28c6e463          	bltu	x13,x12,80003e14 <_realloc_r+0x524>
80003b90:	01300713          	addi	x14,x0,19
80003b94:	00048793          	addi	x15,x9,0
80003b98:	02c77263          	bgeu	x14,x12,80003bbc <_realloc_r+0x2cc>
80003b9c:	00042703          	lw	x14,0(x8)
80003ba0:	01b00793          	addi	x15,x0,27
80003ba4:	00eba423          	sw	x14,8(x23)
80003ba8:	00442703          	lw	x14,4(x8)
80003bac:	00eba623          	sw	x14,12(x23)
80003bb0:	26c7ea63          	bltu	x15,x12,80003e24 <_realloc_r+0x534>
80003bb4:	00840413          	addi	x8,x8,8
80003bb8:	010b8793          	addi	x15,x23,16
80003bbc:	00042703          	lw	x14,0(x8)
80003bc0:	00e7a023          	sw	x14,0(x15)
80003bc4:	00442703          	lw	x14,4(x8)
80003bc8:	00e7a223          	sw	x14,4(x15)
80003bcc:	00842703          	lw	x14,8(x8)
80003bd0:	00e7a423          	sw	x14,8(x15)
80003bd4:	014b8733          	add	x14,x23,x20
80003bd8:	414b0b33          	sub	x22,x22,x20
80003bdc:	00ec2423          	sw	x14,8(x24)
80003be0:	001b6793          	ori	x15,x22,1
80003be4:	00f72223          	sw	x15,4(x14)
80003be8:	004ba783          	lw	x15,4(x23)
80003bec:	00090513          	addi	x10,x18,0
80003bf0:	0017f793          	andi	x15,x15,1
80003bf4:	0147e7b3          	or	x15,x15,x20
80003bf8:	00fba223          	sw	x15,4(x23)
80003bfc:	cf1ff0ef          	jal	x1,800038ec <__malloc_unlock>
80003c00:	01012b03          	lw	x22,16(x2)
80003c04:	00c12b83          	lw	x23,12(x2)
80003c08:	00812c03          	lw	x24,8(x2)
80003c0c:	e99ff06f          	jal	x0,80003aa4 <_realloc_r+0x1b4>
80003c10:	00042683          	lw	x13,0(x8)
80003c14:	01b00713          	addi	x14,x0,27
80003c18:	00d52023          	sw	x13,0(x10)
80003c1c:	00442683          	lw	x13,4(x8)
80003c20:	00d52223          	sw	x13,4(x10)
80003c24:	14c76e63          	bltu	x14,x12,80003d80 <_realloc_r+0x490>
80003c28:	00840713          	addi	x14,x8,8
80003c2c:	00850793          	addi	x15,x10,8
80003c30:	dd9ff06f          	jal	x0,80003a08 <_realloc_r+0x118>
80003c34:	ffc52783          	lw	x15,-4(x10)
80003c38:	00812c03          	lw	x24,8(x2)
80003c3c:	ffc7f793          	andi	x15,x15,-4
80003c40:	00f989b3          	add	x19,x19,x15
80003c44:	e29ff06f          	jal	x0,80003a6c <_realloc_r+0x17c>
80003c48:	00cba783          	lw	x15,12(x23)
80003c4c:	008ba703          	lw	x14,8(x23)
80003c50:	ffc98613          	addi	x12,x19,-4
80003c54:	02400693          	addi	x13,x0,36
80003c58:	00f72623          	sw	x15,12(x14)
80003c5c:	00e7a423          	sw	x14,8(x15)
80003c60:	008b8493          	addi	x9,x23,8
80003c64:	10c6e663          	bltu	x13,x12,80003d70 <_realloc_r+0x480>
80003c68:	01300713          	addi	x14,x0,19
80003c6c:	00048793          	addi	x15,x9,0
80003c70:	02c77c63          	bgeu	x14,x12,80003ca8 <_realloc_r+0x3b8>
80003c74:	00042703          	lw	x14,0(x8)
80003c78:	01b00793          	addi	x15,x0,27
80003c7c:	00eba423          	sw	x14,8(x23)
80003c80:	00442703          	lw	x14,4(x8)
80003c84:	00eba623          	sw	x14,12(x23)
80003c88:	14c7f863          	bgeu	x15,x12,80003dd8 <_realloc_r+0x4e8>
80003c8c:	00842783          	lw	x15,8(x8)
80003c90:	00fba823          	sw	x15,16(x23)
80003c94:	00c42783          	lw	x15,12(x8)
80003c98:	00fbaa23          	sw	x15,20(x23)
80003c9c:	0ad60c63          	beq	x12,x13,80003d54 <_realloc_r+0x464>
80003ca0:	01040413          	addi	x8,x8,16
80003ca4:	018b8793          	addi	x15,x23,24
80003ca8:	00042703          	lw	x14,0(x8)
80003cac:	00e7a023          	sw	x14,0(x15)
80003cb0:	00442703          	lw	x14,4(x8)
80003cb4:	00e7a223          	sw	x14,4(x15)
80003cb8:	00842703          	lw	x14,8(x8)
80003cbc:	00e7a423          	sw	x14,8(x15)
80003cc0:	000b0993          	addi	x19,x22,0
80003cc4:	000b8a93          	addi	x21,x23,0
80003cc8:	01012b03          	lw	x22,16(x2)
80003ccc:	00c12b83          	lw	x23,12(x2)
80003cd0:	00812c03          	lw	x24,8(x2)
80003cd4:	00048413          	addi	x8,x9,0
80003cd8:	d95ff06f          	jal	x0,80003a6c <_realloc_r+0x17c>
80003cdc:	00040593          	addi	x11,x8,0
80003ce0:	bb5fe0ef          	jal	x1,80002894 <memmove>
80003ce4:	d3dff06f          	jal	x0,80003a20 <_realloc_r+0x130>
80003ce8:	00c6a783          	lw	x15,12(x13)
80003cec:	0086a703          	lw	x14,8(x13)
80003cf0:	ffc98613          	addi	x12,x19,-4
80003cf4:	02400693          	addi	x13,x0,36
80003cf8:	00f72623          	sw	x15,12(x14)
80003cfc:	00e7a423          	sw	x14,8(x15)
80003d00:	008ba703          	lw	x14,8(x23)
80003d04:	00cba783          	lw	x15,12(x23)
80003d08:	008b8493          	addi	x9,x23,8
80003d0c:	00f72623          	sw	x15,12(x14)
80003d10:	00e7a423          	sw	x14,8(x15)
80003d14:	04c6ee63          	bltu	x13,x12,80003d70 <_realloc_r+0x480>
80003d18:	01300713          	addi	x14,x0,19
80003d1c:	00048793          	addi	x15,x9,0
80003d20:	f8c774e3          	bgeu	x14,x12,80003ca8 <_realloc_r+0x3b8>
80003d24:	00042703          	lw	x14,0(x8)
80003d28:	01b00793          	addi	x15,x0,27
80003d2c:	00eba423          	sw	x14,8(x23)
80003d30:	00442703          	lw	x14,4(x8)
80003d34:	00eba623          	sw	x14,12(x23)
80003d38:	0ac7f063          	bgeu	x15,x12,80003dd8 <_realloc_r+0x4e8>
80003d3c:	00842703          	lw	x14,8(x8)
80003d40:	02400793          	addi	x15,x0,36
80003d44:	00eba823          	sw	x14,16(x23)
80003d48:	00c42703          	lw	x14,12(x8)
80003d4c:	00ebaa23          	sw	x14,20(x23)
80003d50:	f4f618e3          	bne	x12,x15,80003ca0 <_realloc_r+0x3b0>
80003d54:	01042703          	lw	x14,16(x8)
80003d58:	020b8793          	addi	x15,x23,32
80003d5c:	01840413          	addi	x8,x8,24
80003d60:	00ebac23          	sw	x14,24(x23)
80003d64:	ffc42703          	lw	x14,-4(x8)
80003d68:	00ebae23          	sw	x14,28(x23)
80003d6c:	f3dff06f          	jal	x0,80003ca8 <_realloc_r+0x3b8>
80003d70:	00040593          	addi	x11,x8,0
80003d74:	00048513          	addi	x10,x9,0
80003d78:	b1dfe0ef          	jal	x1,80002894 <memmove>
80003d7c:	f45ff06f          	jal	x0,80003cc0 <_realloc_r+0x3d0>
80003d80:	00842703          	lw	x14,8(x8)
80003d84:	00e52423          	sw	x14,8(x10)
80003d88:	00c42703          	lw	x14,12(x8)
80003d8c:	00e52623          	sw	x14,12(x10)
80003d90:	06f60463          	beq	x12,x15,80003df8 <_realloc_r+0x508>
80003d94:	01040713          	addi	x14,x8,16
80003d98:	01050793          	addi	x15,x10,16
80003d9c:	c6dff06f          	jal	x0,80003a08 <_realloc_r+0x118>
80003da0:	014a8ab3          	add	x21,x21,x20
80003da4:	414686b3          	sub	x13,x13,x20
80003da8:	015c2423          	sw	x21,8(x24)
80003dac:	0016e793          	ori	x15,x13,1
80003db0:	00faa223          	sw	x15,4(x21)
80003db4:	ffc42783          	lw	x15,-4(x8)
80003db8:	00090513          	addi	x10,x18,0
80003dbc:	00040493          	addi	x9,x8,0
80003dc0:	0017f793          	andi	x15,x15,1
80003dc4:	0147e7b3          	or	x15,x15,x20
80003dc8:	fef42e23          	sw	x15,-4(x8)
80003dcc:	b21ff0ef          	jal	x1,800038ec <__malloc_unlock>
80003dd0:	00812c03          	lw	x24,8(x2)
80003dd4:	cd1ff06f          	jal	x0,80003aa4 <_realloc_r+0x1b4>
80003dd8:	00840413          	addi	x8,x8,8
80003ddc:	010b8793          	addi	x15,x23,16
80003de0:	ec9ff06f          	jal	x0,80003ca8 <_realloc_r+0x3b8>
80003de4:	00090513          	addi	x10,x18,0
80003de8:	b05ff0ef          	jal	x1,800038ec <__malloc_unlock>
80003dec:	00000493          	addi	x9,x0,0
80003df0:	00812c03          	lw	x24,8(x2)
80003df4:	cb1ff06f          	jal	x0,80003aa4 <_realloc_r+0x1b4>
80003df8:	01042683          	lw	x13,16(x8)
80003dfc:	01840713          	addi	x14,x8,24
80003e00:	01850793          	addi	x15,x10,24
80003e04:	00d52823          	sw	x13,16(x10)
80003e08:	01442683          	lw	x13,20(x8)
80003e0c:	00d52a23          	sw	x13,20(x10)
80003e10:	bf9ff06f          	jal	x0,80003a08 <_realloc_r+0x118>
80003e14:	00040593          	addi	x11,x8,0
80003e18:	00048513          	addi	x10,x9,0
80003e1c:	a79fe0ef          	jal	x1,80002894 <memmove>
80003e20:	db5ff06f          	jal	x0,80003bd4 <_realloc_r+0x2e4>
80003e24:	00842783          	lw	x15,8(x8)
80003e28:	00fba823          	sw	x15,16(x23)
80003e2c:	00c42783          	lw	x15,12(x8)
80003e30:	00fbaa23          	sw	x15,20(x23)
80003e34:	00d60863          	beq	x12,x13,80003e44 <_realloc_r+0x554>
80003e38:	01040413          	addi	x8,x8,16
80003e3c:	018b8793          	addi	x15,x23,24
80003e40:	d7dff06f          	jal	x0,80003bbc <_realloc_r+0x2cc>
80003e44:	01042703          	lw	x14,16(x8)
80003e48:	020b8793          	addi	x15,x23,32
80003e4c:	01840413          	addi	x8,x8,24
80003e50:	00ebac23          	sw	x14,24(x23)
80003e54:	ffc42703          	lw	x14,-4(x8)
80003e58:	00ebae23          	sw	x14,28(x23)
80003e5c:	d61ff06f          	jal	x0,80003bbc <_realloc_r+0x2cc>

80003e60 <_fclose_r>:
80003e60:	ff010113          	addi	x2,x2,-16
80003e64:	00112623          	sw	x1,12(x2)
80003e68:	01212023          	sw	x18,0(x2)
80003e6c:	02058863          	beq	x11,x0,80003e9c <_fclose_r+0x3c>
80003e70:	00812423          	sw	x8,8(x2)
80003e74:	00912223          	sw	x9,4(x2)
80003e78:	00058413          	addi	x8,x11,0
80003e7c:	00050493          	addi	x9,x10,0
80003e80:	00050663          	beq	x10,x0,80003e8c <_fclose_r+0x2c>
80003e84:	03452783          	lw	x15,52(x10)
80003e88:	0c078c63          	beq	x15,x0,80003f60 <_fclose_r+0x100>
80003e8c:	00c41783          	lh	x15,12(x8)
80003e90:	02079263          	bne	x15,x0,80003eb4 <_fclose_r+0x54>
80003e94:	00812403          	lw	x8,8(x2)
80003e98:	00412483          	lw	x9,4(x2)
80003e9c:	00c12083          	lw	x1,12(x2)
80003ea0:	00000913          	addi	x18,x0,0
80003ea4:	00090513          	addi	x10,x18,0
80003ea8:	00012903          	lw	x18,0(x2)
80003eac:	01010113          	addi	x2,x2,16
80003eb0:	00008067          	jalr	x0,0(x1)
80003eb4:	00040593          	addi	x11,x8,0
80003eb8:	00048513          	addi	x10,x9,0
80003ebc:	975fd0ef          	jal	x1,80001830 <__sflush_r>
80003ec0:	02c42783          	lw	x15,44(x8)
80003ec4:	00050913          	addi	x18,x10,0
80003ec8:	00078a63          	beq	x15,x0,80003edc <_fclose_r+0x7c>
80003ecc:	01c42583          	lw	x11,28(x8)
80003ed0:	00048513          	addi	x10,x9,0
80003ed4:	000780e7          	jalr	x1,0(x15)
80003ed8:	06054463          	blt	x10,x0,80003f40 <_fclose_r+0xe0>
80003edc:	00c45783          	lhu	x15,12(x8)
80003ee0:	0807f793          	andi	x15,x15,128
80003ee4:	06079663          	bne	x15,x0,80003f50 <_fclose_r+0xf0>
80003ee8:	03042583          	lw	x11,48(x8)
80003eec:	00058c63          	beq	x11,x0,80003f04 <_fclose_r+0xa4>
80003ef0:	04040793          	addi	x15,x8,64
80003ef4:	00f58663          	beq	x11,x15,80003f00 <_fclose_r+0xa0>
80003ef8:	00048513          	addi	x10,x9,0
80003efc:	f0dfe0ef          	jal	x1,80002e08 <_free_r>
80003f00:	02042823          	sw	x0,48(x8)
80003f04:	04442583          	lw	x11,68(x8)
80003f08:	00058863          	beq	x11,x0,80003f18 <_fclose_r+0xb8>
80003f0c:	00048513          	addi	x10,x9,0
80003f10:	ef9fe0ef          	jal	x1,80002e08 <_free_r>
80003f14:	04042223          	sw	x0,68(x8)
80003f18:	de5fd0ef          	jal	x1,80001cfc <__sfp_lock_acquire>
80003f1c:	00041623          	sh	x0,12(x8)
80003f20:	de1fd0ef          	jal	x1,80001d00 <__sfp_lock_release>
80003f24:	00c12083          	lw	x1,12(x2)
80003f28:	00812403          	lw	x8,8(x2)
80003f2c:	00412483          	lw	x9,4(x2)
80003f30:	00090513          	addi	x10,x18,0
80003f34:	00012903          	lw	x18,0(x2)
80003f38:	01010113          	addi	x2,x2,16
80003f3c:	00008067          	jalr	x0,0(x1)
80003f40:	00c45783          	lhu	x15,12(x8)
80003f44:	fff00913          	addi	x18,x0,-1
80003f48:	0807f793          	andi	x15,x15,128
80003f4c:	f8078ee3          	beq	x15,x0,80003ee8 <_fclose_r+0x88>
80003f50:	01042583          	lw	x11,16(x8)
80003f54:	00048513          	addi	x10,x9,0
80003f58:	eb1fe0ef          	jal	x1,80002e08 <_free_r>
80003f5c:	f8dff06f          	jal	x0,80003ee8 <_fclose_r+0x88>
80003f60:	d75fd0ef          	jal	x1,80001cd4 <__sinit>
80003f64:	f29ff06f          	jal	x0,80003e8c <_fclose_r+0x2c>

80003f68 <__smakebuf_r>:
80003f68:	00c59783          	lh	x15,12(x11)
80003f6c:	f8010113          	addi	x2,x2,-128
80003f70:	06812c23          	sw	x8,120(x2)
80003f74:	06112e23          	sw	x1,124(x2)
80003f78:	0027f713          	andi	x14,x15,2
80003f7c:	00058413          	addi	x8,x11,0
80003f80:	02070463          	beq	x14,x0,80003fa8 <__smakebuf_r+0x40>
80003f84:	04358793          	addi	x15,x11,67
80003f88:	00f5a023          	sw	x15,0(x11)
80003f8c:	00f5a823          	sw	x15,16(x11)
80003f90:	00100793          	addi	x15,x0,1
80003f94:	00f5aa23          	sw	x15,20(x11)
80003f98:	07c12083          	lw	x1,124(x2)
80003f9c:	07812403          	lw	x8,120(x2)
80003fa0:	08010113          	addi	x2,x2,128
80003fa4:	00008067          	jalr	x0,0(x1)
80003fa8:	00e59583          	lh	x11,14(x11)
80003fac:	06912a23          	sw	x9,116(x2)
80003fb0:	07212823          	sw	x18,112(x2)
80003fb4:	07312623          	sw	x19,108(x2)
80003fb8:	07412423          	sw	x20,104(x2)
80003fbc:	00050493          	addi	x9,x10,0
80003fc0:	0805c663          	blt	x11,x0,8000404c <__smakebuf_r+0xe4>
80003fc4:	00810613          	addi	x12,x2,8
80003fc8:	1fc000ef          	jal	x1,800041c4 <_fstat_r>
80003fcc:	06054e63          	blt	x10,x0,80004048 <__smakebuf_r+0xe0>
80003fd0:	00c12783          	lw	x15,12(x2)
80003fd4:	0000f937          	lui	x18,0xf
80003fd8:	000019b7          	lui	x19,0x1
80003fdc:	00f97933          	and	x18,x18,x15
80003fe0:	ffffe7b7          	lui	x15,0xffffe
80003fe4:	00f90933          	add	x18,x18,x15
80003fe8:	00193913          	sltiu	x18,x18,1
80003fec:	40000a13          	addi	x20,x0,1024
80003ff0:	80098993          	addi	x19,x19,-2048 # 800 <_heap_size+0x800>
80003ff4:	000a0593          	addi	x11,x20,0
80003ff8:	00048513          	addi	x10,x9,0
80003ffc:	918ff0ef          	jal	x1,80003114 <_malloc_r>
80004000:	00c41783          	lh	x15,12(x8)
80004004:	06050863          	beq	x10,x0,80004074 <__smakebuf_r+0x10c>
80004008:	0807e793          	ori	x15,x15,128
8000400c:	00a42023          	sw	x10,0(x8)
80004010:	00a42823          	sw	x10,16(x8)
80004014:	00f41623          	sh	x15,12(x8)
80004018:	01442a23          	sw	x20,20(x8)
8000401c:	0a091063          	bne	x18,x0,800040bc <__smakebuf_r+0x154>
80004020:	0137e7b3          	or	x15,x15,x19
80004024:	07c12083          	lw	x1,124(x2)
80004028:	00f41623          	sh	x15,12(x8)
8000402c:	07812403          	lw	x8,120(x2)
80004030:	07412483          	lw	x9,116(x2)
80004034:	07012903          	lw	x18,112(x2)
80004038:	06c12983          	lw	x19,108(x2)
8000403c:	06812a03          	lw	x20,104(x2)
80004040:	08010113          	addi	x2,x2,128
80004044:	00008067          	jalr	x0,0(x1)
80004048:	00c41783          	lh	x15,12(x8)
8000404c:	0807f793          	andi	x15,x15,128
80004050:	00000913          	addi	x18,x0,0
80004054:	04078e63          	beq	x15,x0,800040b0 <__smakebuf_r+0x148>
80004058:	04000a13          	addi	x20,x0,64
8000405c:	000a0593          	addi	x11,x20,0
80004060:	00048513          	addi	x10,x9,0
80004064:	8b0ff0ef          	jal	x1,80003114 <_malloc_r>
80004068:	00c41783          	lh	x15,12(x8)
8000406c:	00000993          	addi	x19,x0,0
80004070:	f8051ce3          	bne	x10,x0,80004008 <__smakebuf_r+0xa0>
80004074:	2007f713          	andi	x14,x15,512
80004078:	04071e63          	bne	x14,x0,800040d4 <__smakebuf_r+0x16c>
8000407c:	ffc7f793          	andi	x15,x15,-4
80004080:	0027e793          	ori	x15,x15,2
80004084:	04340713          	addi	x14,x8,67
80004088:	00f41623          	sh	x15,12(x8)
8000408c:	00100793          	addi	x15,x0,1
80004090:	07412483          	lw	x9,116(x2)
80004094:	07012903          	lw	x18,112(x2)
80004098:	06c12983          	lw	x19,108(x2)
8000409c:	06812a03          	lw	x20,104(x2)
800040a0:	00e42023          	sw	x14,0(x8)
800040a4:	00e42823          	sw	x14,16(x8)
800040a8:	00f42a23          	sw	x15,20(x8)
800040ac:	eedff06f          	jal	x0,80003f98 <__smakebuf_r+0x30>
800040b0:	40000a13          	addi	x20,x0,1024
800040b4:	00000993          	addi	x19,x0,0
800040b8:	f3dff06f          	jal	x0,80003ff4 <__smakebuf_r+0x8c>
800040bc:	00e41583          	lh	x11,14(x8)
800040c0:	00048513          	addi	x10,x9,0
800040c4:	168000ef          	jal	x1,8000422c <_isatty_r>
800040c8:	02051063          	bne	x10,x0,800040e8 <__smakebuf_r+0x180>
800040cc:	00c41783          	lh	x15,12(x8)
800040d0:	f51ff06f          	jal	x0,80004020 <__smakebuf_r+0xb8>
800040d4:	07412483          	lw	x9,116(x2)
800040d8:	07012903          	lw	x18,112(x2)
800040dc:	06c12983          	lw	x19,108(x2)
800040e0:	06812a03          	lw	x20,104(x2)
800040e4:	eb5ff06f          	jal	x0,80003f98 <__smakebuf_r+0x30>
800040e8:	00c45783          	lhu	x15,12(x8)
800040ec:	ffc7f793          	andi	x15,x15,-4
800040f0:	0017e793          	ori	x15,x15,1
800040f4:	01079793          	slli	x15,x15,0x10
800040f8:	4107d793          	srai	x15,x15,0x10
800040fc:	f25ff06f          	jal	x0,80004020 <__smakebuf_r+0xb8>

80004100 <raise>:
80004100:	ff010113          	addi	x2,x2,-16
80004104:	00912223          	sw	x9,4(x2)
80004108:	80101737          	lui	x14,0x80101
8000410c:	00112623          	sw	x1,12(x2)
80004110:	01f00793          	addi	x15,x0,31
80004114:	6a472483          	lw	x9,1700(x14) # 801016a4 <_impure_ptr>
80004118:	08a7ee63          	bltu	x15,x10,800041b4 <raise+0xb4>
8000411c:	1184a783          	lw	x15,280(x9)
80004120:	00812423          	sw	x8,8(x2)
80004124:	00050413          	addi	x8,x10,0
80004128:	04078263          	beq	x15,x0,8000416c <raise+0x6c>
8000412c:	00251713          	slli	x14,x10,0x2
80004130:	00e787b3          	add	x15,x15,x14
80004134:	0007a703          	lw	x14,0(x15) # ffffe000 <_end+0x7fef9030>
80004138:	02070a63          	beq	x14,x0,8000416c <raise+0x6c>
8000413c:	00100693          	addi	x13,x0,1
80004140:	00d70a63          	beq	x14,x13,80004154 <raise+0x54>
80004144:	fff00693          	addi	x13,x0,-1
80004148:	04d70663          	beq	x14,x13,80004194 <raise+0x94>
8000414c:	0007a023          	sw	x0,0(x15)
80004150:	000700e7          	jalr	x1,0(x14)
80004154:	00812403          	lw	x8,8(x2)
80004158:	00000513          	addi	x10,x0,0
8000415c:	00c12083          	lw	x1,12(x2)
80004160:	00412483          	lw	x9,4(x2)
80004164:	01010113          	addi	x2,x2,16
80004168:	00008067          	jalr	x0,0(x1)
8000416c:	00048513          	addi	x10,x9,0
80004170:	184000ef          	jal	x1,800042f4 <_getpid_r>
80004174:	00040613          	addi	x12,x8,0
80004178:	00812403          	lw	x8,8(x2)
8000417c:	00c12083          	lw	x1,12(x2)
80004180:	00050593          	addi	x11,x10,0
80004184:	00048513          	addi	x10,x9,0
80004188:	00412483          	lw	x9,4(x2)
8000418c:	01010113          	addi	x2,x2,16
80004190:	0fc0006f          	jal	x0,8000428c <_kill_r>
80004194:	00812403          	lw	x8,8(x2)
80004198:	00c12083          	lw	x1,12(x2)
8000419c:	01600793          	addi	x15,x0,22
800041a0:	00f4a023          	sw	x15,0(x9)
800041a4:	00100513          	addi	x10,x0,1
800041a8:	00412483          	lw	x9,4(x2)
800041ac:	01010113          	addi	x2,x2,16
800041b0:	00008067          	jalr	x0,0(x1)
800041b4:	01600793          	addi	x15,x0,22
800041b8:	00f4a023          	sw	x15,0(x9)
800041bc:	fff00513          	addi	x10,x0,-1
800041c0:	f9dff06f          	jal	x0,8000415c <raise+0x5c>

800041c4 <_fstat_r>:
800041c4:	ff010113          	addi	x2,x2,-16
800041c8:	00058713          	addi	x14,x11,0
800041cc:	00812423          	sw	x8,8(x2)
800041d0:	00912223          	sw	x9,4(x2)
800041d4:	00050413          	addi	x8,x10,0
800041d8:	801044b7          	lui	x9,0x80104
800041dc:	00060593          	addi	x11,x12,0
800041e0:	00070513          	addi	x10,x14,0
800041e4:	00112623          	sw	x1,12(x2)
800041e8:	fa04ac23          	sw	x0,-72(x9) # 80103fb8 <errno>
800041ec:	278000ef          	jal	x1,80004464 <_fstat>
800041f0:	fff00793          	addi	x15,x0,-1
800041f4:	00f50c63          	beq	x10,x15,8000420c <_fstat_r+0x48>
800041f8:	00c12083          	lw	x1,12(x2)
800041fc:	00812403          	lw	x8,8(x2)
80004200:	00412483          	lw	x9,4(x2)
80004204:	01010113          	addi	x2,x2,16
80004208:	00008067          	jalr	x0,0(x1)
8000420c:	fb84a783          	lw	x15,-72(x9)
80004210:	fe0784e3          	beq	x15,x0,800041f8 <_fstat_r+0x34>
80004214:	00c12083          	lw	x1,12(x2)
80004218:	00f42023          	sw	x15,0(x8)
8000421c:	00812403          	lw	x8,8(x2)
80004220:	00412483          	lw	x9,4(x2)
80004224:	01010113          	addi	x2,x2,16
80004228:	00008067          	jalr	x0,0(x1)

8000422c <_isatty_r>:
8000422c:	ff010113          	addi	x2,x2,-16
80004230:	00812423          	sw	x8,8(x2)
80004234:	00912223          	sw	x9,4(x2)
80004238:	00050413          	addi	x8,x10,0
8000423c:	801044b7          	lui	x9,0x80104
80004240:	00058513          	addi	x10,x11,0
80004244:	00112623          	sw	x1,12(x2)
80004248:	fa04ac23          	sw	x0,-72(x9) # 80103fb8 <errno>
8000424c:	280000ef          	jal	x1,800044cc <_isatty>
80004250:	fff00793          	addi	x15,x0,-1
80004254:	00f50c63          	beq	x10,x15,8000426c <_isatty_r+0x40>
80004258:	00c12083          	lw	x1,12(x2)
8000425c:	00812403          	lw	x8,8(x2)
80004260:	00412483          	lw	x9,4(x2)
80004264:	01010113          	addi	x2,x2,16
80004268:	00008067          	jalr	x0,0(x1)
8000426c:	fb84a783          	lw	x15,-72(x9)
80004270:	fe0784e3          	beq	x15,x0,80004258 <_isatty_r+0x2c>
80004274:	00c12083          	lw	x1,12(x2)
80004278:	00f42023          	sw	x15,0(x8)
8000427c:	00812403          	lw	x8,8(x2)
80004280:	00412483          	lw	x9,4(x2)
80004284:	01010113          	addi	x2,x2,16
80004288:	00008067          	jalr	x0,0(x1)

8000428c <_kill_r>:
8000428c:	ff010113          	addi	x2,x2,-16
80004290:	00058713          	addi	x14,x11,0
80004294:	00812423          	sw	x8,8(x2)
80004298:	00912223          	sw	x9,4(x2)
8000429c:	00050413          	addi	x8,x10,0
800042a0:	801044b7          	lui	x9,0x80104
800042a4:	00060593          	addi	x11,x12,0
800042a8:	00070513          	addi	x10,x14,0
800042ac:	00112623          	sw	x1,12(x2)
800042b0:	fa04ac23          	sw	x0,-72(x9) # 80103fb8 <errno>
800042b4:	258000ef          	jal	x1,8000450c <_kill>
800042b8:	fff00793          	addi	x15,x0,-1
800042bc:	00f50c63          	beq	x10,x15,800042d4 <_kill_r+0x48>
800042c0:	00c12083          	lw	x1,12(x2)
800042c4:	00812403          	lw	x8,8(x2)
800042c8:	00412483          	lw	x9,4(x2)
800042cc:	01010113          	addi	x2,x2,16
800042d0:	00008067          	jalr	x0,0(x1)
800042d4:	fb84a783          	lw	x15,-72(x9)
800042d8:	fe0784e3          	beq	x15,x0,800042c0 <_kill_r+0x34>
800042dc:	00c12083          	lw	x1,12(x2)
800042e0:	00f42023          	sw	x15,0(x8)
800042e4:	00812403          	lw	x8,8(x2)
800042e8:	00412483          	lw	x9,4(x2)
800042ec:	01010113          	addi	x2,x2,16
800042f0:	00008067          	jalr	x0,0(x1)

800042f4 <_getpid_r>:
800042f4:	1d00006f          	jal	x0,800044c4 <_getpid>

800042f8 <_sbrk_r>:
800042f8:	ff010113          	addi	x2,x2,-16
800042fc:	00812423          	sw	x8,8(x2)
80004300:	00912223          	sw	x9,4(x2)
80004304:	00050413          	addi	x8,x10,0
80004308:	801044b7          	lui	x9,0x80104
8000430c:	00058513          	addi	x10,x11,0
80004310:	00112623          	sw	x1,12(x2)
80004314:	fa04ac23          	sw	x0,-72(x9) # 80103fb8 <errno>
80004318:	2a0000ef          	jal	x1,800045b8 <_sbrk>
8000431c:	fff00793          	addi	x15,x0,-1
80004320:	00f50c63          	beq	x10,x15,80004338 <_sbrk_r+0x40>
80004324:	00c12083          	lw	x1,12(x2)
80004328:	00812403          	lw	x8,8(x2)
8000432c:	00412483          	lw	x9,4(x2)
80004330:	01010113          	addi	x2,x2,16
80004334:	00008067          	jalr	x0,0(x1)
80004338:	fb84a783          	lw	x15,-72(x9)
8000433c:	fe0784e3          	beq	x15,x0,80004324 <_sbrk_r+0x2c>
80004340:	00c12083          	lw	x1,12(x2)
80004344:	00f42023          	sw	x15,0(x8)
80004348:	00812403          	lw	x8,8(x2)
8000434c:	00412483          	lw	x9,4(x2)
80004350:	01010113          	addi	x2,x2,16
80004354:	00008067          	jalr	x0,0(x1)

80004358 <__ascii_mbtowc>:
80004358:	02058063          	beq	x11,x0,80004378 <__ascii_mbtowc+0x20>
8000435c:	04060263          	beq	x12,x0,800043a0 <__ascii_mbtowc+0x48>
80004360:	04068863          	beq	x13,x0,800043b0 <__ascii_mbtowc+0x58>
80004364:	00064783          	lbu	x15,0(x12)
80004368:	00f5a023          	sw	x15,0(x11)
8000436c:	00064503          	lbu	x10,0(x12)
80004370:	00a03533          	sltu	x10,x0,x10
80004374:	00008067          	jalr	x0,0(x1)
80004378:	ff010113          	addi	x2,x2,-16
8000437c:	00c10593          	addi	x11,x2,12
80004380:	02060463          	beq	x12,x0,800043a8 <__ascii_mbtowc+0x50>
80004384:	02068a63          	beq	x13,x0,800043b8 <__ascii_mbtowc+0x60>
80004388:	00064783          	lbu	x15,0(x12)
8000438c:	00f5a023          	sw	x15,0(x11)
80004390:	00064503          	lbu	x10,0(x12)
80004394:	00a03533          	sltu	x10,x0,x10
80004398:	01010113          	addi	x2,x2,16
8000439c:	00008067          	jalr	x0,0(x1)
800043a0:	00000513          	addi	x10,x0,0
800043a4:	00008067          	jalr	x0,0(x1)
800043a8:	00000513          	addi	x10,x0,0
800043ac:	fedff06f          	jal	x0,80004398 <__ascii_mbtowc+0x40>
800043b0:	ffe00513          	addi	x10,x0,-2
800043b4:	00008067          	jalr	x0,0(x1)
800043b8:	ffe00513          	addi	x10,x0,-2
800043bc:	fddff06f          	jal	x0,80004398 <__ascii_mbtowc+0x40>

800043c0 <__ascii_wctomb>:
800043c0:	02058463          	beq	x11,x0,800043e8 <__ascii_wctomb+0x28>
800043c4:	0ff00793          	addi	x15,x0,255
800043c8:	00c7e863          	bltu	x15,x12,800043d8 <__ascii_wctomb+0x18>
800043cc:	00c58023          	sb	x12,0(x11)
800043d0:	00100513          	addi	x10,x0,1
800043d4:	00008067          	jalr	x0,0(x1)
800043d8:	08a00793          	addi	x15,x0,138
800043dc:	00f52023          	sw	x15,0(x10)
800043e0:	fff00513          	addi	x10,x0,-1
800043e4:	00008067          	jalr	x0,0(x1)
800043e8:	00000513          	addi	x10,x0,0
800043ec:	00008067          	jalr	x0,0(x1)

800043f0 <_close>:
800043f0:	ff010113          	addi	x2,x2,-16
800043f4:	00112623          	sw	x1,12(x2)
800043f8:	00812423          	sw	x8,8(x2)
800043fc:	03900893          	addi	x17,x0,57
80004400:	00000073          	ecall
80004404:	00050413          	addi	x8,x10,0
80004408:	00054c63          	blt	x10,x0,80004420 <_close+0x30>
8000440c:	00c12083          	lw	x1,12(x2)
80004410:	00040513          	addi	x10,x8,0
80004414:	00812403          	lw	x8,8(x2)
80004418:	01010113          	addi	x2,x2,16
8000441c:	00008067          	jalr	x0,0(x1)
80004420:	40800433          	sub	x8,x0,x8
80004424:	2fc000ef          	jal	x1,80004720 <__errno>
80004428:	00852023          	sw	x8,0(x10)
8000442c:	fff00413          	addi	x8,x0,-1
80004430:	fddff06f          	jal	x0,8000440c <_close+0x1c>

80004434 <_exit>:
80004434:	05d00893          	addi	x17,x0,93
80004438:	00000073          	ecall
8000443c:	00054463          	blt	x10,x0,80004444 <_exit+0x10>
80004440:	0000006f          	jal	x0,80004440 <_exit+0xc>
80004444:	ff010113          	addi	x2,x2,-16
80004448:	00812423          	sw	x8,8(x2)
8000444c:	00050413          	addi	x8,x10,0
80004450:	00112623          	sw	x1,12(x2)
80004454:	40800433          	sub	x8,x0,x8
80004458:	2c8000ef          	jal	x1,80004720 <__errno>
8000445c:	00852023          	sw	x8,0(x10)
80004460:	0000006f          	jal	x0,80004460 <_exit+0x2c>

80004464 <_fstat>:
80004464:	f7010113          	addi	x2,x2,-144
80004468:	08912223          	sw	x9,132(x2)
8000446c:	08112623          	sw	x1,140(x2)
80004470:	00058493          	addi	x9,x11,0
80004474:	08812423          	sw	x8,136(x2)
80004478:	05000893          	addi	x17,x0,80
8000447c:	00010593          	addi	x11,x2,0
80004480:	00000073          	ecall
80004484:	00050413          	addi	x8,x10,0
80004488:	02054463          	blt	x10,x0,800044b0 <_fstat+0x4c>
8000448c:	00048513          	addi	x10,x9,0
80004490:	00010593          	addi	x11,x2,0
80004494:	1e4000ef          	jal	x1,80004678 <_conv_stat>
80004498:	08c12083          	lw	x1,140(x2)
8000449c:	00040513          	addi	x10,x8,0
800044a0:	08812403          	lw	x8,136(x2)
800044a4:	08412483          	lw	x9,132(x2)
800044a8:	09010113          	addi	x2,x2,144
800044ac:	00008067          	jalr	x0,0(x1)
800044b0:	40800433          	sub	x8,x0,x8
800044b4:	26c000ef          	jal	x1,80004720 <__errno>
800044b8:	00852023          	sw	x8,0(x10)
800044bc:	fff00413          	addi	x8,x0,-1
800044c0:	fcdff06f          	jal	x0,8000448c <_fstat+0x28>

800044c4 <_getpid>:
800044c4:	00100513          	addi	x10,x0,1
800044c8:	00008067          	jalr	x0,0(x1)

800044cc <_isatty>:
800044cc:	f9010113          	addi	x2,x2,-112
800044d0:	00810593          	addi	x11,x2,8
800044d4:	06112623          	sw	x1,108(x2)
800044d8:	f8dff0ef          	jal	x1,80004464 <_fstat>
800044dc:	fff00793          	addi	x15,x0,-1
800044e0:	00f50e63          	beq	x10,x15,800044fc <_isatty+0x30>
800044e4:	00c12503          	lw	x10,12(x2)
800044e8:	06c12083          	lw	x1,108(x2)
800044ec:	00d55513          	srli	x10,x10,0xd
800044f0:	00157513          	andi	x10,x10,1
800044f4:	07010113          	addi	x2,x2,112
800044f8:	00008067          	jalr	x0,0(x1)
800044fc:	06c12083          	lw	x1,108(x2)
80004500:	00000513          	addi	x10,x0,0
80004504:	07010113          	addi	x2,x2,112
80004508:	00008067          	jalr	x0,0(x1)

8000450c <_kill>:
8000450c:	ff010113          	addi	x2,x2,-16
80004510:	00112623          	sw	x1,12(x2)
80004514:	20c000ef          	jal	x1,80004720 <__errno>
80004518:	00c12083          	lw	x1,12(x2)
8000451c:	01600793          	addi	x15,x0,22
80004520:	00f52023          	sw	x15,0(x10)
80004524:	fff00513          	addi	x10,x0,-1
80004528:	01010113          	addi	x2,x2,16
8000452c:	00008067          	jalr	x0,0(x1)

80004530 <_lseek>:
80004530:	ff010113          	addi	x2,x2,-16
80004534:	00112623          	sw	x1,12(x2)
80004538:	00812423          	sw	x8,8(x2)
8000453c:	03e00893          	addi	x17,x0,62
80004540:	00000073          	ecall
80004544:	00050413          	addi	x8,x10,0
80004548:	00054c63          	blt	x10,x0,80004560 <_lseek+0x30>
8000454c:	00c12083          	lw	x1,12(x2)
80004550:	00040513          	addi	x10,x8,0
80004554:	00812403          	lw	x8,8(x2)
80004558:	01010113          	addi	x2,x2,16
8000455c:	00008067          	jalr	x0,0(x1)
80004560:	40800433          	sub	x8,x0,x8
80004564:	1bc000ef          	jal	x1,80004720 <__errno>
80004568:	00852023          	sw	x8,0(x10)
8000456c:	fff00413          	addi	x8,x0,-1
80004570:	fddff06f          	jal	x0,8000454c <_lseek+0x1c>

80004574 <_read>:
80004574:	ff010113          	addi	x2,x2,-16
80004578:	00112623          	sw	x1,12(x2)
8000457c:	00812423          	sw	x8,8(x2)
80004580:	03f00893          	addi	x17,x0,63
80004584:	00000073          	ecall
80004588:	00050413          	addi	x8,x10,0
8000458c:	00054c63          	blt	x10,x0,800045a4 <_read+0x30>
80004590:	00c12083          	lw	x1,12(x2)
80004594:	00040513          	addi	x10,x8,0
80004598:	00812403          	lw	x8,8(x2)
8000459c:	01010113          	addi	x2,x2,16
800045a0:	00008067          	jalr	x0,0(x1)
800045a4:	40800433          	sub	x8,x0,x8
800045a8:	178000ef          	jal	x1,80004720 <__errno>
800045ac:	00852023          	sw	x8,0(x10)
800045b0:	fff00413          	addi	x8,x0,-1
800045b4:	fddff06f          	jal	x0,80004590 <_read+0x1c>

800045b8 <_sbrk>:
800045b8:	801046b7          	lui	x13,0x80104
800045bc:	fc86a703          	lw	x14,-56(x13) # 80103fc8 <heap_end.0>
800045c0:	ff010113          	addi	x2,x2,-16
800045c4:	00112623          	sw	x1,12(x2)
800045c8:	00050793          	addi	x15,x10,0
800045cc:	02071063          	bne	x14,x0,800045ec <_sbrk+0x34>
800045d0:	0d600893          	addi	x17,x0,214
800045d4:	00000513          	addi	x10,x0,0
800045d8:	00000073          	ecall
800045dc:	fff00613          	addi	x12,x0,-1
800045e0:	00050713          	addi	x14,x10,0
800045e4:	02c50a63          	beq	x10,x12,80004618 <_sbrk+0x60>
800045e8:	fca6a423          	sw	x10,-56(x13)
800045ec:	0d600893          	addi	x17,x0,214
800045f0:	00e78533          	add	x10,x15,x14
800045f4:	00000073          	ecall
800045f8:	fc86a703          	lw	x14,-56(x13)
800045fc:	00e787b3          	add	x15,x15,x14
80004600:	00f51c63          	bne	x10,x15,80004618 <_sbrk+0x60>
80004604:	00c12083          	lw	x1,12(x2)
80004608:	fca6a423          	sw	x10,-56(x13)
8000460c:	00070513          	addi	x10,x14,0
80004610:	01010113          	addi	x2,x2,16
80004614:	00008067          	jalr	x0,0(x1)
80004618:	108000ef          	jal	x1,80004720 <__errno>
8000461c:	00c12083          	lw	x1,12(x2)
80004620:	00c00793          	addi	x15,x0,12
80004624:	00f52023          	sw	x15,0(x10)
80004628:	fff00513          	addi	x10,x0,-1
8000462c:	01010113          	addi	x2,x2,16
80004630:	00008067          	jalr	x0,0(x1)

80004634 <_write>:
80004634:	ff010113          	addi	x2,x2,-16
80004638:	00112623          	sw	x1,12(x2)
8000463c:	00812423          	sw	x8,8(x2)
80004640:	04000893          	addi	x17,x0,64
80004644:	00000073          	ecall
80004648:	00050413          	addi	x8,x10,0
8000464c:	00054c63          	blt	x10,x0,80004664 <_write+0x30>
80004650:	00c12083          	lw	x1,12(x2)
80004654:	00040513          	addi	x10,x8,0
80004658:	00812403          	lw	x8,8(x2)
8000465c:	01010113          	addi	x2,x2,16
80004660:	00008067          	jalr	x0,0(x1)
80004664:	40800433          	sub	x8,x0,x8
80004668:	0b8000ef          	jal	x1,80004720 <__errno>
8000466c:	00852023          	sw	x8,0(x10)
80004670:	fff00413          	addi	x8,x0,-1
80004674:	fddff06f          	jal	x0,80004650 <_write+0x1c>

80004678 <_conv_stat>:
80004678:	0185d703          	lhu	x14,24(x11)
8000467c:	0145d783          	lhu	x15,20(x11)
80004680:	ff010113          	addi	x2,x2,-16
80004684:	01c5a283          	lw	x5,28(x11)
80004688:	0205af83          	lw	x31,32(x11)
8000468c:	0305af03          	lw	x30,48(x11)
80004690:	0405ae83          	lw	x29,64(x11)
80004694:	0385ae03          	lw	x28,56(x11)
80004698:	0485a303          	lw	x6,72(x11)
8000469c:	04c5a383          	lw	x7,76(x11)
800046a0:	0585a803          	lw	x16,88(x11)
800046a4:	05c5a883          	lw	x17,92(x11)
800046a8:	00812623          	sw	x8,12(x2)
800046ac:	00912423          	sw	x9,8(x2)
800046b0:	0105a403          	lw	x8,16(x11)
800046b4:	0085a483          	lw	x9,8(x11)
800046b8:	01212223          	sw	x18,4(x2)
800046bc:	0005a903          	lw	x18,0(x11)
800046c0:	0685a603          	lw	x12,104(x11)
800046c4:	01071713          	slli	x14,x14,0x10
800046c8:	00e7e7b3          	or	x15,x15,x14
800046cc:	06c5a683          	lw	x13,108(x11)
800046d0:	01251023          	sh	x18,0(x10)
800046d4:	00951123          	sh	x9,2(x10)
800046d8:	00852223          	sw	x8,4(x10)
800046dc:	00f52423          	sw	x15,8(x10)
800046e0:	00551623          	sh	x5,12(x10)
800046e4:	01f51723          	sh	x31,14(x10)
800046e8:	01e52823          	sw	x30,16(x10)
800046ec:	05d52623          	sw	x29,76(x10)
800046f0:	05c52423          	sw	x28,72(x10)
800046f4:	00652c23          	sw	x6,24(x10)
800046f8:	00752e23          	sw	x7,28(x10)
800046fc:	03052423          	sw	x16,40(x10)
80004700:	03152623          	sw	x17,44(x10)
80004704:	02c52c23          	sw	x12,56(x10)
80004708:	00c12403          	lw	x8,12(x2)
8000470c:	02d52e23          	sw	x13,60(x10)
80004710:	00812483          	lw	x9,8(x2)
80004714:	00412903          	lw	x18,4(x2)
80004718:	01010113          	addi	x2,x2,16
8000471c:	00008067          	jalr	x0,0(x1)

80004720 <__errno>:
80004720:	801017b7          	lui	x15,0x80101
80004724:	6a47a503          	lw	x10,1700(x15) # 801016a4 <_impure_ptr>
80004728:	00008067          	jalr	x0,0(x1)

8000472c <__udivdi3>:
8000472c:	fd010113          	addi	x2,x2,-48
80004730:	01412c23          	sw	x20,24(x2)
80004734:	02112623          	sw	x1,44(x2)
80004738:	02812423          	sw	x8,40(x2)
8000473c:	02912223          	sw	x9,36(x2)
80004740:	03212023          	sw	x18,32(x2)
80004744:	01312e23          	sw	x19,28(x2)
80004748:	01512a23          	sw	x21,20(x2)
8000474c:	01612823          	sw	x22,16(x2)
80004750:	01712623          	sw	x23,12(x2)
80004754:	01812423          	sw	x24,8(x2)
80004758:	01912223          	sw	x25,4(x2)
8000475c:	00050a13          	addi	x20,x10,0
80004760:	38069463          	bne	x13,x0,80004ae8 <__udivdi3+0x3bc>
80004764:	801027b7          	lui	x15,0x80102
80004768:	00060993          	addi	x19,x12,0
8000476c:	00050493          	addi	x9,x10,0
80004770:	a2078793          	addi	x15,x15,-1504 # 80101a20 <__clz_tab>
80004774:	12c5f863          	bgeu	x11,x12,800048a4 <__udivdi3+0x178>
80004778:	00010737          	lui	x14,0x10
8000477c:	00058913          	addi	x18,x11,0
80004780:	10e67863          	bgeu	x12,x14,80004890 <__udivdi3+0x164>
80004784:	10063713          	sltiu	x14,x12,256
80004788:	00173713          	sltiu	x14,x14,1
8000478c:	00371713          	slli	x14,x14,0x3
80004790:	00e656b3          	srl	x13,x12,x14
80004794:	00d787b3          	add	x15,x15,x13
80004798:	0007c783          	lbu	x15,0(x15)
8000479c:	02000693          	addi	x13,x0,32
800047a0:	00e787b3          	add	x15,x15,x14
800047a4:	40f68733          	sub	x14,x13,x15
800047a8:	00f68c63          	beq	x13,x15,800047c0 <__udivdi3+0x94>
800047ac:	00e59933          	sll	x18,x11,x14
800047b0:	00fa57b3          	srl	x15,x20,x15
800047b4:	00e619b3          	sll	x19,x12,x14
800047b8:	0127e933          	or	x18,x15,x18
800047bc:	00ea14b3          	sll	x9,x20,x14
800047c0:	0109da93          	srli	x21,x19,0x10
800047c4:	000a8593          	addi	x11,x21,0
800047c8:	00090513          	addi	x10,x18,0 # f000 <_stack_size+0xe000>
800047cc:	01099b13          	slli	x22,x19,0x10
800047d0:	ce1fb0ef          	jal	x1,800004b0 <__hidden___udivsi3>
800047d4:	010b5b13          	srli	x22,x22,0x10
800047d8:	00050593          	addi	x11,x10,0
800047dc:	00050a13          	addi	x20,x10,0
800047e0:	000b0513          	addi	x10,x22,0
800047e4:	ca1fb0ef          	jal	x1,80000484 <__mulsi3>
800047e8:	00050413          	addi	x8,x10,0
800047ec:	000a8593          	addi	x11,x21,0
800047f0:	00090513          	addi	x10,x18,0
800047f4:	d05fb0ef          	jal	x1,800004f8 <__umodsi3>
800047f8:	01051513          	slli	x10,x10,0x10
800047fc:	0104d713          	srli	x14,x9,0x10
80004800:	00a76733          	or	x14,x14,x10
80004804:	000a0913          	addi	x18,x20,0
80004808:	00877e63          	bgeu	x14,x8,80004824 <__udivdi3+0xf8>
8000480c:	00e98733          	add	x14,x19,x14
80004810:	fffa0913          	addi	x18,x20,-1
80004814:	01376863          	bltu	x14,x19,80004824 <__udivdi3+0xf8>
80004818:	00877663          	bgeu	x14,x8,80004824 <__udivdi3+0xf8>
8000481c:	ffea0913          	addi	x18,x20,-2
80004820:	01370733          	add	x14,x14,x19
80004824:	40870433          	sub	x8,x14,x8
80004828:	000a8593          	addi	x11,x21,0
8000482c:	00040513          	addi	x10,x8,0
80004830:	c81fb0ef          	jal	x1,800004b0 <__hidden___udivsi3>
80004834:	00050593          	addi	x11,x10,0
80004838:	00050a13          	addi	x20,x10,0
8000483c:	000b0513          	addi	x10,x22,0
80004840:	c45fb0ef          	jal	x1,80000484 <__mulsi3>
80004844:	00050b13          	addi	x22,x10,0
80004848:	000a8593          	addi	x11,x21,0
8000484c:	00040513          	addi	x10,x8,0
80004850:	ca9fb0ef          	jal	x1,800004f8 <__umodsi3>
80004854:	01049493          	slli	x9,x9,0x10
80004858:	01051513          	slli	x10,x10,0x10
8000485c:	0104d493          	srli	x9,x9,0x10
80004860:	00a4e4b3          	or	x9,x9,x10
80004864:	000a0713          	addi	x14,x20,0
80004868:	0164fc63          	bgeu	x9,x22,80004880 <__udivdi3+0x154>
8000486c:	009984b3          	add	x9,x19,x9
80004870:	fffa0713          	addi	x14,x20,-1
80004874:	0134e663          	bltu	x9,x19,80004880 <__udivdi3+0x154>
80004878:	0164f463          	bgeu	x9,x22,80004880 <__udivdi3+0x154>
8000487c:	ffea0713          	addi	x14,x20,-2
80004880:	01091793          	slli	x15,x18,0x10
80004884:	00e7e7b3          	or	x15,x15,x14
80004888:	00000913          	addi	x18,x0,0
8000488c:	1200006f          	jal	x0,800049ac <__udivdi3+0x280>
80004890:	010006b7          	lui	x13,0x1000
80004894:	01800713          	addi	x14,x0,24
80004898:	eed67ce3          	bgeu	x12,x13,80004790 <__udivdi3+0x64>
8000489c:	01000713          	addi	x14,x0,16
800048a0:	ef1ff06f          	jal	x0,80004790 <__udivdi3+0x64>
800048a4:	00000713          	addi	x14,x0,0
800048a8:	00060c63          	beq	x12,x0,800048c0 <__udivdi3+0x194>
800048ac:	00010737          	lui	x14,0x10
800048b0:	12e67c63          	bgeu	x12,x14,800049e8 <__udivdi3+0x2bc>
800048b4:	10063713          	sltiu	x14,x12,256
800048b8:	00173713          	sltiu	x14,x14,1
800048bc:	00371713          	slli	x14,x14,0x3
800048c0:	00e656b3          	srl	x13,x12,x14
800048c4:	00d787b3          	add	x15,x15,x13
800048c8:	0007c783          	lbu	x15,0(x15)
800048cc:	02000693          	addi	x13,x0,32
800048d0:	00e787b3          	add	x15,x15,x14
800048d4:	40f68733          	sub	x14,x13,x15
800048d8:	12f69263          	bne	x13,x15,800049fc <__udivdi3+0x2d0>
800048dc:	40c58a33          	sub	x20,x11,x12
800048e0:	00100913          	addi	x18,x0,1
800048e4:	0109db13          	srli	x22,x19,0x10
800048e8:	000b0593          	addi	x11,x22,0
800048ec:	000a0513          	addi	x10,x20,0
800048f0:	01099b93          	slli	x23,x19,0x10
800048f4:	bbdfb0ef          	jal	x1,800004b0 <__hidden___udivsi3>
800048f8:	010bdb93          	srli	x23,x23,0x10
800048fc:	00050593          	addi	x11,x10,0
80004900:	00050c13          	addi	x24,x10,0
80004904:	000b8513          	addi	x10,x23,0
80004908:	b7dfb0ef          	jal	x1,80000484 <__mulsi3>
8000490c:	00050a93          	addi	x21,x10,0
80004910:	000b0593          	addi	x11,x22,0
80004914:	000a0513          	addi	x10,x20,0
80004918:	be1fb0ef          	jal	x1,800004f8 <__umodsi3>
8000491c:	01051513          	slli	x10,x10,0x10
80004920:	0104d713          	srli	x14,x9,0x10
80004924:	00a76733          	or	x14,x14,x10
80004928:	000c0a13          	addi	x20,x24,0
8000492c:	01577e63          	bgeu	x14,x21,80004948 <__udivdi3+0x21c>
80004930:	00e98733          	add	x14,x19,x14
80004934:	fffc0a13          	addi	x20,x24,-1
80004938:	01376863          	bltu	x14,x19,80004948 <__udivdi3+0x21c>
8000493c:	01577663          	bgeu	x14,x21,80004948 <__udivdi3+0x21c>
80004940:	ffec0a13          	addi	x20,x24,-2
80004944:	01370733          	add	x14,x14,x19
80004948:	41570433          	sub	x8,x14,x21
8000494c:	000b0593          	addi	x11,x22,0
80004950:	00040513          	addi	x10,x8,0
80004954:	b5dfb0ef          	jal	x1,800004b0 <__hidden___udivsi3>
80004958:	00050593          	addi	x11,x10,0
8000495c:	00050a93          	addi	x21,x10,0
80004960:	000b8513          	addi	x10,x23,0
80004964:	b21fb0ef          	jal	x1,80000484 <__mulsi3>
80004968:	00050b93          	addi	x23,x10,0
8000496c:	000b0593          	addi	x11,x22,0
80004970:	00040513          	addi	x10,x8,0
80004974:	b85fb0ef          	jal	x1,800004f8 <__umodsi3>
80004978:	01049493          	slli	x9,x9,0x10
8000497c:	01051513          	slli	x10,x10,0x10
80004980:	0104d493          	srli	x9,x9,0x10
80004984:	00a4e4b3          	or	x9,x9,x10
80004988:	000a8713          	addi	x14,x21,0
8000498c:	0174fc63          	bgeu	x9,x23,800049a4 <__udivdi3+0x278>
80004990:	009984b3          	add	x9,x19,x9
80004994:	fffa8713          	addi	x14,x21,-1
80004998:	0134e663          	bltu	x9,x19,800049a4 <__udivdi3+0x278>
8000499c:	0174f463          	bgeu	x9,x23,800049a4 <__udivdi3+0x278>
800049a0:	ffea8713          	addi	x14,x21,-2
800049a4:	010a1793          	slli	x15,x20,0x10
800049a8:	00e7e7b3          	or	x15,x15,x14
800049ac:	02c12083          	lw	x1,44(x2)
800049b0:	02812403          	lw	x8,40(x2)
800049b4:	02412483          	lw	x9,36(x2)
800049b8:	01c12983          	lw	x19,28(x2)
800049bc:	01812a03          	lw	x20,24(x2)
800049c0:	01412a83          	lw	x21,20(x2)
800049c4:	01012b03          	lw	x22,16(x2)
800049c8:	00c12b83          	lw	x23,12(x2)
800049cc:	00812c03          	lw	x24,8(x2)
800049d0:	00412c83          	lw	x25,4(x2)
800049d4:	00090593          	addi	x11,x18,0
800049d8:	00078513          	addi	x10,x15,0
800049dc:	02012903          	lw	x18,32(x2)
800049e0:	03010113          	addi	x2,x2,48
800049e4:	00008067          	jalr	x0,0(x1)
800049e8:	010006b7          	lui	x13,0x1000
800049ec:	01800713          	addi	x14,x0,24
800049f0:	ecd678e3          	bgeu	x12,x13,800048c0 <__udivdi3+0x194>
800049f4:	01000713          	addi	x14,x0,16
800049f8:	ec9ff06f          	jal	x0,800048c0 <__udivdi3+0x194>
800049fc:	00e619b3          	sll	x19,x12,x14
80004a00:	00f5d933          	srl	x18,x11,x15
80004a04:	0109db93          	srli	x23,x19,0x10
80004a08:	00e595b3          	sll	x11,x11,x14
80004a0c:	00fa57b3          	srl	x15,x20,x15
80004a10:	00b7eab3          	or	x21,x15,x11
80004a14:	00ea14b3          	sll	x9,x20,x14
80004a18:	000b8593          	addi	x11,x23,0
80004a1c:	00090513          	addi	x10,x18,0
80004a20:	01099a13          	slli	x20,x19,0x10
80004a24:	a8dfb0ef          	jal	x1,800004b0 <__hidden___udivsi3>
80004a28:	010a5a13          	srli	x20,x20,0x10
80004a2c:	00050593          	addi	x11,x10,0
80004a30:	00050b13          	addi	x22,x10,0
80004a34:	000a0513          	addi	x10,x20,0
80004a38:	a4dfb0ef          	jal	x1,80000484 <__mulsi3>
80004a3c:	00050413          	addi	x8,x10,0
80004a40:	000b8593          	addi	x11,x23,0
80004a44:	00090513          	addi	x10,x18,0
80004a48:	ab1fb0ef          	jal	x1,800004f8 <__umodsi3>
80004a4c:	01051513          	slli	x10,x10,0x10
80004a50:	010ad713          	srli	x14,x21,0x10
80004a54:	00a76733          	or	x14,x14,x10
80004a58:	000b0913          	addi	x18,x22,0
80004a5c:	00877e63          	bgeu	x14,x8,80004a78 <__udivdi3+0x34c>
80004a60:	00e98733          	add	x14,x19,x14
80004a64:	fffb0913          	addi	x18,x22,-1
80004a68:	01376863          	bltu	x14,x19,80004a78 <__udivdi3+0x34c>
80004a6c:	00877663          	bgeu	x14,x8,80004a78 <__udivdi3+0x34c>
80004a70:	ffeb0913          	addi	x18,x22,-2
80004a74:	01370733          	add	x14,x14,x19
80004a78:	40870433          	sub	x8,x14,x8
80004a7c:	000b8593          	addi	x11,x23,0
80004a80:	00040513          	addi	x10,x8,0
80004a84:	a2dfb0ef          	jal	x1,800004b0 <__hidden___udivsi3>
80004a88:	00050593          	addi	x11,x10,0
80004a8c:	00050b13          	addi	x22,x10,0
80004a90:	000a0513          	addi	x10,x20,0
80004a94:	9f1fb0ef          	jal	x1,80000484 <__mulsi3>
80004a98:	00050a13          	addi	x20,x10,0
80004a9c:	000b8593          	addi	x11,x23,0
80004aa0:	00040513          	addi	x10,x8,0
80004aa4:	a55fb0ef          	jal	x1,800004f8 <__umodsi3>
80004aa8:	010a9793          	slli	x15,x21,0x10
80004aac:	01051513          	slli	x10,x10,0x10
80004ab0:	0107d793          	srli	x15,x15,0x10
80004ab4:	00a7e7b3          	or	x15,x15,x10
80004ab8:	000b0713          	addi	x14,x22,0
80004abc:	0147fe63          	bgeu	x15,x20,80004ad8 <__udivdi3+0x3ac>
80004ac0:	00f987b3          	add	x15,x19,x15
80004ac4:	fffb0713          	addi	x14,x22,-1
80004ac8:	0137e863          	bltu	x15,x19,80004ad8 <__udivdi3+0x3ac>
80004acc:	0147f663          	bgeu	x15,x20,80004ad8 <__udivdi3+0x3ac>
80004ad0:	ffeb0713          	addi	x14,x22,-2
80004ad4:	013787b3          	add	x15,x15,x19
80004ad8:	01091913          	slli	x18,x18,0x10
80004adc:	41478a33          	sub	x20,x15,x20
80004ae0:	00e96933          	or	x18,x18,x14
80004ae4:	e01ff06f          	jal	x0,800048e4 <__udivdi3+0x1b8>
80004ae8:	1ed5ee63          	bltu	x11,x13,80004ce4 <__udivdi3+0x5b8>
80004aec:	000107b7          	lui	x15,0x10
80004af0:	04f6f463          	bgeu	x13,x15,80004b38 <__udivdi3+0x40c>
80004af4:	1006b713          	sltiu	x14,x13,256
80004af8:	00173713          	sltiu	x14,x14,1
80004afc:	00371713          	slli	x14,x14,0x3
80004b00:	801027b7          	lui	x15,0x80102
80004b04:	00e6d533          	srl	x10,x13,x14
80004b08:	a2078793          	addi	x15,x15,-1504 # 80101a20 <__clz_tab>
80004b0c:	00a787b3          	add	x15,x15,x10
80004b10:	0007c803          	lbu	x16,0(x15)
80004b14:	02000793          	addi	x15,x0,32
80004b18:	00e80833          	add	x16,x16,x14
80004b1c:	41078933          	sub	x18,x15,x16
80004b20:	03079663          	bne	x15,x16,80004b4c <__udivdi3+0x420>
80004b24:	00100793          	addi	x15,x0,1
80004b28:	e8b6e2e3          	bltu	x13,x11,800049ac <__udivdi3+0x280>
80004b2c:	00ca37b3          	sltu	x15,x20,x12
80004b30:	0017b793          	sltiu	x15,x15,1
80004b34:	e79ff06f          	jal	x0,800049ac <__udivdi3+0x280>
80004b38:	010007b7          	lui	x15,0x1000
80004b3c:	01800713          	addi	x14,x0,24
80004b40:	fcf6f0e3          	bgeu	x13,x15,80004b00 <__udivdi3+0x3d4>
80004b44:	01000713          	addi	x14,x0,16
80004b48:	fb9ff06f          	jal	x0,80004b00 <__udivdi3+0x3d4>
80004b4c:	012696b3          	sll	x13,x13,x18
80004b50:	01065b33          	srl	x22,x12,x16
80004b54:	00db6b33          	or	x22,x22,x13
80004b58:	0105d4b3          	srl	x9,x11,x16
80004b5c:	010b5c13          	srli	x24,x22,0x10
80004b60:	010a5833          	srl	x16,x20,x16
80004b64:	012595b3          	sll	x11,x11,x18
80004b68:	00b869b3          	or	x19,x16,x11
80004b6c:	00048513          	addi	x10,x9,0
80004b70:	000c0593          	addi	x11,x24,0
80004b74:	010b1b93          	slli	x23,x22,0x10
80004b78:	01261433          	sll	x8,x12,x18
80004b7c:	010bdb93          	srli	x23,x23,0x10
80004b80:	931fb0ef          	jal	x1,800004b0 <__hidden___udivsi3>
80004b84:	00050593          	addi	x11,x10,0
80004b88:	00050c93          	addi	x25,x10,0
80004b8c:	000b8513          	addi	x10,x23,0
80004b90:	8f5fb0ef          	jal	x1,80000484 <__mulsi3>
80004b94:	00050a93          	addi	x21,x10,0
80004b98:	000c0593          	addi	x11,x24,0
80004b9c:	00048513          	addi	x10,x9,0
80004ba0:	959fb0ef          	jal	x1,800004f8 <__umodsi3>
80004ba4:	01051513          	slli	x10,x10,0x10
80004ba8:	0109d693          	srli	x13,x19,0x10
80004bac:	00a6e6b3          	or	x13,x13,x10
80004bb0:	000c8493          	addi	x9,x25,0
80004bb4:	0156fe63          	bgeu	x13,x21,80004bd0 <__udivdi3+0x4a4>
80004bb8:	00db06b3          	add	x13,x22,x13
80004bbc:	fffc8493          	addi	x9,x25,-1
80004bc0:	0166e863          	bltu	x13,x22,80004bd0 <__udivdi3+0x4a4>
80004bc4:	0156f663          	bgeu	x13,x21,80004bd0 <__udivdi3+0x4a4>
80004bc8:	ffec8493          	addi	x9,x25,-2
80004bcc:	016686b3          	add	x13,x13,x22
80004bd0:	41568ab3          	sub	x21,x13,x21
80004bd4:	000c0593          	addi	x11,x24,0
80004bd8:	000a8513          	addi	x10,x21,0
80004bdc:	8d5fb0ef          	jal	x1,800004b0 <__hidden___udivsi3>
80004be0:	00050593          	addi	x11,x10,0
80004be4:	00050c93          	addi	x25,x10,0
80004be8:	000b8513          	addi	x10,x23,0
80004bec:	899fb0ef          	jal	x1,80000484 <__mulsi3>
80004bf0:	00050b93          	addi	x23,x10,0
80004bf4:	000c0593          	addi	x11,x24,0
80004bf8:	000a8513          	addi	x10,x21,0
80004bfc:	8fdfb0ef          	jal	x1,800004f8 <__umodsi3>
80004c00:	01099713          	slli	x14,x19,0x10
80004c04:	01051513          	slli	x10,x10,0x10
80004c08:	01075713          	srli	x14,x14,0x10
80004c0c:	00a76733          	or	x14,x14,x10
80004c10:	000c8693          	addi	x13,x25,0
80004c14:	01777e63          	bgeu	x14,x23,80004c30 <__udivdi3+0x504>
80004c18:	00eb0733          	add	x14,x22,x14
80004c1c:	fffc8693          	addi	x13,x25,-1
80004c20:	01676863          	bltu	x14,x22,80004c30 <__udivdi3+0x504>
80004c24:	01777663          	bgeu	x14,x23,80004c30 <__udivdi3+0x504>
80004c28:	ffec8693          	addi	x13,x25,-2
80004c2c:	01670733          	add	x14,x14,x22
80004c30:	01049793          	slli	x15,x9,0x10
80004c34:	00010e37          	lui	x28,0x10
80004c38:	00d7e7b3          	or	x15,x15,x13
80004c3c:	fffe0313          	addi	x6,x28,-1 # ffff <_stack_size+0xefff>
80004c40:	0067f8b3          	and	x17,x15,x6
80004c44:	00647333          	and	x6,x8,x6
80004c48:	41770733          	sub	x14,x14,x23
80004c4c:	0107de93          	srli	x29,x15,0x10
80004c50:	01045413          	srli	x8,x8,0x10
80004c54:	00088513          	addi	x10,x17,0
80004c58:	00030593          	addi	x11,x6,0
80004c5c:	829fb0ef          	jal	x1,80000484 <__mulsi3>
80004c60:	00050813          	addi	x16,x10,0
80004c64:	00040593          	addi	x11,x8,0
80004c68:	00088513          	addi	x10,x17,0
80004c6c:	819fb0ef          	jal	x1,80000484 <__mulsi3>
80004c70:	00050893          	addi	x17,x10,0
80004c74:	00030593          	addi	x11,x6,0
80004c78:	000e8513          	addi	x10,x29,0
80004c7c:	809fb0ef          	jal	x1,80000484 <__mulsi3>
80004c80:	00050313          	addi	x6,x10,0
80004c84:	00040593          	addi	x11,x8,0
80004c88:	000e8513          	addi	x10,x29,0
80004c8c:	ff8fb0ef          	jal	x1,80000484 <__mulsi3>
80004c90:	01085693          	srli	x13,x16,0x10
80004c94:	006888b3          	add	x17,x17,x6
80004c98:	011686b3          	add	x13,x13,x17
80004c9c:	00050613          	addi	x12,x10,0
80004ca0:	0066f463          	bgeu	x13,x6,80004ca8 <__udivdi3+0x57c>
80004ca4:	01c50633          	add	x12,x10,x28
80004ca8:	0106d593          	srli	x11,x13,0x10
80004cac:	00c58633          	add	x12,x11,x12
80004cb0:	02c76663          	bltu	x14,x12,80004cdc <__udivdi3+0x5b0>
80004cb4:	bcc71ae3          	bne	x14,x12,80004888 <__udivdi3+0x15c>
80004cb8:	00010637          	lui	x12,0x10
80004cbc:	fff60613          	addi	x12,x12,-1 # ffff <_stack_size+0xefff>
80004cc0:	00c6f6b3          	and	x13,x13,x12
80004cc4:	01069693          	slli	x13,x13,0x10
80004cc8:	00c87833          	and	x16,x16,x12
80004ccc:	012a1733          	sll	x14,x20,x18
80004cd0:	010686b3          	add	x13,x13,x16
80004cd4:	00000913          	addi	x18,x0,0
80004cd8:	ccd77ae3          	bgeu	x14,x13,800049ac <__udivdi3+0x280>
80004cdc:	fff78793          	addi	x15,x15,-1 # ffffff <_stack_size+0xffefff>
80004ce0:	ba9ff06f          	jal	x0,80004888 <__udivdi3+0x15c>
80004ce4:	00000913          	addi	x18,x0,0
80004ce8:	00000793          	addi	x15,x0,0
80004cec:	cc1ff06f          	jal	x0,800049ac <__udivdi3+0x280>

80004cf0 <__umoddi3>:
80004cf0:	fd010113          	addi	x2,x2,-48
80004cf4:	02812423          	sw	x8,40(x2)
80004cf8:	02912223          	sw	x9,36(x2)
80004cfc:	02112623          	sw	x1,44(x2)
80004d00:	03212023          	sw	x18,32(x2)
80004d04:	01312e23          	sw	x19,28(x2)
80004d08:	01412c23          	sw	x20,24(x2)
80004d0c:	01512a23          	sw	x21,20(x2)
80004d10:	01612823          	sw	x22,16(x2)
80004d14:	01712623          	sw	x23,12(x2)
80004d18:	01812423          	sw	x24,8(x2)
80004d1c:	01912223          	sw	x25,4(x2)
80004d20:	01a12023          	sw	x26,0(x2)
80004d24:	00050413          	addi	x8,x10,0
80004d28:	00058493          	addi	x9,x11,0
80004d2c:	24069c63          	bne	x13,x0,80004f84 <__umoddi3+0x294>
80004d30:	801027b7          	lui	x15,0x80102
80004d34:	00060993          	addi	x19,x12,0
80004d38:	a2078793          	addi	x15,x15,-1504 # 80101a20 <__clz_tab>
80004d3c:	12c5fe63          	bgeu	x11,x12,80004e78 <__umoddi3+0x188>
80004d40:	00010737          	lui	x14,0x10
80004d44:	12e67063          	bgeu	x12,x14,80004e64 <__umoddi3+0x174>
80004d48:	10063713          	sltiu	x14,x12,256
80004d4c:	00173713          	sltiu	x14,x14,1
80004d50:	00371713          	slli	x14,x14,0x3
80004d54:	00e656b3          	srl	x13,x12,x14
80004d58:	00d787b3          	add	x15,x15,x13
80004d5c:	0007c783          	lbu	x15,0(x15)
80004d60:	00e787b3          	add	x15,x15,x14
80004d64:	02000713          	addi	x14,x0,32
80004d68:	40f70933          	sub	x18,x14,x15
80004d6c:	00f70c63          	beq	x14,x15,80004d84 <__umoddi3+0x94>
80004d70:	012594b3          	sll	x9,x11,x18
80004d74:	00f557b3          	srl	x15,x10,x15
80004d78:	012619b3          	sll	x19,x12,x18
80004d7c:	0097e4b3          	or	x9,x15,x9
80004d80:	01251433          	sll	x8,x10,x18
80004d84:	0109da93          	srli	x21,x19,0x10
80004d88:	000a8593          	addi	x11,x21,0
80004d8c:	01099b13          	slli	x22,x19,0x10
80004d90:	00048513          	addi	x10,x9,0
80004d94:	f1cfb0ef          	jal	x1,800004b0 <__hidden___udivsi3>
80004d98:	010b5b13          	srli	x22,x22,0x10
80004d9c:	000b0593          	addi	x11,x22,0
80004da0:	ee4fb0ef          	jal	x1,80000484 <__mulsi3>
80004da4:	00050a13          	addi	x20,x10,0
80004da8:	000a8593          	addi	x11,x21,0
80004dac:	00048513          	addi	x10,x9,0
80004db0:	f48fb0ef          	jal	x1,800004f8 <__umodsi3>
80004db4:	01051513          	slli	x10,x10,0x10
80004db8:	01045793          	srli	x15,x8,0x10
80004dbc:	00a7e7b3          	or	x15,x15,x10
80004dc0:	0147fa63          	bgeu	x15,x20,80004dd4 <__umoddi3+0xe4>
80004dc4:	00f987b3          	add	x15,x19,x15
80004dc8:	0137e663          	bltu	x15,x19,80004dd4 <__umoddi3+0xe4>
80004dcc:	0147f463          	bgeu	x15,x20,80004dd4 <__umoddi3+0xe4>
80004dd0:	013787b3          	add	x15,x15,x19
80004dd4:	414784b3          	sub	x9,x15,x20
80004dd8:	000a8593          	addi	x11,x21,0
80004ddc:	00048513          	addi	x10,x9,0
80004de0:	ed0fb0ef          	jal	x1,800004b0 <__hidden___udivsi3>
80004de4:	000b0593          	addi	x11,x22,0
80004de8:	e9cfb0ef          	jal	x1,80000484 <__mulsi3>
80004dec:	00050a13          	addi	x20,x10,0
80004df0:	000a8593          	addi	x11,x21,0
80004df4:	00048513          	addi	x10,x9,0
80004df8:	f00fb0ef          	jal	x1,800004f8 <__umodsi3>
80004dfc:	01041413          	slli	x8,x8,0x10
80004e00:	01051513          	slli	x10,x10,0x10
80004e04:	01045413          	srli	x8,x8,0x10
80004e08:	00a46433          	or	x8,x8,x10
80004e0c:	01447a63          	bgeu	x8,x20,80004e20 <__umoddi3+0x130>
80004e10:	00898433          	add	x8,x19,x8
80004e14:	01346663          	bltu	x8,x19,80004e20 <__umoddi3+0x130>
80004e18:	01447463          	bgeu	x8,x20,80004e20 <__umoddi3+0x130>
80004e1c:	01340433          	add	x8,x8,x19
80004e20:	41440433          	sub	x8,x8,x20
80004e24:	01245533          	srl	x10,x8,x18
80004e28:	00000593          	addi	x11,x0,0
80004e2c:	02c12083          	lw	x1,44(x2)
80004e30:	02812403          	lw	x8,40(x2)
80004e34:	02412483          	lw	x9,36(x2)
80004e38:	02012903          	lw	x18,32(x2)
80004e3c:	01c12983          	lw	x19,28(x2)
80004e40:	01812a03          	lw	x20,24(x2)
80004e44:	01412a83          	lw	x21,20(x2)
80004e48:	01012b03          	lw	x22,16(x2)
80004e4c:	00c12b83          	lw	x23,12(x2)
80004e50:	00812c03          	lw	x24,8(x2)
80004e54:	00412c83          	lw	x25,4(x2)
80004e58:	00012d03          	lw	x26,0(x2)
80004e5c:	03010113          	addi	x2,x2,48
80004e60:	00008067          	jalr	x0,0(x1)
80004e64:	010006b7          	lui	x13,0x1000
80004e68:	01800713          	addi	x14,x0,24
80004e6c:	eed674e3          	bgeu	x12,x13,80004d54 <__umoddi3+0x64>
80004e70:	01000713          	addi	x14,x0,16
80004e74:	ee1ff06f          	jal	x0,80004d54 <__umoddi3+0x64>
80004e78:	00000713          	addi	x14,x0,0
80004e7c:	00060c63          	beq	x12,x0,80004e94 <__umoddi3+0x1a4>
80004e80:	00010737          	lui	x14,0x10
80004e84:	0ee67663          	bgeu	x12,x14,80004f70 <__umoddi3+0x280>
80004e88:	10063713          	sltiu	x14,x12,256
80004e8c:	00173713          	sltiu	x14,x14,1
80004e90:	00371713          	slli	x14,x14,0x3
80004e94:	00e656b3          	srl	x13,x12,x14
80004e98:	00d787b3          	add	x15,x15,x13
80004e9c:	0007c783          	lbu	x15,0(x15)
80004ea0:	40c584b3          	sub	x9,x11,x12
80004ea4:	00e787b3          	add	x15,x15,x14
80004ea8:	02000713          	addi	x14,x0,32
80004eac:	40f70933          	sub	x18,x14,x15
80004eb0:	ecf70ae3          	beq	x14,x15,80004d84 <__umoddi3+0x94>
80004eb4:	012619b3          	sll	x19,x12,x18
80004eb8:	00f5dbb3          	srl	x23,x11,x15
80004ebc:	0109db13          	srli	x22,x19,0x10
80004ec0:	00f557b3          	srl	x15,x10,x15
80004ec4:	012595b3          	sll	x11,x11,x18
80004ec8:	00b7ea33          	or	x20,x15,x11
80004ecc:	01251433          	sll	x8,x10,x18
80004ed0:	000b0593          	addi	x11,x22,0
80004ed4:	01099a93          	slli	x21,x19,0x10
80004ed8:	000b8513          	addi	x10,x23,0
80004edc:	dd4fb0ef          	jal	x1,800004b0 <__hidden___udivsi3>
80004ee0:	010ada93          	srli	x21,x21,0x10
80004ee4:	000a8593          	addi	x11,x21,0
80004ee8:	d9cfb0ef          	jal	x1,80000484 <__mulsi3>
80004eec:	00050493          	addi	x9,x10,0
80004ef0:	000b0593          	addi	x11,x22,0
80004ef4:	000b8513          	addi	x10,x23,0
80004ef8:	e00fb0ef          	jal	x1,800004f8 <__umodsi3>
80004efc:	01051513          	slli	x10,x10,0x10
80004f00:	010a5713          	srli	x14,x20,0x10
80004f04:	00a76733          	or	x14,x14,x10
80004f08:	00977a63          	bgeu	x14,x9,80004f1c <__umoddi3+0x22c>
80004f0c:	00e98733          	add	x14,x19,x14
80004f10:	01376663          	bltu	x14,x19,80004f1c <__umoddi3+0x22c>
80004f14:	00977463          	bgeu	x14,x9,80004f1c <__umoddi3+0x22c>
80004f18:	01370733          	add	x14,x14,x19
80004f1c:	409704b3          	sub	x9,x14,x9
80004f20:	000b0593          	addi	x11,x22,0
80004f24:	00048513          	addi	x10,x9,0
80004f28:	d88fb0ef          	jal	x1,800004b0 <__hidden___udivsi3>
80004f2c:	000a8593          	addi	x11,x21,0
80004f30:	d54fb0ef          	jal	x1,80000484 <__mulsi3>
80004f34:	00050a93          	addi	x21,x10,0
80004f38:	000b0593          	addi	x11,x22,0
80004f3c:	00048513          	addi	x10,x9,0
80004f40:	db8fb0ef          	jal	x1,800004f8 <__umodsi3>
80004f44:	010a1793          	slli	x15,x20,0x10
80004f48:	01051513          	slli	x10,x10,0x10
80004f4c:	0107d793          	srli	x15,x15,0x10
80004f50:	00a7e7b3          	or	x15,x15,x10
80004f54:	0157fa63          	bgeu	x15,x21,80004f68 <__umoddi3+0x278>
80004f58:	00f987b3          	add	x15,x19,x15
80004f5c:	0137e663          	bltu	x15,x19,80004f68 <__umoddi3+0x278>
80004f60:	0157f463          	bgeu	x15,x21,80004f68 <__umoddi3+0x278>
80004f64:	013787b3          	add	x15,x15,x19
80004f68:	415784b3          	sub	x9,x15,x21
80004f6c:	e19ff06f          	jal	x0,80004d84 <__umoddi3+0x94>
80004f70:	010006b7          	lui	x13,0x1000
80004f74:	01800713          	addi	x14,x0,24
80004f78:	f0d67ee3          	bgeu	x12,x13,80004e94 <__umoddi3+0x1a4>
80004f7c:	01000713          	addi	x14,x0,16
80004f80:	f15ff06f          	jal	x0,80004e94 <__umoddi3+0x1a4>
80004f84:	ead5e4e3          	bltu	x11,x13,80004e2c <__umoddi3+0x13c>
80004f88:	000107b7          	lui	x15,0x10
80004f8c:	04f6fe63          	bgeu	x13,x15,80004fe8 <__umoddi3+0x2f8>
80004f90:	1006b793          	sltiu	x15,x13,256
80004f94:	0017b793          	sltiu	x15,x15,1
80004f98:	00379793          	slli	x15,x15,0x3
80004f9c:	80102737          	lui	x14,0x80102
80004fa0:	00f6d833          	srl	x16,x13,x15
80004fa4:	a2070713          	addi	x14,x14,-1504 # 80101a20 <__clz_tab>
80004fa8:	01070733          	add	x14,x14,x16
80004fac:	00074a83          	lbu	x21,0(x14)
80004fb0:	00fa8ab3          	add	x21,x21,x15
80004fb4:	02000793          	addi	x15,x0,32
80004fb8:	41578a33          	sub	x20,x15,x21
80004fbc:	05579063          	bne	x15,x21,80004ffc <__umoddi3+0x30c>
80004fc0:	00b6e463          	bltu	x13,x11,80004fc8 <__umoddi3+0x2d8>
80004fc4:	00c56c63          	bltu	x10,x12,80004fdc <__umoddi3+0x2ec>
80004fc8:	40c50933          	sub	x18,x10,x12
80004fcc:	40d586b3          	sub	x13,x11,x13
80004fd0:	012534b3          	sltu	x9,x10,x18
80004fd4:	00090413          	addi	x8,x18,0
80004fd8:	409684b3          	sub	x9,x13,x9
80004fdc:	00040513          	addi	x10,x8,0
80004fe0:	00048593          	addi	x11,x9,0
80004fe4:	e49ff06f          	jal	x0,80004e2c <__umoddi3+0x13c>
80004fe8:	01000737          	lui	x14,0x1000
80004fec:	01800793          	addi	x15,x0,24
80004ff0:	fae6f6e3          	bgeu	x13,x14,80004f9c <__umoddi3+0x2ac>
80004ff4:	01000793          	addi	x15,x0,16
80004ff8:	fa5ff06f          	jal	x0,80004f9c <__umoddi3+0x2ac>
80004ffc:	014696b3          	sll	x13,x13,x20
80005000:	01565bb3          	srl	x23,x12,x21
80005004:	00dbebb3          	or	x23,x23,x13
80005008:	0155d9b3          	srl	x19,x11,x21
8000500c:	01555433          	srl	x8,x10,x21
80005010:	014595b3          	sll	x11,x11,x20
80005014:	010bd493          	srli	x9,x23,0x10
80005018:	00b46433          	or	x8,x8,x11
8000501c:	01451b33          	sll	x22,x10,x20
80005020:	00048593          	addi	x11,x9,0
80005024:	00098513          	addi	x10,x19,0
80005028:	010b9c13          	slli	x24,x23,0x10
8000502c:	01461933          	sll	x18,x12,x20
80005030:	010c5c13          	srli	x24,x24,0x10
80005034:	c7cfb0ef          	jal	x1,800004b0 <__hidden___udivsi3>
80005038:	00050593          	addi	x11,x10,0
8000503c:	00050d13          	addi	x26,x10,0
80005040:	000c0513          	addi	x10,x24,0
80005044:	c40fb0ef          	jal	x1,80000484 <__mulsi3>
80005048:	00050c93          	addi	x25,x10,0
8000504c:	00048593          	addi	x11,x9,0
80005050:	00098513          	addi	x10,x19,0
80005054:	ca4fb0ef          	jal	x1,800004f8 <__umodsi3>
80005058:	01051513          	slli	x10,x10,0x10
8000505c:	01045793          	srli	x15,x8,0x10
80005060:	00a7e7b3          	or	x15,x15,x10
80005064:	000d0993          	addi	x19,x26,0
80005068:	0197fe63          	bgeu	x15,x25,80005084 <__umoddi3+0x394>
8000506c:	00fb87b3          	add	x15,x23,x15
80005070:	fffd0993          	addi	x19,x26,-1
80005074:	0177e863          	bltu	x15,x23,80005084 <__umoddi3+0x394>
80005078:	0197f663          	bgeu	x15,x25,80005084 <__umoddi3+0x394>
8000507c:	ffed0993          	addi	x19,x26,-2
80005080:	017787b3          	add	x15,x15,x23
80005084:	41978cb3          	sub	x25,x15,x25
80005088:	00048593          	addi	x11,x9,0
8000508c:	000c8513          	addi	x10,x25,0
80005090:	c20fb0ef          	jal	x1,800004b0 <__hidden___udivsi3>
80005094:	00050593          	addi	x11,x10,0
80005098:	00050d13          	addi	x26,x10,0
8000509c:	000c0513          	addi	x10,x24,0
800050a0:	be4fb0ef          	jal	x1,80000484 <__mulsi3>
800050a4:	00048593          	addi	x11,x9,0
800050a8:	00050c13          	addi	x24,x10,0
800050ac:	000c8513          	addi	x10,x25,0
800050b0:	c48fb0ef          	jal	x1,800004f8 <__umodsi3>
800050b4:	01041593          	slli	x11,x8,0x10
800050b8:	01051513          	slli	x10,x10,0x10
800050bc:	0105d593          	srli	x11,x11,0x10
800050c0:	00a5e5b3          	or	x11,x11,x10
800050c4:	000d0793          	addi	x15,x26,0
800050c8:	0185fe63          	bgeu	x11,x24,800050e4 <__umoddi3+0x3f4>
800050cc:	00bb85b3          	add	x11,x23,x11
800050d0:	fffd0793          	addi	x15,x26,-1
800050d4:	0175e863          	bltu	x11,x23,800050e4 <__umoddi3+0x3f4>
800050d8:	0185f663          	bgeu	x11,x24,800050e4 <__umoddi3+0x3f4>
800050dc:	ffed0793          	addi	x15,x26,-2
800050e0:	017585b3          	add	x11,x11,x23
800050e4:	00010e37          	lui	x28,0x10
800050e8:	01099993          	slli	x19,x19,0x10
800050ec:	00f9e9b3          	or	x19,x19,x15
800050f0:	fffe0793          	addi	x15,x28,-1 # ffff <_stack_size+0xefff>
800050f4:	00f9f733          	and	x14,x19,x15
800050f8:	00f977b3          	and	x15,x18,x15
800050fc:	418584b3          	sub	x9,x11,x24
80005100:	0109d993          	srli	x19,x19,0x10
80005104:	01095313          	srli	x6,x18,0x10
80005108:	00070513          	addi	x10,x14,0 # 1000000 <_stack_size+0xfff000>
8000510c:	00078593          	addi	x11,x15,0 # 10000 <_stack_size+0xf000>
80005110:	b74fb0ef          	jal	x1,80000484 <__mulsi3>
80005114:	00050813          	addi	x16,x10,0
80005118:	00030593          	addi	x11,x6,0
8000511c:	00070513          	addi	x10,x14,0
80005120:	b64fb0ef          	jal	x1,80000484 <__mulsi3>
80005124:	00050713          	addi	x14,x10,0
80005128:	00078593          	addi	x11,x15,0
8000512c:	00098513          	addi	x10,x19,0
80005130:	b54fb0ef          	jal	x1,80000484 <__mulsi3>
80005134:	00050893          	addi	x17,x10,0
80005138:	00030593          	addi	x11,x6,0
8000513c:	00098513          	addi	x10,x19,0
80005140:	b44fb0ef          	jal	x1,80000484 <__mulsi3>
80005144:	01085793          	srli	x15,x16,0x10
80005148:	01170733          	add	x14,x14,x17
8000514c:	00e787b3          	add	x15,x15,x14
80005150:	00050693          	addi	x13,x10,0
80005154:	0117f463          	bgeu	x15,x17,8000515c <__umoddi3+0x46c>
80005158:	01c506b3          	add	x13,x10,x28
8000515c:	0107d713          	srli	x14,x15,0x10
80005160:	00d70733          	add	x14,x14,x13
80005164:	000106b7          	lui	x13,0x10
80005168:	fff68693          	addi	x13,x13,-1 # ffff <_stack_size+0xefff>
8000516c:	00d7f7b3          	and	x15,x15,x13
80005170:	01079793          	slli	x15,x15,0x10
80005174:	00d87833          	and	x16,x16,x13
80005178:	010787b3          	add	x15,x15,x16
8000517c:	00e4e663          	bltu	x9,x14,80005188 <__umoddi3+0x498>
80005180:	00e49e63          	bne	x9,x14,8000519c <__umoddi3+0x4ac>
80005184:	00fb7c63          	bgeu	x22,x15,8000519c <__umoddi3+0x4ac>
80005188:	41278933          	sub	x18,x15,x18
8000518c:	0127b6b3          	sltu	x13,x15,x18
80005190:	017686b3          	add	x13,x13,x23
80005194:	00090793          	addi	x15,x18,0
80005198:	40d70733          	sub	x14,x14,x13
8000519c:	40fb07b3          	sub	x15,x22,x15
800051a0:	00fb3b33          	sltu	x22,x22,x15
800051a4:	40e485b3          	sub	x11,x9,x14
800051a8:	416585b3          	sub	x11,x11,x22
800051ac:	01559ab3          	sll	x21,x11,x21
800051b0:	0147d7b3          	srl	x15,x15,x20
800051b4:	00fae533          	or	x10,x21,x15
800051b8:	0145d5b3          	srl	x11,x11,x20
800051bc:	c71ff06f          	jal	x0,80004e2c <__umoddi3+0x13c>

Disassembly of section .data:

80100000 <stack_begin>:
	...

80101000 <__sglue>:
80101000:	0000                	.insn	2, 0x
80101002:	0000                	.insn	2, 0x
80101004:	00000003          	lb	x0,0(x0) # 0 <_heap_size>
80101008:	3e44                	.insn	2, 0x3e44
8010100a:	8010                	.insn	2, 0x8010
8010100c:	0000                	.insn	2, 0x
	...

80101010 <_impure_data>:
80101010:	0000                	.insn	2, 0x
80101012:	0000                	.insn	2, 0x
80101014:	3e44                	.insn	2, 0x3e44
80101016:	8010                	.insn	2, 0x8010
80101018:	3eac                	.insn	2, 0x3eac
8010101a:	8010                	.insn	2, 0x8010
8010101c:	3f14                	.insn	2, 0x3f14
8010101e:	8010                	.insn	2, 0x8010
	...
801010a8:	0001                	.insn	2, 0x0001
801010aa:	0000                	.insn	2, 0x
801010ac:	0000                	.insn	2, 0x
801010ae:	0000                	.insn	2, 0x
801010b0:	330e                	.insn	2, 0x330e
801010b2:	abcd                	.insn	2, 0xabcd
801010b4:	1234                	.insn	2, 0x1234
801010b6:	e66d                	.insn	2, 0xe66d
801010b8:	deec                	.insn	2, 0xdeec
801010ba:	0005                	.insn	2, 0x0005
801010bc:	0000000b          	.insn	4, 0x000b
	...

80101130 <__malloc_av_>:
	...
80101138:	1130                	.insn	2, 0x1130
8010113a:	8010                	.insn	2, 0x8010
8010113c:	1130                	.insn	2, 0x1130
8010113e:	8010                	.insn	2, 0x8010
80101140:	1138                	.insn	2, 0x1138
80101142:	8010                	.insn	2, 0x8010
80101144:	1138                	.insn	2, 0x1138
80101146:	8010                	.insn	2, 0x8010
80101148:	1140                	.insn	2, 0x1140
8010114a:	8010                	.insn	2, 0x8010
8010114c:	1140                	.insn	2, 0x1140
8010114e:	8010                	.insn	2, 0x8010
80101150:	1148                	.insn	2, 0x1148
80101152:	8010                	.insn	2, 0x8010
80101154:	1148                	.insn	2, 0x1148
80101156:	8010                	.insn	2, 0x8010
80101158:	1150                	.insn	2, 0x1150
8010115a:	8010                	.insn	2, 0x8010
8010115c:	1150                	.insn	2, 0x1150
8010115e:	8010                	.insn	2, 0x8010
80101160:	1158                	.insn	2, 0x1158
80101162:	8010                	.insn	2, 0x8010
80101164:	1158                	.insn	2, 0x1158
80101166:	8010                	.insn	2, 0x8010
80101168:	1160                	.insn	2, 0x1160
8010116a:	8010                	.insn	2, 0x8010
8010116c:	1160                	.insn	2, 0x1160
8010116e:	8010                	.insn	2, 0x8010
80101170:	1168                	.insn	2, 0x1168
80101172:	8010                	.insn	2, 0x8010
80101174:	1168                	.insn	2, 0x1168
80101176:	8010                	.insn	2, 0x8010
80101178:	1170                	.insn	2, 0x1170
8010117a:	8010                	.insn	2, 0x8010
8010117c:	1170                	.insn	2, 0x1170
8010117e:	8010                	.insn	2, 0x8010
80101180:	1178                	.insn	2, 0x1178
80101182:	8010                	.insn	2, 0x8010
80101184:	1178                	.insn	2, 0x1178
80101186:	8010                	.insn	2, 0x8010
80101188:	1180                	.insn	2, 0x1180
8010118a:	8010                	.insn	2, 0x8010
8010118c:	1180                	.insn	2, 0x1180
8010118e:	8010                	.insn	2, 0x8010
80101190:	1188                	.insn	2, 0x1188
80101192:	8010                	.insn	2, 0x8010
80101194:	1188                	.insn	2, 0x1188
80101196:	8010                	.insn	2, 0x8010
80101198:	1190                	.insn	2, 0x1190
8010119a:	8010                	.insn	2, 0x8010
8010119c:	1190                	.insn	2, 0x1190
8010119e:	8010                	.insn	2, 0x8010
801011a0:	1198                	.insn	2, 0x1198
801011a2:	8010                	.insn	2, 0x8010
801011a4:	1198                	.insn	2, 0x1198
801011a6:	8010                	.insn	2, 0x8010
801011a8:	11a0                	.insn	2, 0x11a0
801011aa:	8010                	.insn	2, 0x8010
801011ac:	11a0                	.insn	2, 0x11a0
801011ae:	8010                	.insn	2, 0x8010
801011b0:	11a8                	.insn	2, 0x11a8
801011b2:	8010                	.insn	2, 0x8010
801011b4:	11a8                	.insn	2, 0x11a8
801011b6:	8010                	.insn	2, 0x8010
801011b8:	11b0                	.insn	2, 0x11b0
801011ba:	8010                	.insn	2, 0x8010
801011bc:	11b0                	.insn	2, 0x11b0
801011be:	8010                	.insn	2, 0x8010
801011c0:	11b8                	.insn	2, 0x11b8
801011c2:	8010                	.insn	2, 0x8010
801011c4:	11b8                	.insn	2, 0x11b8
801011c6:	8010                	.insn	2, 0x8010
801011c8:	11c0                	.insn	2, 0x11c0
801011ca:	8010                	.insn	2, 0x8010
801011cc:	11c0                	.insn	2, 0x11c0
801011ce:	8010                	.insn	2, 0x8010
801011d0:	11c8                	.insn	2, 0x11c8
801011d2:	8010                	.insn	2, 0x8010
801011d4:	11c8                	.insn	2, 0x11c8
801011d6:	8010                	.insn	2, 0x8010
801011d8:	11d0                	.insn	2, 0x11d0
801011da:	8010                	.insn	2, 0x8010
801011dc:	11d0                	.insn	2, 0x11d0
801011de:	8010                	.insn	2, 0x8010
801011e0:	11d8                	.insn	2, 0x11d8
801011e2:	8010                	.insn	2, 0x8010
801011e4:	11d8                	.insn	2, 0x11d8
801011e6:	8010                	.insn	2, 0x8010
801011e8:	11e0                	.insn	2, 0x11e0
801011ea:	8010                	.insn	2, 0x8010
801011ec:	11e0                	.insn	2, 0x11e0
801011ee:	8010                	.insn	2, 0x8010
801011f0:	11e8                	.insn	2, 0x11e8
801011f2:	8010                	.insn	2, 0x8010
801011f4:	11e8                	.insn	2, 0x11e8
801011f6:	8010                	.insn	2, 0x8010
801011f8:	11f0                	.insn	2, 0x11f0
801011fa:	8010                	.insn	2, 0x8010
801011fc:	11f0                	.insn	2, 0x11f0
801011fe:	8010                	.insn	2, 0x8010
80101200:	11f8                	.insn	2, 0x11f8
80101202:	8010                	.insn	2, 0x8010
80101204:	11f8                	.insn	2, 0x11f8
80101206:	8010                	.insn	2, 0x8010
80101208:	1200                	.insn	2, 0x1200
8010120a:	8010                	.insn	2, 0x8010
8010120c:	1200                	.insn	2, 0x1200
8010120e:	8010                	.insn	2, 0x8010
80101210:	1208                	.insn	2, 0x1208
80101212:	8010                	.insn	2, 0x8010
80101214:	1208                	.insn	2, 0x1208
80101216:	8010                	.insn	2, 0x8010
80101218:	1210                	.insn	2, 0x1210
8010121a:	8010                	.insn	2, 0x8010
8010121c:	1210                	.insn	2, 0x1210
8010121e:	8010                	.insn	2, 0x8010
80101220:	1218                	.insn	2, 0x1218
80101222:	8010                	.insn	2, 0x8010
80101224:	1218                	.insn	2, 0x1218
80101226:	8010                	.insn	2, 0x8010
80101228:	1220                	.insn	2, 0x1220
8010122a:	8010                	.insn	2, 0x8010
8010122c:	1220                	.insn	2, 0x1220
8010122e:	8010                	.insn	2, 0x8010
80101230:	1228                	.insn	2, 0x1228
80101232:	8010                	.insn	2, 0x8010
80101234:	1228                	.insn	2, 0x1228
80101236:	8010                	.insn	2, 0x8010
80101238:	1230                	.insn	2, 0x1230
8010123a:	8010                	.insn	2, 0x8010
8010123c:	1230                	.insn	2, 0x1230
8010123e:	8010                	.insn	2, 0x8010
80101240:	1238                	.insn	2, 0x1238
80101242:	8010                	.insn	2, 0x8010
80101244:	1238                	.insn	2, 0x1238
80101246:	8010                	.insn	2, 0x8010
80101248:	1240                	.insn	2, 0x1240
8010124a:	8010                	.insn	2, 0x8010
8010124c:	1240                	.insn	2, 0x1240
8010124e:	8010                	.insn	2, 0x8010
80101250:	1248                	.insn	2, 0x1248
80101252:	8010                	.insn	2, 0x8010
80101254:	1248                	.insn	2, 0x1248
80101256:	8010                	.insn	2, 0x8010
80101258:	1250                	.insn	2, 0x1250
8010125a:	8010                	.insn	2, 0x8010
8010125c:	1250                	.insn	2, 0x1250
8010125e:	8010                	.insn	2, 0x8010
80101260:	1258                	.insn	2, 0x1258
80101262:	8010                	.insn	2, 0x8010
80101264:	1258                	.insn	2, 0x1258
80101266:	8010                	.insn	2, 0x8010
80101268:	1260                	.insn	2, 0x1260
8010126a:	8010                	.insn	2, 0x8010
8010126c:	1260                	.insn	2, 0x1260
8010126e:	8010                	.insn	2, 0x8010
80101270:	1268                	.insn	2, 0x1268
80101272:	8010                	.insn	2, 0x8010
80101274:	1268                	.insn	2, 0x1268
80101276:	8010                	.insn	2, 0x8010
80101278:	1270                	.insn	2, 0x1270
8010127a:	8010                	.insn	2, 0x8010
8010127c:	1270                	.insn	2, 0x1270
8010127e:	8010                	.insn	2, 0x8010
80101280:	1278                	.insn	2, 0x1278
80101282:	8010                	.insn	2, 0x8010
80101284:	1278                	.insn	2, 0x1278
80101286:	8010                	.insn	2, 0x8010
80101288:	1280                	.insn	2, 0x1280
8010128a:	8010                	.insn	2, 0x8010
8010128c:	1280                	.insn	2, 0x1280
8010128e:	8010                	.insn	2, 0x8010
80101290:	1288                	.insn	2, 0x1288
80101292:	8010                	.insn	2, 0x8010
80101294:	1288                	.insn	2, 0x1288
80101296:	8010                	.insn	2, 0x8010
80101298:	1290                	.insn	2, 0x1290
8010129a:	8010                	.insn	2, 0x8010
8010129c:	1290                	.insn	2, 0x1290
8010129e:	8010                	.insn	2, 0x8010
801012a0:	1298                	.insn	2, 0x1298
801012a2:	8010                	.insn	2, 0x8010
801012a4:	1298                	.insn	2, 0x1298
801012a6:	8010                	.insn	2, 0x8010
801012a8:	12a0                	.insn	2, 0x12a0
801012aa:	8010                	.insn	2, 0x8010
801012ac:	12a0                	.insn	2, 0x12a0
801012ae:	8010                	.insn	2, 0x8010
801012b0:	12a8                	.insn	2, 0x12a8
801012b2:	8010                	.insn	2, 0x8010
801012b4:	12a8                	.insn	2, 0x12a8
801012b6:	8010                	.insn	2, 0x8010
801012b8:	12b0                	.insn	2, 0x12b0
801012ba:	8010                	.insn	2, 0x8010
801012bc:	12b0                	.insn	2, 0x12b0
801012be:	8010                	.insn	2, 0x8010
801012c0:	12b8                	.insn	2, 0x12b8
801012c2:	8010                	.insn	2, 0x8010
801012c4:	12b8                	.insn	2, 0x12b8
801012c6:	8010                	.insn	2, 0x8010
801012c8:	12c0                	.insn	2, 0x12c0
801012ca:	8010                	.insn	2, 0x8010
801012cc:	12c0                	.insn	2, 0x12c0
801012ce:	8010                	.insn	2, 0x8010
801012d0:	12c8                	.insn	2, 0x12c8
801012d2:	8010                	.insn	2, 0x8010
801012d4:	12c8                	.insn	2, 0x12c8
801012d6:	8010                	.insn	2, 0x8010
801012d8:	12d0                	.insn	2, 0x12d0
801012da:	8010                	.insn	2, 0x8010
801012dc:	12d0                	.insn	2, 0x12d0
801012de:	8010                	.insn	2, 0x8010
801012e0:	12d8                	.insn	2, 0x12d8
801012e2:	8010                	.insn	2, 0x8010
801012e4:	12d8                	.insn	2, 0x12d8
801012e6:	8010                	.insn	2, 0x8010
801012e8:	12e0                	.insn	2, 0x12e0
801012ea:	8010                	.insn	2, 0x8010
801012ec:	12e0                	.insn	2, 0x12e0
801012ee:	8010                	.insn	2, 0x8010
801012f0:	12e8                	.insn	2, 0x12e8
801012f2:	8010                	.insn	2, 0x8010
801012f4:	12e8                	.insn	2, 0x12e8
801012f6:	8010                	.insn	2, 0x8010
801012f8:	12f0                	.insn	2, 0x12f0
801012fa:	8010                	.insn	2, 0x8010
801012fc:	12f0                	.insn	2, 0x12f0
801012fe:	8010                	.insn	2, 0x8010
80101300:	12f8                	.insn	2, 0x12f8
80101302:	8010                	.insn	2, 0x8010
80101304:	12f8                	.insn	2, 0x12f8
80101306:	8010                	.insn	2, 0x8010
80101308:	1300                	.insn	2, 0x1300
8010130a:	8010                	.insn	2, 0x8010
8010130c:	1300                	.insn	2, 0x1300
8010130e:	8010                	.insn	2, 0x8010
80101310:	1308                	.insn	2, 0x1308
80101312:	8010                	.insn	2, 0x8010
80101314:	1308                	.insn	2, 0x1308
80101316:	8010                	.insn	2, 0x8010
80101318:	1310                	.insn	2, 0x1310
8010131a:	8010                	.insn	2, 0x8010
8010131c:	1310                	.insn	2, 0x1310
8010131e:	8010                	.insn	2, 0x8010
80101320:	1318                	.insn	2, 0x1318
80101322:	8010                	.insn	2, 0x8010
80101324:	1318                	.insn	2, 0x1318
80101326:	8010                	.insn	2, 0x8010
80101328:	1320                	.insn	2, 0x1320
8010132a:	8010                	.insn	2, 0x8010
8010132c:	1320                	.insn	2, 0x1320
8010132e:	8010                	.insn	2, 0x8010
80101330:	1328                	.insn	2, 0x1328
80101332:	8010                	.insn	2, 0x8010
80101334:	1328                	.insn	2, 0x1328
80101336:	8010                	.insn	2, 0x8010
80101338:	1330                	.insn	2, 0x1330
8010133a:	8010                	.insn	2, 0x8010
8010133c:	1330                	.insn	2, 0x1330
8010133e:	8010                	.insn	2, 0x8010
80101340:	1338                	.insn	2, 0x1338
80101342:	8010                	.insn	2, 0x8010
80101344:	1338                	.insn	2, 0x1338
80101346:	8010                	.insn	2, 0x8010
80101348:	1340                	.insn	2, 0x1340
8010134a:	8010                	.insn	2, 0x8010
8010134c:	1340                	.insn	2, 0x1340
8010134e:	8010                	.insn	2, 0x8010
80101350:	1348                	.insn	2, 0x1348
80101352:	8010                	.insn	2, 0x8010
80101354:	1348                	.insn	2, 0x1348
80101356:	8010                	.insn	2, 0x8010
80101358:	1350                	.insn	2, 0x1350
8010135a:	8010                	.insn	2, 0x8010
8010135c:	1350                	.insn	2, 0x1350
8010135e:	8010                	.insn	2, 0x8010
80101360:	1358                	.insn	2, 0x1358
80101362:	8010                	.insn	2, 0x8010
80101364:	1358                	.insn	2, 0x1358
80101366:	8010                	.insn	2, 0x8010
80101368:	1360                	.insn	2, 0x1360
8010136a:	8010                	.insn	2, 0x8010
8010136c:	1360                	.insn	2, 0x1360
8010136e:	8010                	.insn	2, 0x8010
80101370:	1368                	.insn	2, 0x1368
80101372:	8010                	.insn	2, 0x8010
80101374:	1368                	.insn	2, 0x1368
80101376:	8010                	.insn	2, 0x8010
80101378:	1370                	.insn	2, 0x1370
8010137a:	8010                	.insn	2, 0x8010
8010137c:	1370                	.insn	2, 0x1370
8010137e:	8010                	.insn	2, 0x8010
80101380:	1378                	.insn	2, 0x1378
80101382:	8010                	.insn	2, 0x8010
80101384:	1378                	.insn	2, 0x1378
80101386:	8010                	.insn	2, 0x8010
80101388:	1380                	.insn	2, 0x1380
8010138a:	8010                	.insn	2, 0x8010
8010138c:	1380                	.insn	2, 0x1380
8010138e:	8010                	.insn	2, 0x8010
80101390:	1388                	.insn	2, 0x1388
80101392:	8010                	.insn	2, 0x8010
80101394:	1388                	.insn	2, 0x1388
80101396:	8010                	.insn	2, 0x8010
80101398:	1390                	.insn	2, 0x1390
8010139a:	8010                	.insn	2, 0x8010
8010139c:	1390                	.insn	2, 0x1390
8010139e:	8010                	.insn	2, 0x8010
801013a0:	1398                	.insn	2, 0x1398
801013a2:	8010                	.insn	2, 0x8010
801013a4:	1398                	.insn	2, 0x1398
801013a6:	8010                	.insn	2, 0x8010
801013a8:	13a0                	.insn	2, 0x13a0
801013aa:	8010                	.insn	2, 0x8010
801013ac:	13a0                	.insn	2, 0x13a0
801013ae:	8010                	.insn	2, 0x8010
801013b0:	13a8                	.insn	2, 0x13a8
801013b2:	8010                	.insn	2, 0x8010
801013b4:	13a8                	.insn	2, 0x13a8
801013b6:	8010                	.insn	2, 0x8010
801013b8:	13b0                	.insn	2, 0x13b0
801013ba:	8010                	.insn	2, 0x8010
801013bc:	13b0                	.insn	2, 0x13b0
801013be:	8010                	.insn	2, 0x8010
801013c0:	13b8                	.insn	2, 0x13b8
801013c2:	8010                	.insn	2, 0x8010
801013c4:	13b8                	.insn	2, 0x13b8
801013c6:	8010                	.insn	2, 0x8010
801013c8:	13c0                	.insn	2, 0x13c0
801013ca:	8010                	.insn	2, 0x8010
801013cc:	13c0                	.insn	2, 0x13c0
801013ce:	8010                	.insn	2, 0x8010
801013d0:	13c8                	.insn	2, 0x13c8
801013d2:	8010                	.insn	2, 0x8010
801013d4:	13c8                	.insn	2, 0x13c8
801013d6:	8010                	.insn	2, 0x8010
801013d8:	13d0                	.insn	2, 0x13d0
801013da:	8010                	.insn	2, 0x8010
801013dc:	13d0                	.insn	2, 0x13d0
801013de:	8010                	.insn	2, 0x8010
801013e0:	13d8                	.insn	2, 0x13d8
801013e2:	8010                	.insn	2, 0x8010
801013e4:	13d8                	.insn	2, 0x13d8
801013e6:	8010                	.insn	2, 0x8010
801013e8:	13e0                	.insn	2, 0x13e0
801013ea:	8010                	.insn	2, 0x8010
801013ec:	13e0                	.insn	2, 0x13e0
801013ee:	8010                	.insn	2, 0x8010
801013f0:	13e8                	.insn	2, 0x13e8
801013f2:	8010                	.insn	2, 0x8010
801013f4:	13e8                	.insn	2, 0x13e8
801013f6:	8010                	.insn	2, 0x8010
801013f8:	13f0                	.insn	2, 0x13f0
801013fa:	8010                	.insn	2, 0x8010
801013fc:	13f0                	.insn	2, 0x13f0
801013fe:	8010                	.insn	2, 0x8010
80101400:	13f8                	.insn	2, 0x13f8
80101402:	8010                	.insn	2, 0x8010
80101404:	13f8                	.insn	2, 0x13f8
80101406:	8010                	.insn	2, 0x8010
80101408:	1400                	.insn	2, 0x1400
8010140a:	8010                	.insn	2, 0x8010
8010140c:	1400                	.insn	2, 0x1400
8010140e:	8010                	.insn	2, 0x8010
80101410:	1408                	.insn	2, 0x1408
80101412:	8010                	.insn	2, 0x8010
80101414:	1408                	.insn	2, 0x1408
80101416:	8010                	.insn	2, 0x8010
80101418:	1410                	.insn	2, 0x1410
8010141a:	8010                	.insn	2, 0x8010
8010141c:	1410                	.insn	2, 0x1410
8010141e:	8010                	.insn	2, 0x8010
80101420:	1418                	.insn	2, 0x1418
80101422:	8010                	.insn	2, 0x8010
80101424:	1418                	.insn	2, 0x1418
80101426:	8010                	.insn	2, 0x8010
80101428:	1420                	.insn	2, 0x1420
8010142a:	8010                	.insn	2, 0x8010
8010142c:	1420                	.insn	2, 0x1420
8010142e:	8010                	.insn	2, 0x8010
80101430:	1428                	.insn	2, 0x1428
80101432:	8010                	.insn	2, 0x8010
80101434:	1428                	.insn	2, 0x1428
80101436:	8010                	.insn	2, 0x8010
80101438:	1430                	.insn	2, 0x1430
8010143a:	8010                	.insn	2, 0x8010
8010143c:	1430                	.insn	2, 0x1430
8010143e:	8010                	.insn	2, 0x8010
80101440:	1438                	.insn	2, 0x1438
80101442:	8010                	.insn	2, 0x8010
80101444:	1438                	.insn	2, 0x1438
80101446:	8010                	.insn	2, 0x8010
80101448:	1440                	.insn	2, 0x1440
8010144a:	8010                	.insn	2, 0x8010
8010144c:	1440                	.insn	2, 0x1440
8010144e:	8010                	.insn	2, 0x8010
80101450:	1448                	.insn	2, 0x1448
80101452:	8010                	.insn	2, 0x8010
80101454:	1448                	.insn	2, 0x1448
80101456:	8010                	.insn	2, 0x8010
80101458:	1450                	.insn	2, 0x1450
8010145a:	8010                	.insn	2, 0x8010
8010145c:	1450                	.insn	2, 0x1450
8010145e:	8010                	.insn	2, 0x8010
80101460:	1458                	.insn	2, 0x1458
80101462:	8010                	.insn	2, 0x8010
80101464:	1458                	.insn	2, 0x1458
80101466:	8010                	.insn	2, 0x8010
80101468:	1460                	.insn	2, 0x1460
8010146a:	8010                	.insn	2, 0x8010
8010146c:	1460                	.insn	2, 0x1460
8010146e:	8010                	.insn	2, 0x8010
80101470:	1468                	.insn	2, 0x1468
80101472:	8010                	.insn	2, 0x8010
80101474:	1468                	.insn	2, 0x1468
80101476:	8010                	.insn	2, 0x8010
80101478:	1470                	.insn	2, 0x1470
8010147a:	8010                	.insn	2, 0x8010
8010147c:	1470                	.insn	2, 0x1470
8010147e:	8010                	.insn	2, 0x8010
80101480:	1478                	.insn	2, 0x1478
80101482:	8010                	.insn	2, 0x8010
80101484:	1478                	.insn	2, 0x1478
80101486:	8010                	.insn	2, 0x8010
80101488:	1480                	.insn	2, 0x1480
8010148a:	8010                	.insn	2, 0x8010
8010148c:	1480                	.insn	2, 0x1480
8010148e:	8010                	.insn	2, 0x8010
80101490:	1488                	.insn	2, 0x1488
80101492:	8010                	.insn	2, 0x8010
80101494:	1488                	.insn	2, 0x1488
80101496:	8010                	.insn	2, 0x8010
80101498:	1490                	.insn	2, 0x1490
8010149a:	8010                	.insn	2, 0x8010
8010149c:	1490                	.insn	2, 0x1490
8010149e:	8010                	.insn	2, 0x8010
801014a0:	1498                	.insn	2, 0x1498
801014a2:	8010                	.insn	2, 0x8010
801014a4:	1498                	.insn	2, 0x1498
801014a6:	8010                	.insn	2, 0x8010
801014a8:	14a0                	.insn	2, 0x14a0
801014aa:	8010                	.insn	2, 0x8010
801014ac:	14a0                	.insn	2, 0x14a0
801014ae:	8010                	.insn	2, 0x8010
801014b0:	14a8                	.insn	2, 0x14a8
801014b2:	8010                	.insn	2, 0x8010
801014b4:	14a8                	.insn	2, 0x14a8
801014b6:	8010                	.insn	2, 0x8010
801014b8:	14b0                	.insn	2, 0x14b0
801014ba:	8010                	.insn	2, 0x8010
801014bc:	14b0                	.insn	2, 0x14b0
801014be:	8010                	.insn	2, 0x8010
801014c0:	14b8                	.insn	2, 0x14b8
801014c2:	8010                	.insn	2, 0x8010
801014c4:	14b8                	.insn	2, 0x14b8
801014c6:	8010                	.insn	2, 0x8010
801014c8:	14c0                	.insn	2, 0x14c0
801014ca:	8010                	.insn	2, 0x8010
801014cc:	14c0                	.insn	2, 0x14c0
801014ce:	8010                	.insn	2, 0x8010
801014d0:	14c8                	.insn	2, 0x14c8
801014d2:	8010                	.insn	2, 0x8010
801014d4:	14c8                	.insn	2, 0x14c8
801014d6:	8010                	.insn	2, 0x8010
801014d8:	14d0                	.insn	2, 0x14d0
801014da:	8010                	.insn	2, 0x8010
801014dc:	14d0                	.insn	2, 0x14d0
801014de:	8010                	.insn	2, 0x8010
801014e0:	14d8                	.insn	2, 0x14d8
801014e2:	8010                	.insn	2, 0x8010
801014e4:	14d8                	.insn	2, 0x14d8
801014e6:	8010                	.insn	2, 0x8010
801014e8:	14e0                	.insn	2, 0x14e0
801014ea:	8010                	.insn	2, 0x8010
801014ec:	14e0                	.insn	2, 0x14e0
801014ee:	8010                	.insn	2, 0x8010
801014f0:	14e8                	.insn	2, 0x14e8
801014f2:	8010                	.insn	2, 0x8010
801014f4:	14e8                	.insn	2, 0x14e8
801014f6:	8010                	.insn	2, 0x8010
801014f8:	14f0                	.insn	2, 0x14f0
801014fa:	8010                	.insn	2, 0x8010
801014fc:	14f0                	.insn	2, 0x14f0
801014fe:	8010                	.insn	2, 0x8010
80101500:	14f8                	.insn	2, 0x14f8
80101502:	8010                	.insn	2, 0x8010
80101504:	14f8                	.insn	2, 0x14f8
80101506:	8010                	.insn	2, 0x8010
80101508:	1500                	.insn	2, 0x1500
8010150a:	8010                	.insn	2, 0x8010
8010150c:	1500                	.insn	2, 0x1500
8010150e:	8010                	.insn	2, 0x8010
80101510:	1508                	.insn	2, 0x1508
80101512:	8010                	.insn	2, 0x8010
80101514:	1508                	.insn	2, 0x1508
80101516:	8010                	.insn	2, 0x8010
80101518:	1510                	.insn	2, 0x1510
8010151a:	8010                	.insn	2, 0x8010
8010151c:	1510                	.insn	2, 0x1510
8010151e:	8010                	.insn	2, 0x8010
80101520:	1518                	.insn	2, 0x1518
80101522:	8010                	.insn	2, 0x8010
80101524:	1518                	.insn	2, 0x1518
80101526:	8010                	.insn	2, 0x8010
80101528:	1520                	.insn	2, 0x1520
8010152a:	8010                	.insn	2, 0x8010
8010152c:	1520                	.insn	2, 0x1520
8010152e:	8010                	.insn	2, 0x8010
80101530:	1528                	.insn	2, 0x1528
80101532:	8010                	.insn	2, 0x8010
80101534:	1528                	.insn	2, 0x1528
80101536:	8010                	.insn	2, 0x8010

80101538 <__global_locale>:
80101538:	00000043          	.insn	4, 0x0043
	...
80101558:	00000043          	.insn	4, 0x0043
	...
80101578:	00000043          	.insn	4, 0x0043
	...
80101598:	00000043          	.insn	4, 0x0043
	...
801015b8:	00000043          	.insn	4, 0x0043
	...
801015d8:	00000043          	.insn	4, 0x0043
	...
801015f8:	00000043          	.insn	4, 0x0043
	...
80101618:	43c0                	.insn	2, 0x43c0
8010161a:	8000                	.insn	2, 0x8000
8010161c:	4358                	.insn	2, 0x4358
8010161e:	8000                	.insn	2, 0x8000
80101620:	0000                	.insn	2, 0x
80101622:	0000                	.insn	2, 0x
80101624:	191c                	.insn	2, 0x191c
80101626:	8010                	.insn	2, 0x8010
80101628:	177c                	.insn	2, 0x177c
8010162a:	8010                	.insn	2, 0x8010
8010162c:	170c                	.insn	2, 0x170c
8010162e:	8010                	.insn	2, 0x8010
80101630:	170c                	.insn	2, 0x170c
80101632:	8010                	.insn	2, 0x8010
80101634:	170c                	.insn	2, 0x170c
80101636:	8010                	.insn	2, 0x8010
80101638:	170c                	.insn	2, 0x170c
8010163a:	8010                	.insn	2, 0x8010
8010163c:	170c                	.insn	2, 0x170c
8010163e:	8010                	.insn	2, 0x8010
80101640:	170c                	.insn	2, 0x170c
80101642:	8010                	.insn	2, 0x8010
80101644:	170c                	.insn	2, 0x170c
80101646:	8010                	.insn	2, 0x8010
80101648:	170c                	.insn	2, 0x170c
8010164a:	8010                	.insn	2, 0x8010
8010164c:	170c                	.insn	2, 0x170c
8010164e:	8010                	.insn	2, 0x8010
80101650:	ffff                	.insn	2, 0xffff
80101652:	ffff                	.insn	2, 0xffff
80101654:	ffff                	.insn	2, 0xffff
80101656:	ffff                	.insn	2, 0xffff
80101658:	ffff                	.insn	2, 0xffff
8010165a:	ffff                	.insn	2, 0xffff
8010165c:	ffff                	.insn	2, 0xffff
8010165e:	0000                	.insn	2, 0x
80101660:	0001                	.insn	2, 0x0001
80101662:	5341                	.insn	2, 0x5341
80101664:	00494943          	.insn	4, 0x00494943
	...
80101680:	0000                	.insn	2, 0x
80101682:	5341                	.insn	2, 0x5341
80101684:	00494943          	.insn	4, 0x00494943
	...

801016a4 <_impure_ptr>:
801016a4:	1010                	.insn	2, 0x1010
801016a6:	8010                	.insn	2, 0x8010

801016a8 <__malloc_sbrk_base>:
801016a8:	ffff                	.insn	2, 0xffff
801016aa:	ffff                	.insn	2, 0xffff

801016ac <__malloc_trim_threshold>:
801016ac:	0000                	.insn	2, 0x
801016ae:	0002                	.insn	2, 0x0002
801016b0:	6568                	.insn	2, 0x6568
801016b2:	7061                	.insn	2, 0x7061
801016b4:	735f 7a69 2065      	.insn	6, 0x20657a69735f
801016ba:	2025                	.insn	2, 0x2025
801016bc:	657a6973          	.insn	4, 0x657a6973
801016c0:	7628666f          	jal	x12,80187e22 <_end+0x82e52>
801016c4:	2064696f          	jal	x18,801478ca <_end+0x428fa>
801016c8:	292a                	.insn	2, 0x292a
801016ca:	3d20                	.insn	2, 0x3d20
801016cc:	203d                	.insn	2, 0x203d
801016ce:	0030                	.insn	2, 0x0030
801016d0:	6d6f682f          	.insn	4, 0x6d6f682f
801016d4:	2f65                	.insn	2, 0x2f65
801016d6:	6c6c6173          	.insn	4, 0x6c6c6173
801016da:	7261                	.insn	2, 0x7261
801016dc:	726f772f          	.insn	4, 0x726f772f
801016e0:	6d652f6b          	.insn	4, 0x6d652f6b
801016e4:	6562                	.insn	2, 0x6562
801016e6:	636e                	.insn	2, 0x636e
801016e8:	2d68                	.insn	2, 0x2d68
801016ea:	6f69                	.insn	2, 0x6f69
801016ec:	2f74                	.insn	2, 0x2f74
801016ee:	70707573          	.insn	4, 0x70707573
801016f2:	2f74726f          	jal	x4,801491e8 <_end+0x44218>
801016f6:	6562                	.insn	2, 0x6562
801016f8:	6265                	.insn	2, 0x6265
801016fa:	632e6373          	.insn	4, 0x632e6373
801016fe:	0000                	.insn	2, 0x
80101700:	202c                	.insn	2, 0x202c
80101702:	7566                	.insn	2, 0x7566
80101704:	636e                	.insn	2, 0x636e
80101706:	6974                	.insn	2, 0x6974
80101708:	203a6e6f          	jal	x28,801a810a <_end+0xa313a>
8010170c:	0000                	.insn	2, 0x
8010170e:	0000                	.insn	2, 0x
80101710:	7361                	.insn	2, 0x7361
80101712:	74726573          	.insn	4, 0x74726573
80101716:	6f69                	.insn	2, 0x6f69
80101718:	206e                	.insn	2, 0x206e
8010171a:	2522                	.insn	2, 0x2522
8010171c:	66202273          	.insn	4, 0x66202273
80101720:	6961                	.insn	2, 0x6961
80101722:	656c                	.insn	2, 0x656c
80101724:	3a64                	.insn	2, 0x3a64
80101726:	6620                	.insn	2, 0x6620
80101728:	6c69                	.insn	2, 0x6c69
8010172a:	2065                	.insn	2, 0x2065
8010172c:	2522                	.insn	2, 0x2522
8010172e:	202c2273          	.insn	4, 0x202c2273
80101732:	696c                	.insn	2, 0x696c
80101734:	656e                	.insn	2, 0x656e
80101736:	2520                	.insn	2, 0x2520
80101738:	2564                	.insn	2, 0x2564
8010173a:	0a732573          	.insn	4, 0x0a732573
8010173e:	0000                	.insn	2, 0x
80101740:	3130                	.insn	2, 0x3130
80101742:	3332                	.insn	2, 0x3332
80101744:	3534                	.insn	2, 0x3534
80101746:	3736                	.insn	2, 0x3736
80101748:	3938                	.insn	2, 0x3938
8010174a:	4241                	.insn	2, 0x4241
8010174c:	46454443          	.insn	4, 0x46454443
80101750:	0000                	.insn	2, 0x
80101752:	0000                	.insn	2, 0x
80101754:	3130                	.insn	2, 0x3130
80101756:	3332                	.insn	2, 0x3332
80101758:	3534                	.insn	2, 0x3534
8010175a:	3736                	.insn	2, 0x3736
8010175c:	3938                	.insn	2, 0x3938
8010175e:	6261                	.insn	2, 0x6261
80101760:	66656463          	bltu	x10,x6,80101dc8 <heap+0x2a8>
80101764:	0000                	.insn	2, 0x
80101766:	0000                	.insn	2, 0x
80101768:	6e28                	.insn	2, 0x6e28
8010176a:	6c75                	.insn	2, 0x6c75
8010176c:	296c                	.insn	2, 0x296c
8010176e:	0000                	.insn	2, 0x
80101770:	00000043          	.insn	4, 0x0043
80101774:	4f50                	.insn	2, 0x4f50
80101776:	00584953          	.insn	4, 0x00584953
8010177a:	0000                	.insn	2, 0x
8010177c:	002e                	.insn	2, 0x002e
	...

80101780 <__func__.0>:
80101780:	6e69                	.insn	2, 0x6e69
80101782:	7469                	.insn	2, 0x7469
80101784:	685f 6165 5f70      	.insn	6, 0x5f706165685f
8010178a:	6562                	.insn	2, 0x6562
8010178c:	6265                	.insn	2, 0x6265
8010178e:	0f040073          	.insn	4, 0x0f040073
80101792:	8000                	.insn	2, 0x8000
80101794:	07d8                	.insn	2, 0x07d8
80101796:	8000                	.insn	2, 0x8000
80101798:	07d8                	.insn	2, 0x07d8
8010179a:	8000                	.insn	2, 0x8000
8010179c:	0ef8                	.insn	2, 0x0ef8
8010179e:	8000                	.insn	2, 0x8000
801017a0:	07d8                	.insn	2, 0x07d8
801017a2:	8000                	.insn	2, 0x8000
801017a4:	07d8                	.insn	2, 0x07d8
801017a6:	8000                	.insn	2, 0x8000
801017a8:	07d8                	.insn	2, 0x07d8
801017aa:	8000                	.insn	2, 0x8000
801017ac:	0e9c                	.insn	2, 0x0e9c
801017ae:	8000                	.insn	2, 0x8000
801017b0:	07d8                	.insn	2, 0x07d8
801017b2:	8000                	.insn	2, 0x8000
801017b4:	07d8                	.insn	2, 0x07d8
801017b6:	8000                	.insn	2, 0x8000
801017b8:	0900                	.insn	2, 0x0900
801017ba:	8000                	.insn	2, 0x8000
801017bc:	0c38                	.insn	2, 0x0c38
801017be:	8000                	.insn	2, 0x8000
801017c0:	07d8                	.insn	2, 0x07d8
801017c2:	8000                	.insn	2, 0x8000
801017c4:	0c2c                	.insn	2, 0x0c2c
801017c6:	8000                	.insn	2, 0x8000
801017c8:	0f28                	.insn	2, 0x0f28
801017ca:	8000                	.insn	2, 0x8000
801017cc:	07d8                	.insn	2, 0x07d8
801017ce:	8000                	.insn	2, 0x8000
801017d0:	0f1c                	.insn	2, 0x0f1c
801017d2:	8000                	.insn	2, 0x8000
801017d4:	07a4                	.insn	2, 0x07a4
801017d6:	8000                	.insn	2, 0x8000
801017d8:	07a4                	.insn	2, 0x07a4
801017da:	8000                	.insn	2, 0x8000
801017dc:	07a4                	.insn	2, 0x07a4
801017de:	8000                	.insn	2, 0x8000
801017e0:	07a4                	.insn	2, 0x07a4
801017e2:	8000                	.insn	2, 0x8000
801017e4:	07a4                	.insn	2, 0x07a4
801017e6:	8000                	.insn	2, 0x8000
801017e8:	07a4                	.insn	2, 0x07a4
801017ea:	8000                	.insn	2, 0x8000
801017ec:	07a4                	.insn	2, 0x07a4
801017ee:	8000                	.insn	2, 0x8000
801017f0:	07a4                	.insn	2, 0x07a4
801017f2:	8000                	.insn	2, 0x8000
801017f4:	07a4                	.insn	2, 0x07a4
801017f6:	8000                	.insn	2, 0x8000
801017f8:	07d8                	.insn	2, 0x07d8
801017fa:	8000                	.insn	2, 0x8000
801017fc:	07d8                	.insn	2, 0x07d8
801017fe:	8000                	.insn	2, 0x8000
80101800:	07d8                	.insn	2, 0x07d8
80101802:	8000                	.insn	2, 0x8000
80101804:	07d8                	.insn	2, 0x07d8
80101806:	8000                	.insn	2, 0x8000
80101808:	07d8                	.insn	2, 0x07d8
8010180a:	8000                	.insn	2, 0x8000
8010180c:	07d8                	.insn	2, 0x07d8
8010180e:	8000                	.insn	2, 0x8000
80101810:	07d8                	.insn	2, 0x07d8
80101812:	8000                	.insn	2, 0x8000
80101814:	07d8                	.insn	2, 0x07d8
80101816:	8000                	.insn	2, 0x8000
80101818:	07d8                	.insn	2, 0x07d8
8010181a:	8000                	.insn	2, 0x8000
8010181c:	0bb0                	.insn	2, 0x0bb0
8010181e:	8000                	.insn	2, 0x8000
80101820:	0e08                	.insn	2, 0x0e08
80101822:	8000                	.insn	2, 0x8000
80101824:	07d8                	.insn	2, 0x07d8
80101826:	8000                	.insn	2, 0x8000
80101828:	07d8                	.insn	2, 0x07d8
8010182a:	8000                	.insn	2, 0x8000
8010182c:	07d8                	.insn	2, 0x07d8
8010182e:	8000                	.insn	2, 0x8000
80101830:	07d8                	.insn	2, 0x07d8
80101832:	8000                	.insn	2, 0x8000
80101834:	07d8                	.insn	2, 0x07d8
80101836:	8000                	.insn	2, 0x8000
80101838:	07d8                	.insn	2, 0x07d8
8010183a:	8000                	.insn	2, 0x8000
8010183c:	07d8                	.insn	2, 0x07d8
8010183e:	8000                	.insn	2, 0x8000
80101840:	07d8                	.insn	2, 0x07d8
80101842:	8000                	.insn	2, 0x8000
80101844:	07d8                	.insn	2, 0x07d8
80101846:	8000                	.insn	2, 0x8000
80101848:	07d8                	.insn	2, 0x07d8
8010184a:	8000                	.insn	2, 0x8000
8010184c:	0dbc                	.insn	2, 0x0dbc
8010184e:	8000                	.insn	2, 0x8000
80101850:	07d8                	.insn	2, 0x07d8
80101852:	8000                	.insn	2, 0x8000
80101854:	07d8                	.insn	2, 0x07d8
80101856:	8000                	.insn	2, 0x8000
80101858:	07d8                	.insn	2, 0x07d8
8010185a:	8000                	.insn	2, 0x8000
8010185c:	0b30                	.insn	2, 0x0b30
8010185e:	8000                	.insn	2, 0x8000
80101860:	07d8                	.insn	2, 0x07d8
80101862:	8000                	.insn	2, 0x8000
80101864:	0d00                	.insn	2, 0x0d00
80101866:	8000                	.insn	2, 0x8000
80101868:	07d8                	.insn	2, 0x07d8
8010186a:	8000                	.insn	2, 0x8000
8010186c:	07d8                	.insn	2, 0x07d8
8010186e:	8000                	.insn	2, 0x8000
80101870:	1438                	.insn	2, 0x1438
80101872:	8000                	.insn	2, 0x8000
80101874:	07d8                	.insn	2, 0x07d8
80101876:	8000                	.insn	2, 0x8000
80101878:	07d8                	.insn	2, 0x07d8
8010187a:	8000                	.insn	2, 0x8000
8010187c:	07d8                	.insn	2, 0x07d8
8010187e:	8000                	.insn	2, 0x8000
80101880:	07d8                	.insn	2, 0x07d8
80101882:	8000                	.insn	2, 0x8000
80101884:	07d8                	.insn	2, 0x07d8
80101886:	8000                	.insn	2, 0x8000
80101888:	07d8                	.insn	2, 0x07d8
8010188a:	8000                	.insn	2, 0x8000
8010188c:	07d8                	.insn	2, 0x07d8
8010188e:	8000                	.insn	2, 0x8000
80101890:	07d8                	.insn	2, 0x07d8
80101892:	8000                	.insn	2, 0x8000
80101894:	07d8                	.insn	2, 0x07d8
80101896:	8000                	.insn	2, 0x8000
80101898:	07d8                	.insn	2, 0x07d8
8010189a:	8000                	.insn	2, 0x8000
8010189c:	0bb0                	.insn	2, 0x0bb0
8010189e:	8000                	.insn	2, 0x8000
801018a0:	0bd8                	.insn	2, 0x0bd8
801018a2:	8000                	.insn	2, 0x8000
801018a4:	07d8                	.insn	2, 0x07d8
801018a6:	8000                	.insn	2, 0x8000
801018a8:	07d8                	.insn	2, 0x07d8
801018aa:	8000                	.insn	2, 0x8000
801018ac:	07d8                	.insn	2, 0x07d8
801018ae:	8000                	.insn	2, 0x8000
801018b0:	0cec                	.insn	2, 0x0cec
801018b2:	8000                	.insn	2, 0x8000
801018b4:	0bd8                	.insn	2, 0x0bd8
801018b6:	8000                	.insn	2, 0x8000
801018b8:	0914                	.insn	2, 0x0914
801018ba:	8000                	.insn	2, 0x8000
801018bc:	07d8                	.insn	2, 0x07d8
801018be:	8000                	.insn	2, 0x8000
801018c0:	0f78                	.insn	2, 0x0f78
801018c2:	8000                	.insn	2, 0x8000
801018c4:	07d8                	.insn	2, 0x07d8
801018c6:	8000                	.insn	2, 0x8000
801018c8:	0cb8                	.insn	2, 0x0cb8
801018ca:	8000                	.insn	2, 0x8000
801018cc:	149c                	.insn	2, 0x149c
801018ce:	8000                	.insn	2, 0x8000
801018d0:	0c48                	.insn	2, 0x0c48
801018d2:	8000                	.insn	2, 0x8000
801018d4:	0914                	.insn	2, 0x0914
801018d6:	8000                	.insn	2, 0x8000
801018d8:	07d8                	.insn	2, 0x07d8
801018da:	8000                	.insn	2, 0x8000
801018dc:	0b30                	.insn	2, 0x0b30
801018de:	8000                	.insn	2, 0x8000
801018e0:	090c                	.insn	2, 0x090c
801018e2:	8000                	.insn	2, 0x8000
801018e4:	1490                	.insn	2, 0x1490
801018e6:	8000                	.insn	2, 0x8000
801018e8:	07d8                	.insn	2, 0x07d8
801018ea:	8000                	.insn	2, 0x8000
801018ec:	07d8                	.insn	2, 0x07d8
801018ee:	8000                	.insn	2, 0x8000
801018f0:	14a8                	.insn	2, 0x14a8
801018f2:	8000                	.insn	2, 0x8000
801018f4:	07d8                	.insn	2, 0x07d8
801018f6:	8000                	.insn	2, 0x8000
801018f8:	090c                	.insn	2, 0x090c
801018fa:	8000                	.insn	2, 0x8000

801018fc <zeroes.0>:
801018fc:	3030                	.insn	2, 0x3030
801018fe:	3030                	.insn	2, 0x3030
80101900:	3030                	.insn	2, 0x3030
80101902:	3030                	.insn	2, 0x3030
80101904:	3030                	.insn	2, 0x3030
80101906:	3030                	.insn	2, 0x3030
80101908:	3030                	.insn	2, 0x3030
8010190a:	3030                	.insn	2, 0x3030

8010190c <blanks.1>:
8010190c:	2020                	.insn	2, 0x2020
8010190e:	2020                	.insn	2, 0x2020
80101910:	2020                	.insn	2, 0x2020
80101912:	2020                	.insn	2, 0x2020
80101914:	2020                	.insn	2, 0x2020
80101916:	2020                	.insn	2, 0x2020
80101918:	2020                	.insn	2, 0x2020
8010191a:	2020                	.insn	2, 0x2020

8010191c <_ctype_>:
8010191c:	2000                	.insn	2, 0x2000
8010191e:	2020                	.insn	2, 0x2020
80101920:	2020                	.insn	2, 0x2020
80101922:	2020                	.insn	2, 0x2020
80101924:	2020                	.insn	2, 0x2020
80101926:	2828                	.insn	2, 0x2828
80101928:	2828                	.insn	2, 0x2828
8010192a:	2028                	.insn	2, 0x2028
8010192c:	2020                	.insn	2, 0x2020
8010192e:	2020                	.insn	2, 0x2020
80101930:	2020                	.insn	2, 0x2020
80101932:	2020                	.insn	2, 0x2020
80101934:	2020                	.insn	2, 0x2020
80101936:	2020                	.insn	2, 0x2020
80101938:	2020                	.insn	2, 0x2020
8010193a:	2020                	.insn	2, 0x2020
8010193c:	8820                	.insn	2, 0x8820
8010193e:	1010                	.insn	2, 0x1010
80101940:	1010                	.insn	2, 0x1010
80101942:	1010                	.insn	2, 0x1010
80101944:	1010                	.insn	2, 0x1010
80101946:	1010                	.insn	2, 0x1010
80101948:	1010                	.insn	2, 0x1010
8010194a:	1010                	.insn	2, 0x1010
8010194c:	0410                	.insn	2, 0x0410
8010194e:	0404                	.insn	2, 0x0404
80101950:	0404                	.insn	2, 0x0404
80101952:	0404                	.insn	2, 0x0404
80101954:	0404                	.insn	2, 0x0404
80101956:	1004                	.insn	2, 0x1004
80101958:	1010                	.insn	2, 0x1010
8010195a:	1010                	.insn	2, 0x1010
8010195c:	1010                	.insn	2, 0x1010
8010195e:	4141                	.insn	2, 0x4141
80101960:	4141                	.insn	2, 0x4141
80101962:	4141                	.insn	2, 0x4141
80101964:	0101                	.insn	2, 0x0101
80101966:	0101                	.insn	2, 0x0101
80101968:	0101                	.insn	2, 0x0101
8010196a:	0101                	.insn	2, 0x0101
8010196c:	0101                	.insn	2, 0x0101
8010196e:	0101                	.insn	2, 0x0101
80101970:	0101                	.insn	2, 0x0101
80101972:	0101                	.insn	2, 0x0101
80101974:	0101                	.insn	2, 0x0101
80101976:	0101                	.insn	2, 0x0101
80101978:	1010                	.insn	2, 0x1010
8010197a:	1010                	.insn	2, 0x1010
8010197c:	1010                	.insn	2, 0x1010
8010197e:	4242                	.insn	2, 0x4242
80101980:	4242                	.insn	2, 0x4242
80101982:	4242                	.insn	2, 0x4242
80101984:	0202                	.insn	2, 0x0202
80101986:	0202                	.insn	2, 0x0202
80101988:	0202                	.insn	2, 0x0202
8010198a:	0202                	.insn	2, 0x0202
8010198c:	0202                	.insn	2, 0x0202
8010198e:	0202                	.insn	2, 0x0202
80101990:	0202                	.insn	2, 0x0202
80101992:	0202                	.insn	2, 0x0202
80101994:	0202                	.insn	2, 0x0202
80101996:	0202                	.insn	2, 0x0202
80101998:	1010                	.insn	2, 0x1010
8010199a:	1010                	.insn	2, 0x1010
8010199c:	0020                	.insn	2, 0x0020
	...

80101a20 <__clz_tab>:
80101a20:	0100                	.insn	2, 0x0100
80101a22:	0202                	.insn	2, 0x0202
80101a24:	03030303          	lb	x6,48(x6)
80101a28:	0404                	.insn	2, 0x0404
80101a2a:	0404                	.insn	2, 0x0404
80101a2c:	0404                	.insn	2, 0x0404
80101a2e:	0404                	.insn	2, 0x0404
80101a30:	0505                	.insn	2, 0x0505
80101a32:	0505                	.insn	2, 0x0505
80101a34:	0505                	.insn	2, 0x0505
80101a36:	0505                	.insn	2, 0x0505
80101a38:	0505                	.insn	2, 0x0505
80101a3a:	0505                	.insn	2, 0x0505
80101a3c:	0505                	.insn	2, 0x0505
80101a3e:	0505                	.insn	2, 0x0505
80101a40:	0606                	.insn	2, 0x0606
80101a42:	0606                	.insn	2, 0x0606
80101a44:	0606                	.insn	2, 0x0606
80101a46:	0606                	.insn	2, 0x0606
80101a48:	0606                	.insn	2, 0x0606
80101a4a:	0606                	.insn	2, 0x0606
80101a4c:	0606                	.insn	2, 0x0606
80101a4e:	0606                	.insn	2, 0x0606
80101a50:	0606                	.insn	2, 0x0606
80101a52:	0606                	.insn	2, 0x0606
80101a54:	0606                	.insn	2, 0x0606
80101a56:	0606                	.insn	2, 0x0606
80101a58:	0606                	.insn	2, 0x0606
80101a5a:	0606                	.insn	2, 0x0606
80101a5c:	0606                	.insn	2, 0x0606
80101a5e:	0606                	.insn	2, 0x0606
80101a60:	07070707          	.insn	4, 0x07070707
80101a64:	07070707          	.insn	4, 0x07070707
80101a68:	07070707          	.insn	4, 0x07070707
80101a6c:	07070707          	.insn	4, 0x07070707
80101a70:	07070707          	.insn	4, 0x07070707
80101a74:	07070707          	.insn	4, 0x07070707
80101a78:	07070707          	.insn	4, 0x07070707
80101a7c:	07070707          	.insn	4, 0x07070707
80101a80:	07070707          	.insn	4, 0x07070707
80101a84:	07070707          	.insn	4, 0x07070707
80101a88:	07070707          	.insn	4, 0x07070707
80101a8c:	07070707          	.insn	4, 0x07070707
80101a90:	07070707          	.insn	4, 0x07070707
80101a94:	07070707          	.insn	4, 0x07070707
80101a98:	07070707          	.insn	4, 0x07070707
80101a9c:	07070707          	.insn	4, 0x07070707
80101aa0:	0808                	.insn	2, 0x0808
80101aa2:	0808                	.insn	2, 0x0808
80101aa4:	0808                	.insn	2, 0x0808
80101aa6:	0808                	.insn	2, 0x0808
80101aa8:	0808                	.insn	2, 0x0808
80101aaa:	0808                	.insn	2, 0x0808
80101aac:	0808                	.insn	2, 0x0808
80101aae:	0808                	.insn	2, 0x0808
80101ab0:	0808                	.insn	2, 0x0808
80101ab2:	0808                	.insn	2, 0x0808
80101ab4:	0808                	.insn	2, 0x0808
80101ab6:	0808                	.insn	2, 0x0808
80101ab8:	0808                	.insn	2, 0x0808
80101aba:	0808                	.insn	2, 0x0808
80101abc:	0808                	.insn	2, 0x0808
80101abe:	0808                	.insn	2, 0x0808
80101ac0:	0808                	.insn	2, 0x0808
80101ac2:	0808                	.insn	2, 0x0808
80101ac4:	0808                	.insn	2, 0x0808
80101ac6:	0808                	.insn	2, 0x0808
80101ac8:	0808                	.insn	2, 0x0808
80101aca:	0808                	.insn	2, 0x0808
80101acc:	0808                	.insn	2, 0x0808
80101ace:	0808                	.insn	2, 0x0808
80101ad0:	0808                	.insn	2, 0x0808
80101ad2:	0808                	.insn	2, 0x0808
80101ad4:	0808                	.insn	2, 0x0808
80101ad6:	0808                	.insn	2, 0x0808
80101ad8:	0808                	.insn	2, 0x0808
80101ada:	0808                	.insn	2, 0x0808
80101adc:	0808                	.insn	2, 0x0808
80101ade:	0808                	.insn	2, 0x0808
80101ae0:	0808                	.insn	2, 0x0808
80101ae2:	0808                	.insn	2, 0x0808
80101ae4:	0808                	.insn	2, 0x0808
80101ae6:	0808                	.insn	2, 0x0808
80101ae8:	0808                	.insn	2, 0x0808
80101aea:	0808                	.insn	2, 0x0808
80101aec:	0808                	.insn	2, 0x0808
80101aee:	0808                	.insn	2, 0x0808
80101af0:	0808                	.insn	2, 0x0808
80101af2:	0808                	.insn	2, 0x0808
80101af4:	0808                	.insn	2, 0x0808
80101af6:	0808                	.insn	2, 0x0808
80101af8:	0808                	.insn	2, 0x0808
80101afa:	0808                	.insn	2, 0x0808
80101afc:	0808                	.insn	2, 0x0808
80101afe:	0808                	.insn	2, 0x0808
80101b00:	0808                	.insn	2, 0x0808
80101b02:	0808                	.insn	2, 0x0808
80101b04:	0808                	.insn	2, 0x0808
80101b06:	0808                	.insn	2, 0x0808
80101b08:	0808                	.insn	2, 0x0808
80101b0a:	0808                	.insn	2, 0x0808
80101b0c:	0808                	.insn	2, 0x0808
80101b0e:	0808                	.insn	2, 0x0808
80101b10:	0808                	.insn	2, 0x0808
80101b12:	0808                	.insn	2, 0x0808
80101b14:	0808                	.insn	2, 0x0808
80101b16:	0808                	.insn	2, 0x0808
80101b18:	0808                	.insn	2, 0x0808
80101b1a:	0808                	.insn	2, 0x0808
80101b1c:	0808                	.insn	2, 0x0808
80101b1e:	0808                	.insn	2, 0x0808

80101b20 <heap>:
	...

80103e44 <__sf>:
	...

80103f7c <__malloc_current_mallinfo>:
	...

80103fa4 <heap_requested>:
80103fa4:	0000                	.insn	2, 0x
	...

80103fa8 <heap_end>:
80103fa8:	0000                	.insn	2, 0x
	...

80103fac <heap_ptr>:
80103fac:	0000                	.insn	2, 0x
	...

80103fb0 <seed>:
80103fb0:	0000                	.insn	2, 0x
	...

80103fb4 <__stdio_exit_handler>:
80103fb4:	0000                	.insn	2, 0x
	...

80103fb8 <errno>:
80103fb8:	0000                	.insn	2, 0x
	...

80103fbc <__malloc_max_total_mem>:
80103fbc:	0000                	.insn	2, 0x
	...

80103fc0 <__malloc_max_sbrked_mem>:
80103fc0:	0000                	.insn	2, 0x
	...

80103fc4 <__malloc_top_pad>:
80103fc4:	0000                	.insn	2, 0x
	...

80103fc8 <heap_end.0>:
	...

Disassembly of section .comment:

00000000 <.comment>:
   0:	3a434347          	.insn	4, 0x3a434347
   4:	2820                	.insn	2, 0x2820
   6:	2029                	.insn	2, 0x2029
   8:	3331                	.insn	2, 0x3331
   a:	322e                	.insn	2, 0x322e
   c:	302e                	.insn	2, 0x302e
   e:	4700                	.insn	2, 0x4700
  10:	203a4343          	.insn	4, 0x203a4343
  14:	4728                	.insn	2, 0x4728
  16:	554e                	.insn	2, 0x554e
  18:	2029                	.insn	2, 0x2029
  1a:	3331                	.insn	2, 0x3331
  1c:	322e                	.insn	2, 0x322e
  1e:	302e                	.insn	2, 0x302e
	...

Disassembly of section .riscv.attributes:

00000000 <.riscv.attributes>:
   0:	2841                	.insn	2, 0x2841
   2:	0000                	.insn	2, 0x
   4:	7200                	.insn	2, 0x7200
   6:	7369                	.insn	2, 0x7369
   8:	01007663          	bgeu	x0,x16,14 <_heap_size+0x14>
   c:	001e                	.insn	2, 0x001e
   e:	0000                	.insn	2, 0x
  10:	1004                	.insn	2, 0x1004
  12:	7205                	.insn	2, 0x7205
  14:	3376                	.insn	2, 0x3376
  16:	6932                	.insn	2, 0x6932
  18:	7032                	.insn	2, 0x7032
  1a:	5f31                	.insn	2, 0x5f31
  1c:	697a                	.insn	2, 0x697a
  1e:	32727363          	bgeu	x4,x7,344 <_heap_size+0x344>
  22:	3070                	.insn	2, 0x3070
  24:	0800                	.insn	2, 0x0800
  26:	0a01                	.insn	2, 0x0a01
  28:	Address 0x28 is out of bounds.


Disassembly of section .debug_line:

00000000 <.debug_line>:
       0:	0076                	.insn	2, 0x0076
       2:	0000                	.insn	2, 0x
       4:	0005                	.insn	2, 0x0005
       6:	0004                	.insn	2, 0x0004
       8:	002e                	.insn	2, 0x002e
       a:	0000                	.insn	2, 0x
       c:	0101                	.insn	2, 0x0101
       e:	fb01                	.insn	2, 0xfb01
      10:	0d0e                	.insn	2, 0x0d0e
      12:	0100                	.insn	2, 0x0100
      14:	0101                	.insn	2, 0x0101
      16:	0001                	.insn	2, 0x0001
      18:	0000                	.insn	2, 0x
      1a:	0001                	.insn	2, 0x0001
      1c:	0100                	.insn	2, 0x0100
      1e:	0101                	.insn	2, 0x0101
      20:	021f 0000 0000      	.insn	6, 0x021f
      26:	0066                	.insn	2, 0x0066
      28:	0000                	.insn	2, 0x
      2a:	0102                	.insn	2, 0x0102
      2c:	021f 020f 008f      	.insn	6, 0x008f020f021f
      32:	0000                	.insn	2, 0x
      34:	8f01                	.insn	2, 0x8f01
      36:	0000                	.insn	2, 0x
      38:	0100                	.insn	2, 0x0100
      3a:	0500                	.insn	2, 0x0500
      3c:	8402                	.insn	2, 0x8402
      3e:	0004                	.insn	2, 0x0004
      40:	0380                	.insn	2, 0x0380
      42:	0124                	.insn	2, 0x0124
      44:	04090103          	lb	x2,64(x18)
      48:	0100                	.insn	2, 0x0100
      4a:	04090203          	lb	x4,64(x18)
      4e:	0100                	.insn	2, 0x0100
      50:	04090103          	lb	x2,64(x18)
      54:	0100                	.insn	2, 0x0100
      56:	04090103          	lb	x2,64(x18)
      5a:	0100                	.insn	2, 0x0100
      5c:	04090203          	lb	x4,64(x18)
      60:	0100                	.insn	2, 0x0100
      62:	04090103          	lb	x2,64(x18)
      66:	0100                	.insn	2, 0x0100
      68:	04090103          	lb	x2,64(x18)
      6c:	0100                	.insn	2, 0x0100
      6e:	04090103          	lb	x2,64(x18)
      72:	0100                	.insn	2, 0x0100
      74:	0409                	.insn	2, 0x0409
      76:	0000                	.insn	2, 0x
      78:	0101                	.insn	2, 0x0101
      7a:	0000014f          	.insn	4, 0x014f
      7e:	0005                	.insn	2, 0x0005
      80:	0004                	.insn	2, 0x0004
      82:	002e                	.insn	2, 0x002e
      84:	0000                	.insn	2, 0x
      86:	0101                	.insn	2, 0x0101
      88:	fb01                	.insn	2, 0xfb01
      8a:	0d0e                	.insn	2, 0x0d0e
      8c:	0100                	.insn	2, 0x0100
      8e:	0101                	.insn	2, 0x0101
      90:	0001                	.insn	2, 0x0001
      92:	0000                	.insn	2, 0x
      94:	0001                	.insn	2, 0x0001
      96:	0100                	.insn	2, 0x0100
      98:	0101                	.insn	2, 0x0101
      9a:	021f 0000 0000      	.insn	6, 0x021f
      a0:	0066                	.insn	2, 0x0066
      a2:	0000                	.insn	2, 0x
      a4:	0102                	.insn	2, 0x0102
      a6:	021f 020f 0098      	.insn	6, 0x0098020f021f
      ac:	0000                	.insn	2, 0x
      ae:	9801                	.insn	2, 0x9801
      b0:	0000                	.insn	2, 0x
      b2:	0100                	.insn	2, 0x0100
      b4:	0500                	.insn	2, 0x0500
      b6:	a802                	.insn	2, 0xa802
      b8:	0004                	.insn	2, 0x0004
      ba:	0380                	.insn	2, 0x0380
      bc:	00c4                	.insn	2, 0x00c4
      be:	0301                	.insn	2, 0x0301
      c0:	0901                	.insn	2, 0x0901
      c2:	0004                	.insn	2, 0x0004
      c4:	0301                	.insn	2, 0x0301
      c6:	0904                	.insn	2, 0x0904
      c8:	0004                	.insn	2, 0x0004
      ca:	0301                	.insn	2, 0x0301
      cc:	0901                	.insn	2, 0x0901
      ce:	0004                	.insn	2, 0x0004
      d0:	0301                	.insn	2, 0x0301
      d2:	0901                	.insn	2, 0x0901
      d4:	0004                	.insn	2, 0x0004
      d6:	0301                	.insn	2, 0x0301
      d8:	0901                	.insn	2, 0x0901
      da:	0004                	.insn	2, 0x0004
      dc:	0301                	.insn	2, 0x0301
      de:	0901                	.insn	2, 0x0901
      e0:	0004                	.insn	2, 0x0004
      e2:	0301                	.insn	2, 0x0301
      e4:	0901                	.insn	2, 0x0901
      e6:	0004                	.insn	2, 0x0004
      e8:	0301                	.insn	2, 0x0301
      ea:	0902                	.insn	2, 0x0902
      ec:	0004                	.insn	2, 0x0004
      ee:	0301                	.insn	2, 0x0301
      f0:	0901                	.insn	2, 0x0901
      f2:	0004                	.insn	2, 0x0004
      f4:	0301                	.insn	2, 0x0301
      f6:	0901                	.insn	2, 0x0901
      f8:	0004                	.insn	2, 0x0004
      fa:	0301                	.insn	2, 0x0301
      fc:	0901                	.insn	2, 0x0901
      fe:	0004                	.insn	2, 0x0004
     100:	0301                	.insn	2, 0x0301
     102:	0902                	.insn	2, 0x0902
     104:	0004                	.insn	2, 0x0004
     106:	0301                	.insn	2, 0x0301
     108:	0902                	.insn	2, 0x0902
     10a:	0004                	.insn	2, 0x0004
     10c:	0301                	.insn	2, 0x0301
     10e:	0901                	.insn	2, 0x0901
     110:	0004                	.insn	2, 0x0004
     112:	0301                	.insn	2, 0x0301
     114:	0901                	.insn	2, 0x0901
     116:	0004                	.insn	2, 0x0004
     118:	0301                	.insn	2, 0x0301
     11a:	0902                	.insn	2, 0x0902
     11c:	0004                	.insn	2, 0x0004
     11e:	0301                	.insn	2, 0x0301
     120:	0901                	.insn	2, 0x0901
     122:	0004                	.insn	2, 0x0004
     124:	0301                	.insn	2, 0x0301
     126:	0901                	.insn	2, 0x0901
     128:	0004                	.insn	2, 0x0004
     12a:	0301                	.insn	2, 0x0301
     12c:	0902                	.insn	2, 0x0902
     12e:	0004                	.insn	2, 0x0004
     130:	0301                	.insn	2, 0x0301
     132:	0906                	.insn	2, 0x0906
     134:	0004                	.insn	2, 0x0004
     136:	0301                	.insn	2, 0x0301
     138:	0901                	.insn	2, 0x0901
     13a:	0004                	.insn	2, 0x0004
     13c:	0301                	.insn	2, 0x0301
     13e:	0901                	.insn	2, 0x0901
     140:	0004                	.insn	2, 0x0004
     142:	0301                	.insn	2, 0x0301
     144:	0901                	.insn	2, 0x0901
     146:	0004                	.insn	2, 0x0004
     148:	0301                	.insn	2, 0x0301
     14a:	0905                	.insn	2, 0x0905
     14c:	0004                	.insn	2, 0x0004
     14e:	0301                	.insn	2, 0x0301
     150:	0902                	.insn	2, 0x0902
     152:	0004                	.insn	2, 0x0004
     154:	0301                	.insn	2, 0x0301
     156:	0902                	.insn	2, 0x0902
     158:	0004                	.insn	2, 0x0004
     15a:	0301                	.insn	2, 0x0301
     15c:	0901                	.insn	2, 0x0901
     15e:	0004                	.insn	2, 0x0004
     160:	0301                	.insn	2, 0x0301
     162:	0902                	.insn	2, 0x0902
     164:	0004                	.insn	2, 0x0004
     166:	0301                	.insn	2, 0x0301
     168:	0902                	.insn	2, 0x0902
     16a:	0004                	.insn	2, 0x0004
     16c:	0301                	.insn	2, 0x0301
     16e:	0901                	.insn	2, 0x0901
     170:	0004                	.insn	2, 0x0004
     172:	0301                	.insn	2, 0x0301
     174:	0901                	.insn	2, 0x0901
     176:	0004                	.insn	2, 0x0004
     178:	0301                	.insn	2, 0x0301
     17a:	0901                	.insn	2, 0x0901
     17c:	0004                	.insn	2, 0x0004
     17e:	0301                	.insn	2, 0x0301
     180:	0904                	.insn	2, 0x0904
     182:	0004                	.insn	2, 0x0004
     184:	0301                	.insn	2, 0x0301
     186:	0901                	.insn	2, 0x0901
     188:	0004                	.insn	2, 0x0004
     18a:	0301                	.insn	2, 0x0301
     18c:	0901                	.insn	2, 0x0901
     18e:	0004                	.insn	2, 0x0004
     190:	0301                	.insn	2, 0x0301
     192:	0902                	.insn	2, 0x0902
     194:	0004                	.insn	2, 0x0004
     196:	0301                	.insn	2, 0x0301
     198:	0901                	.insn	2, 0x0901
     19a:	0004                	.insn	2, 0x0004
     19c:	0301                	.insn	2, 0x0301
     19e:	0901                	.insn	2, 0x0901
     1a0:	0004                	.insn	2, 0x0004
     1a2:	0301                	.insn	2, 0x0301
     1a4:	0902                	.insn	2, 0x0902
     1a6:	0004                	.insn	2, 0x0004
     1a8:	0301                	.insn	2, 0x0301
     1aa:	0901                	.insn	2, 0x0901
     1ac:	0004                	.insn	2, 0x0004
     1ae:	0301                	.insn	2, 0x0301
     1b0:	0902                	.insn	2, 0x0902
     1b2:	0004                	.insn	2, 0x0004
     1b4:	0301                	.insn	2, 0x0301
     1b6:	0901                	.insn	2, 0x0901
     1b8:	0004                	.insn	2, 0x0004
     1ba:	0301                	.insn	2, 0x0301
     1bc:	0901                	.insn	2, 0x0901
     1be:	0004                	.insn	2, 0x0004
     1c0:	0301                	.insn	2, 0x0301
     1c2:	0901                	.insn	2, 0x0901
     1c4:	0004                	.insn	2, 0x0004
     1c6:	0901                	.insn	2, 0x0901
     1c8:	0004                	.insn	2, 0x0004
     1ca:	0100                	.insn	2, 0x0100
     1cc:	5101                	.insn	2, 0x5101
     1ce:	0009                	.insn	2, 0x0009
     1d0:	0500                	.insn	2, 0x0500
     1d2:	0400                	.insn	2, 0x0400
     1d4:	3300                	.insn	2, 0x3300
     1d6:	0000                	.insn	2, 0x
     1d8:	0100                	.insn	2, 0x0100
     1da:	0101                	.insn	2, 0x0101
     1dc:	000d0efb          	.insn	4, 0x000d0efb
     1e0:	0101                	.insn	2, 0x0101
     1e2:	0101                	.insn	2, 0x0101
     1e4:	0000                	.insn	2, 0x
     1e6:	0100                	.insn	2, 0x0100
     1e8:	0000                	.insn	2, 0x
     1ea:	0101                	.insn	2, 0x0101
     1ec:	1f01                	.insn	2, 0x1f01
     1ee:	0002                	.insn	2, 0x0002
     1f0:	0000                	.insn	2, 0x
     1f2:	c400                	.insn	2, 0xc400
     1f4:	0000                	.insn	2, 0x
     1f6:	0200                	.insn	2, 0x0200
     1f8:	1f01                	.insn	2, 0x1f01
     1fa:	0f02                	.insn	2, 0x0f02
     1fc:	0000ba03          	.insn	4, 0xba03
     200:	0100                	.insn	2, 0x0100
     202:	00ba                	.insn	2, 0x00ba
     204:	0000                	.insn	2, 0x
     206:	e001                	.insn	2, 0xe001
     208:	0000                	.insn	2, 0x
     20a:	0100                	.insn	2, 0x0100
     20c:	0105                	.insn	2, 0x0105
     20e:	0500                	.insn	2, 0x0500
     210:	2c02                	.insn	2, 0x2c02
     212:	03800047          	.insn	4, 0x03800047
     216:	0a92                	.insn	2, 0x0a92
     218:	0501                	.insn	2, 0x0501
     21a:	09010303          	lb	x6,144(x2)
     21e:	0000                	.insn	2, 0x
     220:	0301                	.insn	2, 0x0301
     222:	7dd1                	.insn	2, 0x7dd1
     224:	0009                	.insn	2, 0x0009
     226:	0100                	.insn	2, 0x0100
     228:	00090103          	lb	x2,0(x18)
     22c:	0100                	.insn	2, 0x0100
     22e:	00090103          	lb	x2,0(x18)
     232:	0100                	.insn	2, 0x0100
     234:	00090103          	lb	x2,0(x18)
     238:	0100                	.insn	2, 0x0100
     23a:	00090103          	lb	x2,0(x18)
     23e:	0100                	.insn	2, 0x0100
     240:	00090103          	lb	x2,0(x18)
     244:	0100                	.insn	2, 0x0100
     246:	00090203          	lb	x4,0(x18)
     24a:	0100                	.insn	2, 0x0100
     24c:	00090103          	lb	x2,0(x18)
     250:	0100                	.insn	2, 0x0100
     252:	00090103          	lb	x2,0(x18)
     256:	0100                	.insn	2, 0x0100
     258:	00090103          	lb	x2,0(x18)
     25c:	0100                	.insn	2, 0x0100
     25e:	00092503          	lw	x10,0(x18)
     262:	0100                	.insn	2, 0x0100
     264:	0105                	.insn	2, 0x0105
     266:	0306                	.insn	2, 0x0306
     268:	01ff 0009 0100 0003 	.insn	10, 0x300900030100000901ff
     270:	3009 
     272:	0100                	.insn	2, 0x0100
     274:	0605                	.insn	2, 0x0605
     276:	097e8103          	lb	x2,151(x29)
     27a:	0004                	.insn	2, 0x0004
     27c:	0501                	.insn	2, 0x0501
     27e:	02030607          	.insn	4, 0x02030607
     282:	1009                	.insn	2, 0x1009
     284:	0100                	.insn	2, 0x0100
     286:	0a05                	.insn	2, 0x0a05
     288:	0306                	.insn	2, 0x0306
     28a:	0900                	.insn	2, 0x0900
     28c:	0004                	.insn	2, 0x0004
     28e:	0501                	.insn	2, 0x0501
     290:	0004                	.insn	2, 0x0004
     292:	0402                	.insn	2, 0x0402
     294:	0301                	.insn	2, 0x0301
     296:	0904                	.insn	2, 0x0904
     298:	0004                	.insn	2, 0x0004
     29a:	0601                	.insn	2, 0x0601
     29c:	08090003          	lb	x0,128(x18)
     2a0:	0100                	.insn	2, 0x0100
     2a2:	00090003          	lb	x0,0(x18)
     2a6:	0100                	.insn	2, 0x0100
     2a8:	00090003          	lb	x0,0(x18)
     2ac:	0100                	.insn	2, 0x0100
     2ae:	00090003          	lb	x0,0(x18)
     2b2:	0100                	.insn	2, 0x0100
     2b4:	0200                	.insn	2, 0x0200
     2b6:	0104                	.insn	2, 0x0104
     2b8:	00090003          	lb	x0,0(x18)
     2bc:	0100                	.insn	2, 0x0100
     2be:	0200                	.insn	2, 0x0200
     2c0:	0304                	.insn	2, 0x0304
     2c2:	0306                	.insn	2, 0x0306
     2c4:	0900                	.insn	2, 0x0900
     2c6:	0004                	.insn	2, 0x0004
     2c8:	0001                	.insn	2, 0x0001
     2ca:	0402                	.insn	2, 0x0402
     2cc:	0615                	.insn	2, 0x0615
     2ce:	0c090003          	lb	x0,192(x18)
     2d2:	0100                	.insn	2, 0x0100
     2d4:	0200                	.insn	2, 0x0200
     2d6:	1504                	.insn	2, 0x1504
     2d8:	18090003          	lb	x0,384(x18)
     2dc:	0100                	.insn	2, 0x0100
     2de:	00090203          	lb	x4,0(x18)
     2e2:	0100                	.insn	2, 0x0100
     2e4:	0705                	.insn	2, 0x0705
     2e6:	0306                	.insn	2, 0x0306
     2e8:	0900                	.insn	2, 0x0900
     2ea:	0000                	.insn	2, 0x
     2ec:	0501                	.insn	2, 0x0501
     2ee:	0608                	.insn	2, 0x0608
     2f0:	04090503          	lb	x10,64(x18)
     2f4:	0100                	.insn	2, 0x0100
     2f6:	1105                	.insn	2, 0x1105
     2f8:	0306                	.insn	2, 0x0306
     2fa:	0901                	.insn	2, 0x0901
     2fc:	0000                	.insn	2, 0x
     2fe:	0501                	.insn	2, 0x0501
     300:	031e                	.insn	2, 0x031e
     302:	0900                	.insn	2, 0x0900
     304:	0004                	.insn	2, 0x0004
     306:	0501                	.insn	2, 0x0501
     308:	097f030b          	.insn	4, 0x097f030b
     30c:	0004                	.insn	2, 0x0004
     30e:	0501                	.insn	2, 0x0501
     310:	0608                	.insn	2, 0x0608
     312:	04090103          	lb	x2,64(x18)
     316:	0100                	.insn	2, 0x0100
     318:	0b05                	.insn	2, 0x0b05
     31a:	0306                	.insn	2, 0x0306
     31c:	0900                	.insn	2, 0x0900
     31e:	0000                	.insn	2, 0x
     320:	0501                	.insn	2, 0x0501
     322:	0608                	.insn	2, 0x0608
     324:	04090103          	lb	x2,64(x18)
     328:	0100                	.insn	2, 0x0100
     32a:	0b05                	.insn	2, 0x0b05
     32c:	0306                	.insn	2, 0x0306
     32e:	0900                	.insn	2, 0x0900
     330:	0000                	.insn	2, 0x
     332:	0501                	.insn	2, 0x0501
     334:	0604                	.insn	2, 0x0604
     336:	04090303          	lb	x6,64(x18)
     33a:	0100                	.insn	2, 0x0100
     33c:	00090003          	lb	x0,0(x18)
     340:	0100                	.insn	2, 0x0100
     342:	00090003          	lb	x0,0(x18)
     346:	0100                	.insn	2, 0x0100
     348:	00090003          	lb	x0,0(x18)
     34c:	0100                	.insn	2, 0x0100
     34e:	04090003          	lb	x0,64(x18)
     352:	0100                	.insn	2, 0x0100
     354:	14090003          	lb	x0,320(x18)
     358:	0100                	.insn	2, 0x0100
     35a:	00090003          	lb	x0,0(x18)
     35e:	0100                	.insn	2, 0x0100
     360:	08090003          	lb	x0,128(x18)
     364:	0100                	.insn	2, 0x0100
     366:	0c090003          	lb	x0,192(x18)
     36a:	0100                	.insn	2, 0x0100
     36c:	18090003          	lb	x0,384(x18)
     370:	0100                	.insn	2, 0x0100
     372:	0200                	.insn	2, 0x0200
     374:	0104                	.insn	2, 0x0104
     376:	08090003          	lb	x0,128(x18)
     37a:	0100                	.insn	2, 0x0100
     37c:	0200                	.insn	2, 0x0200
     37e:	0104                	.insn	2, 0x0104
     380:	08090003          	lb	x0,128(x18)
     384:	0100                	.insn	2, 0x0100
     386:	0200                	.insn	2, 0x0200
     388:	0304                	.insn	2, 0x0304
     38a:	04090003          	lb	x0,64(x18)
     38e:	0100                	.insn	2, 0x0100
     390:	0200                	.insn	2, 0x0200
     392:	0504                	.insn	2, 0x0504
     394:	04090003          	lb	x0,64(x18)
     398:	0100                	.insn	2, 0x0100
     39a:	0200                	.insn	2, 0x0200
     39c:	0704                	.insn	2, 0x0704
     39e:	08090003          	lb	x0,128(x18)
     3a2:	0100                	.insn	2, 0x0100
     3a4:	0200                	.insn	2, 0x0200
     3a6:	0704                	.insn	2, 0x0704
     3a8:	04090003          	lb	x0,64(x18)
     3ac:	0100                	.insn	2, 0x0100
     3ae:	0200                	.insn	2, 0x0200
     3b0:	0704                	.insn	2, 0x0704
     3b2:	00090003          	lb	x0,0(x18)
     3b6:	0100                	.insn	2, 0x0100
     3b8:	0200                	.insn	2, 0x0200
     3ba:	0704                	.insn	2, 0x0704
     3bc:	14090003          	lb	x0,320(x18)
     3c0:	0100                	.insn	2, 0x0100
     3c2:	0200                	.insn	2, 0x0200
     3c4:	0704                	.insn	2, 0x0704
     3c6:	0c090003          	lb	x0,192(x18)
     3ca:	0100                	.insn	2, 0x0100
     3cc:	0200                	.insn	2, 0x0200
     3ce:	0704                	.insn	2, 0x0704
     3d0:	1c090003          	lb	x0,448(x18)
     3d4:	0100                	.insn	2, 0x0100
     3d6:	0200                	.insn	2, 0x0200
     3d8:	0804                	.insn	2, 0x0804
     3da:	08090003          	lb	x0,128(x18)
     3de:	0100                	.insn	2, 0x0100
     3e0:	0200                	.insn	2, 0x0200
     3e2:	0a04                	.insn	2, 0x0a04
     3e4:	0c090003          	lb	x0,192(x18)
     3e8:	0100                	.insn	2, 0x0100
     3ea:	0200                	.insn	2, 0x0200
     3ec:	0c04                	.insn	2, 0x0c04
     3ee:	04090003          	lb	x0,64(x18)
     3f2:	0100                	.insn	2, 0x0100
     3f4:	0200                	.insn	2, 0x0200
     3f6:	0e04                	.insn	2, 0x0e04
     3f8:	04090003          	lb	x0,64(x18)
     3fc:	0100                	.insn	2, 0x0100
     3fe:	0200                	.insn	2, 0x0200
     400:	0e04                	.insn	2, 0x0e04
     402:	00090003          	lb	x0,0(x18)
     406:	0100                	.insn	2, 0x0100
     408:	0200                	.insn	2, 0x0200
     40a:	0e04                	.insn	2, 0x0e04
     40c:	08090003          	lb	x0,128(x18)
     410:	0100                	.insn	2, 0x0100
     412:	0200                	.insn	2, 0x0200
     414:	0e04                	.insn	2, 0x0e04
     416:	00090003          	lb	x0,0(x18)
     41a:	0100                	.insn	2, 0x0100
     41c:	00090103          	lb	x2,0(x18)
     420:	0100                	.insn	2, 0x0100
     422:	0b05                	.insn	2, 0x0b05
     424:	0306                	.insn	2, 0x0306
     426:	00fe                	.insn	2, 0x00fe
     428:	0009                	.insn	2, 0x0009
     42a:	0100                	.insn	2, 0x0100
     42c:	0405                	.insn	2, 0x0405
     42e:	0200                	.insn	2, 0x0200
     430:	0404                	.insn	2, 0x0404
     432:	097ef503          	.insn	4, 0x097ef503
     436:	0008                	.insn	2, 0x0008
     438:	0001                	.insn	2, 0x0001
     43a:	0402                	.insn	2, 0x0402
     43c:	0900030b          	.insn	4, 0x0900030b
     440:	0004                	.insn	2, 0x0004
     442:	0001                	.insn	2, 0x0001
     444:	0402                	.insn	2, 0x0402
     446:	0304                	.insn	2, 0x0304
     448:	0900                	.insn	2, 0x0900
     44a:	0004                	.insn	2, 0x0004
     44c:	0001                	.insn	2, 0x0001
     44e:	0402                	.insn	2, 0x0402
     450:	030a                	.insn	2, 0x030a
     452:	0900                	.insn	2, 0x0900
     454:	0004                	.insn	2, 0x0004
     456:	0601                	.insn	2, 0x0601
     458:	08091503          	lh	x10,128(x18)
     45c:	0100                	.insn	2, 0x0100
     45e:	0200                	.insn	2, 0x0200
     460:	0504                	.insn	2, 0x0504
     462:	0306                	.insn	2, 0x0306
     464:	00000903          	lb	x18,0(x0) # 0 <_heap_size>
     468:	0501                	.insn	2, 0x0501
     46a:	097d0307          	.insn	4, 0x097d0307
     46e:	0004                	.insn	2, 0x0004
     470:	0501                	.insn	2, 0x0501
     472:	0604                	.insn	2, 0x0604
     474:	04090303          	lb	x6,64(x18)
     478:	0100                	.insn	2, 0x0100
     47a:	00090003          	lb	x0,0(x18)
     47e:	0100                	.insn	2, 0x0100
     480:	00090003          	lb	x0,0(x18)
     484:	0100                	.insn	2, 0x0100
     486:	00090003          	lb	x0,0(x18)
     48a:	0100                	.insn	2, 0x0100
     48c:	0200                	.insn	2, 0x0200
     48e:	0104                	.insn	2, 0x0104
     490:	00090003          	lb	x0,0(x18)
     494:	0100                	.insn	2, 0x0100
     496:	0200                	.insn	2, 0x0200
     498:	0304                	.insn	2, 0x0304
     49a:	0306                	.insn	2, 0x0306
     49c:	0900                	.insn	2, 0x0900
     49e:	0008                	.insn	2, 0x0008
     4a0:	0001                	.insn	2, 0x0001
     4a2:	0402                	.insn	2, 0x0402
     4a4:	0615                	.insn	2, 0x0615
     4a6:	0c090003          	lb	x0,192(x18)
     4aa:	0100                	.insn	2, 0x0100
     4ac:	0200                	.insn	2, 0x0200
     4ae:	1504                	.insn	2, 0x1504
     4b0:	18090003          	lb	x0,384(x18)
     4b4:	0100                	.insn	2, 0x0100
     4b6:	00090203          	lb	x4,0(x18)
     4ba:	0100                	.insn	2, 0x0100
     4bc:	0705                	.insn	2, 0x0705
     4be:	0306                	.insn	2, 0x0306
     4c0:	0900                	.insn	2, 0x0900
     4c2:	0000                	.insn	2, 0x
     4c4:	0501                	.insn	2, 0x0501
     4c6:	0608                	.insn	2, 0x0608
     4c8:	04090903          	lb	x18,64(x18)
     4cc:	0100                	.insn	2, 0x0100
     4ce:	0b05                	.insn	2, 0x0b05
     4d0:	0306                	.insn	2, 0x0306
     4d2:	0900                	.insn	2, 0x0900
     4d4:	0000                	.insn	2, 0x
     4d6:	0501                	.insn	2, 0x0501
     4d8:	0608                	.insn	2, 0x0608
     4da:	04090103          	lb	x2,64(x18)
     4de:	0100                	.insn	2, 0x0100
     4e0:	0b05                	.insn	2, 0x0b05
     4e2:	0306                	.insn	2, 0x0306
     4e4:	0900                	.insn	2, 0x0900
     4e6:	0000                	.insn	2, 0x
     4e8:	0501                	.insn	2, 0x0501
     4ea:	0008                	.insn	2, 0x0008
     4ec:	0402                	.insn	2, 0x0402
     4ee:	0d03060f          	.insn	4, 0x0d03060f
     4f2:	0409                	.insn	2, 0x0409
     4f4:	0100                	.insn	2, 0x0100
     4f6:	0405                	.insn	2, 0x0405
     4f8:	00090503          	lb	x10,0(x18)
     4fc:	0100                	.insn	2, 0x0100
     4fe:	00090003          	lb	x0,0(x18)
     502:	0100                	.insn	2, 0x0100
     504:	00090003          	lb	x0,0(x18)
     508:	0100                	.insn	2, 0x0100
     50a:	00090003          	lb	x0,0(x18)
     50e:	0100                	.insn	2, 0x0100
     510:	04090003          	lb	x0,64(x18)
     514:	0100                	.insn	2, 0x0100
     516:	14090003          	lb	x0,320(x18)
     51a:	0100                	.insn	2, 0x0100
     51c:	00090003          	lb	x0,0(x18)
     520:	0100                	.insn	2, 0x0100
     522:	08090003          	lb	x0,128(x18)
     526:	0100                	.insn	2, 0x0100
     528:	0c090003          	lb	x0,192(x18)
     52c:	0100                	.insn	2, 0x0100
     52e:	18090003          	lb	x0,384(x18)
     532:	0100                	.insn	2, 0x0100
     534:	0200                	.insn	2, 0x0200
     536:	0104                	.insn	2, 0x0104
     538:	08090003          	lb	x0,128(x18)
     53c:	0100                	.insn	2, 0x0100
     53e:	0200                	.insn	2, 0x0200
     540:	0104                	.insn	2, 0x0104
     542:	08090003          	lb	x0,128(x18)
     546:	0100                	.insn	2, 0x0100
     548:	0200                	.insn	2, 0x0200
     54a:	0304                	.insn	2, 0x0304
     54c:	04090003          	lb	x0,64(x18)
     550:	0100                	.insn	2, 0x0100
     552:	0200                	.insn	2, 0x0200
     554:	0504                	.insn	2, 0x0504
     556:	04090003          	lb	x0,64(x18)
     55a:	0100                	.insn	2, 0x0100
     55c:	0200                	.insn	2, 0x0200
     55e:	0704                	.insn	2, 0x0704
     560:	08090003          	lb	x0,128(x18)
     564:	0100                	.insn	2, 0x0100
     566:	0200                	.insn	2, 0x0200
     568:	0704                	.insn	2, 0x0704
     56a:	04090003          	lb	x0,64(x18)
     56e:	0100                	.insn	2, 0x0100
     570:	0200                	.insn	2, 0x0200
     572:	0704                	.insn	2, 0x0704
     574:	00090003          	lb	x0,0(x18)
     578:	0100                	.insn	2, 0x0100
     57a:	0200                	.insn	2, 0x0200
     57c:	0704                	.insn	2, 0x0704
     57e:	14090003          	lb	x0,320(x18)
     582:	0100                	.insn	2, 0x0100
     584:	0200                	.insn	2, 0x0200
     586:	0704                	.insn	2, 0x0704
     588:	0c090003          	lb	x0,192(x18)
     58c:	0100                	.insn	2, 0x0100
     58e:	0200                	.insn	2, 0x0200
     590:	0704                	.insn	2, 0x0704
     592:	1c090003          	lb	x0,448(x18)
     596:	0100                	.insn	2, 0x0100
     598:	0200                	.insn	2, 0x0200
     59a:	0804                	.insn	2, 0x0804
     59c:	08090003          	lb	x0,128(x18)
     5a0:	0100                	.insn	2, 0x0100
     5a2:	0200                	.insn	2, 0x0200
     5a4:	0a04                	.insn	2, 0x0a04
     5a6:	0c090003          	lb	x0,192(x18)
     5aa:	0100                	.insn	2, 0x0100
     5ac:	0200                	.insn	2, 0x0200
     5ae:	0c04                	.insn	2, 0x0c04
     5b0:	04090003          	lb	x0,64(x18)
     5b4:	0100                	.insn	2, 0x0100
     5b6:	0200                	.insn	2, 0x0200
     5b8:	0e04                	.insn	2, 0x0e04
     5ba:	04090003          	lb	x0,64(x18)
     5be:	0100                	.insn	2, 0x0100
     5c0:	0200                	.insn	2, 0x0200
     5c2:	0e04                	.insn	2, 0x0e04
     5c4:	00090003          	lb	x0,0(x18)
     5c8:	0100                	.insn	2, 0x0100
     5ca:	0200                	.insn	2, 0x0200
     5cc:	0e04                	.insn	2, 0x0e04
     5ce:	08090003          	lb	x0,128(x18)
     5d2:	0100                	.insn	2, 0x0100
     5d4:	0305                	.insn	2, 0x0305
     5d6:	0900e303          	.insn	4, 0x0900e303
     5da:	0000                	.insn	2, 0x
     5dc:	0301                	.insn	2, 0x0301
     5de:	0901                	.insn	2, 0x0901
     5e0:	0000                	.insn	2, 0x
     5e2:	0501                	.insn	2, 0x0501
     5e4:	0601                	.insn	2, 0x0601
     5e6:	0900e103          	.insn	4, 0x0900e103
     5ea:	0000                	.insn	2, 0x
     5ec:	0501                	.insn	2, 0x0501
     5ee:	0004                	.insn	2, 0x0004
     5f0:	0402                	.insn	2, 0x0402
     5f2:	0304                	.insn	2, 0x0304
     5f4:	7e9d                	.insn	2, 0x7e9d
     5f6:	3c09                	.insn	2, 0x3c09
     5f8:	0100                	.insn	2, 0x0100
     5fa:	0200                	.insn	2, 0x0200
     5fc:	0b04                	.insn	2, 0x0b04
     5fe:	04090003          	lb	x0,64(x18)
     602:	0100                	.insn	2, 0x0100
     604:	0200                	.insn	2, 0x0200
     606:	0404                	.insn	2, 0x0404
     608:	04090003          	lb	x0,64(x18)
     60c:	0100                	.insn	2, 0x0100
     60e:	0200                	.insn	2, 0x0200
     610:	0a04                	.insn	2, 0x0a04
     612:	04090003          	lb	x0,64(x18)
     616:	0100                	.insn	2, 0x0100
     618:	0805                	.insn	2, 0x0805
     61a:	0306                	.insn	2, 0x0306
     61c:	0912                	.insn	2, 0x0912
     61e:	0008                	.insn	2, 0x0008
     620:	0301                	.insn	2, 0x0301
     622:	0902                	.insn	2, 0x0902
     624:	0000                	.insn	2, 0x
     626:	0501                	.insn	2, 0x0501
     628:	0003060b          	.insn	4, 0x0003060b
     62c:	0009                	.insn	2, 0x0009
     62e:	0100                	.insn	2, 0x0100
     630:	0805                	.insn	2, 0x0805
     632:	0306                	.insn	2, 0x0306
     634:	0901                	.insn	2, 0x0901
     636:	0004                	.insn	2, 0x0004
     638:	0501                	.insn	2, 0x0501
     63a:	0003060b          	.insn	4, 0x0003060b
     63e:	0009                	.insn	2, 0x0009
     640:	0100                	.insn	2, 0x0100
     642:	0805                	.insn	2, 0x0805
     644:	0306                	.insn	2, 0x0306
     646:	0901                	.insn	2, 0x0901
     648:	0004                	.insn	2, 0x0004
     64a:	0601                	.insn	2, 0x0601
     64c:	00090303          	lb	x6,0(x18)
     650:	0100                	.insn	2, 0x0100
     652:	1105                	.insn	2, 0x1105
     654:	04097d03          	.insn	4, 0x04097d03
     658:	0100                	.insn	2, 0x0100
     65a:	1e05                	.insn	2, 0x1e05
     65c:	04090003          	lb	x0,64(x18)
     660:	0100                	.insn	2, 0x0100
     662:	0b05                	.insn	2, 0x0b05
     664:	04090003          	lb	x0,64(x18)
     668:	0100                	.insn	2, 0x0100
     66a:	0805                	.insn	2, 0x0805
     66c:	0306                	.insn	2, 0x0306
     66e:	0901                	.insn	2, 0x0901
     670:	0004                	.insn	2, 0x0004
     672:	0501                	.insn	2, 0x0501
     674:	0003060b          	.insn	4, 0x0003060b
     678:	0009                	.insn	2, 0x0009
     67a:	0100                	.insn	2, 0x0100
     67c:	0805                	.insn	2, 0x0805
     67e:	0306                	.insn	2, 0x0306
     680:	0902                	.insn	2, 0x0902
     682:	0004                	.insn	2, 0x0004
     684:	0301                	.insn	2, 0x0301
     686:	0900                	.insn	2, 0x0900
     688:	0000                	.insn	2, 0x
     68a:	0301                	.insn	2, 0x0301
     68c:	0900                	.insn	2, 0x0900
     68e:	0000                	.insn	2, 0x
     690:	0301                	.insn	2, 0x0301
     692:	0900                	.insn	2, 0x0900
     694:	0000                	.insn	2, 0x
     696:	0301                	.insn	2, 0x0301
     698:	0900                	.insn	2, 0x0900
     69a:	0000                	.insn	2, 0x
     69c:	0301                	.insn	2, 0x0301
     69e:	0900                	.insn	2, 0x0900
     6a0:	0014                	.insn	2, 0x0014
     6a2:	0301                	.insn	2, 0x0301
     6a4:	0900                	.insn	2, 0x0900
     6a6:	0000                	.insn	2, 0x
     6a8:	0301                	.insn	2, 0x0301
     6aa:	0900                	.insn	2, 0x0900
     6ac:	0008                	.insn	2, 0x0008
     6ae:	0301                	.insn	2, 0x0301
     6b0:	0900                	.insn	2, 0x0900
     6b2:	000c                	.insn	2, 0x000c
     6b4:	0301                	.insn	2, 0x0301
     6b6:	0900                	.insn	2, 0x0900
     6b8:	0018                	.insn	2, 0x0018
     6ba:	0001                	.insn	2, 0x0001
     6bc:	0402                	.insn	2, 0x0402
     6be:	0301                	.insn	2, 0x0301
     6c0:	0900                	.insn	2, 0x0900
     6c2:	0008                	.insn	2, 0x0008
     6c4:	0001                	.insn	2, 0x0001
     6c6:	0402                	.insn	2, 0x0402
     6c8:	0301                	.insn	2, 0x0301
     6ca:	0900                	.insn	2, 0x0900
     6cc:	0008                	.insn	2, 0x0008
     6ce:	0001                	.insn	2, 0x0001
     6d0:	0402                	.insn	2, 0x0402
     6d2:	09000303          	lb	x6,144(x0) # 90 <_heap_size+0x90>
     6d6:	0004                	.insn	2, 0x0004
     6d8:	0001                	.insn	2, 0x0001
     6da:	0402                	.insn	2, 0x0402
     6dc:	0305                	.insn	2, 0x0305
     6de:	0900                	.insn	2, 0x0900
     6e0:	0004                	.insn	2, 0x0004
     6e2:	0001                	.insn	2, 0x0001
     6e4:	0402                	.insn	2, 0x0402
     6e6:	09000307          	.insn	4, 0x09000307
     6ea:	0008                	.insn	2, 0x0008
     6ec:	0001                	.insn	2, 0x0001
     6ee:	0402                	.insn	2, 0x0402
     6f0:	09000307          	.insn	4, 0x09000307
     6f4:	0004                	.insn	2, 0x0004
     6f6:	0001                	.insn	2, 0x0001
     6f8:	0402                	.insn	2, 0x0402
     6fa:	09000307          	.insn	4, 0x09000307
     6fe:	0000                	.insn	2, 0x
     700:	0001                	.insn	2, 0x0001
     702:	0402                	.insn	2, 0x0402
     704:	09000307          	.insn	4, 0x09000307
     708:	0014                	.insn	2, 0x0014
     70a:	0001                	.insn	2, 0x0001
     70c:	0402                	.insn	2, 0x0402
     70e:	09000307          	.insn	4, 0x09000307
     712:	000c                	.insn	2, 0x000c
     714:	0001                	.insn	2, 0x0001
     716:	0402                	.insn	2, 0x0402
     718:	09000307          	.insn	4, 0x09000307
     71c:	001c                	.insn	2, 0x001c
     71e:	0001                	.insn	2, 0x0001
     720:	0402                	.insn	2, 0x0402
     722:	0308                	.insn	2, 0x0308
     724:	0900                	.insn	2, 0x0900
     726:	0008                	.insn	2, 0x0008
     728:	0001                	.insn	2, 0x0001
     72a:	0402                	.insn	2, 0x0402
     72c:	0308                	.insn	2, 0x0308
     72e:	0900                	.insn	2, 0x0900
     730:	0008                	.insn	2, 0x0008
     732:	0001                	.insn	2, 0x0001
     734:	0402                	.insn	2, 0x0402
     736:	030a                	.insn	2, 0x030a
     738:	0900                	.insn	2, 0x0900
     73a:	0004                	.insn	2, 0x0004
     73c:	0001                	.insn	2, 0x0001
     73e:	0402                	.insn	2, 0x0402
     740:	030c                	.insn	2, 0x030c
     742:	0900                	.insn	2, 0x0900
     744:	0004                	.insn	2, 0x0004
     746:	0001                	.insn	2, 0x0001
     748:	0402                	.insn	2, 0x0402
     74a:	030e                	.insn	2, 0x030e
     74c:	0900                	.insn	2, 0x0900
     74e:	0008                	.insn	2, 0x0008
     750:	0001                	.insn	2, 0x0001
     752:	0402                	.insn	2, 0x0402
     754:	030e                	.insn	2, 0x030e
     756:	0900                	.insn	2, 0x0900
     758:	0008                	.insn	2, 0x0008
     75a:	0001                	.insn	2, 0x0001
     75c:	0402                	.insn	2, 0x0402
     75e:	030e                	.insn	2, 0x030e
     760:	0900                	.insn	2, 0x0900
     762:	0004                	.insn	2, 0x0004
     764:	0501                	.insn	2, 0x0501
     766:	09150307          	.insn	4, 0x09150307
     76a:	0004                	.insn	2, 0x0004
     76c:	0501                	.insn	2, 0x0501
     76e:	060a                	.insn	2, 0x060a
     770:	00090003          	lb	x0,0(x18)
     774:	0100                	.insn	2, 0x0100
     776:	0405                	.insn	2, 0x0405
     778:	0306                	.insn	2, 0x0306
     77a:	00040913          	addi	x18,x8,0
     77e:	0301                	.insn	2, 0x0301
     780:	0900                	.insn	2, 0x0900
     782:	0000                	.insn	2, 0x
     784:	0301                	.insn	2, 0x0301
     786:	0900                	.insn	2, 0x0900
     788:	0000                	.insn	2, 0x
     78a:	0301                	.insn	2, 0x0301
     78c:	0900                	.insn	2, 0x0900
     78e:	0000                	.insn	2, 0x
     790:	0001                	.insn	2, 0x0001
     792:	0402                	.insn	2, 0x0402
     794:	0301                	.insn	2, 0x0301
     796:	0900                	.insn	2, 0x0900
     798:	0000                	.insn	2, 0x
     79a:	0001                	.insn	2, 0x0001
     79c:	0402                	.insn	2, 0x0402
     79e:	00030603          	lb	x12,0(x6)
     7a2:	0809                	.insn	2, 0x0809
     7a4:	0100                	.insn	2, 0x0100
     7a6:	0200                	.insn	2, 0x0200
     7a8:	1504                	.insn	2, 0x1504
     7aa:	0306                	.insn	2, 0x0306
     7ac:	0900                	.insn	2, 0x0900
     7ae:	000c                	.insn	2, 0x000c
     7b0:	0001                	.insn	2, 0x0001
     7b2:	0402                	.insn	2, 0x0402
     7b4:	0315                	.insn	2, 0x0315
     7b6:	0900                	.insn	2, 0x0900
     7b8:	0020                	.insn	2, 0x0020
     7ba:	0301                	.insn	2, 0x0301
     7bc:	0901                	.insn	2, 0x0901
     7be:	0000                	.insn	2, 0x
     7c0:	0501                	.insn	2, 0x0501
     7c2:	00030607          	.insn	4, 0x00030607
     7c6:	0009                	.insn	2, 0x0009
     7c8:	0100                	.insn	2, 0x0100
     7ca:	0805                	.insn	2, 0x0805
     7cc:	0306                	.insn	2, 0x0306
     7ce:	090a                	.insn	2, 0x090a
     7d0:	0004                	.insn	2, 0x0004
     7d2:	0601                	.insn	2, 0x0601
     7d4:	00090203          	lb	x4,0(x18)
     7d8:	0100                	.insn	2, 0x0100
     7da:	0b05                	.insn	2, 0x0b05
     7dc:	04097e03          	.insn	4, 0x04097e03
     7e0:	0100                	.insn	2, 0x0100
     7e2:	1405                	.insn	2, 0x1405
     7e4:	0200                	.insn	2, 0x0200
     7e6:	0104                	.insn	2, 0x0104
     7e8:	04090003          	lb	x0,64(x18)
     7ec:	0100                	.insn	2, 0x0100
     7ee:	0405                	.insn	2, 0x0405
     7f0:	0200                	.insn	2, 0x0200
     7f2:	0404                	.insn	2, 0x0404
     7f4:	0c097503          	.insn	4, 0x0c097503
     7f8:	0100                	.insn	2, 0x0100
     7fa:	0200                	.insn	2, 0x0200
     7fc:	0b04                	.insn	2, 0x0b04
     7fe:	04090003          	lb	x0,64(x18)
     802:	0100                	.insn	2, 0x0100
     804:	0200                	.insn	2, 0x0200
     806:	0404                	.insn	2, 0x0404
     808:	04090003          	lb	x0,64(x18)
     80c:	0100                	.insn	2, 0x0100
     80e:	0200                	.insn	2, 0x0200
     810:	0a04                	.insn	2, 0x0a04
     812:	04090003          	lb	x0,64(x18)
     816:	0100                	.insn	2, 0x0100
     818:	0805                	.insn	2, 0x0805
     81a:	0306                	.insn	2, 0x0306
     81c:	091e                	.insn	2, 0x091e
     81e:	0008                	.insn	2, 0x0008
     820:	0301                	.insn	2, 0x0301
     822:	00000903          	lb	x18,0(x0) # 0 <_heap_size>
     826:	0301                	.insn	2, 0x0301
     828:	0902                	.insn	2, 0x0902
     82a:	0000                	.insn	2, 0x
     82c:	0501                	.insn	2, 0x0501
     82e:	0611                	.insn	2, 0x0611
     830:	00090003          	lb	x0,0(x18)
     834:	0100                	.insn	2, 0x0100
     836:	1e05                	.insn	2, 0x1e05
     838:	04090003          	lb	x0,64(x18)
     83c:	0100                	.insn	2, 0x0100
     83e:	0b05                	.insn	2, 0x0b05
     840:	04090003          	lb	x0,64(x18)
     844:	0100                	.insn	2, 0x0100
     846:	0805                	.insn	2, 0x0805
     848:	0306                	.insn	2, 0x0306
     84a:	0901                	.insn	2, 0x0901
     84c:	0004                	.insn	2, 0x0004
     84e:	0501                	.insn	2, 0x0501
     850:	0103060b          	.insn	4, 0x0103060b
     854:	0009                	.insn	2, 0x0009
     856:	0100                	.insn	2, 0x0100
     858:	0805                	.insn	2, 0x0805
     85a:	04090403          	lb	x8,64(x18)
     85e:	0100                	.insn	2, 0x0100
     860:	1e05                	.insn	2, 0x1e05
     862:	04097d03          	.insn	4, 0x04097d03
     866:	0100                	.insn	2, 0x0100
     868:	1105                	.insn	2, 0x1105
     86a:	04090003          	lb	x0,64(x18)
     86e:	0100                	.insn	2, 0x0100
     870:	0b05                	.insn	2, 0x0b05
     872:	04090003          	lb	x0,64(x18)
     876:	0100                	.insn	2, 0x0100
     878:	0805                	.insn	2, 0x0805
     87a:	04090303          	lb	x6,64(x18)
     87e:	0100                	.insn	2, 0x0100
     880:	0b05                	.insn	2, 0x0b05
     882:	0c097b03          	.insn	4, 0x0c097b03
     886:	0100                	.insn	2, 0x0100
     888:	0805                	.insn	2, 0x0805
     88a:	0306                	.insn	2, 0x0306
     88c:	0901                	.insn	2, 0x0901
     88e:	0004                	.insn	2, 0x0004
     890:	0301                	.insn	2, 0x0301
     892:	0901                	.insn	2, 0x0901
     894:	0000                	.insn	2, 0x
     896:	0301                	.insn	2, 0x0301
     898:	0901                	.insn	2, 0x0901
     89a:	0000                	.insn	2, 0x
     89c:	0301                	.insn	2, 0x0301
     89e:	0902                	.insn	2, 0x0902
     8a0:	0000                	.insn	2, 0x
     8a2:	0301                	.insn	2, 0x0301
     8a4:	0900                	.insn	2, 0x0900
     8a6:	0000                	.insn	2, 0x
     8a8:	0301                	.insn	2, 0x0301
     8aa:	0900                	.insn	2, 0x0900
     8ac:	0000                	.insn	2, 0x
     8ae:	0301                	.insn	2, 0x0301
     8b0:	0900                	.insn	2, 0x0900
     8b2:	0000                	.insn	2, 0x
     8b4:	0301                	.insn	2, 0x0301
     8b6:	0900                	.insn	2, 0x0900
     8b8:	0000                	.insn	2, 0x
     8ba:	0301                	.insn	2, 0x0301
     8bc:	0900                	.insn	2, 0x0900
     8be:	0004                	.insn	2, 0x0004
     8c0:	0301                	.insn	2, 0x0301
     8c2:	0900                	.insn	2, 0x0900
     8c4:	0000                	.insn	2, 0x
     8c6:	0301                	.insn	2, 0x0301
     8c8:	0900                	.insn	2, 0x0900
     8ca:	000c                	.insn	2, 0x000c
     8cc:	0301                	.insn	2, 0x0301
     8ce:	0900                	.insn	2, 0x0900
     8d0:	000c                	.insn	2, 0x000c
     8d2:	0301                	.insn	2, 0x0301
     8d4:	0900                	.insn	2, 0x0900
     8d6:	0018                	.insn	2, 0x0018
     8d8:	0001                	.insn	2, 0x0001
     8da:	0402                	.insn	2, 0x0402
     8dc:	0301                	.insn	2, 0x0301
     8de:	0900                	.insn	2, 0x0900
     8e0:	0008                	.insn	2, 0x0008
     8e2:	0001                	.insn	2, 0x0001
     8e4:	0402                	.insn	2, 0x0402
     8e6:	0301                	.insn	2, 0x0301
     8e8:	0900                	.insn	2, 0x0900
     8ea:	0008                	.insn	2, 0x0008
     8ec:	0001                	.insn	2, 0x0001
     8ee:	0402                	.insn	2, 0x0402
     8f0:	09000303          	lb	x6,144(x0) # 90 <_heap_size+0x90>
     8f4:	0004                	.insn	2, 0x0004
     8f6:	0001                	.insn	2, 0x0001
     8f8:	0402                	.insn	2, 0x0402
     8fa:	0305                	.insn	2, 0x0305
     8fc:	0900                	.insn	2, 0x0900
     8fe:	0004                	.insn	2, 0x0004
     900:	0001                	.insn	2, 0x0001
     902:	0402                	.insn	2, 0x0402
     904:	09000307          	.insn	4, 0x09000307
     908:	0008                	.insn	2, 0x0008
     90a:	0001                	.insn	2, 0x0001
     90c:	0402                	.insn	2, 0x0402
     90e:	09000307          	.insn	4, 0x09000307
     912:	0004                	.insn	2, 0x0004
     914:	0001                	.insn	2, 0x0001
     916:	0402                	.insn	2, 0x0402
     918:	09000307          	.insn	4, 0x09000307
     91c:	0000                	.insn	2, 0x
     91e:	0001                	.insn	2, 0x0001
     920:	0402                	.insn	2, 0x0402
     922:	09000307          	.insn	4, 0x09000307
     926:	0014                	.insn	2, 0x0014
     928:	0001                	.insn	2, 0x0001
     92a:	0402                	.insn	2, 0x0402
     92c:	09000307          	.insn	4, 0x09000307
     930:	000c                	.insn	2, 0x000c
     932:	0001                	.insn	2, 0x0001
     934:	0402                	.insn	2, 0x0402
     936:	09000307          	.insn	4, 0x09000307
     93a:	001c                	.insn	2, 0x001c
     93c:	0001                	.insn	2, 0x0001
     93e:	0402                	.insn	2, 0x0402
     940:	0308                	.insn	2, 0x0308
     942:	0900                	.insn	2, 0x0900
     944:	0008                	.insn	2, 0x0008
     946:	0001                	.insn	2, 0x0001
     948:	0402                	.insn	2, 0x0402
     94a:	0308                	.insn	2, 0x0308
     94c:	0900                	.insn	2, 0x0900
     94e:	0008                	.insn	2, 0x0008
     950:	0001                	.insn	2, 0x0001
     952:	0402                	.insn	2, 0x0402
     954:	030a                	.insn	2, 0x030a
     956:	0900                	.insn	2, 0x0900
     958:	0004                	.insn	2, 0x0004
     95a:	0001                	.insn	2, 0x0001
     95c:	0402                	.insn	2, 0x0402
     95e:	030c                	.insn	2, 0x030c
     960:	0900                	.insn	2, 0x0900
     962:	0004                	.insn	2, 0x0004
     964:	0001                	.insn	2, 0x0001
     966:	0402                	.insn	2, 0x0402
     968:	030e                	.insn	2, 0x030e
     96a:	0900                	.insn	2, 0x0900
     96c:	0008                	.insn	2, 0x0008
     96e:	0601                	.insn	2, 0x0601
     970:	04090103          	lb	x2,64(x18)
     974:	0100                	.insn	2, 0x0100
     976:	0200                	.insn	2, 0x0200
     978:	0e04                	.insn	2, 0x0e04
     97a:	04097f03          	.insn	4, 0x04097f03
     97e:	0100                	.insn	2, 0x0100
     980:	04090103          	lb	x2,64(x18)
     984:	0100                	.insn	2, 0x0100
     986:	0200                	.insn	2, 0x0200
     988:	0e04                	.insn	2, 0x0e04
     98a:	0c097f03          	.insn	4, 0x0c097f03
     98e:	0100                	.insn	2, 0x0100
     990:	0200                	.insn	2, 0x0200
     992:	0e04                	.insn	2, 0x0e04
     994:	0306                	.insn	2, 0x0306
     996:	0900                	.insn	2, 0x0900
     998:	0004                	.insn	2, 0x0004
     99a:	0001                	.insn	2, 0x0001
     99c:	0402                	.insn	2, 0x0402
     99e:	030e                	.insn	2, 0x030e
     9a0:	0900                	.insn	2, 0x0900
     9a2:	0000                	.insn	2, 0x
     9a4:	0001                	.insn	2, 0x0001
     9a6:	0402                	.insn	2, 0x0402
     9a8:	030e                	.insn	2, 0x030e
     9aa:	0900                	.insn	2, 0x0900
     9ac:	0000                	.insn	2, 0x
     9ae:	0301                	.insn	2, 0x0301
     9b0:	0901                	.insn	2, 0x0901
     9b2:	0000                	.insn	2, 0x
     9b4:	0301                	.insn	2, 0x0301
     9b6:	0900                	.insn	2, 0x0900
     9b8:	0000                	.insn	2, 0x
     9ba:	0301                	.insn	2, 0x0301
     9bc:	0900                	.insn	2, 0x0900
     9be:	0000                	.insn	2, 0x
     9c0:	0301                	.insn	2, 0x0301
     9c2:	0900                	.insn	2, 0x0900
     9c4:	0000                	.insn	2, 0x
     9c6:	0301                	.insn	2, 0x0301
     9c8:	0900                	.insn	2, 0x0900
     9ca:	0000                	.insn	2, 0x
     9cc:	0301                	.insn	2, 0x0301
     9ce:	0900                	.insn	2, 0x0900
     9d0:	0004                	.insn	2, 0x0004
     9d2:	0301                	.insn	2, 0x0301
     9d4:	0900                	.insn	2, 0x0900
     9d6:	0000                	.insn	2, 0x
     9d8:	0301                	.insn	2, 0x0301
     9da:	0900                	.insn	2, 0x0900
     9dc:	0004                	.insn	2, 0x0004
     9de:	0301                	.insn	2, 0x0301
     9e0:	0900                	.insn	2, 0x0900
     9e2:	0000                	.insn	2, 0x
     9e4:	0301                	.insn	2, 0x0301
     9e6:	0900                	.insn	2, 0x0900
     9e8:	0004                	.insn	2, 0x0004
     9ea:	0301                	.insn	2, 0x0301
     9ec:	0900                	.insn	2, 0x0900
     9ee:	0004                	.insn	2, 0x0004
     9f0:	0301                	.insn	2, 0x0301
     9f2:	0900                	.insn	2, 0x0900
     9f4:	0004                	.insn	2, 0x0004
     9f6:	0301                	.insn	2, 0x0301
     9f8:	0900                	.insn	2, 0x0900
     9fa:	0004                	.insn	2, 0x0004
     9fc:	0301                	.insn	2, 0x0301
     9fe:	0900                	.insn	2, 0x0900
     a00:	0000                	.insn	2, 0x
     a02:	0301                	.insn	2, 0x0301
     a04:	0900                	.insn	2, 0x0900
     a06:	0008                	.insn	2, 0x0008
     a08:	0301                	.insn	2, 0x0301
     a0a:	0900                	.insn	2, 0x0900
     a0c:	0000                	.insn	2, 0x
     a0e:	0301                	.insn	2, 0x0301
     a10:	0900                	.insn	2, 0x0900
     a12:	0004                	.insn	2, 0x0004
     a14:	0301                	.insn	2, 0x0301
     a16:	0900                	.insn	2, 0x0900
     a18:	0004                	.insn	2, 0x0004
     a1a:	0301                	.insn	2, 0x0301
     a1c:	0900                	.insn	2, 0x0900
     a1e:	0000                	.insn	2, 0x
     a20:	0301                	.insn	2, 0x0301
     a22:	0900                	.insn	2, 0x0900
     a24:	0008                	.insn	2, 0x0008
     a26:	0301                	.insn	2, 0x0301
     a28:	0900                	.insn	2, 0x0900
     a2a:	0000                	.insn	2, 0x
     a2c:	0301                	.insn	2, 0x0301
     a2e:	0900                	.insn	2, 0x0900
     a30:	0004                	.insn	2, 0x0004
     a32:	0301                	.insn	2, 0x0301
     a34:	0900                	.insn	2, 0x0900
     a36:	0004                	.insn	2, 0x0004
     a38:	0301                	.insn	2, 0x0301
     a3a:	0900                	.insn	2, 0x0900
     a3c:	0000                	.insn	2, 0x
     a3e:	0301                	.insn	2, 0x0301
     a40:	0900                	.insn	2, 0x0900
     a42:	0008                	.insn	2, 0x0008
     a44:	0301                	.insn	2, 0x0301
     a46:	0900                	.insn	2, 0x0900
     a48:	0000                	.insn	2, 0x
     a4a:	0301                	.insn	2, 0x0301
     a4c:	0900                	.insn	2, 0x0900
     a4e:	0004                	.insn	2, 0x0004
     a50:	0301                	.insn	2, 0x0301
     a52:	0900                	.insn	2, 0x0900
     a54:	0010                	.insn	2, 0x0010
     a56:	0301                	.insn	2, 0x0301
     a58:	0900                	.insn	2, 0x0900
     a5a:	0000                	.insn	2, 0x
     a5c:	0301                	.insn	2, 0x0301
     a5e:	0900                	.insn	2, 0x0900
     a60:	0000                	.insn	2, 0x
     a62:	0001                	.insn	2, 0x0001
     a64:	0402                	.insn	2, 0x0402
     a66:	0301                	.insn	2, 0x0301
     a68:	0900                	.insn	2, 0x0900
     a6a:	0004                	.insn	2, 0x0004
     a6c:	0001                	.insn	2, 0x0001
     a6e:	0402                	.insn	2, 0x0402
     a70:	09000303          	lb	x6,144(x0) # 90 <_heap_size+0x90>
     a74:	0004                	.insn	2, 0x0004
     a76:	0001                	.insn	2, 0x0001
     a78:	0402                	.insn	2, 0x0402
     a7a:	09000303          	lb	x6,144(x0) # 90 <_heap_size+0x90>
     a7e:	0008                	.insn	2, 0x0008
     a80:	0001                	.insn	2, 0x0001
     a82:	0402                	.insn	2, 0x0402
     a84:	09000303          	lb	x6,144(x0) # 90 <_heap_size+0x90>
     a88:	0000                	.insn	2, 0x
     a8a:	0301                	.insn	2, 0x0301
     a8c:	0902                	.insn	2, 0x0902
     a8e:	0000                	.insn	2, 0x
     a90:	0501                	.insn	2, 0x0501
     a92:	0003060b          	.insn	4, 0x0003060b
     a96:	0009                	.insn	2, 0x0009
     a98:	0100                	.insn	2, 0x0100
     a9a:	1405                	.insn	2, 0x1405
     a9c:	0200                	.insn	2, 0x0200
     a9e:	0104                	.insn	2, 0x0104
     aa0:	04090003          	lb	x0,64(x18)
     aa4:	0100                	.insn	2, 0x0100
     aa6:	0805                	.insn	2, 0x0805
     aa8:	0200                	.insn	2, 0x0200
     aaa:	0304                	.insn	2, 0x0304
     aac:	04097e03          	.insn	4, 0x04097e03
     ab0:	0100                	.insn	2, 0x0100
     ab2:	0b05                	.insn	2, 0x0b05
     ab4:	14097d03          	.insn	4, 0x14097d03
     ab8:	0100                	.insn	2, 0x0100
     aba:	0805                	.insn	2, 0x0805
     abc:	0200                	.insn	2, 0x0200
     abe:	0304                	.insn	2, 0x0304
     ac0:	04090303          	lb	x6,64(x18)
     ac4:	0100                	.insn	2, 0x0100
     ac6:	0b05                	.insn	2, 0x0b05
     ac8:	04090803          	lb	x16,64(x18)
     acc:	0100                	.insn	2, 0x0100
     ace:	2105                	.insn	2, 0x2105
     ad0:	0200                	.insn	2, 0x0200
     ad2:	0204                	.insn	2, 0x0204
     ad4:	04097a03          	.insn	4, 0x04097a03
     ad8:	0100                	.insn	2, 0x0100
     ada:	0505                	.insn	2, 0x0505
     adc:	0306                	.insn	2, 0x0306
     ade:	0902                	.insn	2, 0x0902
     ae0:	0004                	.insn	2, 0x0004
     ae2:	0501                	.insn	2, 0x0501
     ae4:	00030607          	.insn	4, 0x00030607
     ae8:	0009                	.insn	2, 0x0009
     aea:	0100                	.insn	2, 0x0100
     aec:	0505                	.insn	2, 0x0505
     aee:	0306                	.insn	2, 0x0306
     af0:	0901                	.insn	2, 0x0901
     af2:	0004                	.insn	2, 0x0004
     af4:	0301                	.insn	2, 0x0301
     af6:	0900                	.insn	2, 0x0900
     af8:	0000                	.insn	2, 0x
     afa:	0301                	.insn	2, 0x0301
     afc:	0900                	.insn	2, 0x0900
     afe:	0000                	.insn	2, 0x
     b00:	0301                	.insn	2, 0x0301
     b02:	0900                	.insn	2, 0x0900
     b04:	0000                	.insn	2, 0x
     b06:	0301                	.insn	2, 0x0301
     b08:	0900                	.insn	2, 0x0900
     b0a:	0000                	.insn	2, 0x
     b0c:	0501                	.insn	2, 0x0501
     b0e:	43030607          	.insn	4, 0x43030607
     b12:	0409                	.insn	2, 0x0409
     b14:	0100                	.insn	2, 0x0100
     b16:	04097f03          	.insn	4, 0x04097f03
     b1a:	0100                	.insn	2, 0x0100
     b1c:	0809                	.insn	2, 0x0809
     b1e:	0000                	.insn	2, 0x
     b20:	0101                	.insn	2, 0x0101
     b22:	0941                	.insn	2, 0x0941
     b24:	0000                	.insn	2, 0x
     b26:	0005                	.insn	2, 0x0005
     b28:	0004                	.insn	2, 0x0004
     b2a:	00000033          	add	x0,x0,x0
     b2e:	0101                	.insn	2, 0x0101
     b30:	fb01                	.insn	2, 0xfb01
     b32:	0d0e                	.insn	2, 0x0d0e
     b34:	0100                	.insn	2, 0x0100
     b36:	0101                	.insn	2, 0x0101
     b38:	0001                	.insn	2, 0x0001
     b3a:	0000                	.insn	2, 0x
     b3c:	0001                	.insn	2, 0x0001
     b3e:	0100                	.insn	2, 0x0100
     b40:	0101                	.insn	2, 0x0101
     b42:	021f 0000 0000      	.insn	6, 0x021f
     b48:	00c4                	.insn	2, 0x00c4
     b4a:	0000                	.insn	2, 0x
     b4c:	0102                	.insn	2, 0x0102
     b4e:	021f 030f 00ba      	.insn	6, 0x00ba030f021f
     b54:	0000                	.insn	2, 0x
     b56:	ba01                	.insn	2, 0xba01
     b58:	0000                	.insn	2, 0x
     b5a:	0100                	.insn	2, 0x0100
     b5c:	00e0                	.insn	2, 0x00e0
     b5e:	0000                	.insn	2, 0x
     b60:	0501                	.insn	2, 0x0501
     b62:	0001                	.insn	2, 0x0001
     b64:	0205                	.insn	2, 0x0205
     b66:	4cf0                	.insn	2, 0x4cf0
     b68:	8000                	.insn	2, 0x8000
     b6a:	010a8603          	lb	x12,16(x21)
     b6e:	0305                	.insn	2, 0x0305
     b70:	00090103          	lb	x2,0(x18)
     b74:	0100                	.insn	2, 0x0100
     b76:	00090203          	lb	x4,0(x18)
     b7a:	0100                	.insn	2, 0x0100
     b7c:	097ddb03          	lhu	x22,151(x27)
     b80:	0000                	.insn	2, 0x
     b82:	0301                	.insn	2, 0x0301
     b84:	0901                	.insn	2, 0x0901
     b86:	0000                	.insn	2, 0x
     b88:	0301                	.insn	2, 0x0301
     b8a:	0901                	.insn	2, 0x0901
     b8c:	0000                	.insn	2, 0x
     b8e:	0301                	.insn	2, 0x0301
     b90:	0901                	.insn	2, 0x0901
     b92:	0000                	.insn	2, 0x
     b94:	0301                	.insn	2, 0x0301
     b96:	0901                	.insn	2, 0x0901
     b98:	0000                	.insn	2, 0x
     b9a:	0301                	.insn	2, 0x0301
     b9c:	0901                	.insn	2, 0x0901
     b9e:	0000                	.insn	2, 0x
     ba0:	0301                	.insn	2, 0x0301
     ba2:	0902                	.insn	2, 0x0902
     ba4:	0000                	.insn	2, 0x
     ba6:	0301                	.insn	2, 0x0301
     ba8:	0901                	.insn	2, 0x0901
     baa:	0000                	.insn	2, 0x
     bac:	0301                	.insn	2, 0x0301
     bae:	0901                	.insn	2, 0x0901
     bb0:	0000                	.insn	2, 0x
     bb2:	0501                	.insn	2, 0x0501
     bb4:	0601                	.insn	2, 0x0601
     bb6:	09029903          	lh	x18,144(x5)
     bba:	0000                	.insn	2, 0x
     bbc:	0501                	.insn	2, 0x0501
     bbe:	0306                	.insn	2, 0x0306
     bc0:	34097de7          	.insn	4, 0x34097de7
     bc4:	0100                	.insn	2, 0x0100
     bc6:	0305                	.insn	2, 0x0305
     bc8:	0306                	.insn	2, 0x0306
     bca:	0901                	.insn	2, 0x0901
     bcc:	0004                	.insn	2, 0x0004
     bce:	0501                	.insn	2, 0x0501
     bd0:	0606                	.insn	2, 0x0606
     bd2:	00090003          	lb	x0,0(x18)
     bd6:	0100                	.insn	2, 0x0100
     bd8:	0305                	.insn	2, 0x0305
     bda:	0306                	.insn	2, 0x0306
     bdc:	0925                	.insn	2, 0x0925
     bde:	0004                	.insn	2, 0x0004
     be0:	0501                	.insn	2, 0x0501
     be2:	0606                	.insn	2, 0x0606
     be4:	00090003          	lb	x0,0(x18)
     be8:	0100                	.insn	2, 0x0100
     bea:	0705                	.insn	2, 0x0705
     bec:	0306                	.insn	2, 0x0306
     bee:	0902                	.insn	2, 0x0902
     bf0:	000c                	.insn	2, 0x000c
     bf2:	0501                	.insn	2, 0x0501
     bf4:	060a                	.insn	2, 0x060a
     bf6:	04090003          	lb	x0,64(x18)
     bfa:	0100                	.insn	2, 0x0100
     bfc:	0405                	.insn	2, 0x0405
     bfe:	0306                	.insn	2, 0x0306
     c00:	0904                	.insn	2, 0x0904
     c02:	0004                	.insn	2, 0x0004
     c04:	0301                	.insn	2, 0x0301
     c06:	0900                	.insn	2, 0x0900
     c08:	0000                	.insn	2, 0x
     c0a:	0301                	.insn	2, 0x0301
     c0c:	0900                	.insn	2, 0x0900
     c0e:	0000                	.insn	2, 0x
     c10:	0301                	.insn	2, 0x0301
     c12:	0900                	.insn	2, 0x0900
     c14:	0000                	.insn	2, 0x
     c16:	0001                	.insn	2, 0x0001
     c18:	0402                	.insn	2, 0x0402
     c1a:	0301                	.insn	2, 0x0301
     c1c:	0900                	.insn	2, 0x0900
     c1e:	0000                	.insn	2, 0x
     c20:	0001                	.insn	2, 0x0001
     c22:	0402                	.insn	2, 0x0402
     c24:	00030603          	lb	x12,0(x6)
     c28:	0809                	.insn	2, 0x0809
     c2a:	0100                	.insn	2, 0x0100
     c2c:	0200                	.insn	2, 0x0200
     c2e:	1504                	.insn	2, 0x1504
     c30:	0306                	.insn	2, 0x0306
     c32:	0900                	.insn	2, 0x0900
     c34:	000c                	.insn	2, 0x000c
     c36:	0001                	.insn	2, 0x0001
     c38:	0402                	.insn	2, 0x0402
     c3a:	0315                	.insn	2, 0x0315
     c3c:	0900                	.insn	2, 0x0900
     c3e:	0018                	.insn	2, 0x0018
     c40:	0301                	.insn	2, 0x0301
     c42:	0902                	.insn	2, 0x0902
     c44:	0000                	.insn	2, 0x
     c46:	0501                	.insn	2, 0x0501
     c48:	00030607          	.insn	4, 0x00030607
     c4c:	0009                	.insn	2, 0x0009
     c4e:	0100                	.insn	2, 0x0100
     c50:	0805                	.insn	2, 0x0805
     c52:	0306                	.insn	2, 0x0306
     c54:	0905                	.insn	2, 0x0905
     c56:	0004                	.insn	2, 0x0004
     c58:	0501                	.insn	2, 0x0501
     c5a:	0611                	.insn	2, 0x0611
     c5c:	00090103          	lb	x2,0(x18)
     c60:	0100                	.insn	2, 0x0100
     c62:	1e05                	.insn	2, 0x1e05
     c64:	04090003          	lb	x0,64(x18)
     c68:	0100                	.insn	2, 0x0100
     c6a:	0b05                	.insn	2, 0x0b05
     c6c:	04097f03          	.insn	4, 0x04097f03
     c70:	0100                	.insn	2, 0x0100
     c72:	0805                	.insn	2, 0x0805
     c74:	0306                	.insn	2, 0x0306
     c76:	0901                	.insn	2, 0x0901
     c78:	0004                	.insn	2, 0x0004
     c7a:	0501                	.insn	2, 0x0501
     c7c:	0003060b          	.insn	4, 0x0003060b
     c80:	0009                	.insn	2, 0x0009
     c82:	0100                	.insn	2, 0x0100
     c84:	0805                	.insn	2, 0x0805
     c86:	0306                	.insn	2, 0x0306
     c88:	0901                	.insn	2, 0x0901
     c8a:	0004                	.insn	2, 0x0004
     c8c:	0501                	.insn	2, 0x0501
     c8e:	0003060b          	.insn	4, 0x0003060b
     c92:	0009                	.insn	2, 0x0009
     c94:	0100                	.insn	2, 0x0100
     c96:	0405                	.insn	2, 0x0405
     c98:	0306                	.insn	2, 0x0306
     c9a:	00040903          	lb	x18,0(x8)
     c9e:	0301                	.insn	2, 0x0301
     ca0:	0900                	.insn	2, 0x0900
     ca2:	0000                	.insn	2, 0x
     ca4:	0301                	.insn	2, 0x0301
     ca6:	0900                	.insn	2, 0x0900
     ca8:	0000                	.insn	2, 0x
     caa:	0301                	.insn	2, 0x0301
     cac:	0900                	.insn	2, 0x0900
     cae:	0000                	.insn	2, 0x
     cb0:	0501                	.insn	2, 0x0501
     cb2:	0008                	.insn	2, 0x0008
     cb4:	0402                	.insn	2, 0x0402
     cb6:	0925030f          	.insn	4, 0x0925030f
     cba:	0000                	.insn	2, 0x
     cbc:	0501                	.insn	2, 0x0501
     cbe:	0304                	.insn	2, 0x0304
     cc0:	0905                	.insn	2, 0x0905
     cc2:	0000                	.insn	2, 0x
     cc4:	0301                	.insn	2, 0x0301
     cc6:	0900                	.insn	2, 0x0900
     cc8:	0000                	.insn	2, 0x
     cca:	0301                	.insn	2, 0x0301
     ccc:	0900                	.insn	2, 0x0900
     cce:	0000                	.insn	2, 0x
     cd0:	0301                	.insn	2, 0x0301
     cd2:	0900                	.insn	2, 0x0900
     cd4:	0000                	.insn	2, 0x
     cd6:	0301                	.insn	2, 0x0301
     cd8:	0900                	.insn	2, 0x0900
     cda:	0004                	.insn	2, 0x0004
     cdc:	0301                	.insn	2, 0x0301
     cde:	0900                	.insn	2, 0x0900
     ce0:	0014                	.insn	2, 0x0014
     ce2:	0301                	.insn	2, 0x0301
     ce4:	0900                	.insn	2, 0x0900
     ce6:	0000                	.insn	2, 0x
     ce8:	0301                	.insn	2, 0x0301
     cea:	0900                	.insn	2, 0x0900
     cec:	0000                	.insn	2, 0x
     cee:	0301                	.insn	2, 0x0301
     cf0:	0900                	.insn	2, 0x0900
     cf2:	000c                	.insn	2, 0x000c
     cf4:	0301                	.insn	2, 0x0301
     cf6:	0900                	.insn	2, 0x0900
     cf8:	0018                	.insn	2, 0x0018
     cfa:	0001                	.insn	2, 0x0001
     cfc:	0402                	.insn	2, 0x0402
     cfe:	0301                	.insn	2, 0x0301
     d00:	0900                	.insn	2, 0x0900
     d02:	0004                	.insn	2, 0x0004
     d04:	0001                	.insn	2, 0x0001
     d06:	0402                	.insn	2, 0x0402
     d08:	0301                	.insn	2, 0x0301
     d0a:	0900                	.insn	2, 0x0900
     d0c:	0004                	.insn	2, 0x0004
     d0e:	0001                	.insn	2, 0x0001
     d10:	0402                	.insn	2, 0x0402
     d12:	09000303          	lb	x6,144(x0) # 90 <_heap_size+0x90>
     d16:	0004                	.insn	2, 0x0004
     d18:	0001                	.insn	2, 0x0001
     d1a:	0402                	.insn	2, 0x0402
     d1c:	0305                	.insn	2, 0x0305
     d1e:	0900                	.insn	2, 0x0900
     d20:	0004                	.insn	2, 0x0004
     d22:	0001                	.insn	2, 0x0001
     d24:	0402                	.insn	2, 0x0402
     d26:	09000307          	.insn	4, 0x09000307
     d2a:	0004                	.insn	2, 0x0004
     d2c:	0001                	.insn	2, 0x0001
     d2e:	0402                	.insn	2, 0x0402
     d30:	09000307          	.insn	4, 0x09000307
     d34:	0004                	.insn	2, 0x0004
     d36:	0001                	.insn	2, 0x0001
     d38:	0402                	.insn	2, 0x0402
     d3a:	09000307          	.insn	4, 0x09000307
     d3e:	0000                	.insn	2, 0x
     d40:	0001                	.insn	2, 0x0001
     d42:	0402                	.insn	2, 0x0402
     d44:	09000307          	.insn	4, 0x09000307
     d48:	0000                	.insn	2, 0x
     d4a:	0001                	.insn	2, 0x0001
     d4c:	0402                	.insn	2, 0x0402
     d4e:	09000307          	.insn	4, 0x09000307
     d52:	0018                	.insn	2, 0x0018
     d54:	0001                	.insn	2, 0x0001
     d56:	0402                	.insn	2, 0x0402
     d58:	09000307          	.insn	4, 0x09000307
     d5c:	001c                	.insn	2, 0x001c
     d5e:	0001                	.insn	2, 0x0001
     d60:	0402                	.insn	2, 0x0402
     d62:	0308                	.insn	2, 0x0308
     d64:	0900                	.insn	2, 0x0900
     d66:	0004                	.insn	2, 0x0004
     d68:	0001                	.insn	2, 0x0001
     d6a:	0402                	.insn	2, 0x0402
     d6c:	0308                	.insn	2, 0x0308
     d6e:	0900                	.insn	2, 0x0900
     d70:	0004                	.insn	2, 0x0004
     d72:	0001                	.insn	2, 0x0001
     d74:	0402                	.insn	2, 0x0402
     d76:	030a                	.insn	2, 0x030a
     d78:	0900                	.insn	2, 0x0900
     d7a:	0004                	.insn	2, 0x0004
     d7c:	0001                	.insn	2, 0x0001
     d7e:	0402                	.insn	2, 0x0402
     d80:	030c                	.insn	2, 0x030c
     d82:	0900                	.insn	2, 0x0900
     d84:	0004                	.insn	2, 0x0004
     d86:	0001                	.insn	2, 0x0001
     d88:	0402                	.insn	2, 0x0402
     d8a:	030e                	.insn	2, 0x030e
     d8c:	0900                	.insn	2, 0x0900
     d8e:	0004                	.insn	2, 0x0004
     d90:	0001                	.insn	2, 0x0001
     d92:	0402                	.insn	2, 0x0402
     d94:	030e                	.insn	2, 0x030e
     d96:	0900                	.insn	2, 0x0900
     d98:	0004                	.insn	2, 0x0004
     d9a:	0001                	.insn	2, 0x0001
     d9c:	0402                	.insn	2, 0x0402
     d9e:	030e                	.insn	2, 0x030e
     da0:	0900                	.insn	2, 0x0900
     da2:	0000                	.insn	2, 0x
     da4:	0001                	.insn	2, 0x0001
     da6:	0402                	.insn	2, 0x0402
     da8:	0900030f          	.insn	4, 0x0900030f
     dac:	0000                	.insn	2, 0x
     dae:	0501                	.insn	2, 0x0501
     db0:	09050307          	.insn	4, 0x09050307
     db4:	0000                	.insn	2, 0x
     db6:	0501                	.insn	2, 0x0501
     db8:	0304                	.insn	2, 0x0304
     dba:	0902                	.insn	2, 0x0902
     dbc:	0000                	.insn	2, 0x
     dbe:	0501                	.insn	2, 0x0501
     dc0:	0612                	.insn	2, 0x0612
     dc2:	00090003          	lb	x0,0(x18)
     dc6:	0100                	.insn	2, 0x0100
     dc8:	0405                	.insn	2, 0x0405
     dca:	0306                	.insn	2, 0x0306
     dcc:	0901                	.insn	2, 0x0901
     dce:	0004                	.insn	2, 0x0004
     dd0:	0301                	.insn	2, 0x0301
     dd2:	0901                	.insn	2, 0x0901
     dd4:	0000                	.insn	2, 0x
     dd6:	0501                	.insn	2, 0x0501
     dd8:	060c                	.insn	2, 0x060c
     dda:	00090003          	lb	x0,0(x18)
     dde:	0100                	.insn	2, 0x0100
     de0:	0305                	.insn	2, 0x0305
     de2:	0306                	.insn	2, 0x0306
     de4:	00da                	.insn	2, 0x00da
     de6:	0409                	.insn	2, 0x0409
     de8:	0100                	.insn	2, 0x0100
     dea:	00090103          	lb	x2,0(x18)
     dee:	0100                	.insn	2, 0x0100
     df0:	0900d803          	lhu	x16,144(x1)
     df4:	0000                	.insn	2, 0x
     df6:	0501                	.insn	2, 0x0501
     df8:	0601                	.insn	2, 0x0601
     dfa:	00090103          	lb	x2,0(x18)
     dfe:	0100                	.insn	2, 0x0100
     e00:	0405                	.insn	2, 0x0405
     e02:	0200                	.insn	2, 0x0200
     e04:	0404                	.insn	2, 0x0404
     e06:	097e8d03          	lb	x26,151(x29)
     e0a:	0038                	.insn	2, 0x0038
     e0c:	0001                	.insn	2, 0x0001
     e0e:	0402                	.insn	2, 0x0402
     e10:	0900030b          	.insn	4, 0x0900030b
     e14:	0004                	.insn	2, 0x0004
     e16:	0001                	.insn	2, 0x0001
     e18:	0402                	.insn	2, 0x0402
     e1a:	0304                	.insn	2, 0x0304
     e1c:	0900                	.insn	2, 0x0900
     e1e:	0004                	.insn	2, 0x0004
     e20:	0001                	.insn	2, 0x0001
     e22:	0402                	.insn	2, 0x0402
     e24:	030a                	.insn	2, 0x030a
     e26:	0900                	.insn	2, 0x0900
     e28:	0004                	.insn	2, 0x0004
     e2a:	0601                	.insn	2, 0x0601
     e2c:	08091503          	lh	x10,128(x18)
     e30:	0100                	.insn	2, 0x0100
     e32:	0200                	.insn	2, 0x0200
     e34:	0504                	.insn	2, 0x0504
     e36:	0306                	.insn	2, 0x0306
     e38:	00000903          	lb	x18,0(x0) # 0 <_heap_size>
     e3c:	0501                	.insn	2, 0x0501
     e3e:	097d0307          	.insn	4, 0x097d0307
     e42:	0004                	.insn	2, 0x0004
     e44:	0501                	.insn	2, 0x0501
     e46:	0604                	.insn	2, 0x0604
     e48:	04090303          	lb	x6,64(x18)
     e4c:	0100                	.insn	2, 0x0100
     e4e:	00090003          	lb	x0,0(x18)
     e52:	0100                	.insn	2, 0x0100
     e54:	00090003          	lb	x0,0(x18)
     e58:	0100                	.insn	2, 0x0100
     e5a:	00090003          	lb	x0,0(x18)
     e5e:	0100                	.insn	2, 0x0100
     e60:	0200                	.insn	2, 0x0200
     e62:	0104                	.insn	2, 0x0104
     e64:	00090003          	lb	x0,0(x18)
     e68:	0100                	.insn	2, 0x0100
     e6a:	0200                	.insn	2, 0x0200
     e6c:	0304                	.insn	2, 0x0304
     e6e:	0306                	.insn	2, 0x0306
     e70:	0900                	.insn	2, 0x0900
     e72:	0008                	.insn	2, 0x0008
     e74:	0001                	.insn	2, 0x0001
     e76:	0402                	.insn	2, 0x0402
     e78:	0615                	.insn	2, 0x0615
     e7a:	0c090003          	lb	x0,192(x18)
     e7e:	0100                	.insn	2, 0x0100
     e80:	0b05                	.insn	2, 0x0b05
     e82:	0306                	.insn	2, 0x0306
     e84:	000c090b          	.insn	4, 0x000c090b
     e88:	0501                	.insn	2, 0x0501
     e8a:	0004                	.insn	2, 0x0004
     e8c:	0402                	.insn	2, 0x0402
     e8e:	0315                	.insn	2, 0x0315
     e90:	0975                	.insn	2, 0x0975
     e92:	0004                	.insn	2, 0x0004
     e94:	0001                	.insn	2, 0x0001
     e96:	0402                	.insn	2, 0x0402
     e98:	0615                	.insn	2, 0x0615
     e9a:	0c090003          	lb	x0,192(x18)
     e9e:	0100                	.insn	2, 0x0100
     ea0:	00090203          	lb	x4,0(x18)
     ea4:	0100                	.insn	2, 0x0100
     ea6:	0705                	.insn	2, 0x0705
     ea8:	0306                	.insn	2, 0x0306
     eaa:	0900                	.insn	2, 0x0900
     eac:	0000                	.insn	2, 0x
     eae:	0501                	.insn	2, 0x0501
     eb0:	0608                	.insn	2, 0x0608
     eb2:	04091003          	lh	x0,64(x18)
     eb6:	0100                	.insn	2, 0x0100
     eb8:	00090203          	lb	x4,0(x18)
     ebc:	0100                	.insn	2, 0x0100
     ebe:	0b05                	.insn	2, 0x0b05
     ec0:	0306                	.insn	2, 0x0306
     ec2:	0900                	.insn	2, 0x0900
     ec4:	0000                	.insn	2, 0x
     ec6:	0501                	.insn	2, 0x0501
     ec8:	0608                	.insn	2, 0x0608
     eca:	04090103          	lb	x2,64(x18)
     ece:	0100                	.insn	2, 0x0100
     ed0:	0b05                	.insn	2, 0x0b05
     ed2:	0306                	.insn	2, 0x0306
     ed4:	0900                	.insn	2, 0x0900
     ed6:	0000                	.insn	2, 0x
     ed8:	0501                	.insn	2, 0x0501
     eda:	0608                	.insn	2, 0x0608
     edc:	04090103          	lb	x2,64(x18)
     ee0:	0100                	.insn	2, 0x0100
     ee2:	0306                	.insn	2, 0x0306
     ee4:	00000903          	lb	x18,0(x0) # 0 <_heap_size>
     ee8:	0501                	.insn	2, 0x0501
     eea:	031e                	.insn	2, 0x031e
     eec:	097d                	.insn	2, 0x097d
     eee:	0004                	.insn	2, 0x0004
     ef0:	0501                	.insn	2, 0x0501
     ef2:	0311                	.insn	2, 0x0311
     ef4:	0900                	.insn	2, 0x0900
     ef6:	0004                	.insn	2, 0x0004
     ef8:	0501                	.insn	2, 0x0501
     efa:	0900030b          	.insn	4, 0x0900030b
     efe:	0004                	.insn	2, 0x0004
     f00:	0501                	.insn	2, 0x0501
     f02:	0608                	.insn	2, 0x0608
     f04:	04090103          	lb	x2,64(x18)
     f08:	0100                	.insn	2, 0x0100
     f0a:	0b05                	.insn	2, 0x0b05
     f0c:	0306                	.insn	2, 0x0306
     f0e:	0900                	.insn	2, 0x0900
     f10:	0000                	.insn	2, 0x
     f12:	0501                	.insn	2, 0x0501
     f14:	0608                	.insn	2, 0x0608
     f16:	04090203          	lb	x4,64(x18)
     f1a:	0100                	.insn	2, 0x0100
     f1c:	00090003          	lb	x0,0(x18)
     f20:	0100                	.insn	2, 0x0100
     f22:	00090003          	lb	x0,0(x18)
     f26:	0100                	.insn	2, 0x0100
     f28:	00090003          	lb	x0,0(x18)
     f2c:	0100                	.insn	2, 0x0100
     f2e:	00090003          	lb	x0,0(x18)
     f32:	0100                	.insn	2, 0x0100
     f34:	14090003          	lb	x0,320(x18)
     f38:	0100                	.insn	2, 0x0100
     f3a:	00090003          	lb	x0,0(x18)
     f3e:	0100                	.insn	2, 0x0100
     f40:	00090003          	lb	x0,0(x18)
     f44:	0100                	.insn	2, 0x0100
     f46:	0c090003          	lb	x0,192(x18)
     f4a:	0100                	.insn	2, 0x0100
     f4c:	18090003          	lb	x0,384(x18)
     f50:	0100                	.insn	2, 0x0100
     f52:	0200                	.insn	2, 0x0200
     f54:	0104                	.insn	2, 0x0104
     f56:	04090003          	lb	x0,64(x18)
     f5a:	0100                	.insn	2, 0x0100
     f5c:	0200                	.insn	2, 0x0200
     f5e:	0104                	.insn	2, 0x0104
     f60:	04090003          	lb	x0,64(x18)
     f64:	0100                	.insn	2, 0x0100
     f66:	0200                	.insn	2, 0x0200
     f68:	0304                	.insn	2, 0x0304
     f6a:	04090003          	lb	x0,64(x18)
     f6e:	0100                	.insn	2, 0x0100
     f70:	0200                	.insn	2, 0x0200
     f72:	0504                	.insn	2, 0x0504
     f74:	04090003          	lb	x0,64(x18)
     f78:	0100                	.insn	2, 0x0100
     f7a:	0200                	.insn	2, 0x0200
     f7c:	0704                	.insn	2, 0x0704
     f7e:	04090003          	lb	x0,64(x18)
     f82:	0100                	.insn	2, 0x0100
     f84:	0200                	.insn	2, 0x0200
     f86:	0704                	.insn	2, 0x0704
     f88:	04090003          	lb	x0,64(x18)
     f8c:	0100                	.insn	2, 0x0100
     f8e:	0200                	.insn	2, 0x0200
     f90:	0704                	.insn	2, 0x0704
     f92:	00090003          	lb	x0,0(x18)
     f96:	0100                	.insn	2, 0x0100
     f98:	0200                	.insn	2, 0x0200
     f9a:	0704                	.insn	2, 0x0704
     f9c:	00090003          	lb	x0,0(x18)
     fa0:	0100                	.insn	2, 0x0100
     fa2:	0200                	.insn	2, 0x0200
     fa4:	0704                	.insn	2, 0x0704
     fa6:	18090003          	lb	x0,384(x18)
     faa:	0100                	.insn	2, 0x0100
     fac:	0200                	.insn	2, 0x0200
     fae:	0704                	.insn	2, 0x0704
     fb0:	1c090003          	lb	x0,448(x18)
     fb4:	0100                	.insn	2, 0x0100
     fb6:	0200                	.insn	2, 0x0200
     fb8:	0804                	.insn	2, 0x0804
     fba:	04090003          	lb	x0,64(x18)
     fbe:	0100                	.insn	2, 0x0100
     fc0:	0200                	.insn	2, 0x0200
     fc2:	0804                	.insn	2, 0x0804
     fc4:	04090003          	lb	x0,64(x18)
     fc8:	0100                	.insn	2, 0x0100
     fca:	0200                	.insn	2, 0x0200
     fcc:	0a04                	.insn	2, 0x0a04
     fce:	04090003          	lb	x0,64(x18)
     fd2:	0100                	.insn	2, 0x0100
     fd4:	0200                	.insn	2, 0x0200
     fd6:	0c04                	.insn	2, 0x0c04
     fd8:	04090003          	lb	x0,64(x18)
     fdc:	0100                	.insn	2, 0x0100
     fde:	0200                	.insn	2, 0x0200
     fe0:	0e04                	.insn	2, 0x0e04
     fe2:	04090003          	lb	x0,64(x18)
     fe6:	0100                	.insn	2, 0x0100
     fe8:	0200                	.insn	2, 0x0200
     fea:	0e04                	.insn	2, 0x0e04
     fec:	04090003          	lb	x0,64(x18)
     ff0:	0100                	.insn	2, 0x0100
     ff2:	0200                	.insn	2, 0x0200
     ff4:	0e04                	.insn	2, 0x0e04
     ff6:	00090003          	lb	x0,0(x18)
     ffa:	0100                	.insn	2, 0x0100
     ffc:	0405                	.insn	2, 0x0405
     ffe:	0200                	.insn	2, 0x0200
    1000:	0404                	.insn	2, 0x0404
    1002:	0306                	.insn	2, 0x0306
    1004:	00040967          	jalr	x18,0(x8)
    1008:	0001                	.insn	2, 0x0001
    100a:	0402                	.insn	2, 0x0402
    100c:	0900030b          	.insn	4, 0x0900030b
    1010:	0004                	.insn	2, 0x0004
    1012:	0001                	.insn	2, 0x0001
    1014:	0402                	.insn	2, 0x0402
    1016:	0304                	.insn	2, 0x0304
    1018:	0900                	.insn	2, 0x0900
    101a:	0004                	.insn	2, 0x0004
    101c:	0001                	.insn	2, 0x0001
    101e:	0402                	.insn	2, 0x0402
    1020:	030a                	.insn	2, 0x030a
    1022:	0900                	.insn	2, 0x0900
    1024:	0004                	.insn	2, 0x0004
    1026:	0501                	.insn	2, 0x0501
    1028:	2e030607          	.insn	4, 0x2e030607
    102c:	0809                	.insn	2, 0x0809
    102e:	0100                	.insn	2, 0x0100
    1030:	0a05                	.insn	2, 0x0a05
    1032:	0306                	.insn	2, 0x0306
    1034:	0900                	.insn	2, 0x0900
    1036:	0000                	.insn	2, 0x
    1038:	0501                	.insn	2, 0x0501
    103a:	0604                	.insn	2, 0x0604
    103c:	04091303          	lh	x6,64(x18)
    1040:	0100                	.insn	2, 0x0100
    1042:	00090003          	lb	x0,0(x18)
    1046:	0100                	.insn	2, 0x0100
    1048:	00090003          	lb	x0,0(x18)
    104c:	0100                	.insn	2, 0x0100
    104e:	00090003          	lb	x0,0(x18)
    1052:	0100                	.insn	2, 0x0100
    1054:	0200                	.insn	2, 0x0200
    1056:	0104                	.insn	2, 0x0104
    1058:	00090003          	lb	x0,0(x18)
    105c:	0100                	.insn	2, 0x0100
    105e:	0200                	.insn	2, 0x0200
    1060:	0304                	.insn	2, 0x0304
    1062:	0306                	.insn	2, 0x0306
    1064:	0900                	.insn	2, 0x0900
    1066:	0008                	.insn	2, 0x0008
    1068:	0001                	.insn	2, 0x0001
    106a:	0402                	.insn	2, 0x0402
    106c:	0615                	.insn	2, 0x0615
    106e:	0c090003          	lb	x0,192(x18)
    1072:	0100                	.insn	2, 0x0100
    1074:	0200                	.insn	2, 0x0200
    1076:	1504                	.insn	2, 0x1504
    1078:	20090003          	lb	x0,512(x18)
    107c:	0100                	.insn	2, 0x0100
    107e:	00090103          	lb	x2,0(x18)
    1082:	0100                	.insn	2, 0x0100
    1084:	0705                	.insn	2, 0x0705
    1086:	0306                	.insn	2, 0x0306
    1088:	0900                	.insn	2, 0x0900
    108a:	0000                	.insn	2, 0x
    108c:	0501                	.insn	2, 0x0501
    108e:	0608                	.insn	2, 0x0608
    1090:	04090a03          	lb	x20,64(x18)
    1094:	0100                	.insn	2, 0x0100
    1096:	0b05                	.insn	2, 0x0b05
    1098:	0306                	.insn	2, 0x0306
    109a:	0900                	.insn	2, 0x0900
    109c:	0000                	.insn	2, 0x
    109e:	0501                	.insn	2, 0x0501
    10a0:	0014                	.insn	2, 0x0014
    10a2:	0402                	.insn	2, 0x0402
    10a4:	0301                	.insn	2, 0x0301
    10a6:	0900                	.insn	2, 0x0900
    10a8:	0004                	.insn	2, 0x0004
    10aa:	0501                	.insn	2, 0x0501
    10ac:	0605                	.insn	2, 0x0605
    10ae:	04090203          	lb	x4,64(x18)
    10b2:	0100                	.insn	2, 0x0100
    10b4:	00090103          	lb	x2,0(x18)
    10b8:	0100                	.insn	2, 0x0100
    10ba:	00090003          	lb	x0,0(x18)
    10be:	0100                	.insn	2, 0x0100
    10c0:	00090003          	lb	x0,0(x18)
    10c4:	0100                	.insn	2, 0x0100
    10c6:	10090003          	lb	x0,256(x18)
    10ca:	0100                	.insn	2, 0x0100
    10cc:	04090003          	lb	x0,64(x18)
    10d0:	0100                	.insn	2, 0x0100
    10d2:	00090003          	lb	x0,0(x18)
    10d6:	0100                	.insn	2, 0x0100
    10d8:	0805                	.insn	2, 0x0805
    10da:	00090503          	lb	x10,0(x18)
    10de:	0100                	.insn	2, 0x0100
    10e0:	00090203          	lb	x4,0(x18)
    10e4:	0100                	.insn	2, 0x0100
    10e6:	0505                	.insn	2, 0x0505
    10e8:	00090203          	lb	x4,0(x18)
    10ec:	0100                	.insn	2, 0x0100
    10ee:	00090103          	lb	x2,0(x18)
    10f2:	0100                	.insn	2, 0x0100
    10f4:	00090103          	lb	x2,0(x18)
    10f8:	0100                	.insn	2, 0x0100
    10fa:	0d05                	.insn	2, 0x0d05
    10fc:	0306                	.insn	2, 0x0306
    10fe:	0900                	.insn	2, 0x0900
    1100:	0000                	.insn	2, 0x
    1102:	0501                	.insn	2, 0x0501
    1104:	0004                	.insn	2, 0x0004
    1106:	0402                	.insn	2, 0x0402
    1108:	0304                	.insn	2, 0x0304
    110a:	000c0967          	jalr	x18,0(x24)
    110e:	0001                	.insn	2, 0x0001
    1110:	0402                	.insn	2, 0x0402
    1112:	0900030b          	.insn	4, 0x0900030b
    1116:	0004                	.insn	2, 0x0004
    1118:	0001                	.insn	2, 0x0001
    111a:	0402                	.insn	2, 0x0402
    111c:	0304                	.insn	2, 0x0304
    111e:	0900                	.insn	2, 0x0900
    1120:	0004                	.insn	2, 0x0004
    1122:	0001                	.insn	2, 0x0001
    1124:	0402                	.insn	2, 0x0402
    1126:	030a                	.insn	2, 0x030a
    1128:	0900                	.insn	2, 0x0900
    112a:	0004                	.insn	2, 0x0004
    112c:	0501                	.insn	2, 0x0501
    112e:	0608                	.insn	2, 0x0608
    1130:	08091e03          	lh	x28,128(x18)
    1134:	0100                	.insn	2, 0x0100
    1136:	00090303          	lb	x6,0(x18)
    113a:	0100                	.insn	2, 0x0100
    113c:	00090203          	lb	x4,0(x18)
    1140:	0100                	.insn	2, 0x0100
    1142:	1105                	.insn	2, 0x1105
    1144:	0306                	.insn	2, 0x0306
    1146:	0900                	.insn	2, 0x0900
    1148:	0000                	.insn	2, 0x
    114a:	0501                	.insn	2, 0x0501
    114c:	031e                	.insn	2, 0x031e
    114e:	0900                	.insn	2, 0x0900
    1150:	0004                	.insn	2, 0x0004
    1152:	0501                	.insn	2, 0x0501
    1154:	0900030b          	.insn	4, 0x0900030b
    1158:	0004                	.insn	2, 0x0004
    115a:	0501                	.insn	2, 0x0501
    115c:	0608                	.insn	2, 0x0608
    115e:	04090103          	lb	x2,64(x18)
    1162:	0100                	.insn	2, 0x0100
    1164:	0b05                	.insn	2, 0x0b05
    1166:	0306                	.insn	2, 0x0306
    1168:	0901                	.insn	2, 0x0901
    116a:	0000                	.insn	2, 0x
    116c:	0501                	.insn	2, 0x0501
    116e:	031e                	.insn	2, 0x031e
    1170:	0901                	.insn	2, 0x0901
    1172:	0004                	.insn	2, 0x0004
    1174:	0501                	.insn	2, 0x0501
    1176:	0311                	.insn	2, 0x0311
    1178:	0900                	.insn	2, 0x0900
    117a:	0004                	.insn	2, 0x0004
    117c:	0501                	.insn	2, 0x0501
    117e:	0308                	.insn	2, 0x0308
    1180:	00040903          	lb	x18,0(x8)
    1184:	0501                	.insn	2, 0x0501
    1186:	097d030b          	.insn	4, 0x097d030b
    118a:	0004                	.insn	2, 0x0004
    118c:	0301                	.insn	2, 0x0301
    118e:	0901                	.insn	2, 0x0901
    1190:	0004                	.insn	2, 0x0004
    1192:	0501                	.insn	2, 0x0501
    1194:	0308                	.insn	2, 0x0308
    1196:	0902                	.insn	2, 0x0902
    1198:	0004                	.insn	2, 0x0004
    119a:	0501                	.insn	2, 0x0501
    119c:	097b030b          	.insn	4, 0x097b030b
    11a0:	000c                	.insn	2, 0x000c
    11a2:	0501                	.insn	2, 0x0501
    11a4:	0608                	.insn	2, 0x0608
    11a6:	04090103          	lb	x2,64(x18)
    11aa:	0100                	.insn	2, 0x0100
    11ac:	00090103          	lb	x2,0(x18)
    11b0:	0100                	.insn	2, 0x0100
    11b2:	00090103          	lb	x2,0(x18)
    11b6:	0100                	.insn	2, 0x0100
    11b8:	00090203          	lb	x4,0(x18)
    11bc:	0100                	.insn	2, 0x0100
    11be:	00090003          	lb	x0,0(x18)
    11c2:	0100                	.insn	2, 0x0100
    11c4:	00090003          	lb	x0,0(x18)
    11c8:	0100                	.insn	2, 0x0100
    11ca:	00090003          	lb	x0,0(x18)
    11ce:	0100                	.insn	2, 0x0100
    11d0:	00090003          	lb	x0,0(x18)
    11d4:	0100                	.insn	2, 0x0100
    11d6:	04090003          	lb	x0,64(x18)
    11da:	0100                	.insn	2, 0x0100
    11dc:	00090003          	lb	x0,0(x18)
    11e0:	0100                	.insn	2, 0x0100
    11e2:	0c090003          	lb	x0,192(x18)
    11e6:	0100                	.insn	2, 0x0100
    11e8:	0c090003          	lb	x0,192(x18)
    11ec:	0100                	.insn	2, 0x0100
    11ee:	18090003          	lb	x0,384(x18)
    11f2:	0100                	.insn	2, 0x0100
    11f4:	0200                	.insn	2, 0x0200
    11f6:	0104                	.insn	2, 0x0104
    11f8:	08090003          	lb	x0,128(x18)
    11fc:	0100                	.insn	2, 0x0100
    11fe:	0200                	.insn	2, 0x0200
    1200:	0104                	.insn	2, 0x0104
    1202:	08090003          	lb	x0,128(x18)
    1206:	0100                	.insn	2, 0x0100
    1208:	0200                	.insn	2, 0x0200
    120a:	0304                	.insn	2, 0x0304
    120c:	04090003          	lb	x0,64(x18)
    1210:	0100                	.insn	2, 0x0100
    1212:	0200                	.insn	2, 0x0200
    1214:	0504                	.insn	2, 0x0504
    1216:	04090003          	lb	x0,64(x18)
    121a:	0100                	.insn	2, 0x0100
    121c:	0200                	.insn	2, 0x0200
    121e:	0704                	.insn	2, 0x0704
    1220:	08090003          	lb	x0,128(x18)
    1224:	0100                	.insn	2, 0x0100
    1226:	0200                	.insn	2, 0x0200
    1228:	0704                	.insn	2, 0x0704
    122a:	04090003          	lb	x0,64(x18)
    122e:	0100                	.insn	2, 0x0100
    1230:	0200                	.insn	2, 0x0200
    1232:	0704                	.insn	2, 0x0704
    1234:	00090003          	lb	x0,0(x18)
    1238:	0100                	.insn	2, 0x0100
    123a:	0200                	.insn	2, 0x0200
    123c:	0704                	.insn	2, 0x0704
    123e:	14090003          	lb	x0,320(x18)
    1242:	0100                	.insn	2, 0x0100
    1244:	0200                	.insn	2, 0x0200
    1246:	0704                	.insn	2, 0x0704
    1248:	10090003          	lb	x0,256(x18)
    124c:	0100                	.insn	2, 0x0100
    124e:	0200                	.insn	2, 0x0200
    1250:	0704                	.insn	2, 0x0704
    1252:	18090003          	lb	x0,384(x18)
    1256:	0100                	.insn	2, 0x0100
    1258:	0200                	.insn	2, 0x0200
    125a:	0804                	.insn	2, 0x0804
    125c:	08090003          	lb	x0,128(x18)
    1260:	0100                	.insn	2, 0x0100
    1262:	0200                	.insn	2, 0x0200
    1264:	0804                	.insn	2, 0x0804
    1266:	08090003          	lb	x0,128(x18)
    126a:	0100                	.insn	2, 0x0100
    126c:	0200                	.insn	2, 0x0200
    126e:	0a04                	.insn	2, 0x0a04
    1270:	04090003          	lb	x0,64(x18)
    1274:	0100                	.insn	2, 0x0100
    1276:	0200                	.insn	2, 0x0200
    1278:	0c04                	.insn	2, 0x0c04
    127a:	04090003          	lb	x0,64(x18)
    127e:	0100                	.insn	2, 0x0100
    1280:	0200                	.insn	2, 0x0200
    1282:	0e04                	.insn	2, 0x0e04
    1284:	08090003          	lb	x0,128(x18)
    1288:	0100                	.insn	2, 0x0100
    128a:	0306                	.insn	2, 0x0306
    128c:	0901                	.insn	2, 0x0901
    128e:	0000                	.insn	2, 0x
    1290:	0001                	.insn	2, 0x0001
    1292:	0402                	.insn	2, 0x0402
    1294:	030e                	.insn	2, 0x030e
    1296:	097f 0004 0301 0901 	.insn	10, 0x0008090103010004097f
    129e:	0008 
    12a0:	0001                	.insn	2, 0x0001
    12a2:	0402                	.insn	2, 0x0402
    12a4:	030e                	.insn	2, 0x030e
    12a6:	097f 000c 0001 0402 	.insn	10, 0x060e04020001000c097f
    12ae:	060e 
    12b0:	04090003          	lb	x0,64(x18)
    12b4:	0100                	.insn	2, 0x0100
    12b6:	0200                	.insn	2, 0x0200
    12b8:	0e04                	.insn	2, 0x0e04
    12ba:	00090003          	lb	x0,0(x18)
    12be:	0100                	.insn	2, 0x0100
    12c0:	0200                	.insn	2, 0x0200
    12c2:	0e04                	.insn	2, 0x0e04
    12c4:	00090003          	lb	x0,0(x18)
    12c8:	0100                	.insn	2, 0x0100
    12ca:	00090103          	lb	x2,0(x18)
    12ce:	0100                	.insn	2, 0x0100
    12d0:	00090003          	lb	x0,0(x18)
    12d4:	0100                	.insn	2, 0x0100
    12d6:	00090003          	lb	x0,0(x18)
    12da:	0100                	.insn	2, 0x0100
    12dc:	00090003          	lb	x0,0(x18)
    12e0:	0100                	.insn	2, 0x0100
    12e2:	00090003          	lb	x0,0(x18)
    12e6:	0100                	.insn	2, 0x0100
    12e8:	04090003          	lb	x0,64(x18)
    12ec:	0100                	.insn	2, 0x0100
    12ee:	00090003          	lb	x0,0(x18)
    12f2:	0100                	.insn	2, 0x0100
    12f4:	04090003          	lb	x0,64(x18)
    12f8:	0100                	.insn	2, 0x0100
    12fa:	00090003          	lb	x0,0(x18)
    12fe:	0100                	.insn	2, 0x0100
    1300:	04090003          	lb	x0,64(x18)
    1304:	0100                	.insn	2, 0x0100
    1306:	04090003          	lb	x0,64(x18)
    130a:	0100                	.insn	2, 0x0100
    130c:	04090003          	lb	x0,64(x18)
    1310:	0100                	.insn	2, 0x0100
    1312:	04090003          	lb	x0,64(x18)
    1316:	0100                	.insn	2, 0x0100
    1318:	00090003          	lb	x0,0(x18)
    131c:	0100                	.insn	2, 0x0100
    131e:	08090003          	lb	x0,128(x18)
    1322:	0100                	.insn	2, 0x0100
    1324:	00090003          	lb	x0,0(x18)
    1328:	0100                	.insn	2, 0x0100
    132a:	04090003          	lb	x0,64(x18)
    132e:	0100                	.insn	2, 0x0100
    1330:	04090003          	lb	x0,64(x18)
    1334:	0100                	.insn	2, 0x0100
    1336:	00090003          	lb	x0,0(x18)
    133a:	0100                	.insn	2, 0x0100
    133c:	08090003          	lb	x0,128(x18)
    1340:	0100                	.insn	2, 0x0100
    1342:	00090003          	lb	x0,0(x18)
    1346:	0100                	.insn	2, 0x0100
    1348:	04090003          	lb	x0,64(x18)
    134c:	0100                	.insn	2, 0x0100
    134e:	04090003          	lb	x0,64(x18)
    1352:	0100                	.insn	2, 0x0100
    1354:	00090003          	lb	x0,0(x18)
    1358:	0100                	.insn	2, 0x0100
    135a:	08090003          	lb	x0,128(x18)
    135e:	0100                	.insn	2, 0x0100
    1360:	00090003          	lb	x0,0(x18)
    1364:	0100                	.insn	2, 0x0100
    1366:	04090003          	lb	x0,64(x18)
    136a:	0100                	.insn	2, 0x0100
    136c:	10090003          	lb	x0,256(x18)
    1370:	0100                	.insn	2, 0x0100
    1372:	00090003          	lb	x0,0(x18)
    1376:	0100                	.insn	2, 0x0100
    1378:	00090003          	lb	x0,0(x18)
    137c:	0100                	.insn	2, 0x0100
    137e:	0200                	.insn	2, 0x0200
    1380:	0104                	.insn	2, 0x0104
    1382:	04090003          	lb	x0,64(x18)
    1386:	0100                	.insn	2, 0x0100
    1388:	0200                	.insn	2, 0x0200
    138a:	0304                	.insn	2, 0x0304
    138c:	04090003          	lb	x0,64(x18)
    1390:	0100                	.insn	2, 0x0100
    1392:	0200                	.insn	2, 0x0200
    1394:	0304                	.insn	2, 0x0304
    1396:	08090003          	lb	x0,128(x18)
    139a:	0100                	.insn	2, 0x0100
    139c:	0200                	.insn	2, 0x0200
    139e:	0304                	.insn	2, 0x0304
    13a0:	18090003          	lb	x0,384(x18)
    13a4:	0100                	.insn	2, 0x0100
    13a6:	00090203          	lb	x4,0(x18)
    13aa:	0100                	.insn	2, 0x0100
    13ac:	0b05                	.insn	2, 0x0b05
    13ae:	0306                	.insn	2, 0x0306
    13b0:	0900                	.insn	2, 0x0900
    13b2:	0000                	.insn	2, 0x
    13b4:	0501                	.insn	2, 0x0501
    13b6:	0014                	.insn	2, 0x0014
    13b8:	0402                	.insn	2, 0x0402
    13ba:	0301                	.insn	2, 0x0301
    13bc:	0900                	.insn	2, 0x0900
    13be:	0004                	.insn	2, 0x0004
    13c0:	0501                	.insn	2, 0x0501
    13c2:	0021                	.insn	2, 0x0021
    13c4:	0402                	.insn	2, 0x0402
    13c6:	0302                	.insn	2, 0x0302
    13c8:	0900                	.insn	2, 0x0900
    13ca:	0004                	.insn	2, 0x0004
    13cc:	0501                	.insn	2, 0x0501
    13ce:	0605                	.insn	2, 0x0605
    13d0:	04090203          	lb	x4,64(x18)
    13d4:	0100                	.insn	2, 0x0100
    13d6:	00090103          	lb	x2,0(x18)
    13da:	0100                	.insn	2, 0x0100
    13dc:	00090003          	lb	x0,0(x18)
    13e0:	0100                	.insn	2, 0x0100
    13e2:	00090003          	lb	x0,0(x18)
    13e6:	0100                	.insn	2, 0x0100
    13e8:	10090003          	lb	x0,256(x18)
    13ec:	0100                	.insn	2, 0x0100
    13ee:	04090003          	lb	x0,64(x18)
    13f2:	0100                	.insn	2, 0x0100
    13f4:	0200                	.insn	2, 0x0200
    13f6:	0104                	.insn	2, 0x0104
    13f8:	00090003          	lb	x0,0(x18)
    13fc:	0100                	.insn	2, 0x0100
    13fe:	0805                	.insn	2, 0x0805
    1400:	00090303          	lb	x6,0(x18)
    1404:	0100                	.insn	2, 0x0100
    1406:	00090303          	lb	x6,0(x18)
    140a:	0100                	.insn	2, 0x0100
    140c:	0505                	.insn	2, 0x0505
    140e:	00090203          	lb	x4,0(x18)
    1412:	0100                	.insn	2, 0x0100
    1414:	00090003          	lb	x0,0(x18)
    1418:	0100                	.insn	2, 0x0100
    141a:	00090003          	lb	x0,0(x18)
    141e:	0100                	.insn	2, 0x0100
    1420:	04090003          	lb	x0,64(x18)
    1424:	0100                	.insn	2, 0x0100
    1426:	0c090003          	lb	x0,192(x18)
    142a:	0100                	.insn	2, 0x0100
    142c:	00090003          	lb	x0,0(x18)
    1430:	0100                	.insn	2, 0x0100
    1432:	00090103          	lb	x2,0(x18)
    1436:	0100                	.insn	2, 0x0100
    1438:	1405                	.insn	2, 0x1405
    143a:	0306                	.insn	2, 0x0306
    143c:	0900                	.insn	2, 0x0900
    143e:	0000                	.insn	2, 0x
    1440:	0501                	.insn	2, 0x0501
    1442:	0320                	.insn	2, 0x0320
    1444:	0900                	.insn	2, 0x0900
    1446:	0004                	.insn	2, 0x0004
    1448:	0501                	.insn	2, 0x0501
    144a:	0605                	.insn	2, 0x0605
    144c:	04090103          	lb	x2,64(x18)
    1450:	0100                	.insn	2, 0x0100
    1452:	00090103          	lb	x2,0(x18)
    1456:	0100                	.insn	2, 0x0100
    1458:	0d05                	.insn	2, 0x0d05
    145a:	0306                	.insn	2, 0x0306
    145c:	0900                	.insn	2, 0x0900
    145e:	0000                	.insn	2, 0x
    1460:	0901                	.insn	2, 0x0901
    1462:	000c                	.insn	2, 0x000c
    1464:	0100                	.insn	2, 0x0100
    1466:	3b01                	.insn	2, 0x3b01
    1468:	0000                	.insn	2, 0x
    146a:	0500                	.insn	2, 0x0500
    146c:	0400                	.insn	2, 0x0400
    146e:	3300                	.insn	2, 0x3300
    1470:	0000                	.insn	2, 0x
    1472:	0100                	.insn	2, 0x0100
    1474:	0101                	.insn	2, 0x0101
    1476:	000d0efb          	.insn	4, 0x000d0efb
    147a:	0101                	.insn	2, 0x0101
    147c:	0101                	.insn	2, 0x0101
    147e:	0000                	.insn	2, 0x
    1480:	0100                	.insn	2, 0x0100
    1482:	0000                	.insn	2, 0x
    1484:	0101                	.insn	2, 0x0101
    1486:	1f01                	.insn	2, 0x1f01
    1488:	0002                	.insn	2, 0x0002
    148a:	0000                	.insn	2, 0x
    148c:	c400                	.insn	2, 0xc400
    148e:	0000                	.insn	2, 0x
    1490:	0200                	.insn	2, 0x0200
    1492:	1f01                	.insn	2, 0x1f01
    1494:	0f02                	.insn	2, 0x0f02
    1496:	0000ba03          	.insn	4, 0xba03
    149a:	0100                	.insn	2, 0x0100
    149c:	00e0                	.insn	2, 0x00e0
    149e:	0000                	.insn	2, 0x
    14a0:	ba01                	.insn	2, 0xba01
    14a2:	0000                	.insn	2, 0x
    14a4:	0100                	.insn	2, 0x0100

Disassembly of section .debug_line_str:

00000000 <.debug_line_str>:
   0:	6d6f682f          	.insn	4, 0x6d6f682f
   4:	2f65                	.insn	2, 0x2f65
   6:	6c6c6173          	.insn	4, 0x6c6c6173
   a:	7261                	.insn	2, 0x7261
   c:	6f6f742f          	.insn	4, 0x6f6f742f
  10:	736c                	.insn	2, 0x736c
  12:	7369722f          	.insn	4, 0x7369722f
  16:	672d7663          	bgeu	x26,x18,682 <_heap_size+0x682>
  1a:	756e                	.insn	2, 0x756e
  1c:	742d                	.insn	2, 0x742d
  1e:	636c6f6f          	jal	x30,c6654 <_stack_size+0xc5654>
  22:	6168                	.insn	2, 0x6168
  24:	6e69                	.insn	2, 0x6e69
  26:	6975622f          	.insn	4, 0x6975622f
  2a:	646c                	.insn	2, 0x646c
  2c:	672d                	.insn	2, 0x672d
  2e:	6e2d6363          	bltu	x26,x2,714 <_heap_size+0x714>
  32:	7765                	.insn	2, 0x7765
  34:	696c                	.insn	2, 0x696c
  36:	2d62                	.insn	2, 0x2d62
  38:	67617473          	.insn	4, 0x67617473
  3c:	3265                	.insn	2, 0x3265
  3e:	7369722f          	.insn	4, 0x7369722f
  42:	34367663          	bgeu	x12,x3,38e <_heap_size+0x38e>
  46:	752d                	.insn	2, 0x752d
  48:	6b6e                	.insn	2, 0x6b6e
  4a:	6f6e                	.insn	2, 0x6f6e
  4c:	652d6e77          	.insn	4, 0x652d6e77
  50:	666c                	.insn	2, 0x666c
  52:	3376722f          	.insn	4, 0x3376722f
  56:	6932                	.insn	2, 0x6932
  58:	706c692f          	.insn	4, 0x706c692f
  5c:	6c2f3233          	.insn	4, 0x6c2f3233
  60:	6269                	.insn	2, 0x6269
  62:	00636367          	.insn	4, 0x00636367
  66:	2e2e                	.insn	2, 0x2e2e
  68:	2f2e2e2f          	.insn	4, 0x2f2e2e2f
  6c:	2e2e                	.insn	2, 0x2e2e
  6e:	2f2e2e2f          	.insn	4, 0x2f2e2e2f
  72:	2e2e                	.insn	2, 0x2e2e
  74:	672f2e2f          	.insn	4, 0x672f2e2f
  78:	6c2f6363          	bltu	x30,x2,73e <_heap_size+0x73e>
  7c:	6269                	.insn	2, 0x6269
  7e:	2f636367          	.insn	4, 0x2f636367
  82:	666e6f63          	bltu	x28,x6,700 <_heap_size+0x700>
  86:	6769                	.insn	2, 0x6769
  88:	7369722f          	.insn	4, 0x7369722f
  8c:	6d007663          	bgeu	x0,x16,758 <_heap_size+0x758>
  90:	6c75                	.insn	2, 0x6c75
  92:	6964                	.insn	2, 0x6964
  94:	00532e33          	slt	x28,x6,x5
  98:	6964                	.insn	2, 0x6964
  9a:	2e76                	.insn	2, 0x2e76
  9c:	2e2e0053          	.insn	4, 0x2e2e0053
  a0:	2f2e2e2f          	.insn	4, 0x2f2e2e2f
  a4:	2e2e                	.insn	2, 0x2e2e
  a6:	2f2e2e2f          	.insn	4, 0x2f2e2e2f
  aa:	2e2e                	.insn	2, 0x2e2e
  ac:	672f2e2f          	.insn	4, 0x672f2e2f
  b0:	6c2f6363          	bltu	x30,x2,776 <_heap_size+0x776>
  b4:	6269                	.insn	2, 0x6269
  b6:	2f636367          	.insn	4, 0x2f636367
  ba:	696c                	.insn	2, 0x696c
  bc:	6762                	.insn	2, 0x6762
  be:	2e326363          	bltu	x4,x3,3a4 <_heap_size+0x3a4>
  c2:	2e2e0063          	beq	x28,x2,3a2 <_heap_size+0x3a2>
  c6:	2f2e2e2f          	.insn	4, 0x2f2e2e2f
  ca:	2e2e                	.insn	2, 0x2e2e
  cc:	2f2e2e2f          	.insn	4, 0x2f2e2e2f
  d0:	2e2e                	.insn	2, 0x2e2e
  d2:	672f2e2f          	.insn	4, 0x672f2e2f
  d6:	6c2f6363          	bltu	x30,x2,79c <_heap_size+0x79c>
  da:	6269                	.insn	2, 0x6269
  dc:	00636367          	.insn	4, 0x00636367
  e0:	696c                	.insn	2, 0x696c
  e2:	6762                	.insn	2, 0x6762
  e4:	2e326363          	bltu	x4,x3,3ca <_heap_size+0x3ca>
  e8:	0068                	.insn	2, 0x0068

Disassembly of section .debug_info:

00000000 <.debug_info>:
       0:	002d                	.insn	2, 0x002d
       2:	0000                	.insn	2, 0x
       4:	0005                	.insn	2, 0x0005
       6:	0401                	.insn	2, 0x0401
       8:	0000                	.insn	2, 0x
       a:	0000                	.insn	2, 0x
       c:	0001                	.insn	2, 0x0001
       e:	0000                	.insn	2, 0x
      10:	8400                	.insn	2, 0x8400
      12:	0004                	.insn	2, 0x0004
      14:	2480                	.insn	2, 0x2480
      16:	0000                	.insn	2, 0x
      18:	0000                	.insn	2, 0x
      1a:	0032                	.insn	2, 0x0032
      1c:	0000                	.insn	2, 0x
      1e:	0098                	.insn	2, 0x0098
      20:	0000                	.insn	2, 0x
      22:	8001                	.insn	2, 0x8001
      24:	a402                	.insn	2, 0xa402
      26:	0000                	.insn	2, 0x
      28:	2f00                	.insn	2, 0x2f00
      2a:	0484                	.insn	2, 0x0484
      2c:	8000                	.insn	2, 0x8000
      2e:	0324                	.insn	2, 0x0324
      30:	5b00                	.insn	2, 0x5b00
      32:	0000                	.insn	2, 0x
      34:	0500                	.insn	2, 0x0500
      36:	0100                	.insn	2, 0x0100
      38:	2804                	.insn	2, 0x2804
      3a:	0000                	.insn	2, 0x
      3c:	0100                	.insn	2, 0x0100
      3e:	007a                	.insn	2, 0x007a
      40:	0000                	.insn	2, 0x
      42:	04a8                	.insn	2, 0x04a8
      44:	8000                	.insn	2, 0x8000
      46:	01b4                	.insn	2, 0x01b4
      48:	00ad                	.insn	2, 0x00ad
      4a:	0000                	.insn	2, 0x
      4c:	0032                	.insn	2, 0x0032
      4e:	0000                	.insn	2, 0x
      50:	0098                	.insn	2, 0x0098
      52:	0000                	.insn	2, 0x
      54:	8001                	.insn	2, 0x8001
      56:	dc02                	.insn	2, 0xdc02
      58:	0000                	.insn	2, 0x
      5a:	5d00                	.insn	2, 0x5d00
      5c:	04a8                	.insn	2, 0x04a8
      5e:	8000                	.insn	2, 0x8000
      60:	0184                	.insn	2, 0x0184
      62:	ee02                	.insn	2, 0xee02
      64:	0000                	.insn	2, 0x
      66:	5d00                	.insn	2, 0x5d00
      68:	04b0                	.insn	2, 0x04b0
      6a:	8000                	.insn	2, 0x8000
      6c:	0248                	.insn	2, 0x0248
      6e:	00e5                	.insn	2, 0x00e5
      70:	0000                	.insn	2, 0x
      72:	b05d                	.insn	2, 0xb05d
      74:	0004                	.insn	2, 0x0004
      76:	4880                	.insn	2, 0x4880
      78:	f802                	.insn	2, 0xf802
      7a:	0000                	.insn	2, 0x
      7c:	5d00                	.insn	2, 0x5d00
      7e:	04f8                	.insn	2, 0x04f8
      80:	8000                	.insn	2, 0x8000
      82:	0210                	.insn	2, 0x0210
      84:	0102                	.insn	2, 0x0102
      86:	0000                	.insn	2, 0x
      88:	2c5d                	.insn	2, 0x2c5d
      8a:	0005                	.insn	2, 0x0005
      8c:	3080                	.insn	2, 0x3080
      8e:	094a0003          	lb	x0,148(x20)
      92:	0000                	.insn	2, 0x
      94:	0005                	.insn	2, 0x0005
      96:	0401                	.insn	2, 0x0401
      98:	0050                	.insn	2, 0x0050
      9a:	0000                	.insn	2, 0x
      9c:	9e14                	.insn	2, 0x9e14
      9e:	0001                	.insn	2, 0x0001
      a0:	1d00                	.insn	2, 0x1d00
      a2:	009e                	.insn	2, 0x009e
      a4:	0000                	.insn	2, 0x
      a6:	0000                	.insn	2, 0x
      a8:	0000                	.insn	2, 0x
      aa:	472c                	.insn	2, 0x472c
      ac:	8000                	.insn	2, 0x8000
      ae:	05c4                	.insn	2, 0x05c4
      b0:	0000                	.insn	2, 0x
      b2:	01cd                	.insn	2, 0x01cd
      b4:	0000                	.insn	2, 0x
      b6:	0805                	.insn	2, 0x0805
      b8:	00015907          	.insn	4, 0x00015907
      bc:	1500                	.insn	2, 0x1500
      be:	0504                	.insn	2, 0x0504
      c0:	6e69                	.insn	2, 0x6e69
      c2:	0074                	.insn	2, 0x0074
      c4:	0405                	.insn	2, 0x0405
      c6:	00016307          	.insn	4, 0x00016307
      ca:	0500                	.insn	2, 0x0500
      cc:	0508                	.insn	2, 0x0508
      ce:	0000014b          	.insn	4, 0x014b
      d2:	1005                	.insn	2, 0x1005
      d4:	e704                	.insn	2, 0xe704
      d6:	0002                	.insn	2, 0x0002
      d8:	0500                	.insn	2, 0x0500
      da:	0601                	.insn	2, 0x0601
      dc:	0192                	.insn	2, 0x0192
      de:	0000                	.insn	2, 0x
      e0:	0105                	.insn	2, 0x0105
      e2:	9008                	.insn	2, 0x9008
      e4:	0001                	.insn	2, 0x0001
      e6:	0500                	.insn	2, 0x0500
      e8:	0502                	.insn	2, 0x0502
      ea:	0000012b          	.insn	4, 0x012b
      ee:	0205                	.insn	2, 0x0205
      f0:	00029407          	.insn	4, 0x00029407
      f4:	0500                	.insn	2, 0x0500
      f6:	0504                	.insn	2, 0x0504
      f8:	0150                	.insn	2, 0x0150
      fa:	0000                	.insn	2, 0x
      fc:	0405                	.insn	2, 0x0405
      fe:	00015e07          	.insn	4, 0x00015e07
     102:	0500                	.insn	2, 0x0500
     104:	0801                	.insn	2, 0x0801
     106:	0199                	.insn	2, 0x0199
     108:	0000                	.insn	2, 0x
     10a:	8308                	.insn	2, 0x8308
     10c:	0002                	.insn	2, 0x0002
     10e:	7b00                	.insn	2, 0x7b00
     110:	5016                	.insn	2, 0x5016
     112:	0000                	.insn	2, 0x
     114:	0c00                	.insn	2, 0x0c00
     116:	007a                	.insn	2, 0x007a
     118:	0000                	.insn	2, 0x
     11a:	f408                	.insn	2, 0xf408
     11c:	0002                	.insn	2, 0x0002
     11e:	8000                	.insn	2, 0x8000
     120:	00002d0f          	.insn	4, 0x2d0f
     124:	0800                	.insn	2, 0x0800
     126:	000002f3          	.insn	4, 0x02f3
     12a:	1681                	.insn	2, 0x1681
     12c:	0034                	.insn	2, 0x0034
     12e:	0000                	.insn	2, 0x
     130:	a808                	.insn	2, 0xa808
     132:	0002                	.insn	2, 0x0002
     134:	8400                	.insn	2, 0x8400
     136:	00003b0f          	.insn	4, 0x3b0f
     13a:	0800                	.insn	2, 0x0800
     13c:	000002a7          	.insn	4, 0x02a7
     140:	1685                	.insn	2, 0x1685
     142:	0026                	.insn	2, 0x0026
     144:	0000                	.insn	2, 0x
     146:	0205                	.insn	2, 0x0205
     148:	8704                	.insn	2, 0x8704
     14a:	0001                	.insn	2, 0x0001
     14c:	0500                	.insn	2, 0x0500
     14e:	0304                	.insn	2, 0x0304
     150:	017f 0000 0405 2504 	.insn	10, 0x0001250404050000017f
     158:	0001 
     15a:	0500                	.insn	2, 0x0500
     15c:	0308                	.insn	2, 0x0308
     15e:	011d                	.insn	2, 0x011d
     160:	0000                	.insn	2, 0x
     162:	0805                	.insn	2, 0x0805
     164:	ec04                	.insn	2, 0xec04
     166:	0002                	.insn	2, 0x0002
     168:	0500                	.insn	2, 0x0500
     16a:	0310                	.insn	2, 0x0310
     16c:	02be                	.insn	2, 0x02be
     16e:	0000                	.insn	2, 0x
     170:	2005                	.insn	2, 0x2005
     172:	0002df03          	lhu	x30,0(x5)
     176:	1600                	.insn	2, 0x1600
     178:	0000028b          	.insn	4, 0x028b
     17c:	0208                	.insn	2, 0x0208
     17e:	01f1                	.insn	2, 0x01f1
     180:	120a                	.insn	2, 0x120a
     182:	0001                	.insn	2, 0x0001
     184:	1700                	.insn	2, 0x1700
     186:	6f6c                	.insn	2, 0x6f6c
     188:	f1020077          	.insn	4, 0xf1020077
     18c:	1a01                	.insn	2, 0x1a01
     18e:	008a                	.insn	2, 0x008a
     190:	0000                	.insn	2, 0x
     192:	1800                	.insn	2, 0x1800
     194:	0170                	.insn	2, 0x0170
     196:	0000                	.insn	2, 0x
     198:	f102                	.insn	2, 0xf102
     19a:	1f01                	.insn	2, 0x1f01
     19c:	008a                	.insn	2, 0x008a
     19e:	0000                	.insn	2, 0x
     1a0:	0004                	.insn	2, 0x0004
     1a2:	0819                	.insn	2, 0x0819
     1a4:	f802                	.insn	2, 0xf802
     1a6:	0901                	.insn	2, 0x0901
     1a8:	0132                	.insn	2, 0x0132
     1aa:	0000                	.insn	2, 0x
     1ac:	7312                	.insn	2, 0x7312
     1ae:	fa00                	.insn	2, 0xfa00
     1b0:	1301                	.insn	2, 0x1301
     1b2:	000000e7          	jalr	x1,0(x0) # 0 <_heap_size>
     1b6:	6c12                	.insn	2, 0x6c12
     1b8:	006c                	.insn	2, 0x006c
     1ba:	a00a01fb          	.insn	4, 0xa00a01fb
     1be:	0000                	.insn	2, 0x
     1c0:	0000                	.insn	2, 0x
     1c2:	0b1a                	.insn	2, 0x0b1a
     1c4:	0001                	.insn	2, 0x0001
     1c6:	0200                	.insn	2, 0x0200
     1c8:	01fc                	.insn	2, 0x01fc
     1ca:	00011203          	lh	x4,0(x2)
     1ce:	0c00                	.insn	2, 0x0c00
     1d0:	0132                	.insn	2, 0x0132
     1d2:	0000                	.insn	2, 0x
     1d4:	0000851b          	.insn	4, 0x851b
     1d8:	5400                	.insn	2, 0x5400
     1da:	0001                	.insn	2, 0x0001
     1dc:	1c00                	.insn	2, 0x1c00
     1de:	0034                	.insn	2, 0x0034
     1e0:	0000                	.insn	2, 0x
     1e2:	00ff 440c 0001 1d00 	.insn	10, 0x01751d000001440c00ff
     1ea:	0175 
     1ec:	0000                	.insn	2, 0x
     1ee:	0602                	.insn	2, 0x0602
     1f0:	1602                	.insn	2, 0x1602
     1f2:	0154                	.insn	2, 0x0154
     1f4:	0000                	.insn	2, 0x
     1f6:	131e                	.insn	2, 0x131e
     1f8:	0001                	.insn	2, 0x0001
     1fa:	0100                	.insn	2, 0x0100
     1fc:	0512                	.insn	2, 0x0512
     1fe:	ab01                	.insn	2, 0xab01
     200:	0000                	.insn	2, 0x
     202:	2c00                	.insn	2, 0x2c00
     204:	c4800047          	.insn	4, 0xc4800047
     208:	0005                	.insn	2, 0x0005
     20a:	0100                	.insn	2, 0x0100
     20c:	8c9c                	.insn	2, 0x8c9c
     20e:	0005                	.insn	2, 0x0005
     210:	1300                	.insn	2, 0x1300
     212:	006e                	.insn	2, 0x006e
     214:	ab14                	.insn	2, 0xab14
     216:	0000                	.insn	2, 0x
     218:	0c00                	.insn	2, 0x0c00
     21a:	0000                	.insn	2, 0x
     21c:	1300                	.insn	2, 0x1300
     21e:	0064                	.insn	2, 0x0064
     220:	ab1f 0000 9000      	.insn	6, 0x90000000ab1f
     226:	0000                	.insn	2, 0x
     228:	1f00                	.insn	2, 0x1f00
     22a:	058c                	.insn	2, 0x058c
     22c:	0000                	.insn	2, 0x
     22e:	472c                	.insn	2, 0x472c
     230:	8000                	.insn	2, 0x8000
     232:	000c                	.insn	2, 0x000c
     234:	0000                	.insn	2, 0x
     236:	1401                	.insn	2, 0x1401
     238:	0a05                	.insn	2, 0x0a05
     23a:	ae0d                	.insn	2, 0xae0d
     23c:	0005                	.insn	2, 0x0005
     23e:	fc00                	.insn	2, 0xfc00
     240:	0000                	.insn	2, 0x
     242:	0d00                	.insn	2, 0x0d00
     244:	05a6                	.insn	2, 0x05a6
     246:	0000                	.insn	2, 0x
     248:	010c                	.insn	2, 0x010c
     24a:	0000                	.insn	2, 0x
     24c:	9e0d                	.insn	2, 0x9e0d
     24e:	0005                	.insn	2, 0x0005
     250:	5300                	.insn	2, 0x5300
     252:	0001                	.insn	2, 0x0001
     254:	2000                	.insn	2, 0x2000
     256:	0019                	.insn	2, 0x0019
     258:	0000                	.insn	2, 0x
     25a:	0005b70b          	.insn	4, 0x0005b70b
     25e:	0b00                	.insn	2, 0x0b00
     260:	05c2                	.insn	2, 0x05c2
     262:	0000                	.insn	2, 0x
     264:	0005cd0b          	.insn	4, 0x0005cd0b
     268:	0100                	.insn	2, 0x0100
     26a:	05d8                	.insn	2, 0x05d8
     26c:	0000                	.insn	2, 0x
     26e:	000001b3          	add	x3,x0,x0
     272:	e301                	.insn	2, 0xe301
     274:	0005                	.insn	2, 0x0005
     276:	0100                	.insn	2, 0x0100
     278:	0002                	.insn	2, 0x0002
     27a:	0100                	.insn	2, 0x0100
     27c:	05ee                	.insn	2, 0x05ee
     27e:	0000                	.insn	2, 0x
     280:	0231                	.insn	2, 0x0231
     282:	0000                	.insn	2, 0x
     284:	f901                	.insn	2, 0xf901
     286:	0005                	.insn	2, 0x0005
     288:	7c00                	.insn	2, 0x7c00
     28a:	0002                	.insn	2, 0x0002
     28c:	0100                	.insn	2, 0x0100
     28e:	0604                	.insn	2, 0x0604
     290:	0000                	.insn	2, 0x
     292:	02c9                	.insn	2, 0x02c9
     294:	0000                	.insn	2, 0x
     296:	0f01                	.insn	2, 0x0f01
     298:	0006                	.insn	2, 0x0006
     29a:	d800                	.insn	2, 0xd800
     29c:	0002                	.insn	2, 0x0002
     29e:	0100                	.insn	2, 0x0100
     2a0:	061a                	.insn	2, 0x061a
     2a2:	0000                	.insn	2, 0x
     2a4:	000002e7          	jalr	x5,0(x0) # 0 <_heap_size>
     2a8:	2501                	.insn	2, 0x2501
     2aa:	0006                	.insn	2, 0x0006
     2ac:	fe00                	.insn	2, 0xfe00
     2ae:	0002                	.insn	2, 0x0002
     2b0:	0100                	.insn	2, 0x0100
     2b2:	0000062f          	.insn	4, 0x062f
     2b6:	030d                	.insn	2, 0x030d
     2b8:	0000                	.insn	2, 0x
     2ba:	00063a0b          	.insn	4, 0x00063a0b
     2be:	0900                	.insn	2, 0x0900
     2c0:	0645                	.insn	2, 0x0645
     2c2:	0000                	.insn	2, 0x
     2c4:	0000002b          	.insn	4, 0x002b
     2c8:	0000024f          	.insn	4, 0x024f
     2cc:	4a01                	.insn	2, 0x4a01
     2ce:	0006                	.insn	2, 0x0006
     2d0:	3000                	.insn	2, 0x3000
     2d2:	01000003          	lb	x0,16(x0) # 10 <_heap_size+0x10>
     2d6:	0656                	.insn	2, 0x0656
     2d8:	0000                	.insn	2, 0x
     2da:	0354                	.insn	2, 0x0354
     2dc:	0000                	.insn	2, 0x
     2de:	0a00                	.insn	2, 0x0a00
     2e0:	00000663          	beq	x0,x0,2ec <_heap_size+0x2ec>
     2e4:	47c0                	.insn	2, 0x47c0
     2e6:	8000                	.insn	2, 0x8000
     2e8:	00c8                	.insn	2, 0x00c8
     2ea:	0000                	.insn	2, 0x
     2ec:	02d6                	.insn	2, 0x02d6
     2ee:	0000                	.insn	2, 0x
     2f0:	6801                	.insn	2, 0x6801
     2f2:	0006                	.insn	2, 0x0006
     2f4:	5a00                	.insn	2, 0x5a00
     2f6:	01000003          	lb	x0,16(x0) # 10 <_heap_size+0x10>
     2fa:	0674                	.insn	2, 0x0674
     2fc:	0000                	.insn	2, 0x
     2fe:	0362                	.insn	2, 0x0362
     300:	0000                	.insn	2, 0x
     302:	8001                	.insn	2, 0x8001
     304:	0006                	.insn	2, 0x0006
     306:	7700                	.insn	2, 0x7700
     308:	01000003          	lb	x0,16(x0) # 10 <_heap_size+0x10>
     30c:	068c                	.insn	2, 0x068c
     30e:	0000                	.insn	2, 0x
     310:	0394                	.insn	2, 0x0394
     312:	0000                	.insn	2, 0x
     314:	9801                	.insn	2, 0x9801
     316:	0006                	.insn	2, 0x0006
     318:	b100                	.insn	2, 0xb100
     31a:	01000003          	lb	x0,16(x0) # 10 <_heap_size+0x10>
     31e:	06a4                	.insn	2, 0x06a4
     320:	0000                	.insn	2, 0x
     322:	03e1                	.insn	2, 0x03e1
     324:	0000                	.insn	2, 0x
     326:	b001                	.insn	2, 0xb001
     328:	0006                	.insn	2, 0x0006
     32a:	f500                	.insn	2, 0xf500
     32c:	04000003          	lb	x0,64(x0) # 40 <_heap_size+0x40>
     330:	47d4                	.insn	2, 0x47d4
     332:	8000                	.insn	2, 0x8000
     334:	0932                	.insn	2, 0x0932
     336:	0000                	.insn	2, 0x
     338:	e804                	.insn	2, 0xe804
     33a:	3b800047          	.insn	4, 0x3b800047
     33e:	0009                	.insn	2, 0x0009
     340:	0400                	.insn	2, 0x0400
     342:	47f8                	.insn	2, 0x47f8
     344:	8000                	.insn	2, 0x8000
     346:	0944                	.insn	2, 0x0944
     348:	0000                	.insn	2, 0x
     34a:	3404                	.insn	2, 0x3404
     34c:	0048                	.insn	2, 0x0048
     34e:	3280                	.insn	2, 0x3280
     350:	0009                	.insn	2, 0x0009
     352:	0400                	.insn	2, 0x0400
     354:	4844                	.insn	2, 0x4844
     356:	8000                	.insn	2, 0x8000
     358:	0000093b          	.insn	4, 0x093b
     35c:	5404                	.insn	2, 0x5404
     35e:	0048                	.insn	2, 0x0048
     360:	4480                	.insn	2, 0x4480
     362:	0009                	.insn	2, 0x0009
     364:	0000                	.insn	2, 0x
     366:	bf09                	.insn	2, 0xbf09
     368:	37000007          	.insn	4, 0x37000007
     36c:	0000                	.insn	2, 0x
     36e:	4300                	.insn	2, 0x4300
     370:	0004                	.insn	2, 0x0004
     372:	0100                	.insn	2, 0x0100
     374:	07c0                	.insn	2, 0x07c0
     376:	0000                	.insn	2, 0x
     378:	0000040b          	.insn	4, 0x040b
     37c:	cb01                	.insn	2, 0xcb01
     37e:	13000007          	.insn	4, 0x13000007
     382:	0004                	.insn	2, 0x0004
     384:	0900                	.insn	2, 0x0900
     386:	07d6                	.insn	2, 0x07d6
     388:	0000                	.insn	2, 0x
     38a:	0042                	.insn	2, 0x0042
     38c:	0000                	.insn	2, 0x
     38e:	0378                	.insn	2, 0x0378
     390:	0000                	.insn	2, 0x
     392:	db01                	.insn	2, 0xdb01
     394:	45000007          	.insn	4, 0x45000007
     398:	0004                	.insn	2, 0x0004
     39a:	0100                	.insn	2, 0x0100
     39c:	000007e7          	jalr	x15,0(x0) # 0 <_heap_size>
     3a0:	0454                	.insn	2, 0x0454
     3a2:	0000                	.insn	2, 0x
     3a4:	f301                	.insn	2, 0xf301
     3a6:	69000007          	.insn	4, 0x69000007
     3aa:	0004                	.insn	2, 0x0004
     3ac:	0100                	.insn	2, 0x0100
     3ae:	07ff 0000 0486 0000 	.insn	10, 0x0b0100000486000007ff
     3b6:	0b01 
     3b8:	0008                	.insn	2, 0x0008
     3ba:	a300                	.insn	2, 0xa300
     3bc:	0004                	.insn	2, 0x0004
     3be:	0100                	.insn	2, 0x0100
     3c0:	00000817          	auipc	x16,0x0
     3c4:	04df 0000 2301      	.insn	6, 0x2301000004df
     3ca:	0008                	.insn	2, 0x0008
     3cc:	0a00                	.insn	2, 0x0a00
     3ce:	0005                	.insn	2, 0x0005
     3d0:	0400                	.insn	2, 0x0400
     3d2:	4b84                	.insn	2, 0x4b84
     3d4:	8000                	.insn	2, 0x8000
     3d6:	0932                	.insn	2, 0x0932
     3d8:	0000                	.insn	2, 0x
     3da:	9404                	.insn	2, 0x9404
     3dc:	3b80004b          	.insn	4, 0x3b80004b
     3e0:	0009                	.insn	2, 0x0009
     3e2:	0400                	.insn	2, 0x0400
     3e4:	4ba4                	.insn	2, 0x4ba4
     3e6:	8000                	.insn	2, 0x8000
     3e8:	0944                	.insn	2, 0x0944
     3ea:	0000                	.insn	2, 0x
     3ec:	e004                	.insn	2, 0xe004
     3ee:	3280004b          	.insn	4, 0x3280004b
     3f2:	0009                	.insn	2, 0x0009
     3f4:	0400                	.insn	2, 0x0400
     3f6:	4bf0                	.insn	2, 0x4bf0
     3f8:	8000                	.insn	2, 0x8000
     3fa:	0000093b          	.insn	4, 0x093b
     3fe:	0004                	.insn	2, 0x0004
     400:	004c                	.insn	2, 0x004c
     402:	4480                	.insn	2, 0x4480
     404:	0009                	.insn	2, 0x0009
     406:	0000                	.insn	2, 0x
     408:	300e                	.insn	2, 0x300e
     40a:	0008                	.insn	2, 0x0008
     40c:	5c00                	.insn	2, 0x5c00
     40e:	0000                	.insn	2, 0x
     410:	0100                	.insn	2, 0x0100
     412:	0835                	.insn	2, 0x0835
     414:	0000                	.insn	2, 0x
     416:	00000527          	.insn	4, 0x0527
     41a:	4101                	.insn	2, 0x4101
     41c:	0008                	.insn	2, 0x0008
     41e:	3600                	.insn	2, 0x3600
     420:	0005                	.insn	2, 0x0005
     422:	0100                	.insn	2, 0x0100
     424:	084d                	.insn	2, 0x084d
     426:	0000                	.insn	2, 0x
     428:	055a                	.insn	2, 0x055a
     42a:	0000                	.insn	2, 0x
     42c:	5901                	.insn	2, 0x5901
     42e:	0008                	.insn	2, 0x0008
     430:	6200                	.insn	2, 0x6200
     432:	0005                	.insn	2, 0x0005
     434:	0100                	.insn	2, 0x0100
     436:	0865                	.insn	2, 0x0865
     438:	0000                	.insn	2, 0x
     43a:	0571                	.insn	2, 0x0571
     43c:	0000                	.insn	2, 0x
     43e:	7101                	.insn	2, 0x7101
     440:	0008                	.insn	2, 0x0008
     442:	a900                	.insn	2, 0xa900
     444:	0005                	.insn	2, 0x0005
     446:	0100                	.insn	2, 0x0100
     448:	087d                	.insn	2, 0x087d
     44a:	0000                	.insn	2, 0x
     44c:	05b1                	.insn	2, 0x05b1
     44e:	0000                	.insn	2, 0x
     450:	8901                	.insn	2, 0x8901
     452:	0008                	.insn	2, 0x0008
     454:	b900                	.insn	2, 0xb900
     456:	0005                	.insn	2, 0x0005
     458:	0a00                	.insn	2, 0x0a00
     45a:	0895                	.insn	2, 0x0895
     45c:	0000                	.insn	2, 0x
     45e:	4c54                	.insn	2, 0x4c54
     460:	8000                	.insn	2, 0x8000
     462:	0010                	.insn	2, 0x0010
     464:	0000                	.insn	2, 0x
     466:	03e9                	.insn	2, 0x03e9
     468:	0000                	.insn	2, 0x
     46a:	00089a07          	.insn	4, 0x00089a07
     46e:	0100                	.insn	2, 0x0100
     470:	075a                	.insn	2, 0x075a
     472:	08a6                	.insn	2, 0x08a6
     474:	0000                	.insn	2, 0x
     476:	5b01                	.insn	2, 0x5b01
     478:	0a00                	.insn	2, 0x0a00
     47a:	000008b3          	add	x17,x0,x0
     47e:	4c64                	.insn	2, 0x4c64
     480:	8000                	.insn	2, 0x8000
     482:	0010                	.insn	2, 0x0010
     484:	0000                	.insn	2, 0x
     486:	0409                	.insn	2, 0x0409
     488:	0000                	.insn	2, 0x
     48a:	0008b807          	.insn	4, 0x0008b807
     48e:	0100                	.insn	2, 0x0100
     490:	075a                	.insn	2, 0x075a
     492:	08c4                	.insn	2, 0x08c4
     494:	0000                	.insn	2, 0x
     496:	5b01                	.insn	2, 0x5b01
     498:	0a00                	.insn	2, 0x0a00
     49a:	08d1                	.insn	2, 0x08d1
     49c:	0000                	.insn	2, 0x
     49e:	4c74                	.insn	2, 0x4c74
     4a0:	8000                	.insn	2, 0x8000
     4a2:	0010                	.insn	2, 0x0010
     4a4:	0000                	.insn	2, 0x
     4a6:	0429                	.insn	2, 0x0429
     4a8:	0000                	.insn	2, 0x
     4aa:	0008d607          	.insn	4, 0x0008d607
     4ae:	0100                	.insn	2, 0x0100
     4b0:	075a                	.insn	2, 0x075a
     4b2:	08e2                	.insn	2, 0x08e2
     4b4:	0000                	.insn	2, 0x
     4b6:	5b01                	.insn	2, 0x5b01
     4b8:	0e00                	.insn	2, 0x0e00
     4ba:	000008ef          	jal	x17,4ba <_heap_size+0x4ba>
     4be:	0076                	.insn	2, 0x0076
     4c0:	0000                	.insn	2, 0x
     4c2:	0008f007          	.insn	4, 0x0008f007
     4c6:	0100                	.insn	2, 0x0100
     4c8:	075a                	.insn	2, 0x075a
     4ca:	08fc                	.insn	2, 0x08fc
     4cc:	0000                	.insn	2, 0x
     4ce:	5b01                	.insn	2, 0x5b01
     4d0:	0000                	.insn	2, 0x
     4d2:	0900                	.insn	2, 0x0900
     4d4:	06bd                	.insn	2, 0x06bd
     4d6:	0000                	.insn	2, 0x
     4d8:	0081                	.insn	2, 0x0081
     4da:	0000                	.insn	2, 0x
     4dc:	00000463          	beq	x0,x0,4e4 <_heap_size+0x4e4>
     4e0:	c201                	.insn	2, 0xc201
     4e2:	0006                	.insn	2, 0x0006
     4e4:	c100                	.insn	2, 0xc100
     4e6:	0005                	.insn	2, 0x0005
     4e8:	0100                	.insn	2, 0x0100
     4ea:	06ce                	.insn	2, 0x06ce
     4ec:	0000                	.insn	2, 0x
     4ee:	05d0                	.insn	2, 0x05d0
     4f0:	0000                	.insn	2, 0x
     4f2:	0a00                	.insn	2, 0x0a00
     4f4:	0735                	.insn	2, 0x0735
     4f6:	0000                	.insn	2, 0x
     4f8:	48e4                	.insn	2, 0x48e4
     4fa:	8000                	.insn	2, 0x8000
     4fc:	00c8                	.insn	2, 0x00c8
     4fe:	0000                	.insn	2, 0x
     500:	04ea                	.insn	2, 0x04ea
     502:	0000                	.insn	2, 0x
     504:	3a01                	.insn	2, 0x3a01
     506:	d8000007          	.insn	4, 0xd8000007
     50a:	0005                	.insn	2, 0x0005
     50c:	0100                	.insn	2, 0x0100
     50e:	0746                	.insn	2, 0x0746
     510:	0000                	.insn	2, 0x
     512:	05e0                	.insn	2, 0x05e0
     514:	0000                	.insn	2, 0x
     516:	5201                	.insn	2, 0x5201
     518:	f5000007          	.insn	4, 0xf5000007
     51c:	0005                	.insn	2, 0x0005
     51e:	0100                	.insn	2, 0x0100
     520:	075e                	.insn	2, 0x075e
     522:	0000                	.insn	2, 0x
     524:	0612                	.insn	2, 0x0612
     526:	0000                	.insn	2, 0x
     528:	6a01                	.insn	2, 0x6a01
     52a:	2f000007          	.insn	4, 0x2f000007
     52e:	0006                	.insn	2, 0x0006
     530:	0100                	.insn	2, 0x0100
     532:	0776                	.insn	2, 0x0776
     534:	0000                	.insn	2, 0x
     536:	065f 0000 8201      	.insn	6, 0x82010000065f
     53c:	73000007          	.insn	4, 0x73000007
     540:	0006                	.insn	2, 0x0006
     542:	0400                	.insn	2, 0x0400
     544:	48f8                	.insn	2, 0x48f8
     546:	8000                	.insn	2, 0x8000
     548:	0932                	.insn	2, 0x0932
     54a:	0000                	.insn	2, 0x
     54c:	0c04                	.insn	2, 0x0c04
     54e:	0049                	.insn	2, 0x0049
     550:	3b80                	.insn	2, 0x3b80
     552:	0009                	.insn	2, 0x0009
     554:	0400                	.insn	2, 0x0400
     556:	491c                	.insn	2, 0x491c
     558:	8000                	.insn	2, 0x8000
     55a:	0944                	.insn	2, 0x0944
     55c:	0000                	.insn	2, 0x
     55e:	5804                	.insn	2, 0x5804
     560:	0049                	.insn	2, 0x0049
     562:	3280                	.insn	2, 0x3280
     564:	0009                	.insn	2, 0x0009
     566:	0400                	.insn	2, 0x0400
     568:	4968                	.insn	2, 0x4968
     56a:	8000                	.insn	2, 0x8000
     56c:	0000093b          	.insn	4, 0x093b
     570:	7804                	.insn	2, 0x7804
     572:	0049                	.insn	2, 0x0049
     574:	4480                	.insn	2, 0x4480
     576:	0009                	.insn	2, 0x0009
     578:	0000                	.insn	2, 0x
     57a:	db09                	.insn	2, 0xdb09
     57c:	0006                	.insn	2, 0x0006
     57e:	9100                	.insn	2, 0x9100
     580:	0000                	.insn	2, 0x
     582:	6d00                	.insn	2, 0x6d00
     584:	0005                	.insn	2, 0x0005
     586:	0100                	.insn	2, 0x0100
     588:	06e0                	.insn	2, 0x06e0
     58a:	0000                	.insn	2, 0x
     58c:	0690                	.insn	2, 0x0690
     58e:	0000                	.insn	2, 0x
     590:	ec01                	.insn	2, 0xec01
     592:	0006                	.insn	2, 0x0006
     594:	9800                	.insn	2, 0x9800
     596:	0006                	.insn	2, 0x0006
     598:	0100                	.insn	2, 0x0100
     59a:	06f8                	.insn	2, 0x06f8
     59c:	0000                	.insn	2, 0x
     59e:	06ad                	.insn	2, 0x06ad
     5a0:	0000                	.insn	2, 0x
     5a2:	0401                	.insn	2, 0x0401
     5a4:	ca000007          	.insn	4, 0xca000007
     5a8:	0006                	.insn	2, 0x0006
     5aa:	0100                	.insn	2, 0x0100
     5ac:	0710                	.insn	2, 0x0710
     5ae:	0000                	.insn	2, 0x
     5b0:	000006e7          	jalr	x13,0(x0) # 0 <_heap_size>
     5b4:	1c01                	.insn	2, 0x1c01
     5b6:	17000007          	.insn	4, 0x17000007
     5ba:	01000007          	.insn	4, 0x01000007
     5be:	0728                	.insn	2, 0x0728
     5c0:	0000                	.insn	2, 0x
     5c2:	0749                	.insn	2, 0x0749
     5c4:	0000                	.insn	2, 0x
     5c6:	2804                	.insn	2, 0x2804
     5c8:	004a                	.insn	2, 0x004a
     5ca:	3280                	.insn	2, 0x3280
     5cc:	0009                	.insn	2, 0x0009
     5ce:	0400                	.insn	2, 0x0400
     5d0:	4a3c                	.insn	2, 0x4a3c
     5d2:	8000                	.insn	2, 0x8000
     5d4:	0000093b          	.insn	4, 0x093b
     5d8:	4c04                	.insn	2, 0x4c04
     5da:	004a                	.insn	2, 0x004a
     5dc:	4480                	.insn	2, 0x4480
     5de:	0009                	.insn	2, 0x0009
     5e0:	0400                	.insn	2, 0x0400
     5e2:	4a88                	.insn	2, 0x4a88
     5e4:	8000                	.insn	2, 0x8000
     5e6:	0932                	.insn	2, 0x0932
     5e8:	0000                	.insn	2, 0x
     5ea:	9804                	.insn	2, 0x9804
     5ec:	004a                	.insn	2, 0x004a
     5ee:	3b80                	.insn	2, 0x3b80
     5f0:	0009                	.insn	2, 0x0009
     5f2:	0400                	.insn	2, 0x0400
     5f4:	4aa8                	.insn	2, 0x4aa8
     5f6:	8000                	.insn	2, 0x8000
     5f8:	0944                	.insn	2, 0x0944
     5fa:	0000                	.insn	2, 0x
     5fc:	0e00                	.insn	2, 0x0e00
     5fe:	0000078f          	.insn	4, 0x078f
     602:	009c                	.insn	2, 0x009c
     604:	0000                	.insn	2, 0x
     606:	9401                	.insn	2, 0x9401
     608:	5f000007          	.insn	4, 0x5f000007
     60c:	01000007          	.insn	4, 0x01000007
     610:	07a0                	.insn	2, 0x07a0
     612:	0000                	.insn	2, 0x
     614:	00000767          	jalr	x14,0(x0) # 0 <_heap_size>
     618:	0000                	.insn	2, 0x
     61a:	0000                	.insn	2, 0x
     61c:	d221                	.insn	2, 0xd221
     61e:	0002                	.insn	2, 0x0002
     620:	0100                	.insn	2, 0x0100
     622:	ab0103e3          	beq	x2,x16,c8 <_heap_size+0xc8>
     626:	0000                	.insn	2, 0x
     628:	0300                	.insn	2, 0x0300
     62a:	092c                	.insn	2, 0x092c
     62c:	0000                	.insn	2, 0x
     62e:	17006e0f          	.insn	4, 0x17006e0f
     632:	000000ab          	.insn	4, 0x00ab
     636:	2200640f          	.insn	4, 0x2200640f
     63a:	000000ab          	.insn	4, 0x00ab
     63e:	0070720f          	.insn	4, 0x0070720f
     642:	2c2e                	.insn	2, 0x2c2e
     644:	0009                	.insn	2, 0x0009
     646:	0300                	.insn	2, 0x0300
     648:	6e6e                	.insn	2, 0x6e6e
     64a:	e500                	.insn	2, 0xe500
     64c:	013f1103          	lh	x2,19(x30)
     650:	0000                	.insn	2, 0x
     652:	00646403          	.insn	4, 0x00646403
     656:	03e6                	.insn	2, 0x03e6
     658:	3f11                	.insn	2, 0x3f11
     65a:	0001                	.insn	2, 0x0001
     65c:	0300                	.insn	2, 0x0300
     65e:	7272                	.insn	2, 0x7272
     660:	e700                	.insn	2, 0xe700
     662:	01320b03          	lb	x22,19(x4) # 13 <_heap_size+0x13>
     666:	0000                	.insn	2, 0x
     668:	00306403          	.insn	4, 0x00306403
     66c:	03e8                	.insn	2, 0x03e8
     66e:	950a                	.insn	2, 0x950a
     670:	0000                	.insn	2, 0x
     672:	0300                	.insn	2, 0x0300
     674:	3164                	.insn	2, 0x3164
     676:	e800                	.insn	2, 0xe800
     678:	00950e03          	lb	x28,9(x10)
     67c:	0000                	.insn	2, 0x
     67e:	00306e03          	.insn	4, 0x00306e03
     682:	03e8                	.insn	2, 0x03e8
     684:	9512                	.insn	2, 0x9512
     686:	0000                	.insn	2, 0x
     688:	0300                	.insn	2, 0x0300
     68a:	316e                	.insn	2, 0x316e
     68c:	e800                	.insn	2, 0xe800
     68e:	00951603          	lh	x12,9(x10)
     692:	0000                	.insn	2, 0x
     694:	00326e03          	.insn	4, 0x00326e03
     698:	03e8                	.insn	2, 0x03e8
     69a:	951a                	.insn	2, 0x951a
     69c:	0000                	.insn	2, 0x
     69e:	0300                	.insn	2, 0x0300
     6a0:	3071                	.insn	2, 0x3071
     6a2:	e900                	.insn	2, 0xe900
     6a4:	00950a03          	lb	x20,9(x10)
     6a8:	0000                	.insn	2, 0x
     6aa:	00317103          	.insn	4, 0x00317103
     6ae:	03e9                	.insn	2, 0x03e9
     6b0:	950e                	.insn	2, 0x950e
     6b2:	0000                	.insn	2, 0x
     6b4:	0300                	.insn	2, 0x0300
     6b6:	0062                	.insn	2, 0x0062
     6b8:	03ea                	.insn	2, 0x03ea
     6ba:	950a                	.insn	2, 0x950a
     6bc:	0000                	.insn	2, 0x
     6be:	0300                	.insn	2, 0x0300
     6c0:	6d62                	.insn	2, 0x6d62
     6c2:	ea00                	.insn	2, 0xea00
     6c4:	00950d03          	lb	x26,9(x10)
     6c8:	0000                	.insn	2, 0x
     6ca:	00777703          	.insn	4, 0x00777703
     6ce:	3f1104b3          	.insn	4, 0x3f1104b3
     6d2:	0001                	.insn	2, 0x0001
     6d4:	0600                	.insn	2, 0x0600
     6d6:	00000663          	beq	x0,x0,6e2 <_heap_size+0x6e2>
     6da:	fb02                	.insn	2, 0xfb02
     6dc:	0002                	.insn	2, 0x0002
     6de:	1a00                	.insn	2, 0x1a00
     6e0:	0404                	.insn	2, 0x0404
     6e2:	0095                	.insn	2, 0x0095
     6e4:	0000                	.insn	2, 0x
     6e6:	615f5f03          	lhu	x30,1557(x30)
     6ea:	1a00                	.insn	2, 0x1a00
     6ec:	0404                	.insn	2, 0x0404
     6ee:	0095                	.insn	2, 0x0095
     6f0:	0000                	.insn	2, 0x
     6f2:	0600                	.insn	2, 0x0600
     6f4:	06bd                	.insn	2, 0x06bd
     6f6:	0000                	.insn	2, 0x
     6f8:	b902                	.insn	2, 0xb902
     6fa:	0002                	.insn	2, 0x0002
     6fc:	2600                	.insn	2, 0x2600
     6fe:	0404                	.insn	2, 0x0404
     700:	0095                	.insn	2, 0x0095
     702:	0000                	.insn	2, 0x
     704:	3502                	.insn	2, 0x3502
     706:	0001                	.insn	2, 0x0001
     708:	2600                	.insn	2, 0x2600
     70a:	0404                	.insn	2, 0x0404
     70c:	0095                	.insn	2, 0x0095
     70e:	0000                	.insn	2, 0x
     710:	b402                	.insn	2, 0xb402
     712:	0002                	.insn	2, 0x0002
     714:	2600                	.insn	2, 0x2600
     716:	0404                	.insn	2, 0x0404
     718:	0095                	.insn	2, 0x0095
     71a:	0000                	.insn	2, 0x
     71c:	af02                	.insn	2, 0xaf02
     71e:	0002                	.insn	2, 0x0002
     720:	2600                	.insn	2, 0x2600
     722:	0404                	.insn	2, 0x0404
     724:	0095                	.insn	2, 0x0095
     726:	0000                	.insn	2, 0x
     728:	0502                	.insn	2, 0x0502
     72a:	26000003          	lb	x0,608(x0) # 260 <_heap_size+0x260>
     72e:	0404                	.insn	2, 0x0404
     730:	0095                	.insn	2, 0x0095
     732:	0000                	.insn	2, 0x
     734:	0002                	.insn	2, 0x0002
     736:	26000003          	lb	x0,608(x0) # 260 <_heap_size+0x260>
     73a:	0404                	.insn	2, 0x0404
     73c:	0095                	.insn	2, 0x0095
     73e:	0000                	.insn	2, 0x
     740:	6d5f5f03          	lhu	x30,1749(x30)
     744:	2600                	.insn	2, 0x2600
     746:	0404                	.insn	2, 0x0404
     748:	0095                	.insn	2, 0x0095
     74a:	0000                	.insn	2, 0x
     74c:	0600                	.insn	2, 0x0600
     74e:	000006db          	.insn	4, 0x06db
     752:	fb02                	.insn	2, 0xfb02
     754:	0002                	.insn	2, 0x0002
     756:	3200                	.insn	2, 0x3200
     758:	0404                	.insn	2, 0x0404
     75a:	0095                	.insn	2, 0x0095
     75c:	0000                	.insn	2, 0x
     75e:	615f5f03          	lhu	x30,1557(x30)
     762:	3200                	.insn	2, 0x3200
     764:	0404                	.insn	2, 0x0404
     766:	0095                	.insn	2, 0x0095
     768:	0000                	.insn	2, 0x
     76a:	0600                	.insn	2, 0x0600
     76c:	0735                	.insn	2, 0x0735
     76e:	0000                	.insn	2, 0x
     770:	b902                	.insn	2, 0xb902
     772:	0002                	.insn	2, 0x0002
     774:	4b00                	.insn	2, 0x4b00
     776:	0804                	.insn	2, 0x0804
     778:	0095                	.insn	2, 0x0095
     77a:	0000                	.insn	2, 0x
     77c:	3502                	.insn	2, 0x3502
     77e:	0001                	.insn	2, 0x0001
     780:	4b00                	.insn	2, 0x4b00
     782:	0804                	.insn	2, 0x0804
     784:	0095                	.insn	2, 0x0095
     786:	0000                	.insn	2, 0x
     788:	b402                	.insn	2, 0xb402
     78a:	0002                	.insn	2, 0x0002
     78c:	4b00                	.insn	2, 0x4b00
     78e:	0804                	.insn	2, 0x0804
     790:	0095                	.insn	2, 0x0095
     792:	0000                	.insn	2, 0x
     794:	af02                	.insn	2, 0xaf02
     796:	0002                	.insn	2, 0x0002
     798:	4b00                	.insn	2, 0x4b00
     79a:	0804                	.insn	2, 0x0804
     79c:	0095                	.insn	2, 0x0095
     79e:	0000                	.insn	2, 0x
     7a0:	0502                	.insn	2, 0x0502
     7a2:	4b000003          	lb	x0,1200(x0) # 4b0 <_heap_size+0x4b0>
     7a6:	0804                	.insn	2, 0x0804
     7a8:	0095                	.insn	2, 0x0095
     7aa:	0000                	.insn	2, 0x
     7ac:	0002                	.insn	2, 0x0002
     7ae:	4b000003          	lb	x0,1200(x0) # 4b0 <_heap_size+0x4b0>
     7b2:	0804                	.insn	2, 0x0804
     7b4:	0095                	.insn	2, 0x0095
     7b6:	0000                	.insn	2, 0x
     7b8:	6d5f5f03          	lhu	x30,1749(x30)
     7bc:	4b00                	.insn	2, 0x4b00
     7be:	0804                	.insn	2, 0x0804
     7c0:	0095                	.insn	2, 0x0095
     7c2:	0000                	.insn	2, 0x
     7c4:	0600                	.insn	2, 0x0600
     7c6:	0000078f          	.insn	4, 0x078f
     7ca:	b902                	.insn	2, 0xb902
     7cc:	0002                	.insn	2, 0x0002
     7ce:	5000                	.insn	2, 0x5000
     7d0:	0404                	.insn	2, 0x0404
     7d2:	0095                	.insn	2, 0x0095
     7d4:	0000                	.insn	2, 0x
     7d6:	3502                	.insn	2, 0x3502
     7d8:	0001                	.insn	2, 0x0001
     7da:	5000                	.insn	2, 0x5000
     7dc:	0404                	.insn	2, 0x0404
     7de:	0095                	.insn	2, 0x0095
     7e0:	0000                	.insn	2, 0x
     7e2:	b402                	.insn	2, 0xb402
     7e4:	0002                	.insn	2, 0x0002
     7e6:	5000                	.insn	2, 0x5000
     7e8:	0404                	.insn	2, 0x0404
     7ea:	0095                	.insn	2, 0x0095
     7ec:	0000                	.insn	2, 0x
     7ee:	af02                	.insn	2, 0xaf02
     7f0:	0002                	.insn	2, 0x0002
     7f2:	5000                	.insn	2, 0x5000
     7f4:	0404                	.insn	2, 0x0404
     7f6:	0095                	.insn	2, 0x0095
     7f8:	0000                	.insn	2, 0x
     7fa:	0502                	.insn	2, 0x0502
     7fc:	50000003          	lb	x0,1280(x0) # 500 <_heap_size+0x500>
     800:	0404                	.insn	2, 0x0404
     802:	0095                	.insn	2, 0x0095
     804:	0000                	.insn	2, 0x
     806:	0002                	.insn	2, 0x0002
     808:	50000003          	lb	x0,1280(x0) # 500 <_heap_size+0x500>
     80c:	0404                	.insn	2, 0x0404
     80e:	0095                	.insn	2, 0x0095
     810:	0000                	.insn	2, 0x
     812:	6d5f5f03          	lhu	x30,1749(x30)
     816:	5000                	.insn	2, 0x5000
     818:	0404                	.insn	2, 0x0404
     81a:	0095                	.insn	2, 0x0095
     81c:	0000                	.insn	2, 0x
     81e:	0600                	.insn	2, 0x0600
     820:	07ad                	.insn	2, 0x07ad
     822:	0000                	.insn	2, 0x
     824:	fb02                	.insn	2, 0xfb02
     826:	0002                	.insn	2, 0x0002
     828:	7300                	.insn	2, 0x7300
     82a:	0404                	.insn	2, 0x0404
     82c:	0095                	.insn	2, 0x0095
     82e:	0000                	.insn	2, 0x
     830:	615f5f03          	lhu	x30,1557(x30)
     834:	7300                	.insn	2, 0x7300
     836:	0404                	.insn	2, 0x0404
     838:	0095                	.insn	2, 0x0095
     83a:	0000                	.insn	2, 0x
     83c:	0600                	.insn	2, 0x0600
     83e:	000007bf 785f5f03 	.insn	8, 0x785f5f03000007bf
     846:	8100                	.insn	2, 0x8100
     848:	0504                	.insn	2, 0x0504
     84a:	0095                	.insn	2, 0x0095
     84c:	0000                	.insn	2, 0x
     84e:	1000                	.insn	2, 0x1000
     850:	00316d03          	.insn	4, 0x00316d03
     854:	0491                	.insn	2, 0x0491
     856:	0000950f          	.insn	4, 0x950f
     85a:	0300                	.insn	2, 0x0300
     85c:	306d                	.insn	2, 0x306d
     85e:	9100                	.insn	2, 0x9100
     860:	1304                	.insn	2, 0x1304
     862:	0095                	.insn	2, 0x0095
     864:	0000                	.insn	2, 0x
     866:	3006                	.insn	2, 0x3006
     868:	0008                	.insn	2, 0x0008
     86a:	0200                	.insn	2, 0x0200
     86c:	02b9                	.insn	2, 0x02b9
     86e:	0000                	.insn	2, 0x
     870:	049c                	.insn	2, 0x049c
     872:	9508                	.insn	2, 0x9508
     874:	0000                	.insn	2, 0x
     876:	0200                	.insn	2, 0x0200
     878:	0135                	.insn	2, 0x0135
     87a:	0000                	.insn	2, 0x
     87c:	049c                	.insn	2, 0x049c
     87e:	9508                	.insn	2, 0x9508
     880:	0000                	.insn	2, 0x
     882:	0200                	.insn	2, 0x0200
     884:	02b4                	.insn	2, 0x02b4
     886:	0000                	.insn	2, 0x
     888:	049c                	.insn	2, 0x049c
     88a:	9508                	.insn	2, 0x9508
     88c:	0000                	.insn	2, 0x
     88e:	0200                	.insn	2, 0x0200
     890:	000002af          	.insn	4, 0x02af
     894:	049c                	.insn	2, 0x049c
     896:	9508                	.insn	2, 0x9508
     898:	0000                	.insn	2, 0x
     89a:	0200                	.insn	2, 0x0200
     89c:	0305                	.insn	2, 0x0305
     89e:	0000                	.insn	2, 0x
     8a0:	049c                	.insn	2, 0x049c
     8a2:	9508                	.insn	2, 0x9508
     8a4:	0000                	.insn	2, 0x
     8a6:	0200                	.insn	2, 0x0200
     8a8:	0300                	.insn	2, 0x0300
     8aa:	0000                	.insn	2, 0x
     8ac:	049c                	.insn	2, 0x049c
     8ae:	9508                	.insn	2, 0x9508
     8b0:	0000                	.insn	2, 0x
     8b2:	0300                	.insn	2, 0x0300
     8b4:	5f5f 006d 049c      	.insn	6, 0x049c006d5f5f
     8ba:	9508                	.insn	2, 0x9508
     8bc:	0000                	.insn	2, 0x
     8be:	0000                	.insn	2, 0x
     8c0:	0a06                	.insn	2, 0x0a06
     8c2:	0009                	.insn	2, 0x0009
     8c4:	0200                	.insn	2, 0x0200
     8c6:	0000026f          	jal	x4,8c6 <_heap_size+0x8c6>
     8ca:	049d                	.insn	2, 0x049d
     8cc:	9508                	.insn	2, 0x9508
     8ce:	0000                	.insn	2, 0x
     8d0:	0200                	.insn	2, 0x0200
     8d2:	0274                	.insn	2, 0x0274
     8d4:	0000                	.insn	2, 0x
     8d6:	049d                	.insn	2, 0x049d
     8d8:	9508                	.insn	2, 0x9508
     8da:	0000                	.insn	2, 0x
     8dc:	0200                	.insn	2, 0x0200
     8de:	0279                	.insn	2, 0x0279
     8e0:	0000                	.insn	2, 0x
     8e2:	049d                	.insn	2, 0x049d
     8e4:	9508                	.insn	2, 0x9508
     8e6:	0000                	.insn	2, 0x
     8e8:	0200                	.insn	2, 0x0200
     8ea:	027e                	.insn	2, 0x027e
     8ec:	0000                	.insn	2, 0x
     8ee:	049d                	.insn	2, 0x049d
     8f0:	9508                	.insn	2, 0x9508
     8f2:	0000                	.insn	2, 0x
     8f4:	0200                	.insn	2, 0x0200
     8f6:	0000030f          	.insn	4, 0x030f
     8fa:	049d                	.insn	2, 0x049d
     8fc:	9508                	.insn	2, 0x9508
     8fe:	0000                	.insn	2, 0x
     900:	0200                	.insn	2, 0x0200
     902:	02cd                	.insn	2, 0x02cd
     904:	0000                	.insn	2, 0x
     906:	049d                	.insn	2, 0x049d
     908:	9508                	.insn	2, 0x9508
     90a:	0000                	.insn	2, 0x
     90c:	0200                	.insn	2, 0x0200
     90e:	030a                	.insn	2, 0x030a
     910:	0000                	.insn	2, 0x
     912:	049d                	.insn	2, 0x049d
     914:	9508                	.insn	2, 0x9508
     916:	0000                	.insn	2, 0x
     918:	0200                	.insn	2, 0x0200
     91a:	013a                	.insn	2, 0x013a
     91c:	0000                	.insn	2, 0x
     91e:	049d                	.insn	2, 0x049d
     920:	9508                	.insn	2, 0x9508
     922:	0000                	.insn	2, 0x
     924:	0600                	.insn	2, 0x0600
     926:	000008b3          	add	x17,x0,x0
     92a:	3f02                	.insn	2, 0x3f02
     92c:	0001                	.insn	2, 0x0001
     92e:	9d00                	.insn	2, 0x9d00
     930:	0804                	.insn	2, 0x0804
     932:	0095                	.insn	2, 0x0095
     934:	0000                	.insn	2, 0x
     936:	4502                	.insn	2, 0x4502
     938:	0001                	.insn	2, 0x0001
     93a:	9d00                	.insn	2, 0x9d00
     93c:	0804                	.insn	2, 0x0804
     93e:	0095                	.insn	2, 0x0095
     940:	0000                	.insn	2, 0x
     942:	0600                	.insn	2, 0x0600
     944:	08d1                	.insn	2, 0x08d1
     946:	0000                	.insn	2, 0x
     948:	3f02                	.insn	2, 0x3f02
     94a:	0001                	.insn	2, 0x0001
     94c:	9d00                	.insn	2, 0x9d00
     94e:	0804                	.insn	2, 0x0804
     950:	0095                	.insn	2, 0x0095
     952:	0000                	.insn	2, 0x
     954:	4502                	.insn	2, 0x4502
     956:	0001                	.insn	2, 0x0001
     958:	9d00                	.insn	2, 0x9d00
     95a:	0804                	.insn	2, 0x0804
     95c:	0095                	.insn	2, 0x0095
     95e:	0000                	.insn	2, 0x
     960:	0600                	.insn	2, 0x0600
     962:	000008ef          	jal	x17,962 <_heap_size+0x962>
     966:	3f02                	.insn	2, 0x3f02
     968:	0001                	.insn	2, 0x0001
     96a:	9d00                	.insn	2, 0x9d00
     96c:	0804                	.insn	2, 0x0804
     96e:	0095                	.insn	2, 0x0095
     970:	0000                	.insn	2, 0x
     972:	4502                	.insn	2, 0x4502
     974:	0001                	.insn	2, 0x0001
     976:	9d00                	.insn	2, 0x9d00
     978:	0804                	.insn	2, 0x0804
     97a:	0095                	.insn	2, 0x0095
     97c:	0000                	.insn	2, 0x
     97e:	1000                	.insn	2, 0x1000
     980:	3f02                	.insn	2, 0x3f02
     982:	0001                	.insn	2, 0x0001
     984:	9d00                	.insn	2, 0x9d00
     986:	0804                	.insn	2, 0x0804
     988:	0095                	.insn	2, 0x0095
     98a:	0000                	.insn	2, 0x
     98c:	4502                	.insn	2, 0x4502
     98e:	0001                	.insn	2, 0x0001
     990:	9d00                	.insn	2, 0x9d00
     992:	0804                	.insn	2, 0x0804
     994:	0095                	.insn	2, 0x0095
     996:	0000                	.insn	2, 0x
     998:	0000                	.insn	2, 0x
     99a:	1c06                	.insn	2, 0x1c06
     99c:	0009                	.insn	2, 0x0009
     99e:	0300                	.insn	2, 0x0300
     9a0:	5f5f 0078 04a2      	.insn	6, 0x04a200785f5f
     9a6:	9505                	.insn	2, 0x9505
     9a8:	0000                	.insn	2, 0x
     9aa:	0000                	.insn	2, 0x
     9ac:	0310                	.insn	2, 0x0310
     9ae:	5f5f 0078 04aa      	.insn	6, 0x04aa00785f5f
     9b4:	9505                	.insn	2, 0x9505
     9b6:	0000                	.insn	2, 0x
     9b8:	0000                	.insn	2, 0x
     9ba:	0000                	.insn	2, 0x
     9bc:	0422                	.insn	2, 0x0422
     9be:	000000ab          	.insn	4, 0x00ab
     9c2:	ee11                	.insn	2, 0xee11
     9c4:	0000                	.insn	2, 0x
     9c6:	ee00                	.insn	2, 0xee00
     9c8:	0000                	.insn	2, 0x
     9ca:	1100                	.insn	2, 0x1100
     9cc:	00a4                	.insn	2, 0x00a4
     9ce:	0000                	.insn	2, 0x
     9d0:	00a4                	.insn	2, 0x00a4
     9d2:	0000                	.insn	2, 0x
     9d4:	f811                	.insn	2, 0xf811
     9d6:	0000                	.insn	2, 0x
     9d8:	f800                	.insn	2, 0xf800
     9da:	0000                	.insn	2, 0x
     9dc:	0000                	.insn	2, 0x
     9de:	095a                	.insn	2, 0x095a
     9e0:	0000                	.insn	2, 0x
     9e2:	0005                	.insn	2, 0x0005
     9e4:	0401                	.insn	2, 0x0401
     9e6:	0215                	.insn	2, 0x0215
     9e8:	0000                	.insn	2, 0x
     9ea:	9e14                	.insn	2, 0x9e14
     9ec:	0001                	.insn	2, 0x0001
     9ee:	1d00                	.insn	2, 0x1d00
     9f0:	009e                	.insn	2, 0x009e
     9f2:	0000                	.insn	2, 0x
     9f4:	0000                	.insn	2, 0x
     9f6:	0000                	.insn	2, 0x
     9f8:	4cf0                	.insn	2, 0x4cf0
     9fa:	8000                	.insn	2, 0x8000
     9fc:	04d0                	.insn	2, 0x04d0
     9fe:	0000                	.insn	2, 0x
     a00:	0b22                	.insn	2, 0x0b22
     a02:	0000                	.insn	2, 0x
     a04:	0404                	.insn	2, 0x0404
     a06:	00016307          	.insn	4, 0x00016307
     a0a:	0400                	.insn	2, 0x0400
     a0c:	0708                	.insn	2, 0x0708
     a0e:	0159                	.insn	2, 0x0159
     a10:	0000                	.insn	2, 0x
     a12:	0415                	.insn	2, 0x0415
     a14:	6905                	.insn	2, 0x6905
     a16:	746e                	.insn	2, 0x746e
     a18:	0400                	.insn	2, 0x0400
     a1a:	0508                	.insn	2, 0x0508
     a1c:	0000014b          	.insn	4, 0x014b
     a20:	1004                	.insn	2, 0x1004
     a22:	e704                	.insn	2, 0xe704
     a24:	0002                	.insn	2, 0x0002
     a26:	0400                	.insn	2, 0x0400
     a28:	0601                	.insn	2, 0x0601
     a2a:	0192                	.insn	2, 0x0192
     a2c:	0000                	.insn	2, 0x
     a2e:	0104                	.insn	2, 0x0104
     a30:	9008                	.insn	2, 0x9008
     a32:	0001                	.insn	2, 0x0001
     a34:	0400                	.insn	2, 0x0400
     a36:	0502                	.insn	2, 0x0502
     a38:	0000012b          	.insn	4, 0x012b
     a3c:	0204                	.insn	2, 0x0204
     a3e:	00029407          	.insn	4, 0x00029407
     a42:	0400                	.insn	2, 0x0400
     a44:	0504                	.insn	2, 0x0504
     a46:	0150                	.insn	2, 0x0150
     a48:	0000                	.insn	2, 0x
     a4a:	0404                	.insn	2, 0x0404
     a4c:	00015e07          	.insn	4, 0x00015e07
     a50:	0400                	.insn	2, 0x0400
     a52:	0801                	.insn	2, 0x0801
     a54:	0199                	.insn	2, 0x0199
     a56:	0000                	.insn	2, 0x
     a58:	0002830b          	.insn	4, 0x0002830b
     a5c:	7b00                	.insn	2, 0x7b00
     a5e:	5016                	.insn	2, 0x5016
     a60:	0000                	.insn	2, 0x
     a62:	0c00                	.insn	2, 0x0c00
     a64:	007a                	.insn	2, 0x007a
     a66:	0000                	.insn	2, 0x
     a68:	0002f40b          	.insn	4, 0x0002f40b
     a6c:	8000                	.insn	2, 0x8000
     a6e:	0000340f          	.insn	4, 0x340f
     a72:	0b00                	.insn	2, 0x0b00
     a74:	000002f3          	.insn	4, 0x02f3
     a78:	1681                	.insn	2, 0x1681
     a7a:	0026                	.insn	2, 0x0026
     a7c:	0000                	.insn	2, 0x
     a7e:	0002a80b          	.insn	4, 0x0002a80b
     a82:	8400                	.insn	2, 0x8400
     a84:	00003b0f          	.insn	4, 0x3b0f
     a88:	0b00                	.insn	2, 0x0b00
     a8a:	000002a7          	.insn	4, 0x02a7
     a8e:	1685                	.insn	2, 0x1685
     a90:	002d                	.insn	2, 0x002d
     a92:	0000                	.insn	2, 0x
     a94:	0204                	.insn	2, 0x0204
     a96:	8704                	.insn	2, 0x8704
     a98:	0001                	.insn	2, 0x0001
     a9a:	0400                	.insn	2, 0x0400
     a9c:	0304                	.insn	2, 0x0304
     a9e:	017f 0000 0404 2504 	.insn	10, 0x0001250404040000017f
     aa6:	0001 
     aa8:	0400                	.insn	2, 0x0400
     aaa:	0308                	.insn	2, 0x0308
     aac:	011d                	.insn	2, 0x011d
     aae:	0000                	.insn	2, 0x
     ab0:	0804                	.insn	2, 0x0804
     ab2:	ec04                	.insn	2, 0xec04
     ab4:	0002                	.insn	2, 0x0002
     ab6:	0400                	.insn	2, 0x0400
     ab8:	0310                	.insn	2, 0x0310
     aba:	02be                	.insn	2, 0x02be
     abc:	0000                	.insn	2, 0x
     abe:	2004                	.insn	2, 0x2004
     ac0:	0002df03          	lhu	x30,0(x5)
     ac4:	1600                	.insn	2, 0x1600
     ac6:	0000028b          	.insn	4, 0x028b
     aca:	0208                	.insn	2, 0x0208
     acc:	01f1                	.insn	2, 0x01f1
     ace:	120a                	.insn	2, 0x120a
     ad0:	0001                	.insn	2, 0x0001
     ad2:	1700                	.insn	2, 0x1700
     ad4:	6f6c                	.insn	2, 0x6f6c
     ad6:	f1020077          	.insn	4, 0xf1020077
     ada:	1a01                	.insn	2, 0x1a01
     adc:	008a                	.insn	2, 0x008a
     ade:	0000                	.insn	2, 0x
     ae0:	1800                	.insn	2, 0x1800
     ae2:	0170                	.insn	2, 0x0170
     ae4:	0000                	.insn	2, 0x
     ae6:	f102                	.insn	2, 0xf102
     ae8:	1f01                	.insn	2, 0x1f01
     aea:	008a                	.insn	2, 0x008a
     aec:	0000                	.insn	2, 0x
     aee:	0004                	.insn	2, 0x0004
     af0:	0819                	.insn	2, 0x0819
     af2:	f802                	.insn	2, 0xf802
     af4:	0901                	.insn	2, 0x0901
     af6:	0132                	.insn	2, 0x0132
     af8:	0000                	.insn	2, 0x
     afa:	7311                	.insn	2, 0x7311
     afc:	fa00                	.insn	2, 0xfa00
     afe:	1301                	.insn	2, 0x1301
     b00:	000000e7          	jalr	x1,0(x0) # 0 <_heap_size>
     b04:	6c11                	.insn	2, 0x6c11
     b06:	006c                	.insn	2, 0x006c
     b08:	a00a01fb          	.insn	4, 0xa00a01fb
     b0c:	0000                	.insn	2, 0x
     b0e:	0000                	.insn	2, 0x
     b10:	0b1a                	.insn	2, 0x0b1a
     b12:	0001                	.insn	2, 0x0001
     b14:	0200                	.insn	2, 0x0200
     b16:	01fc                	.insn	2, 0x01fc
     b18:	00011203          	lh	x4,0(x2)
     b1c:	0c00                	.insn	2, 0x0c00
     b1e:	0132                	.insn	2, 0x0132
     b20:	0000                	.insn	2, 0x
     b22:	0000851b          	.insn	4, 0x851b
     b26:	5400                	.insn	2, 0x5400
     b28:	0001                	.insn	2, 0x0001
     b2a:	1c00                	.insn	2, 0x1c00
     b2c:	0026                	.insn	2, 0x0026
     b2e:	0000                	.insn	2, 0x
     b30:	00ff 440c 0001 1d00 	.insn	10, 0x01751d000001440c00ff
     b38:	0175 
     b3a:	0000                	.insn	2, 0x
     b3c:	0602                	.insn	2, 0x0602
     b3e:	1602                	.insn	2, 0x1602
     b40:	0154                	.insn	2, 0x0154
     b42:	0000                	.insn	2, 0x
     b44:	141e                	.insn	2, 0x141e
     b46:	01000003          	lb	x0,16(x0) # 10 <_heap_size+0x10>
     b4a:	0506                	.insn	2, 0x0506
     b4c:	ab01                	.insn	2, 0xab01
     b4e:	0000                	.insn	2, 0x
     b50:	f000                	.insn	2, 0xf000
     b52:	004c                	.insn	2, 0x004c
     b54:	d080                	.insn	2, 0xd080
     b56:	0004                	.insn	2, 0x0004
     b58:	0100                	.insn	2, 0x0100
     b5a:	9c9c                	.insn	2, 0x9c9c
     b5c:	0005                	.insn	2, 0x0005
     b5e:	1200                	.insn	2, 0x1200
     b60:	0075                	.insn	2, 0x0075
     b62:	ab14                	.insn	2, 0xab14
     b64:	0000                	.insn	2, 0x
     b66:	8200                	.insn	2, 0x8200
     b68:	12000007          	.insn	4, 0x12000007
     b6c:	0076                	.insn	2, 0x0076
     b6e:	ab1f 0000 e200      	.insn	6, 0xe2000000ab1f
     b74:	1f000007          	.insn	4, 0x1f000007
     b78:	08010077          	.insn	4, 0x08010077
     b7c:	0b05                	.insn	2, 0x0b05
     b7e:	000000ab          	.insn	4, 0x00ab
     b82:	082a                	.insn	2, 0x082a
     b84:	0000                	.insn	2, 0x
     b86:	9c20                	.insn	2, 0x9c20
     b88:	0005                	.insn	2, 0x0005
     b8a:	f000                	.insn	2, 0xf000
     b8c:	004c                	.insn	2, 0x004c
     b8e:	b380                	.insn	2, 0xb380
     b90:	0000                	.insn	2, 0x
     b92:	0100                	.insn	2, 0x0100
     b94:	050a                	.insn	2, 0x050a
     b96:	0d0a                	.insn	2, 0x0d0a
     b98:	05be                	.insn	2, 0x05be
     b9a:	0000                	.insn	2, 0x
     b9c:	00000837          	lui	x16,0x0
     ba0:	b60d                	.insn	2, 0xb60d
     ba2:	0005                	.insn	2, 0x0005
     ba4:	4f00                	.insn	2, 0x4f00
     ba6:	0008                	.insn	2, 0x0008
     ba8:	0d00                	.insn	2, 0x0d00
     baa:	05ae                	.insn	2, 0x05ae
     bac:	0000                	.insn	2, 0x
     bae:	0896                	.insn	2, 0x0896
     bb0:	0000                	.insn	2, 0x
     bb2:	b321                	.insn	2, 0xb321
     bb4:	0000                	.insn	2, 0x
     bb6:	0800                	.insn	2, 0x0800
     bb8:	000005c7          	.insn	4, 0x05c7
     bbc:	d208                	.insn	2, 0xd208
     bbe:	0005                	.insn	2, 0x0005
     bc0:	0800                	.insn	2, 0x0800
     bc2:	05dd                	.insn	2, 0x05dd
     bc4:	0000                	.insn	2, 0x
     bc6:	e801                	.insn	2, 0xe801
     bc8:	0005                	.insn	2, 0x0005
     bca:	f600                	.insn	2, 0xf600
     bcc:	0008                	.insn	2, 0x0008
     bce:	0100                	.insn	2, 0x0100
     bd0:	000005f3          	.insn	4, 0x05f3
     bd4:	0920                	.insn	2, 0x0920
     bd6:	0000                	.insn	2, 0x
     bd8:	fe01                	.insn	2, 0xfe01
     bda:	0005                	.insn	2, 0x0005
     bdc:	5000                	.insn	2, 0x5000
     bde:	0009                	.insn	2, 0x0009
     be0:	0100                	.insn	2, 0x0100
     be2:	0609                	.insn	2, 0x0609
     be4:	0000                	.insn	2, 0x
     be6:	0000098f          	.insn	4, 0x098f
     bea:	1401                	.insn	2, 0x1401
     bec:	0006                	.insn	2, 0x0006
     bee:	eb00                	.insn	2, 0xeb00
     bf0:	0009                	.insn	2, 0x0009
     bf2:	0100                	.insn	2, 0x0100
     bf4:	061f 0000 0a01      	.insn	6, 0x0a010000061f
     bfa:	0000                	.insn	2, 0x
     bfc:	2a01                	.insn	2, 0x2a01
     bfe:	0006                	.insn	2, 0x0006
     c00:	0a00                	.insn	2, 0x0a00
     c02:	000a                	.insn	2, 0x000a
     c04:	0100                	.insn	2, 0x0100
     c06:	0635                	.insn	2, 0x0635
     c08:	0000                	.insn	2, 0x
     c0a:	00000a1b          	.insn	4, 0x0a1b
     c0e:	3f01                	.insn	2, 0x3f01
     c10:	0006                	.insn	2, 0x0006
     c12:	2a00                	.insn	2, 0x2a00
     c14:	000a                	.insn	2, 0x000a
     c16:	0800                	.insn	2, 0x0800
     c18:	064a                	.insn	2, 0x064a
     c1a:	0000                	.insn	2, 0x
     c1c:	550a                	.insn	2, 0x550a
     c1e:	0006                	.insn	2, 0x0006
     c20:	c000                	.insn	2, 0xc000
     c22:	0000                	.insn	2, 0x
     c24:	5e00                	.insn	2, 0x5e00
     c26:	0002                	.insn	2, 0x0002
     c28:	0100                	.insn	2, 0x0100
     c2a:	065a                	.insn	2, 0x065a
     c2c:	0000                	.insn	2, 0x
     c2e:	0a46                	.insn	2, 0x0a46
     c30:	0000                	.insn	2, 0x
     c32:	6601                	.insn	2, 0x6601
     c34:	0006                	.insn	2, 0x0006
     c36:	5400                	.insn	2, 0x5400
     c38:	000a                	.insn	2, 0x000a
     c3a:	0000                	.insn	2, 0x
     c3c:	7309                	.insn	2, 0x7309
     c3e:	0006                	.insn	2, 0x0006
     c40:	8400                	.insn	2, 0x8400
     c42:	004d                	.insn	2, 0x004d
     c44:	0080                	.insn	2, 0x0080
     c46:	0000                	.insn	2, 0x
     c48:	9700                	.insn	2, 0x9700
     c4a:	0002                	.insn	2, 0x0002
     c4c:	0600                	.insn	2, 0x0600
     c4e:	0678                	.insn	2, 0x0678
     c50:	0000                	.insn	2, 0x
     c52:	6501                	.insn	2, 0x6501
     c54:	8406                	.insn	2, 0x8406
     c56:	0006                	.insn	2, 0x0006
     c58:	0100                	.insn	2, 0x0100
     c5a:	0866                	.insn	2, 0x0866
     c5c:	0690                	.insn	2, 0x0690
     c5e:	0000                	.insn	2, 0x
     c60:	9c08                	.insn	2, 0x9c08
     c62:	0006                	.insn	2, 0x0006
     c64:	0800                	.insn	2, 0x0800
     c66:	06a8                	.insn	2, 0x06a8
     c68:	0000                	.insn	2, 0x
     c6a:	b408                	.insn	2, 0xb408
     c6c:	0006                	.insn	2, 0x0006
     c6e:	0800                	.insn	2, 0x0800
     c70:	06c0                	.insn	2, 0x06c0
     c72:	0000                	.insn	2, 0x
     c74:	0900                	.insn	2, 0x0900
     c76:	0745                	.insn	2, 0x0745
     c78:	0000                	.insn	2, 0x
     c7a:	4d84                	.insn	2, 0x4d84
     c7c:	8000                	.insn	2, 0x8000
     c7e:	00a0                	.insn	2, 0x00a0
     c80:	0000                	.insn	2, 0x
     c82:	031e                	.insn	2, 0x031e
     c84:	0000                	.insn	2, 0x
     c86:	4a01                	.insn	2, 0x4a01
     c88:	5a000007          	.insn	4, 0x5a000007
     c8c:	000a                	.insn	2, 0x000a
     c8e:	0100                	.insn	2, 0x0100
     c90:	0756                	.insn	2, 0x0756
     c92:	0000                	.insn	2, 0x
     c94:	0a62                	.insn	2, 0x0a62
     c96:	0000                	.insn	2, 0x
     c98:	6201                	.insn	2, 0x6201
     c9a:	6a000007          	.insn	4, 0x6a000007
     c9e:	000a                	.insn	2, 0x000a
     ca0:	0100                	.insn	2, 0x0100
     ca2:	076e                	.insn	2, 0x076e
     ca4:	0000                	.insn	2, 0x
     ca6:	0aa5                	.insn	2, 0x0aa5
     ca8:	0000                	.insn	2, 0x
     caa:	7a01                	.insn	2, 0x7a01
     cac:	e0000007          	.insn	4, 0xe0000007
     cb0:	000a                	.insn	2, 0x000a
     cb2:	0100                	.insn	2, 0x0100
     cb4:	0786                	.insn	2, 0x0786
     cb6:	0000                	.insn	2, 0x
     cb8:	00000afb          	.insn	4, 0x0afb
     cbc:	9201                	.insn	2, 0x9201
     cbe:	0f000007          	.insn	4, 0x0f000007
     cc2:	0500000b          	.insn	4, 0x0500000b
     cc6:	4d98                	.insn	2, 0x4d98
     cc8:	8000                	.insn	2, 0x8000
     cca:	0942                	.insn	2, 0x0942
     ccc:	0000                	.insn	2, 0x
     cce:	a405                	.insn	2, 0xa405
     cd0:	004d                	.insn	2, 0x004d
     cd2:	4b80                	.insn	2, 0x4b80
     cd4:	0009                	.insn	2, 0x0009
     cd6:	0500                	.insn	2, 0x0500
     cd8:	4db4                	.insn	2, 0x4db4
     cda:	8000                	.insn	2, 0x8000
     cdc:	0954                	.insn	2, 0x0954
     cde:	0000                	.insn	2, 0x
     ce0:	e405                	.insn	2, 0xe405
     ce2:	004d                	.insn	2, 0x004d
     ce4:	4280                	.insn	2, 0x4280
     ce6:	0009                	.insn	2, 0x0009
     ce8:	0500                	.insn	2, 0x0500
     cea:	4dec                	.insn	2, 0x4dec
     cec:	8000                	.insn	2, 0x8000
     cee:	0000094b          	.insn	4, 0x094b
     cf2:	fc05                	.insn	2, 0xfc05
     cf4:	004d                	.insn	2, 0x004d
     cf6:	5480                	.insn	2, 0x5480
     cf8:	0009                	.insn	2, 0x0009
     cfa:	0000                	.insn	2, 0x
     cfc:	cd0a                	.insn	2, 0xcd0a
     cfe:	0006                	.insn	2, 0x0006
     d00:	c900                	.insn	2, 0xc900
     d02:	0000                	.insn	2, 0x
     d04:	3e00                	.insn	2, 0x3e00
     d06:	01000003          	lb	x0,16(x0) # 10 <_heap_size+0x10>
     d0a:	06d2                	.insn	2, 0x06d2
     d0c:	0000                	.insn	2, 0x
     d0e:	0b2c                	.insn	2, 0x0b2c
     d10:	0000                	.insn	2, 0x
     d12:	de01                	.insn	2, 0xde01
     d14:	0006                	.insn	2, 0x0006
     d16:	3b00                	.insn	2, 0x3b00
     d18:	0000000b          	.insn	4, 0x000b
     d1c:	eb0a                	.insn	2, 0xeb0a
     d1e:	0006                	.insn	2, 0x0006
     d20:	de00                	.insn	2, 0xde00
     d22:	0000                	.insn	2, 0x
     d24:	c100                	.insn	2, 0xc100
     d26:	01000003          	lb	x0,16(x0) # 10 <_heap_size+0x10>
     d2a:	06f0                	.insn	2, 0x06f0
     d2c:	0000                	.insn	2, 0x
     d2e:	00000b43          	.insn	4, 0x0b43
     d32:	fc01                	.insn	2, 0xfc01
     d34:	0006                	.insn	2, 0x0006
     d36:	4b00                	.insn	2, 0x4b00
     d38:	0100000b          	.insn	4, 0x0100000b
     d3c:	0708                	.insn	2, 0x0708
     d3e:	0000                	.insn	2, 0x
     d40:	0b60                	.insn	2, 0x0b60
     d42:	0000                	.insn	2, 0x
     d44:	1401                	.insn	2, 0x1401
     d46:	9b000007          	.insn	4, 0x9b000007
     d4a:	0100000b          	.insn	4, 0x0100000b
     d4e:	0720                	.insn	2, 0x0720
     d50:	0000                	.insn	2, 0x
     d52:	0bd6                	.insn	2, 0x0bd6
     d54:	0000                	.insn	2, 0x
     d56:	2c01                	.insn	2, 0x2c01
     d58:	f1000007          	.insn	4, 0xf1000007
     d5c:	0100000b          	.insn	4, 0x0100000b
     d60:	0738                	.insn	2, 0x0738
     d62:	0000                	.insn	2, 0x
     d64:	0c0c                	.insn	2, 0x0c0c
     d66:	0000                	.insn	2, 0x
     d68:	e005                	.insn	2, 0xe005
     d6a:	004e                	.insn	2, 0x004e
     d6c:	4280                	.insn	2, 0x4280
     d6e:	0009                	.insn	2, 0x0009
     d70:	0500                	.insn	2, 0x0500
     d72:	4eec                	.insn	2, 0x4eec
     d74:	8000                	.insn	2, 0x8000
     d76:	0000094b          	.insn	4, 0x094b
     d7a:	fc05                	.insn	2, 0xfc05
     d7c:	004e                	.insn	2, 0x004e
     d7e:	5480                	.insn	2, 0x5480
     d80:	0009                	.insn	2, 0x0009
     d82:	0500                	.insn	2, 0x0500
     d84:	4f2c                	.insn	2, 0x4f2c
     d86:	8000                	.insn	2, 0x8000
     d88:	0942                	.insn	2, 0x0942
     d8a:	0000                	.insn	2, 0x
     d8c:	3405                	.insn	2, 0x3405
     d8e:	4b80004f          	.insn	4, 0x4b80004f
     d92:	0009                	.insn	2, 0x0009
     d94:	0500                	.insn	2, 0x0500
     d96:	4f44                	.insn	2, 0x4f44
     d98:	8000                	.insn	2, 0x8000
     d9a:	0954                	.insn	2, 0x0954
     d9c:	0000                	.insn	2, 0x
     d9e:	0a00                	.insn	2, 0x0a00
     da0:	079f 0000 00e9      	.insn	6, 0x00e90000079f
     da6:	0000                	.insn	2, 0x
     da8:	03e1                	.insn	2, 0x03e1
     daa:	0000                	.insn	2, 0x
     dac:	a401                	.insn	2, 0xa401
     dae:	22000007          	.insn	4, 0x22000007
     db2:	000c                	.insn	2, 0x000c
     db4:	0100                	.insn	2, 0x0100
     db6:	07b0                	.insn	2, 0x07b0
     db8:	0000                	.insn	2, 0x
     dba:	0c31                	.insn	2, 0x0c31
     dbc:	0000                	.insn	2, 0x
     dbe:	0900                	.insn	2, 0x0900
     dc0:	07bd                	.insn	2, 0x07bd
     dc2:	0000                	.insn	2, 0x
     dc4:	4fc8                	.insn	2, 0x4fc8
     dc6:	8000                	.insn	2, 0x8000
     dc8:	0014                	.insn	2, 0x0014
     dca:	0000                	.insn	2, 0x
     dcc:	03fc                	.insn	2, 0x03fc
     dce:	0000                	.insn	2, 0x
     dd0:	c201                	.insn	2, 0xc201
     dd2:	39000007          	.insn	4, 0x39000007
     dd6:	000c                	.insn	2, 0x000c
     dd8:	0000                	.insn	2, 0x
     dda:	0007cf13          	xori	x30,x15,0
     dde:	fc00                	.insn	2, 0xfc00
     de0:	c480004f          	.insn	4, 0xc480004f
     de4:	0001                	.insn	2, 0x0001
     de6:	0600                	.insn	2, 0x0600
     de8:	07d0                	.insn	2, 0x07d0
     dea:	0000                	.insn	2, 0x
     dec:	5e01                	.insn	2, 0x5e01
     dee:	db01                	.insn	2, 0xdb01
     df0:	41000007          	.insn	4, 0x41000007
     df4:	000c                	.insn	2, 0x000c
     df6:	0a00                	.insn	2, 0x0a00
     df8:	07e6                	.insn	2, 0x07e6
     dfa:	0000                	.insn	2, 0x
     dfc:	00f4                	.insn	2, 0x00f4
     dfe:	0000                	.insn	2, 0x
     e00:	049c                	.insn	2, 0x049c
     e02:	0000                	.insn	2, 0x
     e04:	eb01                	.insn	2, 0xeb01
     e06:	50000007          	.insn	4, 0x50000007
     e0a:	000c                	.insn	2, 0x000c
     e0c:	0100                	.insn	2, 0x0100
     e0e:	000007f7          	.insn	4, 0x07f7
     e12:	00000c63          	beq	x0,x0,e2a <_heap_size+0xe2a>
     e16:	0301                	.insn	2, 0x0301
     e18:	0008                	.insn	2, 0x0008
     e1a:	7800                	.insn	2, 0x7800
     e1c:	000c                	.insn	2, 0x000c
     e1e:	0100                	.insn	2, 0x0100
     e20:	0000080f          	.insn	4, 0x080f
     e24:	0c95                	.insn	2, 0x0c95
     e26:	0000                	.insn	2, 0x
     e28:	1b01                	.insn	2, 0x1b01
     e2a:	0008                	.insn	2, 0x0008
     e2c:	b200                	.insn	2, 0xb200
     e2e:	000c                	.insn	2, 0x000c
     e30:	0100                	.insn	2, 0x0100
     e32:	00000827          	.insn	4, 0x0827
     e36:	0cee                	.insn	2, 0x0cee
     e38:	0000                	.insn	2, 0x
     e3a:	3301                	.insn	2, 0x3301
     e3c:	0008                	.insn	2, 0x0008
     e3e:	2000                	.insn	2, 0x2000
     e40:	000d                	.insn	2, 0x000d
     e42:	0500                	.insn	2, 0x0500
     e44:	5038                	.insn	2, 0x5038
     e46:	8000                	.insn	2, 0x8000
     e48:	0942                	.insn	2, 0x0942
     e4a:	0000                	.insn	2, 0x
     e4c:	4805                	.insn	2, 0x4805
     e4e:	0050                	.insn	2, 0x0050
     e50:	4b80                	.insn	2, 0x4b80
     e52:	0009                	.insn	2, 0x0009
     e54:	0500                	.insn	2, 0x0500
     e56:	5058                	.insn	2, 0x5058
     e58:	8000                	.insn	2, 0x8000
     e5a:	0954                	.insn	2, 0x0954
     e5c:	0000                	.insn	2, 0x
     e5e:	9405                	.insn	2, 0x9405
     e60:	0050                	.insn	2, 0x0050
     e62:	4280                	.insn	2, 0x4280
     e64:	0009                	.insn	2, 0x0009
     e66:	0500                	.insn	2, 0x0500
     e68:	50a4                	.insn	2, 0x50a4
     e6a:	8000                	.insn	2, 0x8000
     e6c:	0000094b          	.insn	4, 0x094b
     e70:	b405                	.insn	2, 0xb405
     e72:	0050                	.insn	2, 0x0050
     e74:	5480                	.insn	2, 0x5480
     e76:	0009                	.insn	2, 0x0009
     e78:	0000                	.insn	2, 0x
     e7a:	400a                	.insn	2, 0x400a
     e7c:	0008                	.insn	2, 0x0008
     e7e:	0e00                	.insn	2, 0x0e00
     e80:	0001                	.insn	2, 0x0001
     e82:	6600                	.insn	2, 0x6600
     e84:	0005                	.insn	2, 0x0005
     e86:	0100                	.insn	2, 0x0100
     e88:	0845                	.insn	2, 0x0845
     e8a:	0000                	.insn	2, 0x
     e8c:	0d3d                	.insn	2, 0x0d3d
     e8e:	0000                	.insn	2, 0x
     e90:	5101                	.insn	2, 0x5101
     e92:	0008                	.insn	2, 0x0008
     e94:	4c00                	.insn	2, 0x4c00
     e96:	000d                	.insn	2, 0x000d
     e98:	0100                	.insn	2, 0x0100
     e9a:	085d                	.insn	2, 0x085d
     e9c:	0000                	.insn	2, 0x
     e9e:	0d62                	.insn	2, 0x0d62
     ea0:	0000                	.insn	2, 0x
     ea2:	6901                	.insn	2, 0x6901
     ea4:	0008                	.insn	2, 0x0008
     ea6:	7100                	.insn	2, 0x7100
     ea8:	000d                	.insn	2, 0x000d
     eaa:	0100                	.insn	2, 0x0100
     eac:	0875                	.insn	2, 0x0875
     eae:	0000                	.insn	2, 0x
     eb0:	0d80                	.insn	2, 0x0d80
     eb2:	0000                	.insn	2, 0x
     eb4:	8101                	.insn	2, 0x8101
     eb6:	0008                	.insn	2, 0x0008
     eb8:	8800                	.insn	2, 0x8800
     eba:	000d                	.insn	2, 0x000d
     ebc:	0600                	.insn	2, 0x0600
     ebe:	088d                	.insn	2, 0x088d
     ec0:	0000                	.insn	2, 0x
     ec2:	6301                	.insn	2, 0x6301
     ec4:	9906                	.insn	2, 0x9906
     ec6:	0008                	.insn	2, 0x0008
     ec8:	0100                	.insn	2, 0x0100
     eca:	0956                	.insn	2, 0x0956
     ecc:	08a5                	.insn	2, 0x08a5
     ece:	0000                	.insn	2, 0x
     ed0:	5108                	.insn	2, 0x5108
     ed2:	8000                	.insn	2, 0x8000
     ed4:	0010                	.insn	2, 0x0010
     ed6:	0000                	.insn	2, 0x
     ed8:	050d                	.insn	2, 0x050d
     eda:	0000                	.insn	2, 0x
     edc:	aa06                	.insn	2, 0xaa06
     ede:	0008                	.insn	2, 0x0008
     ee0:	0100                	.insn	2, 0x0100
     ee2:	065a                	.insn	2, 0x065a
     ee4:	08b6                	.insn	2, 0x08b6
     ee6:	0000                	.insn	2, 0x
     ee8:	5b01                	.insn	2, 0x5b01
     eea:	0900                	.insn	2, 0x0900
     eec:	000008c3          	.insn	4, 0x08c3
     ef0:	5118                	.insn	2, 0x5118
     ef2:	8000                	.insn	2, 0x8000
     ef4:	0010                	.insn	2, 0x0010
     ef6:	0000                	.insn	2, 0x
     ef8:	052d                	.insn	2, 0x052d
     efa:	0000                	.insn	2, 0x
     efc:	c806                	.insn	2, 0xc806
     efe:	0008                	.insn	2, 0x0008
     f00:	0100                	.insn	2, 0x0100
     f02:	065a                	.insn	2, 0x065a
     f04:	08d4                	.insn	2, 0x08d4
     f06:	0000                	.insn	2, 0x
     f08:	5b01                	.insn	2, 0x5b01
     f0a:	0900                	.insn	2, 0x0900
     f0c:	08e1                	.insn	2, 0x08e1
     f0e:	0000                	.insn	2, 0x
     f10:	5128                	.insn	2, 0x5128
     f12:	8000                	.insn	2, 0x8000
     f14:	0010                	.insn	2, 0x0010
     f16:	0000                	.insn	2, 0x
     f18:	054d                	.insn	2, 0x054d
     f1a:	0000                	.insn	2, 0x
     f1c:	e606                	.insn	2, 0xe606
     f1e:	0008                	.insn	2, 0x0008
     f20:	0100                	.insn	2, 0x0100
     f22:	065a                	.insn	2, 0x065a
     f24:	08f2                	.insn	2, 0x08f2
     f26:	0000                	.insn	2, 0x
     f28:	5b01                	.insn	2, 0x5b01
     f2a:	2200                	.insn	2, 0x2200
     f2c:	08ff 0000 011e 0000 	.insn	10, 0x00060000011e000008ff
     f34:	0006 
     f36:	0009                	.insn	2, 0x0009
     f38:	0100                	.insn	2, 0x0100
     f3a:	065a                	.insn	2, 0x065a
     f3c:	090c                	.insn	2, 0x090c
     f3e:	0000                	.insn	2, 0x
     f40:	5b01                	.insn	2, 0x5b01
     f42:	0000                	.insn	2, 0x
     f44:	1a09                	.insn	2, 0x1a09
     f46:	0009                	.insn	2, 0x0009
     f48:	8800                	.insn	2, 0x8800
     f4a:	0051                	.insn	2, 0x0051
     f4c:	1480                	.insn	2, 0x1480
     f4e:	0000                	.insn	2, 0x
     f50:	8100                	.insn	2, 0x8100
     f52:	0005                	.insn	2, 0x0005
     f54:	0100                	.insn	2, 0x0100
     f56:	091f 0000 0da8      	.insn	6, 0x0da80000091f
     f5c:	0000                	.insn	2, 0x
     f5e:	1300                	.insn	2, 0x1300
     f60:	092c                	.insn	2, 0x092c
     f62:	0000                	.insn	2, 0x
     f64:	519c                	.insn	2, 0x519c
     f66:	8000                	.insn	2, 0x8000
     f68:	0010                	.insn	2, 0x0010
     f6a:	0000                	.insn	2, 0x
     f6c:	2d01                	.insn	2, 0x2d01
     f6e:	0009                	.insn	2, 0x0009
     f70:	b000                	.insn	2, 0xb000
     f72:	000d                	.insn	2, 0x000d
     f74:	0000                	.insn	2, 0x
     f76:	0000                	.insn	2, 0x
     f78:	0000                	.insn	2, 0x
     f7a:	0002d223          	.insn	4, 0x0002d223
     f7e:	0100                	.insn	2, 0x0100
     f80:	ab0103e3          	beq	x2,x16,a26 <_heap_size+0xa26>
     f84:	0000                	.insn	2, 0x
     f86:	0300                	.insn	2, 0x0300
     f88:	093c                	.insn	2, 0x093c
     f8a:	0000                	.insn	2, 0x
     f8c:	6e0e                	.insn	2, 0x6e0e
     f8e:	1700                	.insn	2, 0x1700
     f90:	000000ab          	.insn	4, 0x00ab
     f94:	640e                	.insn	2, 0x640e
     f96:	2200                	.insn	2, 0x2200
     f98:	000000ab          	.insn	4, 0x00ab
     f9c:	720e                	.insn	2, 0x720e
     f9e:	0070                	.insn	2, 0x0070
     fa0:	3c2e                	.insn	2, 0x3c2e
     fa2:	0009                	.insn	2, 0x0009
     fa4:	0300                	.insn	2, 0x0300
     fa6:	6e6e                	.insn	2, 0x6e6e
     fa8:	e500                	.insn	2, 0xe500
     faa:	013f1103          	lh	x2,19(x30)
     fae:	0000                	.insn	2, 0x
     fb0:	00646403          	.insn	4, 0x00646403
     fb4:	03e6                	.insn	2, 0x03e6
     fb6:	3f11                	.insn	2, 0x3f11
     fb8:	0001                	.insn	2, 0x0001
     fba:	0300                	.insn	2, 0x0300
     fbc:	7272                	.insn	2, 0x7272
     fbe:	e700                	.insn	2, 0xe700
     fc0:	01320b03          	lb	x22,19(x4) # 13 <_heap_size+0x13>
     fc4:	0000                	.insn	2, 0x
     fc6:	00306403          	.insn	4, 0x00306403
     fca:	03e8                	.insn	2, 0x03e8
     fcc:	950a                	.insn	2, 0x950a
     fce:	0000                	.insn	2, 0x
     fd0:	0300                	.insn	2, 0x0300
     fd2:	3164                	.insn	2, 0x3164
     fd4:	e800                	.insn	2, 0xe800
     fd6:	00950e03          	lb	x28,9(x10)
     fda:	0000                	.insn	2, 0x
     fdc:	00306e03          	.insn	4, 0x00306e03
     fe0:	03e8                	.insn	2, 0x03e8
     fe2:	9512                	.insn	2, 0x9512
     fe4:	0000                	.insn	2, 0x
     fe6:	0300                	.insn	2, 0x0300
     fe8:	316e                	.insn	2, 0x316e
     fea:	e800                	.insn	2, 0xe800
     fec:	00951603          	lh	x12,9(x10)
     ff0:	0000                	.insn	2, 0x
     ff2:	00326e03          	.insn	4, 0x00326e03
     ff6:	03e8                	.insn	2, 0x03e8
     ff8:	951a                	.insn	2, 0x951a
     ffa:	0000                	.insn	2, 0x
     ffc:	0300                	.insn	2, 0x0300
     ffe:	3071                	.insn	2, 0x3071
    1000:	e900                	.insn	2, 0xe900
    1002:	00950a03          	lb	x20,9(x10)
    1006:	0000                	.insn	2, 0x
    1008:	00317103          	.insn	4, 0x00317103
    100c:	03e9                	.insn	2, 0x03e9
    100e:	950e                	.insn	2, 0x950e
    1010:	0000                	.insn	2, 0x
    1012:	0300                	.insn	2, 0x0300
    1014:	0062                	.insn	2, 0x0062
    1016:	03ea                	.insn	2, 0x03ea
    1018:	950a                	.insn	2, 0x950a
    101a:	0000                	.insn	2, 0x
    101c:	0300                	.insn	2, 0x0300
    101e:	6d62                	.insn	2, 0x6d62
    1020:	ea00                	.insn	2, 0xea00
    1022:	00950d03          	lb	x26,9(x10)
    1026:	0000                	.insn	2, 0x
    1028:	00777703          	.insn	4, 0x00777703
    102c:	3f1104b3          	.insn	4, 0x3f1104b3
    1030:	0001                	.insn	2, 0x0001
    1032:	0700                	.insn	2, 0x0700
    1034:	00000673          	.insn	4, 0x0673
    1038:	fb02                	.insn	2, 0xfb02
    103a:	0002                	.insn	2, 0x0002
    103c:	1a00                	.insn	2, 0x1a00
    103e:	0404                	.insn	2, 0x0404
    1040:	0095                	.insn	2, 0x0095
    1042:	0000                	.insn	2, 0x
    1044:	615f5f03          	lhu	x30,1557(x30)
    1048:	1a00                	.insn	2, 0x1a00
    104a:	0404                	.insn	2, 0x0404
    104c:	0095                	.insn	2, 0x0095
    104e:	0000                	.insn	2, 0x
    1050:	0700                	.insn	2, 0x0700
    1052:	06cd                	.insn	2, 0x06cd
    1054:	0000                	.insn	2, 0x
    1056:	b902                	.insn	2, 0xb902
    1058:	0002                	.insn	2, 0x0002
    105a:	2600                	.insn	2, 0x2600
    105c:	0404                	.insn	2, 0x0404
    105e:	0095                	.insn	2, 0x0095
    1060:	0000                	.insn	2, 0x
    1062:	3502                	.insn	2, 0x3502
    1064:	0001                	.insn	2, 0x0001
    1066:	2600                	.insn	2, 0x2600
    1068:	0404                	.insn	2, 0x0404
    106a:	0095                	.insn	2, 0x0095
    106c:	0000                	.insn	2, 0x
    106e:	b402                	.insn	2, 0xb402
    1070:	0002                	.insn	2, 0x0002
    1072:	2600                	.insn	2, 0x2600
    1074:	0404                	.insn	2, 0x0404
    1076:	0095                	.insn	2, 0x0095
    1078:	0000                	.insn	2, 0x
    107a:	af02                	.insn	2, 0xaf02
    107c:	0002                	.insn	2, 0x0002
    107e:	2600                	.insn	2, 0x2600
    1080:	0404                	.insn	2, 0x0404
    1082:	0095                	.insn	2, 0x0095
    1084:	0000                	.insn	2, 0x
    1086:	0502                	.insn	2, 0x0502
    1088:	26000003          	lb	x0,608(x0) # 260 <_heap_size+0x260>
    108c:	0404                	.insn	2, 0x0404
    108e:	0095                	.insn	2, 0x0095
    1090:	0000                	.insn	2, 0x
    1092:	0002                	.insn	2, 0x0002
    1094:	26000003          	lb	x0,608(x0) # 260 <_heap_size+0x260>
    1098:	0404                	.insn	2, 0x0404
    109a:	0095                	.insn	2, 0x0095
    109c:	0000                	.insn	2, 0x
    109e:	6d5f5f03          	lhu	x30,1749(x30)
    10a2:	2600                	.insn	2, 0x2600
    10a4:	0404                	.insn	2, 0x0404
    10a6:	0095                	.insn	2, 0x0095
    10a8:	0000                	.insn	2, 0x
    10aa:	0700                	.insn	2, 0x0700
    10ac:	000006eb          	.insn	4, 0x06eb
    10b0:	fb02                	.insn	2, 0xfb02
    10b2:	0002                	.insn	2, 0x0002
    10b4:	3200                	.insn	2, 0x3200
    10b6:	0404                	.insn	2, 0x0404
    10b8:	0095                	.insn	2, 0x0095
    10ba:	0000                	.insn	2, 0x
    10bc:	615f5f03          	lhu	x30,1557(x30)
    10c0:	3200                	.insn	2, 0x3200
    10c2:	0404                	.insn	2, 0x0404
    10c4:	0095                	.insn	2, 0x0095
    10c6:	0000                	.insn	2, 0x
    10c8:	0700                	.insn	2, 0x0700
    10ca:	0745                	.insn	2, 0x0745
    10cc:	0000                	.insn	2, 0x
    10ce:	b902                	.insn	2, 0xb902
    10d0:	0002                	.insn	2, 0x0002
    10d2:	4b00                	.insn	2, 0x4b00
    10d4:	0804                	.insn	2, 0x0804
    10d6:	0095                	.insn	2, 0x0095
    10d8:	0000                	.insn	2, 0x
    10da:	3502                	.insn	2, 0x3502
    10dc:	0001                	.insn	2, 0x0001
    10de:	4b00                	.insn	2, 0x4b00
    10e0:	0804                	.insn	2, 0x0804
    10e2:	0095                	.insn	2, 0x0095
    10e4:	0000                	.insn	2, 0x
    10e6:	b402                	.insn	2, 0xb402
    10e8:	0002                	.insn	2, 0x0002
    10ea:	4b00                	.insn	2, 0x4b00
    10ec:	0804                	.insn	2, 0x0804
    10ee:	0095                	.insn	2, 0x0095
    10f0:	0000                	.insn	2, 0x
    10f2:	af02                	.insn	2, 0xaf02
    10f4:	0002                	.insn	2, 0x0002
    10f6:	4b00                	.insn	2, 0x4b00
    10f8:	0804                	.insn	2, 0x0804
    10fa:	0095                	.insn	2, 0x0095
    10fc:	0000                	.insn	2, 0x
    10fe:	0502                	.insn	2, 0x0502
    1100:	4b000003          	lb	x0,1200(x0) # 4b0 <_heap_size+0x4b0>
    1104:	0804                	.insn	2, 0x0804
    1106:	0095                	.insn	2, 0x0095
    1108:	0000                	.insn	2, 0x
    110a:	0002                	.insn	2, 0x0002
    110c:	4b000003          	lb	x0,1200(x0) # 4b0 <_heap_size+0x4b0>
    1110:	0804                	.insn	2, 0x0804
    1112:	0095                	.insn	2, 0x0095
    1114:	0000                	.insn	2, 0x
    1116:	6d5f5f03          	lhu	x30,1749(x30)
    111a:	4b00                	.insn	2, 0x4b00
    111c:	0804                	.insn	2, 0x0804
    111e:	0095                	.insn	2, 0x0095
    1120:	0000                	.insn	2, 0x
    1122:	0700                	.insn	2, 0x0700
    1124:	079f 0000 b902      	.insn	6, 0xb9020000079f
    112a:	0002                	.insn	2, 0x0002
    112c:	5000                	.insn	2, 0x5000
    112e:	0404                	.insn	2, 0x0404
    1130:	0095                	.insn	2, 0x0095
    1132:	0000                	.insn	2, 0x
    1134:	3502                	.insn	2, 0x3502
    1136:	0001                	.insn	2, 0x0001
    1138:	5000                	.insn	2, 0x5000
    113a:	0404                	.insn	2, 0x0404
    113c:	0095                	.insn	2, 0x0095
    113e:	0000                	.insn	2, 0x
    1140:	b402                	.insn	2, 0xb402
    1142:	0002                	.insn	2, 0x0002
    1144:	5000                	.insn	2, 0x5000
    1146:	0404                	.insn	2, 0x0404
    1148:	0095                	.insn	2, 0x0095
    114a:	0000                	.insn	2, 0x
    114c:	af02                	.insn	2, 0xaf02
    114e:	0002                	.insn	2, 0x0002
    1150:	5000                	.insn	2, 0x5000
    1152:	0404                	.insn	2, 0x0404
    1154:	0095                	.insn	2, 0x0095
    1156:	0000                	.insn	2, 0x
    1158:	0502                	.insn	2, 0x0502
    115a:	50000003          	lb	x0,1280(x0) # 500 <_heap_size+0x500>
    115e:	0404                	.insn	2, 0x0404
    1160:	0095                	.insn	2, 0x0095
    1162:	0000                	.insn	2, 0x
    1164:	0002                	.insn	2, 0x0002
    1166:	50000003          	lb	x0,1280(x0) # 500 <_heap_size+0x500>
    116a:	0404                	.insn	2, 0x0404
    116c:	0095                	.insn	2, 0x0095
    116e:	0000                	.insn	2, 0x
    1170:	6d5f5f03          	lhu	x30,1749(x30)
    1174:	5000                	.insn	2, 0x5000
    1176:	0404                	.insn	2, 0x0404
    1178:	0095                	.insn	2, 0x0095
    117a:	0000                	.insn	2, 0x
    117c:	0700                	.insn	2, 0x0700
    117e:	07bd                	.insn	2, 0x07bd
    1180:	0000                	.insn	2, 0x
    1182:	fb02                	.insn	2, 0xfb02
    1184:	0002                	.insn	2, 0x0002
    1186:	7300                	.insn	2, 0x7300
    1188:	0404                	.insn	2, 0x0404
    118a:	0095                	.insn	2, 0x0095
    118c:	0000                	.insn	2, 0x
    118e:	615f5f03          	lhu	x30,1557(x30)
    1192:	7300                	.insn	2, 0x7300
    1194:	0404                	.insn	2, 0x0404
    1196:	0095                	.insn	2, 0x0095
    1198:	0000                	.insn	2, 0x
    119a:	0700                	.insn	2, 0x0700
    119c:	000007cf          	.insn	4, 0x07cf
    11a0:	785f5f03          	lhu	x30,1925(x30)
    11a4:	8100                	.insn	2, 0x8100
    11a6:	0504                	.insn	2, 0x0504
    11a8:	0095                	.insn	2, 0x0095
    11aa:	0000                	.insn	2, 0x
    11ac:	0f00                	.insn	2, 0x0f00
    11ae:	00316d03          	.insn	4, 0x00316d03
    11b2:	0491                	.insn	2, 0x0491
    11b4:	0000950f          	.insn	4, 0x950f
    11b8:	0300                	.insn	2, 0x0300
    11ba:	306d                	.insn	2, 0x306d
    11bc:	9100                	.insn	2, 0x9100
    11be:	1304                	.insn	2, 0x1304
    11c0:	0095                	.insn	2, 0x0095
    11c2:	0000                	.insn	2, 0x
    11c4:	00084007          	.insn	4, 0x00084007
    11c8:	0200                	.insn	2, 0x0200
    11ca:	02b9                	.insn	2, 0x02b9
    11cc:	0000                	.insn	2, 0x
    11ce:	049c                	.insn	2, 0x049c
    11d0:	9508                	.insn	2, 0x9508
    11d2:	0000                	.insn	2, 0x
    11d4:	0200                	.insn	2, 0x0200
    11d6:	0135                	.insn	2, 0x0135
    11d8:	0000                	.insn	2, 0x
    11da:	049c                	.insn	2, 0x049c
    11dc:	9508                	.insn	2, 0x9508
    11de:	0000                	.insn	2, 0x
    11e0:	0200                	.insn	2, 0x0200
    11e2:	02b4                	.insn	2, 0x02b4
    11e4:	0000                	.insn	2, 0x
    11e6:	049c                	.insn	2, 0x049c
    11e8:	9508                	.insn	2, 0x9508
    11ea:	0000                	.insn	2, 0x
    11ec:	0200                	.insn	2, 0x0200
    11ee:	000002af          	.insn	4, 0x02af
    11f2:	049c                	.insn	2, 0x049c
    11f4:	9508                	.insn	2, 0x9508
    11f6:	0000                	.insn	2, 0x
    11f8:	0200                	.insn	2, 0x0200
    11fa:	0305                	.insn	2, 0x0305
    11fc:	0000                	.insn	2, 0x
    11fe:	049c                	.insn	2, 0x049c
    1200:	9508                	.insn	2, 0x9508
    1202:	0000                	.insn	2, 0x
    1204:	0200                	.insn	2, 0x0200
    1206:	0300                	.insn	2, 0x0300
    1208:	0000                	.insn	2, 0x
    120a:	049c                	.insn	2, 0x049c
    120c:	9508                	.insn	2, 0x9508
    120e:	0000                	.insn	2, 0x
    1210:	0300                	.insn	2, 0x0300
    1212:	5f5f 006d 049c      	.insn	6, 0x049c006d5f5f
    1218:	9508                	.insn	2, 0x9508
    121a:	0000                	.insn	2, 0x
    121c:	0000                	.insn	2, 0x
    121e:	00091a07          	.insn	4, 0x00091a07
    1222:	0200                	.insn	2, 0x0200
    1224:	0000026f          	jal	x4,1224 <_stack_size+0x224>
    1228:	049d                	.insn	2, 0x049d
    122a:	9508                	.insn	2, 0x9508
    122c:	0000                	.insn	2, 0x
    122e:	0200                	.insn	2, 0x0200
    1230:	0274                	.insn	2, 0x0274
    1232:	0000                	.insn	2, 0x
    1234:	049d                	.insn	2, 0x049d
    1236:	9508                	.insn	2, 0x9508
    1238:	0000                	.insn	2, 0x
    123a:	0200                	.insn	2, 0x0200
    123c:	0279                	.insn	2, 0x0279
    123e:	0000                	.insn	2, 0x
    1240:	049d                	.insn	2, 0x049d
    1242:	9508                	.insn	2, 0x9508
    1244:	0000                	.insn	2, 0x
    1246:	0200                	.insn	2, 0x0200
    1248:	027e                	.insn	2, 0x027e
    124a:	0000                	.insn	2, 0x
    124c:	049d                	.insn	2, 0x049d
    124e:	9508                	.insn	2, 0x9508
    1250:	0000                	.insn	2, 0x
    1252:	0200                	.insn	2, 0x0200
    1254:	0000030f          	.insn	4, 0x030f
    1258:	049d                	.insn	2, 0x049d
    125a:	9508                	.insn	2, 0x9508
    125c:	0000                	.insn	2, 0x
    125e:	0200                	.insn	2, 0x0200
    1260:	02cd                	.insn	2, 0x02cd
    1262:	0000                	.insn	2, 0x
    1264:	049d                	.insn	2, 0x049d
    1266:	9508                	.insn	2, 0x9508
    1268:	0000                	.insn	2, 0x
    126a:	0200                	.insn	2, 0x0200
    126c:	030a                	.insn	2, 0x030a
    126e:	0000                	.insn	2, 0x
    1270:	049d                	.insn	2, 0x049d
    1272:	9508                	.insn	2, 0x9508
    1274:	0000                	.insn	2, 0x
    1276:	0200                	.insn	2, 0x0200
    1278:	013a                	.insn	2, 0x013a
    127a:	0000                	.insn	2, 0x
    127c:	049d                	.insn	2, 0x049d
    127e:	9508                	.insn	2, 0x9508
    1280:	0000                	.insn	2, 0x
    1282:	0700                	.insn	2, 0x0700
    1284:	000008c3          	.insn	4, 0x08c3
    1288:	3f02                	.insn	2, 0x3f02
    128a:	0001                	.insn	2, 0x0001
    128c:	9d00                	.insn	2, 0x9d00
    128e:	0804                	.insn	2, 0x0804
    1290:	0095                	.insn	2, 0x0095
    1292:	0000                	.insn	2, 0x
    1294:	4502                	.insn	2, 0x4502
    1296:	0001                	.insn	2, 0x0001
    1298:	9d00                	.insn	2, 0x9d00
    129a:	0804                	.insn	2, 0x0804
    129c:	0095                	.insn	2, 0x0095
    129e:	0000                	.insn	2, 0x
    12a0:	0700                	.insn	2, 0x0700
    12a2:	08e1                	.insn	2, 0x08e1
    12a4:	0000                	.insn	2, 0x
    12a6:	3f02                	.insn	2, 0x3f02
    12a8:	0001                	.insn	2, 0x0001
    12aa:	9d00                	.insn	2, 0x9d00
    12ac:	0804                	.insn	2, 0x0804
    12ae:	0095                	.insn	2, 0x0095
    12b0:	0000                	.insn	2, 0x
    12b2:	4502                	.insn	2, 0x4502
    12b4:	0001                	.insn	2, 0x0001
    12b6:	9d00                	.insn	2, 0x9d00
    12b8:	0804                	.insn	2, 0x0804
    12ba:	0095                	.insn	2, 0x0095
    12bc:	0000                	.insn	2, 0x
    12be:	0700                	.insn	2, 0x0700
    12c0:	08ff 0000 3f02 0001 	.insn	10, 0x9d0000013f02000008ff
    12c8:	9d00 
    12ca:	0804                	.insn	2, 0x0804
    12cc:	0095                	.insn	2, 0x0095
    12ce:	0000                	.insn	2, 0x
    12d0:	4502                	.insn	2, 0x4502
    12d2:	0001                	.insn	2, 0x0001
    12d4:	9d00                	.insn	2, 0x9d00
    12d6:	0804                	.insn	2, 0x0804
    12d8:	0095                	.insn	2, 0x0095
    12da:	0000                	.insn	2, 0x
    12dc:	0f00                	.insn	2, 0x0f00
    12de:	3f02                	.insn	2, 0x3f02
    12e0:	0001                	.insn	2, 0x0001
    12e2:	9d00                	.insn	2, 0x9d00
    12e4:	0804                	.insn	2, 0x0804
    12e6:	0095                	.insn	2, 0x0095
    12e8:	0000                	.insn	2, 0x
    12ea:	4502                	.insn	2, 0x4502
    12ec:	0001                	.insn	2, 0x0001
    12ee:	9d00                	.insn	2, 0x9d00
    12f0:	0804                	.insn	2, 0x0804
    12f2:	0095                	.insn	2, 0x0095
    12f4:	0000                	.insn	2, 0x
    12f6:	0000                	.insn	2, 0x
    12f8:	00092c07          	.insn	4, 0x00092c07
    12fc:	0300                	.insn	2, 0x0300
    12fe:	5f5f 0078 04a2      	.insn	6, 0x04a200785f5f
    1304:	9505                	.insn	2, 0x9505
    1306:	0000                	.insn	2, 0x
    1308:	0000                	.insn	2, 0x
    130a:	5f5f030f          	.insn	4, 0x5f5f030f
    130e:	0078                	.insn	2, 0x0078
    1310:	04aa                	.insn	2, 0x04aa
    1312:	9505                	.insn	2, 0x9505
    1314:	0000                	.insn	2, 0x
    1316:	0000                	.insn	2, 0x
    1318:	0000                	.insn	2, 0x
    131a:	0424                	.insn	2, 0x0424
    131c:	000000ab          	.insn	4, 0x00ab
    1320:	ee10                	.insn	2, 0xee10
    1322:	0000                	.insn	2, 0x
    1324:	ee00                	.insn	2, 0xee00
    1326:	0000                	.insn	2, 0x
    1328:	1000                	.insn	2, 0x1000
    132a:	00a4                	.insn	2, 0x00a4
    132c:	0000                	.insn	2, 0x
    132e:	00a4                	.insn	2, 0x00a4
    1330:	0000                	.insn	2, 0x
    1332:	f810                	.insn	2, 0xf810
    1334:	0000                	.insn	2, 0x
    1336:	f800                	.insn	2, 0xf800
    1338:	0000                	.insn	2, 0x
    133a:	0000                	.insn	2, 0x
    133c:	00e2                	.insn	2, 0x00e2
    133e:	0000                	.insn	2, 0x
    1340:	0005                	.insn	2, 0x0005
    1342:	0401                	.insn	2, 0x0401
    1344:	03f6                	.insn	2, 0x03f6
    1346:	0000                	.insn	2, 0x
    1348:	00031e03          	lh	x28,0(x6)
    134c:	1d00                	.insn	2, 0x1d00
    134e:	009e                	.insn	2, 0x009e
    1350:	0000                	.insn	2, 0x
    1352:	0000                	.insn	2, 0x
    1354:	0000                	.insn	2, 0x
    1356:	00001467          	.insn	4, 0x1467
    135a:	0404                	.insn	2, 0x0404
    135c:	6905                	.insn	2, 0x6905
    135e:	746e                	.insn	2, 0x746e
    1360:	0100                	.insn	2, 0x0100
    1362:	0704                	.insn	2, 0x0704
    1364:	00000163          	beq	x0,x0,1366 <_stack_size+0x366>
    1368:	0801                	.insn	2, 0x0801
    136a:	4b05                	.insn	2, 0x4b05
    136c:	0001                	.insn	2, 0x0001
    136e:	0100                	.insn	2, 0x0100
    1370:	0410                	.insn	2, 0x0410
    1372:	000002e7          	jalr	x5,0(x0) # 0 <_heap_size>
    1376:	0101                	.insn	2, 0x0101
    1378:	9206                	.insn	2, 0x9206
    137a:	0001                	.insn	2, 0x0001
    137c:	0100                	.insn	2, 0x0100
    137e:	0801                	.insn	2, 0x0801
    1380:	0190                	.insn	2, 0x0190
    1382:	0000                	.insn	2, 0x
    1384:	0201                	.insn	2, 0x0201
    1386:	2b05                	.insn	2, 0x2b05
    1388:	0001                	.insn	2, 0x0001
    138a:	0100                	.insn	2, 0x0100
    138c:	0702                	.insn	2, 0x0702
    138e:	0294                	.insn	2, 0x0294
    1390:	0000                	.insn	2, 0x
    1392:	0401                	.insn	2, 0x0401
    1394:	5005                	.insn	2, 0x5005
    1396:	0001                	.insn	2, 0x0001
    1398:	0100                	.insn	2, 0x0100
    139a:	0704                	.insn	2, 0x0704
    139c:	015e                	.insn	2, 0x015e
    139e:	0000                	.insn	2, 0x
    13a0:	0801                	.insn	2, 0x0801
    13a2:	00015907          	.insn	4, 0x00015907
    13a6:	0100                	.insn	2, 0x0100
    13a8:	0801                	.insn	2, 0x0801
    13aa:	0199                	.insn	2, 0x0199
    13ac:	0000                	.insn	2, 0x
    13ae:	8305                	.insn	2, 0x8305
    13b0:	0002                	.insn	2, 0x0002
    13b2:	0100                	.insn	2, 0x0100
    13b4:	0041167b          	.insn	4, 0x0041167b
    13b8:	0000                	.insn	2, 0x
    13ba:	7202                	.insn	2, 0x7202
    13bc:	0000                	.insn	2, 0x
    13be:	0100                	.insn	2, 0x0100
    13c0:	0402                	.insn	2, 0x0402
    13c2:	00000187          	.insn	4, 0x0187
    13c6:	0401                	.insn	2, 0x0401
    13c8:	00017f03          	.insn	4, 0x00017f03
    13cc:	0100                	.insn	2, 0x0100
    13ce:	0404                	.insn	2, 0x0404
    13d0:	0125                	.insn	2, 0x0125
    13d2:	0000                	.insn	2, 0x
    13d4:	0801                	.insn	2, 0x0801
    13d6:	00011d03          	lh	x26,0(x2)
    13da:	0100                	.insn	2, 0x0100
    13dc:	0408                	.insn	2, 0x0408
    13de:	02ec                	.insn	2, 0x02ec
    13e0:	0000                	.insn	2, 0x
    13e2:	1001                	.insn	2, 0x1001
    13e4:	0002be03          	.insn	4, 0x0002be03
    13e8:	0100                	.insn	2, 0x0100
    13ea:	0320                	.insn	2, 0x0320
    13ec:	02df 0000 7e06      	.insn	6, 0x7e06000002df
    13f2:	0000                	.insn	2, 0x
    13f4:	c400                	.insn	2, 0xc400
    13f6:	0000                	.insn	2, 0x
    13f8:	0700                	.insn	2, 0x0700
    13fa:	0025                	.insn	2, 0x0025
    13fc:	0000                	.insn	2, 0x
    13fe:	00ff b402 0000 0800 	.insn	10, 0x017508000000b40200ff
    1406:	0175 
    1408:	0000                	.insn	2, 0x
    140a:	0601                	.insn	2, 0x0601
    140c:	1602                	.insn	2, 0x1602
    140e:	00c4                	.insn	2, 0x00c4
    1410:	0000                	.insn	2, 0x
    1412:	c909                	.insn	2, 0xc909
    1414:	0000                	.insn	2, 0x
    1416:	0200                	.insn	2, 0x0200
    1418:	029e                	.insn	2, 0x029e
    141a:	2003050f          	.insn	4, 0x2003050f
    141e:	101a                	.insn	2, 0x101a
    1420:	0080                	.insn	2, 0x0080

Disassembly of section .debug_abbrev:

00000000 <.debug_abbrev>:
   0:	1101                	.insn	2, 0x1101
   2:	1001                	.insn	2, 0x1001
   4:	12011117          	auipc	x2,0x12011
   8:	1b0e030f          	.insn	4, 0x1b0e030f
   c:	250e                	.insn	2, 0x250e
   e:	130e                	.insn	2, 0x130e
  10:	0005                	.insn	2, 0x0005
  12:	0200                	.insn	2, 0x0200
  14:	002e                	.insn	2, 0x002e
  16:	193f0e03          	lb	x28,403(x30)
  1a:	1549                	.insn	2, 0x1549
  1c:	0111                	.insn	2, 0x0111
  1e:	0f12                	.insn	2, 0x0f12
  20:	0000                	.insn	2, 0x
  22:	00003b03          	.insn	4, 0x3b03
  26:	0000                	.insn	2, 0x
  28:	1101                	.insn	2, 0x1101
  2a:	1001                	.insn	2, 0x1001
  2c:	12011117          	auipc	x2,0x12011
  30:	1b0e030f          	.insn	4, 0x1b0e030f
  34:	250e                	.insn	2, 0x250e
  36:	130e                	.insn	2, 0x130e
  38:	0005                	.insn	2, 0x0005
  3a:	0200                	.insn	2, 0x0200
  3c:	002e                	.insn	2, 0x002e
  3e:	193f0e03          	lb	x28,403(x30)
  42:	1549                	.insn	2, 0x1549
  44:	0111                	.insn	2, 0x0111
  46:	0f12                	.insn	2, 0x0f12
  48:	0000                	.insn	2, 0x
  4a:	00003b03          	.insn	4, 0x3b03
  4e:	0000                	.insn	2, 0x
  50:	3401                	.insn	2, 0x3401
  52:	3100                	.insn	2, 0x3100
  54:	00170213          	addi	x4,x14,1
  58:	0200                	.insn	2, 0x0200
  5a:	0034                	.insn	2, 0x0034
  5c:	213a0e03          	lb	x28,531(x20)
  60:	3b01                	.insn	2, 0x3b01
  62:	3905                	.insn	2, 0x3905
  64:	0013490b          	.insn	4, 0x0013490b
  68:	0300                	.insn	2, 0x0300
  6a:	0034                	.insn	2, 0x0034
  6c:	213a0803          	lb	x16,531(x20)
  70:	3b01                	.insn	2, 0x3b01
  72:	3905                	.insn	2, 0x3905
  74:	0013490b          	.insn	4, 0x0013490b
  78:	0400                	.insn	2, 0x0400
  7a:	0048                	.insn	2, 0x0048
  7c:	017d                	.insn	2, 0x017d
  7e:	0000137f 0b002405 	.insn	12, 0x030b3e0b0b0024050000137f
  86:	030b3e0b 
  8a:	000e                	.insn	2, 0x000e
  8c:	0600                	.insn	2, 0x0600
  8e:	1301010b          	.insn	4, 0x1301010b
  92:	0000                	.insn	2, 0x
  94:	31003407          	.insn	4, 0x31003407
  98:	00180213          	addi	x4,x16,1 # 1 <_heap_size+0x1>
  9c:	0800                	.insn	2, 0x0800
  9e:	0016                	.insn	2, 0x0016
  a0:	213a0e03          	lb	x28,531(x20)
  a4:	3b02                	.insn	2, 0x3b02
  a6:	490b390b          	.insn	4, 0x490b390b
  aa:	09000013          	addi	x0,x0,144
  ae:	1331010b          	.insn	4, 0x1331010b
  b2:	1755                	.insn	2, 0x1755
  b4:	1301                	.insn	2, 0x1301
  b6:	0000                	.insn	2, 0x
  b8:	0b0a                	.insn	2, 0x0b0a
  ba:	3101                	.insn	2, 0x3101
  bc:	12011113          	.insn	4, 0x12011113
  c0:	0106                	.insn	2, 0x0106
  c2:	0b000013          	addi	x0,x0,176
  c6:	0034                	.insn	2, 0x0034
  c8:	1331                	.insn	2, 0x1331
  ca:	0000                	.insn	2, 0x
  cc:	260c                	.insn	2, 0x260c
  ce:	4900                	.insn	2, 0x4900
  d0:	0d000013          	addi	x0,x0,208
  d4:	0005                	.insn	2, 0x0005
  d6:	1331                	.insn	2, 0x1331
  d8:	1702                	.insn	2, 0x1702
  da:	0000                	.insn	2, 0x
  dc:	0b0e                	.insn	2, 0x0b0e
  de:	3101                	.insn	2, 0x3101
  e0:	00175513          	srli	x10,x14,0x1
  e4:	0f00                	.insn	2, 0x0f00
  e6:	0005                	.insn	2, 0x0005
  e8:	213a0803          	lb	x16,531(x20)
  ec:	3b01                	.insn	2, 0x3b01
  ee:	e321                	.insn	2, 0xe321
  f0:	490b3907          	.insn	4, 0x490b3907
  f4:	10000013          	addi	x0,x0,256
  f8:	0000010b          	.insn	4, 0x010b
  fc:	2e11                	.insn	2, 0x2e11
  fe:	3f00                	.insn	2, 0x3f00
 100:	3c19                	.insn	2, 0x3c19
 102:	6e19                	.insn	2, 0x6e19
 104:	030e                	.insn	2, 0x030e
 106:	000e                	.insn	2, 0x000e
 108:	1200                	.insn	2, 0x1200
 10a:	000d                	.insn	2, 0x000d
 10c:	213a0803          	lb	x16,531(x20)
 110:	3b02                	.insn	2, 0x3b02
 112:	3905                	.insn	2, 0x3905
 114:	0013490b          	.insn	4, 0x0013490b
 118:	1300                	.insn	2, 0x1300
 11a:	0005                	.insn	2, 0x0005
 11c:	213a0803          	lb	x16,531(x20)
 120:	3b01                	.insn	2, 0x3b01
 122:	9221                	.insn	2, 0x9221
 124:	390a                	.insn	2, 0x390a
 126:	0213490b          	.insn	4, 0x0213490b
 12a:	14000017          	auipc	x0,0x14000
 12e:	0111                	.insn	2, 0x0111
 130:	0e25                	.insn	2, 0x0e25
 132:	1f030b13          	addi	x22,x6,496
 136:	01111f1b          	.insn	4, 0x01111f1b
 13a:	0612                	.insn	2, 0x0612
 13c:	1710                	.insn	2, 0x1710
 13e:	0000                	.insn	2, 0x
 140:	2415                	.insn	2, 0x2415
 142:	0b00                	.insn	2, 0x0b00
 144:	030b3e0b          	.insn	4, 0x030b3e0b
 148:	0008                	.insn	2, 0x0008
 14a:	1600                	.insn	2, 0x1600
 14c:	0e030113          	addi	x2,x6,224
 150:	0b3a0b0b          	.insn	4, 0x0b3a0b0b
 154:	0b39053b          	.insn	4, 0x0b39053b
 158:	1301                	.insn	2, 0x1301
 15a:	0000                	.insn	2, 0x
 15c:	03000d17          	auipc	x26,0x3000
 160:	3a08                	.insn	2, 0x3a08
 162:	39053b0b          	.insn	4, 0x39053b0b
 166:	3813490b          	.insn	4, 0x3813490b
 16a:	1800000b          	.insn	4, 0x1800000b
 16e:	000d                	.insn	2, 0x000d
 170:	0b3a0e03          	lb	x28,179(x20)
 174:	0b39053b          	.insn	4, 0x0b39053b
 178:	1349                	.insn	2, 0x1349
 17a:	0b38                	.insn	2, 0x0b38
 17c:	0000                	.insn	2, 0x
 17e:	1719                	.insn	2, 0x1719
 180:	0b01                	.insn	2, 0x0b01
 182:	3b0b3a0b          	.insn	4, 0x3b0b3a0b
 186:	3905                	.insn	2, 0x3905
 188:	0013010b          	.insn	4, 0x0013010b
 18c:	1a00                	.insn	2, 0x1a00
 18e:	0016                	.insn	2, 0x0016
 190:	0b3a0e03          	lb	x28,179(x20)
 194:	0b39053b          	.insn	4, 0x0b39053b
 198:	1349                	.insn	2, 0x1349
 19a:	0000                	.insn	2, 0x
 19c:	4901011b          	.insn	4, 0x4901011b
 1a0:	00130113          	addi	x2,x6,1
 1a4:	1c00                	.insn	2, 0x1c00
 1a6:	0021                	.insn	2, 0x0021
 1a8:	1349                	.insn	2, 0x1349
 1aa:	00000b2f          	.insn	4, 0x0b2f
 1ae:	341d                	.insn	2, 0x341d
 1b0:	0300                	.insn	2, 0x0300
 1b2:	3a0e                	.insn	2, 0x3a0e
 1b4:	39053b0b          	.insn	4, 0x39053b0b
 1b8:	3f13490b          	.insn	4, 0x3f13490b
 1bc:	3c19                	.insn	2, 0x3c19
 1be:	0019                	.insn	2, 0x0019
 1c0:	1e00                	.insn	2, 0x1e00
 1c2:	012e                	.insn	2, 0x012e
 1c4:	0e03193f 053b0b3a 	.insn	8, 0x053b0b3a0e03193f
 1cc:	0b39                	.insn	2, 0x0b39
 1ce:	13491927          	.insn	4, 0x13491927
 1d2:	0111                	.insn	2, 0x0111
 1d4:	0612                	.insn	2, 0x0612
 1d6:	1840                	.insn	2, 0x1840
 1d8:	197a                	.insn	2, 0x197a
 1da:	1301                	.insn	2, 0x1301
 1dc:	0000                	.insn	2, 0x
 1de:	1d1f 3101 5213      	.insn	6, 0x521331011d1f
 1e4:	5501                	.insn	2, 0x5501
 1e6:	590b5817          	auipc	x16,0x590b5
 1ea:	5705                	.insn	2, 0x5705
 1ec:	2000000b          	.insn	4, 0x2000000b
 1f0:	1755010b          	.insn	4, 0x1755010b
 1f4:	0000                	.insn	2, 0x
 1f6:	2e21                	.insn	2, 0x2e21
 1f8:	0301                	.insn	2, 0x0301
 1fa:	3a0e                	.insn	2, 0x3a0e
 1fc:	39053b0b          	.insn	4, 0x39053b0b
 200:	4919270b          	.insn	4, 0x4919270b
 204:	010b2013          	slti	x0,x22,16
 208:	22000013          	addi	x0,x0,544
 20c:	0b0b000f          	.insn	4, 0x0b0b000f
 210:	1349                	.insn	2, 0x1349
 212:	0000                	.insn	2, 0x
 214:	0100                	.insn	2, 0x0100
 216:	0034                	.insn	2, 0x0034
 218:	1331                	.insn	2, 0x1331
 21a:	1702                	.insn	2, 0x1702
 21c:	0000                	.insn	2, 0x
 21e:	3402                	.insn	2, 0x3402
 220:	0300                	.insn	2, 0x0300
 222:	3a0e                	.insn	2, 0x3a0e
 224:	0121                	.insn	2, 0x0121
 226:	0b39053b          	.insn	4, 0x0b39053b
 22a:	1349                	.insn	2, 0x1349
 22c:	0000                	.insn	2, 0x
 22e:	03003403          	.insn	4, 0x03003403
 232:	3a08                	.insn	2, 0x3a08
 234:	0121                	.insn	2, 0x0121
 236:	0b39053b          	.insn	4, 0x0b39053b
 23a:	1349                	.insn	2, 0x1349
 23c:	0000                	.insn	2, 0x
 23e:	2404                	.insn	2, 0x2404
 240:	0b00                	.insn	2, 0x0b00
 242:	030b3e0b          	.insn	4, 0x030b3e0b
 246:	000e                	.insn	2, 0x000e
 248:	0500                	.insn	2, 0x0500
 24a:	0048                	.insn	2, 0x0048
 24c:	017d                	.insn	2, 0x017d
 24e:	0000137f 31003406 	.insn	12, 0x00180213310034060000137f
 256:	00180213 
 25a:	0700                	.insn	2, 0x0700
 25c:	1301010b          	.insn	4, 0x1301010b
 260:	0000                	.insn	2, 0x
 262:	3408                	.insn	2, 0x3408
 264:	3100                	.insn	2, 0x3100
 266:	09000013          	addi	x0,x0,144
 26a:	1331010b          	.insn	4, 0x1331010b
 26e:	0111                	.insn	2, 0x0111
 270:	0612                	.insn	2, 0x0612
 272:	1301                	.insn	2, 0x1301
 274:	0000                	.insn	2, 0x
 276:	0b0a                	.insn	2, 0x0b0a
 278:	3101                	.insn	2, 0x3101
 27a:	01175513          	srli	x10,x14,0x11
 27e:	0b000013          	addi	x0,x0,176
 282:	0016                	.insn	2, 0x0016
 284:	213a0e03          	lb	x28,531(x20)
 288:	3b02                	.insn	2, 0x3b02
 28a:	490b390b          	.insn	4, 0x490b390b
 28e:	0c000013          	addi	x0,x0,192
 292:	0026                	.insn	2, 0x0026
 294:	1349                	.insn	2, 0x1349
 296:	0000                	.insn	2, 0x
 298:	050d                	.insn	2, 0x050d
 29a:	3100                	.insn	2, 0x3100
 29c:	00170213          	addi	x4,x14,1
 2a0:	0e00                	.insn	2, 0x0e00
 2a2:	0005                	.insn	2, 0x0005
 2a4:	213a0803          	lb	x16,531(x20)
 2a8:	3b01                	.insn	2, 0x3b01
 2aa:	e321                	.insn	2, 0xe321
 2ac:	490b3907          	.insn	4, 0x490b3907
 2b0:	0f000013          	addi	x0,x0,240
 2b4:	0000010b          	.insn	4, 0x010b
 2b8:	2e10                	.insn	2, 0x2e10
 2ba:	3f00                	.insn	2, 0x3f00
 2bc:	3c19                	.insn	2, 0x3c19
 2be:	6e19                	.insn	2, 0x6e19
 2c0:	030e                	.insn	2, 0x030e
 2c2:	000e                	.insn	2, 0x000e
 2c4:	1100                	.insn	2, 0x1100
 2c6:	000d                	.insn	2, 0x000d
 2c8:	213a0803          	lb	x16,531(x20)
 2cc:	3b02                	.insn	2, 0x3b02
 2ce:	3905                	.insn	2, 0x3905
 2d0:	0013490b          	.insn	4, 0x0013490b
 2d4:	1200                	.insn	2, 0x1200
 2d6:	0005                	.insn	2, 0x0005
 2d8:	213a0803          	lb	x16,531(x20)
 2dc:	3b01                	.insn	2, 0x3b01
 2de:	8621                	.insn	2, 0x8621
 2e0:	390a                	.insn	2, 0x390a
 2e2:	0213490b          	.insn	4, 0x0213490b
 2e6:	13000017          	auipc	x0,0x13000
 2ea:	1331010b          	.insn	4, 0x1331010b
 2ee:	0111                	.insn	2, 0x0111
 2f0:	0612                	.insn	2, 0x0612
 2f2:	0000                	.insn	2, 0x
 2f4:	1114                	.insn	2, 0x1114
 2f6:	2501                	.insn	2, 0x2501
 2f8:	130e                	.insn	2, 0x130e
 2fa:	1b1f030b          	.insn	4, 0x1b1f030b
 2fe:	111f 1201 1006      	.insn	6, 0x10061201111f
 304:	15000017          	auipc	x0,0x15000
 308:	0024                	.insn	2, 0x0024
 30a:	0b3e0b0b          	.insn	4, 0x0b3e0b0b
 30e:	00000803          	lb	x16,0(x0) # 0 <_heap_size>
 312:	1316                	.insn	2, 0x1316
 314:	0301                	.insn	2, 0x0301
 316:	0b0e                	.insn	2, 0x0b0e
 318:	3b0b3a0b          	.insn	4, 0x3b0b3a0b
 31c:	3905                	.insn	2, 0x3905
 31e:	0013010b          	.insn	4, 0x0013010b
 322:	1700                	.insn	2, 0x1700
 324:	000d                	.insn	2, 0x000d
 326:	0b3a0803          	lb	x16,179(x20)
 32a:	0b39053b          	.insn	4, 0x0b39053b
 32e:	1349                	.insn	2, 0x1349
 330:	0b38                	.insn	2, 0x0b38
 332:	0000                	.insn	2, 0x
 334:	0d18                	.insn	2, 0x0d18
 336:	0300                	.insn	2, 0x0300
 338:	3a0e                	.insn	2, 0x3a0e
 33a:	39053b0b          	.insn	4, 0x39053b0b
 33e:	3813490b          	.insn	4, 0x3813490b
 342:	1900000b          	.insn	4, 0x1900000b
 346:	0b0b0117          	auipc	x2,0xb0b0
 34a:	0b3a                	.insn	2, 0x0b3a
 34c:	0b39053b          	.insn	4, 0x0b39053b
 350:	1301                	.insn	2, 0x1301
 352:	0000                	.insn	2, 0x
 354:	161a                	.insn	2, 0x161a
 356:	0300                	.insn	2, 0x0300
 358:	3a0e                	.insn	2, 0x3a0e
 35a:	39053b0b          	.insn	4, 0x39053b0b
 35e:	0013490b          	.insn	4, 0x0013490b
 362:	1b00                	.insn	2, 0x1b00
 364:	0101                	.insn	2, 0x0101
 366:	1349                	.insn	2, 0x1349
 368:	1301                	.insn	2, 0x1301
 36a:	0000                	.insn	2, 0x
 36c:	211c                	.insn	2, 0x211c
 36e:	4900                	.insn	2, 0x4900
 370:	000b2f13          	slti	x30,x22,0
 374:	1d00                	.insn	2, 0x1d00
 376:	0034                	.insn	2, 0x0034
 378:	0b3a0e03          	lb	x28,179(x20)
 37c:	0b39053b          	.insn	4, 0x0b39053b
 380:	1349                	.insn	2, 0x1349
 382:	193c193f 2e1e0000 	.insn	8, 0x2e1e0000193c193f
 38a:	3f01                	.insn	2, 0x3f01
 38c:	0319                	.insn	2, 0x0319
 38e:	3a0e                	.insn	2, 0x3a0e
 390:	39053b0b          	.insn	4, 0x39053b0b
 394:	4919270b          	.insn	4, 0x4919270b
 398:	12011113          	.insn	4, 0x12011113
 39c:	4006                	.insn	2, 0x4006
 39e:	7a18                	.insn	2, 0x7a18
 3a0:	0119                	.insn	2, 0x0119
 3a2:	1f000013          	addi	x0,x0,496
 3a6:	0034                	.insn	2, 0x0034
 3a8:	0b3a0803          	lb	x16,179(x20)
 3ac:	0b39053b          	.insn	4, 0x0b39053b
 3b0:	1349                	.insn	2, 0x1349
 3b2:	1702                	.insn	2, 0x1702
 3b4:	0000                	.insn	2, 0x
 3b6:	1d20                	.insn	2, 0x1d20
 3b8:	3101                	.insn	2, 0x3101
 3ba:	55015213          	.insn	4, 0x55015213
 3be:	590b5817          	auipc	x16,0x590b5
 3c2:	5705                	.insn	2, 0x5705
 3c4:	2100000b          	.insn	4, 0x2100000b
 3c8:	1755010b          	.insn	4, 0x1755010b
 3cc:	0000                	.insn	2, 0x
 3ce:	0b22                	.insn	2, 0x0b22
 3d0:	3101                	.insn	2, 0x3101
 3d2:	00175513          	srli	x10,x14,0x1
 3d6:	2300                	.insn	2, 0x2300
 3d8:	012e                	.insn	2, 0x012e
 3da:	0b3a0e03          	lb	x28,179(x20)
 3de:	0b39053b          	.insn	4, 0x0b39053b
 3e2:	13491927          	.insn	4, 0x13491927
 3e6:	0b20                	.insn	2, 0x0b20
 3e8:	1301                	.insn	2, 0x1301
 3ea:	0000                	.insn	2, 0x
 3ec:	0f24                	.insn	2, 0x0f24
 3ee:	0b00                	.insn	2, 0x0b00
 3f0:	0013490b          	.insn	4, 0x0013490b
 3f4:	0000                	.insn	2, 0x
 3f6:	2401                	.insn	2, 0x2401
 3f8:	0b00                	.insn	2, 0x0b00
 3fa:	030b3e0b          	.insn	4, 0x030b3e0b
 3fe:	000e                	.insn	2, 0x000e
 400:	0200                	.insn	2, 0x0200
 402:	0026                	.insn	2, 0x0026
 404:	1349                	.insn	2, 0x1349
 406:	0000                	.insn	2, 0x
 408:	25011103          	lh	x2,592(x2) # b0b0596 <SYSCALL_ADDR+0x90a0596>
 40c:	130e                	.insn	2, 0x130e
 40e:	1b1f030b          	.insn	4, 0x1b1f030b
 412:	101f 0017 0400      	.insn	6, 0x04000017101f
 418:	0024                	.insn	2, 0x0024
 41a:	0b3e0b0b          	.insn	4, 0x0b3e0b0b
 41e:	00000803          	lb	x16,0(x0) # 0 <_heap_size>
 422:	1605                	.insn	2, 0x1605
 424:	0300                	.insn	2, 0x0300
 426:	3a0e                	.insn	2, 0x3a0e
 428:	390b3b0b          	.insn	4, 0x390b3b0b
 42c:	0013490b          	.insn	4, 0x0013490b
 430:	0600                	.insn	2, 0x0600
 432:	0101                	.insn	2, 0x0101
 434:	1349                	.insn	2, 0x1349
 436:	1301                	.insn	2, 0x1301
 438:	0000                	.insn	2, 0x
 43a:	49002107          	.insn	4, 0x49002107
 43e:	000b2f13          	slti	x30,x22,0
 442:	0800                	.insn	2, 0x0800
 444:	0034                	.insn	2, 0x0034
 446:	0b3a0e03          	lb	x28,179(x20)
 44a:	0b39053b          	.insn	4, 0x0b39053b
 44e:	1349                	.insn	2, 0x1349
 450:	193c193f 34090000 	.insn	8, 0x34090000193c193f
 458:	4700                	.insn	2, 0x4700
 45a:	3b0b3a13          	sltiu	x20,x22,944
 45e:	3905                	.insn	2, 0x3905
 460:	0018020b          	.insn	4, 0x0018020b
	...

Disassembly of section .debug_aranges:

00000000 <.debug_aranges>:
   0:	001c                	.insn	2, 0x001c
   2:	0000                	.insn	2, 0x
   4:	0002                	.insn	2, 0x0002
   6:	0000                	.insn	2, 0x
   8:	0000                	.insn	2, 0x
   a:	0004                	.insn	2, 0x0004
   c:	0000                	.insn	2, 0x
   e:	0000                	.insn	2, 0x
  10:	0484                	.insn	2, 0x0484
  12:	8000                	.insn	2, 0x8000
  14:	0024                	.insn	2, 0x0024
	...
  1e:	0000                	.insn	2, 0x
  20:	001c                	.insn	2, 0x001c
  22:	0000                	.insn	2, 0x
  24:	0002                	.insn	2, 0x0002
  26:	0031                	.insn	2, 0x0031
  28:	0000                	.insn	2, 0x
  2a:	0004                	.insn	2, 0x0004
  2c:	0000                	.insn	2, 0x
  2e:	0000                	.insn	2, 0x
  30:	04a8                	.insn	2, 0x04a8
  32:	8000                	.insn	2, 0x8000
  34:	00b4                	.insn	2, 0x00b4
	...
  3e:	0000                	.insn	2, 0x
  40:	001c                	.insn	2, 0x001c
  42:	0000                	.insn	2, 0x
  44:	0002                	.insn	2, 0x0002
  46:	0090                	.insn	2, 0x0090
  48:	0000                	.insn	2, 0x
  4a:	0004                	.insn	2, 0x0004
  4c:	0000                	.insn	2, 0x
  4e:	0000                	.insn	2, 0x
  50:	472c                	.insn	2, 0x472c
  52:	8000                	.insn	2, 0x8000
  54:	05c4                	.insn	2, 0x05c4
	...
  5e:	0000                	.insn	2, 0x
  60:	001c                	.insn	2, 0x001c
  62:	0000                	.insn	2, 0x
  64:	0002                	.insn	2, 0x0002
  66:	09de                	.insn	2, 0x09de
  68:	0000                	.insn	2, 0x
  6a:	0004                	.insn	2, 0x0004
  6c:	0000                	.insn	2, 0x
  6e:	0000                	.insn	2, 0x
  70:	4cf0                	.insn	2, 0x4cf0
  72:	8000                	.insn	2, 0x8000
  74:	04d0                	.insn	2, 0x04d0
	...
  7e:	0000                	.insn	2, 0x
  80:	0014                	.insn	2, 0x0014
  82:	0000                	.insn	2, 0x
  84:	0002                	.insn	2, 0x0002
  86:	133c                	.insn	2, 0x133c
  88:	0000                	.insn	2, 0x
  8a:	0004                	.insn	2, 0x0004
	...

Disassembly of section .debug_str:

00000000 <.debug_str>:
   0:	2e2e                	.insn	2, 0x2e2e
   2:	2f2e2e2f          	.insn	4, 0x2f2e2e2f
   6:	2e2e                	.insn	2, 0x2e2e
   8:	2f2e2e2f          	.insn	4, 0x2f2e2e2f
   c:	2e2e                	.insn	2, 0x2e2e
   e:	672f2e2f          	.insn	4, 0x672f2e2f
  12:	6c2f6363          	bltu	x30,x2,6d8 <_heap_size+0x6d8>
  16:	6269                	.insn	2, 0x6269
  18:	2f636367          	.insn	4, 0x2f636367
  1c:	666e6f63          	bltu	x28,x6,69a <_heap_size+0x69a>
  20:	6769                	.insn	2, 0x6769
  22:	7369722f          	.insn	4, 0x7369722f
  26:	6d2f7663          	bgeu	x30,x18,6f2 <_heap_size+0x6f2>
  2a:	6c75                	.insn	2, 0x6c75
  2c:	6964                	.insn	2, 0x6964
  2e:	00532e33          	slt	x28,x6,x5
  32:	6d6f682f          	.insn	4, 0x6d6f682f
  36:	2f65                	.insn	2, 0x2f65
  38:	6c6c6173          	.insn	4, 0x6c6c6173
  3c:	7261                	.insn	2, 0x7261
  3e:	6f6f742f          	.insn	4, 0x6f6f742f
  42:	736c                	.insn	2, 0x736c
  44:	7369722f          	.insn	4, 0x7369722f
  48:	672d7663          	bgeu	x26,x18,6b4 <_heap_size+0x6b4>
  4c:	756e                	.insn	2, 0x756e
  4e:	742d                	.insn	2, 0x742d
  50:	636c6f6f          	jal	x30,c6686 <_stack_size+0xc5686>
  54:	6168                	.insn	2, 0x6168
  56:	6e69                	.insn	2, 0x6e69
  58:	6975622f          	.insn	4, 0x6975622f
  5c:	646c                	.insn	2, 0x646c
  5e:	672d                	.insn	2, 0x672d
  60:	6e2d6363          	bltu	x26,x2,746 <_heap_size+0x746>
  64:	7765                	.insn	2, 0x7765
  66:	696c                	.insn	2, 0x696c
  68:	2d62                	.insn	2, 0x2d62
  6a:	67617473          	.insn	4, 0x67617473
  6e:	3265                	.insn	2, 0x3265
  70:	7369722f          	.insn	4, 0x7369722f
  74:	34367663          	bgeu	x12,x3,3c0 <_heap_size+0x3c0>
  78:	752d                	.insn	2, 0x752d
  7a:	6b6e                	.insn	2, 0x6b6e
  7c:	6f6e                	.insn	2, 0x6f6e
  7e:	652d6e77          	.insn	4, 0x652d6e77
  82:	666c                	.insn	2, 0x666c
  84:	3376722f          	.insn	4, 0x3376722f
  88:	6932                	.insn	2, 0x6932
  8a:	706c692f          	.insn	4, 0x706c692f
  8e:	6c2f3233          	.insn	4, 0x6c2f3233
  92:	6269                	.insn	2, 0x6269
  94:	00636367          	.insn	4, 0x00636367
  98:	20554e47          	.insn	4, 0x20554e47
  9c:	5341                	.insn	2, 0x5341
  9e:	3220                	.insn	2, 0x3220
  a0:	342e                	.insn	2, 0x342e
  a2:	0032                	.insn	2, 0x0032
  a4:	5f5f 756d 736c      	.insn	6, 0x736c756d5f5f
  aa:	3369                	.insn	2, 0x3369
  ac:	2e00                	.insn	2, 0x2e00
  ae:	2f2e                	.insn	2, 0x2f2e
  b0:	2e2e                	.insn	2, 0x2e2e
  b2:	2f2e2e2f          	.insn	4, 0x2f2e2e2f
  b6:	2e2e                	.insn	2, 0x2e2e
  b8:	2f2e2e2f          	.insn	4, 0x2f2e2e2f
  bc:	2f2e                	.insn	2, 0x2f2e
  be:	2f636367          	.insn	4, 0x2f636367
  c2:	696c                	.insn	2, 0x696c
  c4:	6762                	.insn	2, 0x6762
  c6:	632f6363          	bltu	x30,x18,6ec <_heap_size+0x6ec>
  ca:	69666e6f          	jal	x28,66760 <_stack_size+0x65760>
  ce:	69722f67          	.insn	4, 0x69722f67
  d2:	2f766373          	.insn	4, 0x2f766373
  d6:	6964                	.insn	2, 0x6964
  d8:	2e76                	.insn	2, 0x2e76
  da:	5f5f0053          	.insn	4, 0x5f5f0053
  de:	6964                	.insn	2, 0x6964
  e0:	7376                	.insn	2, 0x7376
  e2:	3369                	.insn	2, 0x3369
  e4:	5f00                	.insn	2, 0x5f00
  e6:	685f 6469 6564      	.insn	6, 0x65646469685f
  ec:	5f6e                	.insn	2, 0x5f6e
  ee:	5f5f 6475 7669      	.insn	6, 0x766964755f5f
  f4:	00336973          	.insn	4, 0x00336973
  f8:	5f5f 6d75 646f      	.insn	6, 0x646f6d755f5f
  fe:	00336973          	.insn	4, 0x00336973
 102:	5f5f 6f6d 7364      	.insn	6, 0x73646f6d5f5f
 108:	3369                	.insn	2, 0x3369
 10a:	4400                	.insn	2, 0x4400
 10c:	696e7557          	.insn	4, 0x696e7557
 110:	5f006e6f          	jal	x28,6700 <_stack_size+0x5700>
 114:	755f 6964 6476      	.insn	6, 0x64766964755f
 11a:	3369                	.insn	2, 0x3369
 11c:	6300                	.insn	2, 0x6300
 11e:	6c706d6f          	jal	x26,6fe4 <_stack_size+0x5fe4>
 122:	7865                	.insn	2, 0x7865
 124:	6620                	.insn	2, 0x6620
 126:	6f6c                	.insn	2, 0x6f6c
 128:	7461                	.insn	2, 0x7461
 12a:	7300                	.insn	2, 0x7300
 12c:	6f68                	.insn	2, 0x6f68
 12e:	7472                	.insn	2, 0x7472
 130:	6920                	.insn	2, 0x6920
 132:	746e                	.insn	2, 0x746e
 134:	5f00                	.insn	2, 0x5f00
 136:	645f 0030 5f5f      	.insn	6, 0x5f5f0030645f
 13c:	6876                	.insn	2, 0x6876
 13e:	5f00                	.insn	2, 0x5f00
 140:	6f5f 3070 5f00      	.insn	6, 0x5f0030706f5f
 146:	6f5f 3170 6c00      	.insn	6, 0x6c0031706f5f
 14c:	20676e6f          	jal	x28,76352 <_stack_size+0x75352>
 150:	6f6c                	.insn	2, 0x6f6c
 152:	676e                	.insn	2, 0x676e
 154:	6920                	.insn	2, 0x6920
 156:	746e                	.insn	2, 0x746e
 158:	6c00                	.insn	2, 0x6c00
 15a:	20676e6f          	jal	x28,76360 <_stack_size+0x75360>
 15e:	6f6c                	.insn	2, 0x6f6c
 160:	676e                	.insn	2, 0x676e
 162:	7520                	.insn	2, 0x7520
 164:	736e                	.insn	2, 0x736e
 166:	6769                	.insn	2, 0x6769
 168:	656e                	.insn	2, 0x656e
 16a:	2064                	.insn	2, 0x2064
 16c:	6e69                	.insn	2, 0x6e69
 16e:	0074                	.insn	2, 0x0074
 170:	6968                	.insn	2, 0x6968
 172:	5f006867          	.insn	4, 0x5f006867
 176:	635f 7a6c 745f      	.insn	6, 0x745f7a6c635f
 17c:	6261                	.insn	2, 0x6261
 17e:	6300                	.insn	2, 0x6300
 180:	6c706d6f          	jal	x26,7046 <_stack_size+0x6046>
 184:	7865                	.insn	2, 0x7865
 186:	5f20                	.insn	2, 0x5f20
 188:	6c46                	.insn	2, 0x6c46
 18a:	3174616f          	jal	x2,46ca0 <_stack_size+0x45ca0>
 18e:	0036                	.insn	2, 0x0036
 190:	6e75                	.insn	2, 0x6e75
 192:	6e676973          	.insn	4, 0x6e676973
 196:	6465                	.insn	2, 0x6465
 198:	6320                	.insn	2, 0x6320
 19a:	6168                	.insn	2, 0x6168
 19c:	0072                	.insn	2, 0x0072
 19e:	20554e47          	.insn	4, 0x20554e47
 1a2:	20373143          	.insn	4, 0x20373143
 1a6:	3331                	.insn	2, 0x3331
 1a8:	322e                	.insn	2, 0x322e
 1aa:	302e                	.insn	2, 0x302e
 1ac:	2d20                	.insn	2, 0x2d20
 1ae:	636d                	.insn	2, 0x636d
 1b0:	6f6d                	.insn	2, 0x6f6d
 1b2:	6564                	.insn	2, 0x6564
 1b4:	3d6c                	.insn	2, 0x3d6c
 1b6:	656d                	.insn	2, 0x656d
 1b8:	6c64                	.insn	2, 0x6c64
 1ba:	2d20776f          	jal	x14,748c <_stack_size+0x648c>
 1be:	616d                	.insn	2, 0x616d
 1c0:	6962                	.insn	2, 0x6962
 1c2:	693d                	.insn	2, 0x693d
 1c4:	706c                	.insn	2, 0x706c
 1c6:	2d203233          	.insn	4, 0x2d203233
 1ca:	636d                	.insn	2, 0x636d
 1cc:	6f6d                	.insn	2, 0x6f6d
 1ce:	6564                	.insn	2, 0x6564
 1d0:	3d6c                	.insn	2, 0x3d6c
 1d2:	656d                	.insn	2, 0x656d
 1d4:	6c64                	.insn	2, 0x6c64
 1d6:	2d20776f          	jal	x14,74a8 <_stack_size+0x64a8>
 1da:	746d                	.insn	2, 0x746d
 1dc:	6e75                	.insn	2, 0x6e75
 1de:	3d65                	.insn	2, 0x3d65
 1e0:	6f72                	.insn	2, 0x6f72
 1e2:	74656b63          	bltu	x10,x6,938 <_heap_size+0x938>
 1e6:	2d20                	.insn	2, 0x2d20
 1e8:	696d                	.insn	2, 0x696d
 1ea:	732d6173          	.insn	4, 0x732d6173
 1ee:	6570                	.insn	2, 0x6570
 1f0:	30323d63          	.insn	4, 0x30323d63
 1f4:	3931                	.insn	2, 0x3931
 1f6:	3231                	.insn	2, 0x3231
 1f8:	3331                	.insn	2, 0x3331
 1fa:	2d20                	.insn	2, 0x2d20
 1fc:	616d                	.insn	2, 0x616d
 1fe:	6372                	.insn	2, 0x6372
 200:	3d68                	.insn	2, 0x3d68
 202:	7672                	.insn	2, 0x7672
 204:	20693233          	.insn	4, 0x20693233
 208:	672d                	.insn	2, 0x672d
 20a:	2d20                	.insn	2, 0x2d20
 20c:	2d20734f          	.insn	4, 0x2d20734f
 210:	2d20324f          	.insn	4, 0x2d20324f
 214:	2d20734f          	.insn	4, 0x2d20734f
 218:	6266                	.insn	2, 0x6266
 21a:	6975                	.insn	2, 0x6975
 21c:	646c                	.insn	2, 0x646c
 21e:	6e69                	.insn	2, 0x6e69
 220:	696c2d67          	.insn	4, 0x696c2d67
 224:	6762                	.insn	2, 0x6762
 226:	2d206363          	bltu	x0,x18,4ec <_heap_size+0x4ec>
 22a:	6e66                	.insn	2, 0x6e66
 22c:	74732d6f          	jal	x26,33172 <_stack_size+0x32172>
 230:	6361                	.insn	2, 0x6361
 232:	72702d6b          	.insn	4, 0x72702d6b
 236:	6365746f          	jal	x8,5786c <_stack_size+0x5686c>
 23a:	6f74                	.insn	2, 0x6f74
 23c:	2072                	.insn	2, 0x2072
 23e:	662d                	.insn	2, 0x662d
 240:	7361                	.insn	2, 0x7361
 242:	6e79                	.insn	2, 0x6e79
 244:	6f726863          	bltu	x4,x23,934 <_heap_size+0x934>
 248:	6f6e                	.insn	2, 0x6f6e
 24a:	7375                	.insn	2, 0x7375
 24c:	752d                	.insn	2, 0x752d
 24e:	776e                	.insn	2, 0x776e
 250:	6e69                	.insn	2, 0x6e69
 252:	2d64                	.insn	2, 0x2d64
 254:	6174                	.insn	2, 0x6174
 256:	6c62                	.insn	2, 0x6c62
 258:	7365                	.insn	2, 0x7365
 25a:	2d20                	.insn	2, 0x2d20
 25c:	7666                	.insn	2, 0x7666
 25e:	7369                	.insn	2, 0x7369
 260:	6269                	.insn	2, 0x6269
 262:	6c69                	.insn	2, 0x6c69
 264:	7469                	.insn	2, 0x7469
 266:	3d79                	.insn	2, 0x3d79
 268:	6968                	.insn	2, 0x6968
 26a:	6464                	.insn	2, 0x6464
 26c:	6e65                	.insn	2, 0x6e65
 26e:	5f00                	.insn	2, 0x5f00
 270:	785f 0030 5f5f      	.insn	6, 0x5f5f0030785f
 276:	3178                	.insn	2, 0x3178
 278:	5f00                	.insn	2, 0x5f00
 27a:	785f 0032 5f5f      	.insn	6, 0x5f5f0032785f
 280:	3378                	.insn	2, 0x3378
 282:	5500                	.insn	2, 0x5500
 284:	4951                	.insn	2, 0x4951
 286:	7974                	.insn	2, 0x7974
 288:	6570                	.insn	2, 0x6570
 28a:	4400                	.insn	2, 0x4400
 28c:	72747357          	.insn	4, 0x72747357
 290:	6375                	.insn	2, 0x6375
 292:	0074                	.insn	2, 0x0074
 294:	726f6873          	.insn	4, 0x726f6873
 298:	2074                	.insn	2, 0x2074
 29a:	6e75                	.insn	2, 0x6e75
 29c:	6e676973          	.insn	4, 0x6e676973
 2a0:	6465                	.insn	2, 0x6465
 2a2:	6920                	.insn	2, 0x6920
 2a4:	746e                	.insn	2, 0x746e
 2a6:	5500                	.insn	2, 0x5500
 2a8:	4944                	.insn	2, 0x4944
 2aa:	7974                	.insn	2, 0x7974
 2ac:	6570                	.insn	2, 0x6570
 2ae:	5f00                	.insn	2, 0x5f00
 2b0:	715f 0030 5f5f      	.insn	6, 0x5f5f0030715f
 2b6:	3171                	.insn	2, 0x3171
 2b8:	5f00                	.insn	2, 0x5f00
 2ba:	645f 0031 6f63      	.insn	6, 0x6f630031645f
 2c0:	706d                	.insn	2, 0x706d
 2c2:	656c                	.insn	2, 0x656c
 2c4:	2078                	.insn	2, 0x2078
 2c6:	6f64                	.insn	2, 0x6f64
 2c8:	6275                	.insn	2, 0x6275
 2ca:	656c                	.insn	2, 0x656c
 2cc:	5f00                	.insn	2, 0x5f00
 2ce:	765f 006c 5f5f      	.insn	6, 0x5f5f006c765f
 2d4:	6475                	.insn	2, 0x6475
 2d6:	7669                	.insn	2, 0x7669
 2d8:	6f6d                	.insn	2, 0x6f6d
 2da:	6464                	.insn	2, 0x6464
 2dc:	3469                	.insn	2, 0x3469
 2de:	6300                	.insn	2, 0x6300
 2e0:	6c706d6f          	jal	x26,71a6 <_stack_size+0x61a6>
 2e4:	7865                	.insn	2, 0x7865
 2e6:	6c20                	.insn	2, 0x6c20
 2e8:	20676e6f          	jal	x28,764ee <_stack_size+0x754ee>
 2ec:	6f64                	.insn	2, 0x6f64
 2ee:	6275                	.insn	2, 0x6275
 2f0:	656c                	.insn	2, 0x656c
 2f2:	5500                	.insn	2, 0x5500
 2f4:	79744953          	.insn	4, 0x79744953
 2f8:	6570                	.insn	2, 0x6570
 2fa:	5f00                	.insn	2, 0x5f00
 2fc:	785f 0072 5f5f      	.insn	6, 0x5f5f0072785f
 302:	3072                	.insn	2, 0x3072
 304:	5f00                	.insn	2, 0x5f00
 306:	725f 0031 5f5f      	.insn	6, 0x5f5f0031725f
 30c:	6875                	.insn	2, 0x6875
 30e:	5f00                	.insn	2, 0x5f00
 310:	755f 006c 5f5f      	.insn	6, 0x5f5f006c755f
 316:	6d75                	.insn	2, 0x6d75
 318:	6964646f          	jal	x8,469ae <_stack_size+0x459ae>
 31c:	4e470033          	.insn	4, 0x4e470033
 320:	2055                	.insn	2, 0x2055
 322:	20373143          	.insn	4, 0x20373143
 326:	3331                	.insn	2, 0x3331
 328:	322e                	.insn	2, 0x322e
 32a:	302e                	.insn	2, 0x302e
 32c:	2d20                	.insn	2, 0x2d20
 32e:	636d                	.insn	2, 0x636d
 330:	6f6d                	.insn	2, 0x6f6d
 332:	6564                	.insn	2, 0x6564
 334:	3d6c                	.insn	2, 0x3d6c
 336:	656d                	.insn	2, 0x656d
 338:	6c64                	.insn	2, 0x6c64
 33a:	2d20776f          	jal	x14,760c <_stack_size+0x660c>
 33e:	616d                	.insn	2, 0x616d
 340:	6962                	.insn	2, 0x6962
 342:	693d                	.insn	2, 0x693d
 344:	706c                	.insn	2, 0x706c
 346:	2d203233          	.insn	4, 0x2d203233
 34a:	636d                	.insn	2, 0x636d
 34c:	6f6d                	.insn	2, 0x6f6d
 34e:	6564                	.insn	2, 0x6564
 350:	3d6c                	.insn	2, 0x3d6c
 352:	656d                	.insn	2, 0x656d
 354:	6c64                	.insn	2, 0x6c64
 356:	2d20776f          	jal	x14,7628 <_stack_size+0x6628>
 35a:	746d                	.insn	2, 0x746d
 35c:	6e75                	.insn	2, 0x6e75
 35e:	3d65                	.insn	2, 0x3d65
 360:	6f72                	.insn	2, 0x6f72
 362:	74656b63          	bltu	x10,x6,ab8 <_heap_size+0xab8>
 366:	2d20                	.insn	2, 0x2d20
 368:	696d                	.insn	2, 0x696d
 36a:	732d6173          	.insn	4, 0x732d6173
 36e:	6570                	.insn	2, 0x6570
 370:	30323d63          	.insn	4, 0x30323d63
 374:	3931                	.insn	2, 0x3931
 376:	3231                	.insn	2, 0x3231
 378:	3331                	.insn	2, 0x3331
 37a:	2d20                	.insn	2, 0x2d20
 37c:	616d                	.insn	2, 0x616d
 37e:	6372                	.insn	2, 0x6372
 380:	3d68                	.insn	2, 0x3d68
 382:	7672                	.insn	2, 0x7672
 384:	20693233          	.insn	4, 0x20693233
 388:	672d                	.insn	2, 0x672d
 38a:	2d20                	.insn	2, 0x2d20
 38c:	2d20734f          	.insn	4, 0x2d20734f
 390:	2d20324f          	.insn	4, 0x2d20324f
 394:	2d20734f          	.insn	4, 0x2d20734f
 398:	6266                	.insn	2, 0x6266
 39a:	6975                	.insn	2, 0x6975
 39c:	646c                	.insn	2, 0x646c
 39e:	6e69                	.insn	2, 0x6e69
 3a0:	696c2d67          	.insn	4, 0x696c2d67
 3a4:	6762                	.insn	2, 0x6762
 3a6:	2d206363          	bltu	x0,x18,66c <_heap_size+0x66c>
 3aa:	6e66                	.insn	2, 0x6e66
 3ac:	74732d6f          	jal	x26,332f2 <_stack_size+0x322f2>
 3b0:	6361                	.insn	2, 0x6361
 3b2:	72702d6b          	.insn	4, 0x72702d6b
 3b6:	6365746f          	jal	x8,579ec <_stack_size+0x569ec>
 3ba:	6f74                	.insn	2, 0x6f74
 3bc:	2072                	.insn	2, 0x2072
 3be:	662d                	.insn	2, 0x662d
 3c0:	6976                	.insn	2, 0x6976
 3c2:	69626973          	.insn	4, 0x69626973
 3c6:	696c                	.insn	2, 0x696c
 3c8:	7974                	.insn	2, 0x7974
 3ca:	683d                	.insn	2, 0x683d
 3cc:	6469                	.insn	2, 0x6469
 3ce:	6564                	.insn	2, 0x6564
 3d0:	006e                	.insn	2, 0x006e

Disassembly of section .debug_loclists:

00000000 <.debug_loclists>:
   0:	0772                	.insn	2, 0x0772
   2:	0000                	.insn	2, 0x
   4:	0005                	.insn	2, 0x0005
   6:	0004                	.insn	2, 0x0004
   8:	0000                	.insn	2, 0x
   a:	0000                	.insn	2, 0x
   c:	0004                	.insn	2, 0x0004
   e:	01a0                	.insn	2, 0x01a0
  10:	5a06                	.insn	2, 0x5a06
  12:	935b0493          	addi	x9,x22,-1739
  16:	0404                	.insn	2, 0x0404
  18:	01a0                	.insn	2, 0x01a0
  1a:	02e4                	.insn	2, 0x02e4
  1c:	a306                	.insn	2, 0xa306
  1e:	260aa503          	lw	x10,608(x21)
  22:	049f 02e4 03b8      	.insn	6, 0x03b802e4049f
  28:	5a06                	.insn	2, 0x5a06
  2a:	935b0493          	addi	x9,x22,-1739
  2e:	0404                	.insn	2, 0x0404
  30:	03b8                	.insn	2, 0x03b8
  32:	05bc                	.insn	2, 0x05bc
  34:	a306                	.insn	2, 0xa306
  36:	260aa503          	lw	x10,608(x21)
  3a:	049f 05bc 05f4      	.insn	6, 0x05f405bc049f
  40:	5a06                	.insn	2, 0x5a06
  42:	935b0493          	addi	x9,x22,-1739
  46:	0404                	.insn	2, 0x0404
  48:	05f4                	.insn	2, 0x05f4
  4a:	07bc                	.insn	2, 0x07bc
  4c:	a306                	.insn	2, 0xa306
  4e:	260aa503          	lw	x10,608(x21)
  52:	049f 07bc 07dc      	.insn	6, 0x07dc07bc049f
  58:	5a06                	.insn	2, 0x5a06
  5a:	935b0493          	addi	x9,x22,-1739
  5e:	0404                	.insn	2, 0x0404
  60:	07dc                	.insn	2, 0x07dc
  62:	088c                	.insn	2, 0x088c
  64:	a306                	.insn	2, 0xa306
  66:	260aa503          	lw	x10,608(x21)
  6a:	049f 088c 08a0      	.insn	6, 0x08a0088c049f
  70:	5a06                	.insn	2, 0x5a06
  72:	935b0493          	addi	x9,x22,-1739
  76:	0404                	.insn	2, 0x0404
  78:	08a0                	.insn	2, 0x08a0
  7a:	0bb8                	.insn	2, 0x0bb8
  7c:	a306                	.insn	2, 0xa306
  7e:	260aa503          	lw	x10,608(x21)
  82:	049f 0bb8 0bc4      	.insn	6, 0x0bc40bb8049f
  88:	5a06                	.insn	2, 0x5a06
  8a:	935b0493          	addi	x9,x22,-1739
  8e:	0004                	.insn	2, 0x0004
  90:	0004                	.insn	2, 0x0004
  92:	5c0601a7          	.insn	4, 0x5c0601a7
  96:	935d0493          	addi	x9,x26,-1739 # 2fffa91 <SYSCALL_ADDR+0xfefa91>
  9a:	0404                	.insn	2, 0x0404
  9c:	02e401a7          	.insn	4, 0x02e401a7
  a0:	a306                	.insn	2, 0xa306
  a2:	260ca503          	lw	x10,608(x25)
  a6:	049f 02e4 03b8      	.insn	6, 0x03b802e4049f
  ac:	5c06                	.insn	2, 0x5c06
  ae:	935d0493          	addi	x9,x26,-1739
  b2:	0404                	.insn	2, 0x0404
  b4:	03b8                	.insn	2, 0x03b8
  b6:	05bc                	.insn	2, 0x05bc
  b8:	a306                	.insn	2, 0xa306
  ba:	260ca503          	lw	x10,608(x25)
  be:	049f 05bc 05fb      	.insn	6, 0x05fb05bc049f
  c4:	5c06                	.insn	2, 0x5c06
  c6:	935d0493          	addi	x9,x26,-1739
  ca:	0404                	.insn	2, 0x0404
  cc:	07bc05fb          	.insn	4, 0x07bc05fb
  d0:	a306                	.insn	2, 0xa306
  d2:	260ca503          	lw	x10,608(x25)
  d6:	049f 07bc 08d7      	.insn	6, 0x08d707bc049f
  dc:	5c06                	.insn	2, 0x5c06
  de:	935d0493          	addi	x9,x26,-1739
  e2:	0404                	.insn	2, 0x0404
  e4:	0bb808d7          	.insn	4, 0x0bb808d7
  e8:	a306                	.insn	2, 0xa306
  ea:	260ca503          	lw	x10,608(x25)
  ee:	049f 0bb8 0bc4      	.insn	6, 0x0bc40bb8049f
  f4:	5c06                	.insn	2, 0x5c06
  f6:	935d0493          	addi	x9,x26,-1739
  fa:	0004                	.insn	2, 0x0004
  fc:	0004                	.insn	2, 0x0004
  fe:	0580                	.insn	2, 0x0580
 100:	3002                	.insn	2, 0x3002
 102:	049f 05bc 0bc4      	.insn	6, 0x0bc405bc049f
 108:	3002                	.insn	2, 0x3002
 10a:	009f 0004 0664      	.insn	6, 0x06640004009f
 110:	935c                	.insn	2, 0x935c
 112:	5d04                	.insn	2, 0x5d04
 114:	e4040493          	addi	x9,x8,-448
 118:	e802                	.insn	2, 0xe802
 11a:	0602                	.insn	2, 0x0602
 11c:	935c                	.insn	2, 0x935c
 11e:	5d04                	.insn	2, 0x5d04
 120:	f8040493          	addi	x9,x8,-128
 124:	9402                	.insn	2, 0x9402
 126:	935c0603          	lb	x12,-1739(x24)
 12a:	5d04                	.insn	2, 0x5d04
 12c:	bc040493          	addi	x9,x8,-1088
 130:	c005                	.insn	2, 0xc005
 132:	0605                	.insn	2, 0x0605
 134:	935c                	.insn	2, 0x935c
 136:	5d04                	.insn	2, 0x5d04
 138:	bc040493          	addi	x9,x8,-1088
 13c:	0608a407          	.insn	4, 0x0608a407
 140:	935c                	.insn	2, 0x935c
 142:	5d04                	.insn	2, 0x5d04
 144:	b8040493          	addi	x9,x8,-1152
 148:	060bc40b          	.insn	4, 0x060bc40b
 14c:	935c                	.insn	2, 0x935c
 14e:	5d04                	.insn	2, 0x5d04
 150:	04000493          	addi	x9,x0,64
 154:	9c00                	.insn	2, 0x9c00
 156:	0601                	.insn	2, 0x0601
 158:	935a                	.insn	2, 0x935a
 15a:	5b04                	.insn	2, 0x5b04
 15c:	e4040493          	addi	x9,x8,-448
 160:	b802                	.insn	2, 0xb802
 162:	93590603          	lb	x12,-1739(x18)
 166:	5b04                	.insn	2, 0x5b04
 168:	bc040493          	addi	x9,x8,-1088
 16c:	e005                	.insn	2, 0xe005
 16e:	0605                	.insn	2, 0x0605
 170:	9359                	.insn	2, 0x9359
 172:	5b04                	.insn	2, 0x5b04
 174:	bc040493          	addi	x9,x8,-1088
 178:	0607dc07          	.insn	4, 0x0607dc07
 17c:	935a                	.insn	2, 0x935a
 17e:	5b04                	.insn	2, 0x5b04
 180:	dc040493          	addi	x9,x8,-576
 184:	06088c07          	.insn	4, 0x06088c07
 188:	9364                	.insn	2, 0x9364
 18a:	5b04                	.insn	2, 0x5b04
 18c:	8c040493          	addi	x9,x8,-1856
 190:	a008                	.insn	2, 0xa008
 192:	0608                	.insn	2, 0x0608
 194:	935a                	.insn	2, 0x935a
 196:	5b04                	.insn	2, 0x5b04
 198:	a0040493          	addi	x9,x8,-1536
 19c:	bc08                	.insn	2, 0xbc08
 19e:	0608                	.insn	2, 0x0608
 1a0:	9364                	.insn	2, 0x9364
 1a2:	5b04                	.insn	2, 0x5b04
 1a4:	b8040493          	addi	x9,x8,-1152
 1a8:	060bc40b          	.insn	4, 0x060bc40b
 1ac:	935a                	.insn	2, 0x935a
 1ae:	5b04                	.insn	2, 0x5b04
 1b0:	04000493          	addi	x9,x0,64
 1b4:	8000                	.insn	2, 0x8000
 1b6:	0101                	.insn	2, 0x0101
 1b8:	045c                	.insn	2, 0x045c
 1ba:	0180                	.insn	2, 0x0180
 1bc:	018c                	.insn	2, 0x018c
 1be:	7c09                	.insn	2, 0x7c09
 1c0:	7e00                	.insn	2, 0x7e00
 1c2:	0800                	.insn	2, 0x0800
 1c4:	9f241aff dc018c04 	.insn	12, 0x04630102dc018c049f241aff
 1cc:	04630102 
 1d0:	02e4                	.insn	2, 0x02e4
 1d2:	0388                	.insn	2, 0x0388
 1d4:	5c01                	.insn	2, 0x5c01
 1d6:	b804                	.insn	2, 0xb804
 1d8:	01058003          	lb	x0,16(x11)
 1dc:	05bc0463          	beq	x24,x27,224 <_heap_size+0x224>
 1e0:	05d0                	.insn	2, 0x05d0
 1e2:	5c01                	.insn	2, 0x5c01
 1e4:	d404                	.insn	2, 0xd404
 1e6:	bc05                	.insn	2, 0xbc05
 1e8:	04630107          	.insn	4, 0x04630107
 1ec:	07bc                	.insn	2, 0x07bc
 1ee:	08d0                	.insn	2, 0x08d0
 1f0:	5c01                	.insn	2, 0x5c01
 1f2:	d004                	.insn	2, 0xd004
 1f4:	a808                	.insn	2, 0xa808
 1f6:	010a                	.insn	2, 0x010a
 1f8:	0458                	.insn	2, 0x0458
 1fa:	0bb8                	.insn	2, 0x0bb8
 1fc:	0bc4                	.insn	2, 0x0bc4
 1fe:	5c01                	.insn	2, 0x5c01
 200:	0400                	.insn	2, 0x0400
 202:	6400                	.insn	2, 0x6400
 204:	5d01                	.insn	2, 0x5d01
 206:	e404                	.insn	2, 0xe404
 208:	e802                	.insn	2, 0xe802
 20a:	0102                	.insn	2, 0x0102
 20c:	045d                	.insn	2, 0x045d
 20e:	02f8                	.insn	2, 0x02f8
 210:	0394                	.insn	2, 0x0394
 212:	5d01                	.insn	2, 0x5d01
 214:	bc04                	.insn	2, 0xbc04
 216:	c005                	.insn	2, 0xc005
 218:	0105                	.insn	2, 0x0105
 21a:	045d                	.insn	2, 0x045d
 21c:	07bc                	.insn	2, 0x07bc
 21e:	08a4                	.insn	2, 0x08a4
 220:	5d01                	.insn	2, 0x5d01
 222:	ac04                	.insn	2, 0xac04
 224:	b808                	.insn	2, 0xb808
 226:	0466010b          	.insn	4, 0x0466010b
 22a:	0bb8                	.insn	2, 0x0bb8
 22c:	0bc4                	.insn	2, 0x0bc4
 22e:	5d01                	.insn	2, 0x5d01
 230:	0400                	.insn	2, 0x0400
 232:	9400                	.insn	2, 0x9400
 234:	0101                	.insn	2, 0x0101
 236:	045a                	.insn	2, 0x045a
 238:	0194                	.insn	2, 0x0194
 23a:	02ac                	.insn	2, 0x02ac
 23c:	5901                	.insn	2, 0x5901
 23e:	e404                	.insn	2, 0xe404
 240:	d002                	.insn	2, 0xd002
 242:	0104                	.insn	2, 0x0104
 244:	0459                	.insn	2, 0x0459
 246:	05bc                	.insn	2, 0x05bc
 248:	07bc                	.insn	2, 0x07bc
 24a:	5901                	.insn	2, 0x5901
 24c:	bc04                	.insn	2, 0xbc04
 24e:	0107dc07          	.insn	4, 0x0107dc07
 252:	045a                	.insn	2, 0x045a
 254:	07dc                	.insn	2, 0x07dc
 256:	088c                	.insn	2, 0x088c
 258:	6401                	.insn	2, 0x6401
 25a:	8c04                	.insn	2, 0x8c04
 25c:	a008                	.insn	2, 0xa008
 25e:	0108                	.insn	2, 0x0108
 260:	045a                	.insn	2, 0x045a
 262:	08a0                	.insn	2, 0x08a0
 264:	08d0                	.insn	2, 0x08d0
 266:	6401                	.insn	2, 0x6401
 268:	d004                	.insn	2, 0xd004
 26a:	ac08                	.insn	2, 0xac08
 26c:	0084060b          	.insn	4, 0x0084060b
 270:	0082                	.insn	2, 0x0082
 272:	9f24                	.insn	2, 0x9f24
 274:	b804                	.insn	2, 0xb804
 276:	010bc40b          	.insn	4, 0x010bc40b
 27a:	005a                	.insn	2, 0x005a
 27c:	0004                	.insn	2, 0x0004
 27e:	0190                	.insn	2, 0x0190
 280:	5b01                	.insn	2, 0x5b01
 282:	9004                	.insn	2, 0x9004
 284:	dc01                	.insn	2, 0xdc01
 286:	0101                	.insn	2, 0x0101
 288:	0462                	.insn	2, 0x0462
 28a:	02e4                	.insn	2, 0x02e4
 28c:	03b4                	.insn	2, 0x03b4
 28e:	5b01                	.insn	2, 0x5b01
 290:	b404                	.insn	2, 0xb404
 292:	01048003          	lb	x0,16(x9)
 296:	0464                	.insn	2, 0x0464
 298:	05bc                	.insn	2, 0x05bc
 29a:	05e0                	.insn	2, 0x05e0
 29c:	5b01                	.insn	2, 0x5b01
 29e:	e804                	.insn	2, 0xe804
 2a0:	b805                	.insn	2, 0xb805
 2a2:	04650107          	.insn	4, 0x04650107
 2a6:	07b8                	.insn	2, 0x07b8
 2a8:	07bc                	.insn	2, 0x07bc
 2aa:	6401                	.insn	2, 0x6401
 2ac:	bc04                	.insn	2, 0xbc04
 2ae:	0108bc07          	.insn	4, 0x0108bc07
 2b2:	08d0045b          	.insn	4, 0x08d0045b
 2b6:	0aa0                	.insn	2, 0x0aa0
 2b8:	6301                	.insn	2, 0x6301
 2ba:	a004                	.insn	2, 0xa004
 2bc:	a40a                	.insn	2, 0xa40a
 2be:	045e010b          	.insn	4, 0x045e010b
 2c2:	0bb8                	.insn	2, 0x0bb8
 2c4:	0bc4                	.insn	2, 0x0bc4
 2c6:	5b01                	.insn	2, 0x5b01
 2c8:	0400                	.insn	2, 0x0400
 2ca:	05d8                	.insn	2, 0x05d8
 2cc:	06b0                	.insn	2, 0x06b0
 2ce:	6201                	.insn	2, 0x6201
 2d0:	d004                	.insn	2, 0xd004
 2d2:	8808                	.insn	2, 0x8808
 2d4:	0109                	.insn	2, 0x0109
 2d6:	0059                	.insn	2, 0x0059
 2d8:	dc04                	.insn	2, 0xdc04
 2da:	e402                	.insn	2, 0xe402
 2dc:	0102                	.insn	2, 0x0102
 2de:	045f 0aa0 0bb8      	.insn	6, 0x0bb80aa0045f
 2e4:	5f01                	.insn	2, 0x5f01
 2e6:	0400                	.insn	2, 0x0400
 2e8:	03b4                	.insn	2, 0x03b4
 2ea:	03b8                	.insn	2, 0x03b8
 2ec:	3102                	.insn	2, 0x3102
 2ee:	049f 03b8 0580      	.insn	6, 0x058003b8049f
 2f4:	6201                	.insn	2, 0x6201
 2f6:	b804                	.insn	2, 0xb804
 2f8:	0107bc07          	.insn	4, 0x0107bc07
 2fc:	0062                	.insn	2, 0x0062
 2fe:	d004                	.insn	2, 0xd004
 300:	e405                	.insn	2, 0xe405
 302:	0105                	.insn	2, 0x0105
 304:	045f 08a0 08b8      	.insn	6, 0x08b808a0045f
 30a:	6001                	.insn	2, 0x6001
 30c:	0400                	.insn	2, 0x0400
 30e:	a77c                	.insn	2, 0xa77c
 310:	0101                	.insn	2, 0x0101
 312:	045e                	.insn	2, 0x045e
 314:	03ac                	.insn	2, 0x03ac
 316:	03b8                	.insn	2, 0x03b8
 318:	5e01                	.insn	2, 0x5e01
 31a:	d004                	.insn	2, 0xd004
 31c:	fb05                	.insn	2, 0xfb05
 31e:	0105                	.insn	2, 0x0105
 320:	045e                	.insn	2, 0x045e
 322:	07f4                	.insn	2, 0x07f4
 324:	088c                	.insn	2, 0x088c
 326:	6201                	.insn	2, 0x6201
 328:	a004                	.insn	2, 0xa004
 32a:	ac08                	.insn	2, 0xac08
 32c:	0062010b          	.insn	4, 0x0062010b
 330:	5404                	.insn	2, 0x5404
 332:	0180                	.insn	2, 0x0180
 334:	5c01                	.insn	2, 0x5c01
 336:	8004                	.insn	2, 0x8004
 338:	8c01                	.insn	2, 0x8c01
 33a:	0901                	.insn	2, 0x0901
 33c:	007c                	.insn	2, 0x007c
 33e:	007e                	.insn	2, 0x007e
 340:	ff08                	.insn	2, 0xff08
 342:	241a                	.insn	2, 0x241a
 344:	049f 018c 02dc      	.insn	6, 0x02dc018c049f
 34a:	6301                	.insn	2, 0x6301
 34c:	e404                	.insn	2, 0xe404
 34e:	f802                	.insn	2, 0xf802
 350:	0102                	.insn	2, 0x0102
 352:	005c                	.insn	2, 0x005c
 354:	6404                	.insn	2, 0x6404
 356:	017c                	.insn	2, 0x017c
 358:	005e                	.insn	2, 0x005e
 35a:	9804                	.insn	2, 0x9804
 35c:	dc01                	.insn	2, 0xdc01
 35e:	0102                	.insn	2, 0x0102
 360:	0065                	.insn	2, 0x0065
 362:	ac04                	.insn	2, 0xac04
 364:	9c01                	.insn	2, 0x9c01
 366:	0102                	.insn	2, 0x0102
 368:	0466                	.insn	2, 0x0466
 36a:	029c                	.insn	2, 0x029c
 36c:	02dc                	.insn	2, 0x02dc
 36e:	40008307          	.insn	4, 0x40008307
 372:	4024                	.insn	2, 0x4024
 374:	9f25                	.insn	2, 0x9f25
 376:	0400                	.insn	2, 0x0400
 378:	01b4                	.insn	2, 0x01b4
 37a:	01b8                	.insn	2, 0x01b8
 37c:	5a01                	.insn	2, 0x5a01
 37e:	b804                	.insn	2, 0xb804
 380:	bb01                	.insn	2, 0xbb01
 382:	0101                	.insn	2, 0x0101
 384:	01bb045b          	.insn	4, 0x01bb045b
 388:	01e8                	.insn	2, 0x01e8
 38a:	6401                	.insn	2, 0x6401
 38c:	e804                	.insn	2, 0xe804
 38e:	dc01                	.insn	2, 0xdc01
 390:	0102                	.insn	2, 0x0102
 392:	0062                	.insn	2, 0x0062
 394:	9004                	.insn	2, 0x9004
 396:	9402                	.insn	2, 0x9402
 398:	0102                	.insn	2, 0x0102
 39a:	045a                	.insn	2, 0x045a
 39c:	0294                	.insn	2, 0x0294
 39e:	5b010297          	auipc	x5,0x5b010
 3a2:	9704                	.insn	2, 0x9704
 3a4:	c802                	.insn	2, 0xc802
 3a6:	0102                	.insn	2, 0x0102
 3a8:	0464                	.insn	2, 0x0464
 3aa:	02c8                	.insn	2, 0x02c8
 3ac:	02dc                	.insn	2, 0x02dc
 3ae:	5e01                	.insn	2, 0x5e01
 3b0:	0400                	.insn	2, 0x0400
 3b2:	01ac                	.insn	2, 0x01ac
 3b4:	01d8                	.insn	2, 0x01d8
 3b6:	8206                	.insn	2, 0x8206
 3b8:	8500                	.insn	2, 0x8500
 3ba:	1d00                	.insn	2, 0x1d00
 3bc:	049f 01d8 01e4      	.insn	6, 0x01e401d8049f
 3c2:	5e01                	.insn	2, 0x5e01
 3c4:	e404                	.insn	2, 0xe404
 3c6:	e801                	.insn	2, 0xe801
 3c8:	0801                	.insn	2, 0x0801
 3ca:	0079                	.insn	2, 0x0079
 3cc:	2540                	.insn	2, 0x2540
 3ce:	007a                	.insn	2, 0x007a
 3d0:	9f21                	.insn	2, 0x9f21
 3d2:	e804                	.insn	2, 0xe804
 3d4:	fc01                	.insn	2, 0xfc01
 3d6:	0101                	.insn	2, 0x0101
 3d8:	045e                	.insn	2, 0x045e
 3da:	01fc                	.insn	2, 0x01fc
 3dc:	02dc                	.insn	2, 0x02dc
 3de:	5801                	.insn	2, 0x5801
 3e0:	0400                	.insn	2, 0x0400
 3e2:	01fc                	.insn	2, 0x01fc
 3e4:	02b8                	.insn	2, 0x02b8
 3e6:	7806                	.insn	2, 0x7806
 3e8:	8500                	.insn	2, 0x8500
 3ea:	1d00                	.insn	2, 0x1d00
 3ec:	049f 02b8 02c4      	.insn	6, 0x02c402b8049f
 3f2:	5901                	.insn	2, 0x5901
 3f4:	0400                	.insn	2, 0x0400
 3f6:	01c0                	.insn	2, 0x01c0
 3f8:	01fc                	.insn	2, 0x01fc
 3fa:	5801                	.insn	2, 0x5801
 3fc:	9c04                	.insn	2, 0x9c04
 3fe:	a402                	.insn	2, 0xa402
 400:	0102                	.insn	2, 0x0102
 402:	045a                	.insn	2, 0x045a
 404:	02a4                	.insn	2, 0x02a4
 406:	02dc                	.insn	2, 0x02dc
 408:	6601                	.insn	2, 0x6601
 40a:	0400                	.insn	2, 0x0400
 40c:	0b84                	.insn	2, 0x0b84
 40e:	0b90                	.insn	2, 0x0b90
 410:	5c01                	.insn	2, 0x5c01
 412:	0400                	.insn	2, 0x0400
 414:	0b84                	.insn	2, 0x0b84
 416:	0b98                	.insn	2, 0x0b98
 418:	8010                	.insn	2, 0x8010
 41a:	0a00                	.insn	2, 0x0a00
 41c:	ffff                	.insn	2, 0xffff
 41e:	7d1a                	.insn	2, 0x7d1a
 420:	0a00                	.insn	2, 0x0a00
 422:	ffff                	.insn	2, 0xffff
 424:	401a                	.insn	2, 0x401a
 426:	2224                	.insn	2, 0x2224
 428:	049f 0b98 0ba0      	.insn	6, 0x0ba00b98049f
 42e:	8015                	.insn	2, 0x8015
 430:	0a00                	.insn	2, 0x0a00
 432:	ffff                	.insn	2, 0xffff
 434:	801a                	.insn	2, 0x801a
 436:	4000                	.insn	2, 0x4000
 438:	8125                	.insn	2, 0x8125
 43a:	2200                	.insn	2, 0x2200
 43c:	ff0a                	.insn	2, 0xff0a
 43e:	24401aff 04009f22 	.insn	12, 0x08d708d004009f2224401aff
 446:	08d708d0 
 44a:	5b01                	.insn	2, 0x5b01
 44c:	d704                	.insn	2, 0xd704
 44e:	b808                	.insn	2, 0xb808
 450:	0068010b          	.insn	4, 0x0068010b
 454:	d404                	.insn	2, 0xd404
 456:	c808                	.insn	2, 0xc808
 458:	0109                	.insn	2, 0x0109
 45a:	09c80467          	jalr	x8,156(x16) # 590b545a <SYSCALL_ADDR+0x570a545a>
 45e:	0bb8                	.insn	2, 0x0bb8
 460:	40008607          	.insn	4, 0x40008607
 464:	4024                	.insn	2, 0x4024
 466:	9f25                	.insn	2, 0x9f25
 468:	0400                	.insn	2, 0x0400
 46a:	08e0                	.insn	2, 0x08e0
 46c:	08e4                	.insn	2, 0x08e4
 46e:	5a01                	.insn	2, 0x5a01
 470:	e404                	.insn	2, 0xe404
 472:	e708                	.insn	2, 0xe708
 474:	0108                	.insn	2, 0x0108
 476:	08e7045b          	.insn	4, 0x08e7045b
 47a:	0994                	.insn	2, 0x0994
 47c:	6901                	.insn	2, 0x6901
 47e:	9404                	.insn	2, 0x9404
 480:	b809                	.insn	2, 0xb809
 482:	0059010b          	.insn	4, 0x0059010b
 486:	bc04                	.insn	2, 0xbc04
 488:	c009                	.insn	2, 0xc009
 48a:	0109                	.insn	2, 0x0109
 48c:	045a                	.insn	2, 0x045a
 48e:	09c0                	.insn	2, 0x09c0
 490:	5b0109c3          	.insn	4, 0x5b0109c3
 494:	c304                	.insn	2, 0xc304
 496:	f409                	.insn	2, 0xf409
 498:	0109                	.insn	2, 0x0109
 49a:	0469                	.insn	2, 0x0469
 49c:	09f4                	.insn	2, 0x09f4
 49e:	0ab4                	.insn	2, 0x0ab4
 4a0:	5d01                	.insn	2, 0x5d01
 4a2:	0400                	.insn	2, 0x0400
 4a4:	08d4                	.insn	2, 0x08d4
 4a6:	790608d7          	.insn	4, 0x790608d7
 4aa:	7b00                	.insn	2, 0x7b00
 4ac:	1d00                	.insn	2, 0x1d00
 4ae:	049f 08d7 0984      	.insn	6, 0x098408d7049f
 4b4:	7906                	.insn	2, 0x7906
 4b6:	8800                	.insn	2, 0x8800
 4b8:	1d00                	.insn	2, 0x1d00
 4ba:	049f 0984 0990      	.insn	6, 0x09900984049f
 4c0:	5d01                	.insn	2, 0x5d01
 4c2:	9004                	.insn	2, 0x9004
 4c4:	9409                	.insn	2, 0x9409
 4c6:	0809                	.insn	2, 0x0809
 4c8:	25400083          	lb	x1,596(x0) # 254 <_heap_size+0x254>
 4cc:	007a                	.insn	2, 0x007a
 4ce:	9f21                	.insn	2, 0x9f21
 4d0:	9404                	.insn	2, 0x9404
 4d2:	a809                	.insn	2, 0xa809
 4d4:	0109                	.insn	2, 0x0109
 4d6:	045d                	.insn	2, 0x045d
 4d8:	09a8                	.insn	2, 0x09a8
 4da:	0bb8                	.insn	2, 0x0bb8
 4dc:	6501                	.insn	2, 0x6501
 4de:	0400                	.insn	2, 0x0400
 4e0:	09a8                	.insn	2, 0x09a8
 4e2:	09e4                	.insn	2, 0x09e4
 4e4:	8506                	.insn	2, 0x8506
 4e6:	8800                	.insn	2, 0x8800
 4e8:	1d00                	.insn	2, 0x1d00
 4ea:	049f 09e4 09f0      	.insn	6, 0x09f009e4049f
 4f0:	5e01                	.insn	2, 0x5e01
 4f2:	f004                	.insn	2, 0xf004
 4f4:	f409                	.insn	2, 0xf409
 4f6:	0a09                	.insn	2, 0x0a09
 4f8:	24400083          	lb	x1,580(x0) # 244 <_heap_size+0x244>
 4fc:	2540                	.insn	2, 0x2540
 4fe:	007a                	.insn	2, 0x007a
 500:	9f21                	.insn	2, 0x9f21
 502:	f404                	.insn	2, 0xf404
 504:	a409                	.insn	2, 0xa409
 506:	005e010b          	.insn	4, 0x005e010b
 50a:	ec04                	.insn	2, 0xec04
 50c:	f408                	.insn	2, 0xf408
 50e:	0108                	.insn	2, 0x0108
 510:	045a                	.insn	2, 0x045a
 512:	08f4                	.insn	2, 0x08f4
 514:	09a8                	.insn	2, 0x09a8
 516:	6501                	.insn	2, 0x6501
 518:	c804                	.insn	2, 0xc804
 51a:	d009                	.insn	2, 0xd009
 51c:	0109                	.insn	2, 0x0109
 51e:	045a                	.insn	2, 0x045a
 520:	09d0                	.insn	2, 0x09d0
 522:	0bb8                	.insn	2, 0x0bb8
 524:	6701                	.insn	2, 0x6701
 526:	0400                	.insn	2, 0x0400
 528:	0ab8                	.insn	2, 0x0ab8
 52a:	0ac0                	.insn	2, 0x0ac0
 52c:	5a01                	.insn	2, 0x5a01
 52e:	c004                	.insn	2, 0xc004
 530:	a00a                	.insn	2, 0xa00a
 532:	0060010b          	.insn	4, 0x0060010b
 536:	c804                	.insn	2, 0xc804
 538:	d00a                	.insn	2, 0xd00a
 53a:	010a                	.insn	2, 0x010a
 53c:	045a                	.insn	2, 0x045a
 53e:	0ad0                	.insn	2, 0x0ad0
 540:	0aec                	.insn	2, 0x0aec
 542:	6101                	.insn	2, 0x6101
 544:	f404                	.insn	2, 0xf404
 546:	980a                	.insn	2, 0x980a
 548:	045d010b          	.insn	4, 0x045d010b
 54c:	0b98                	.insn	2, 0x0b98
 54e:	0ba0                	.insn	2, 0x0ba0
 550:	8008                	.insn	2, 0x8008
 552:	4000                	.insn	2, 0x4000
 554:	8125                	.insn	2, 0x8125
 556:	2200                	.insn	2, 0x2200
 558:	009f d804 b80a      	.insn	6, 0xb80ad804009f
 55e:	0056010b          	.insn	4, 0x0056010b
 562:	f404                	.insn	2, 0xf404
 564:	fc0a                	.insn	2, 0xfc0a
 566:	010a                	.insn	2, 0x010a
 568:	045a                	.insn	2, 0x045a
 56a:	0afc                	.insn	2, 0x0afc
 56c:	0b84                	.insn	2, 0x0b84
 56e:	5c01                	.insn	2, 0x5c01
 570:	0400                	.insn	2, 0x0400
 572:	0aa0                	.insn	2, 0x0aa0
 574:	0ac8                	.insn	2, 0x0ac8
 576:	6101                	.insn	2, 0x6101
 578:	c804                	.insn	2, 0xc804
 57a:	940a                	.insn	2, 0x940a
 57c:	7f8c060b          	.insn	4, 0x7f8c060b
 580:	007f 9f1a 9404 b00b 	.insn	10, 0x060bb00b94049f1a007f
 588:	060b 
 58a:	007f 007c 9f1a b004 	.insn	10, 0xb40bb0049f1a007c007f
 592:	b40b 
 594:	7f8c060b          	.insn	4, 0x7f8c060b
 598:	007f 9f1a b404 b80b 	.insn	10, 0x060bb80bb4049f1a007f
 5a0:	060b 
 5a2:	017f 7f8c 9f1a 0400 	.insn	10, 0x0aa404009f1a7f8c017f
 5aa:	0aa4 
 5ac:	0ad8                	.insn	2, 0x0ad8
 5ae:	5601                	.insn	2, 0x5601
 5b0:	0400                	.insn	2, 0x0400
 5b2:	0aa4                	.insn	2, 0x0aa4
 5b4:	0bb8                	.insn	2, 0x0bb8
 5b6:	6d01                	.insn	2, 0x6d01
 5b8:	0400                	.insn	2, 0x0400
 5ba:	0aa8                	.insn	2, 0x0aa8
 5bc:	0bb8                	.insn	2, 0x0bb8
 5be:	5801                	.insn	2, 0x5801
 5c0:	0400                	.insn	2, 0x0400
 5c2:	0380                	.insn	2, 0x0380
 5c4:	0388                	.insn	2, 0x0388
 5c6:	5c01                	.insn	2, 0x5c01
 5c8:	bc04                	.insn	2, 0xbc04
 5ca:	d005                	.insn	2, 0xd005
 5cc:	0105                	.insn	2, 0x0105
 5ce:	005c                	.insn	2, 0x005c
 5d0:	9404                	.insn	2, 0x9404
 5d2:	0103ac03          	lw	x24,16(x7)
 5d6:	005e                	.insn	2, 0x005e
 5d8:	bc04                	.insn	2, 0xbc04
 5da:	01058003          	lb	x0,16(x11)
 5de:	0066                	.insn	2, 0x0066
 5e0:	d004                	.insn	2, 0xd004
 5e2:	0104c003          	lbu	x0,16(x9)
 5e6:	04c00467          	jalr	x8,76(x0) # 4c <_heap_size+0x4c>
 5ea:	0580                	.insn	2, 0x0580
 5ec:	40008307          	.insn	4, 0x40008307
 5f0:	4024                	.insn	2, 0x4024
 5f2:	9f25                	.insn	2, 0x9f25
 5f4:	0400                	.insn	2, 0x0400
 5f6:	03d8                	.insn	2, 0x03d8
 5f8:	03dc                	.insn	2, 0x03dc
 5fa:	5a01                	.insn	2, 0x5a01
 5fc:	dc04                	.insn	2, 0xdc04
 5fe:	0103df03          	lhu	x30,16(x7)
 602:	03df045b          	.insn	4, 0x03df045b
 606:	048c                	.insn	2, 0x048c
 608:	6801                	.insn	2, 0x6801
 60a:	8c04                	.insn	2, 0x8c04
 60c:	8004                	.insn	2, 0x8004
 60e:	0105                	.insn	2, 0x0105
 610:	0064                	.insn	2, 0x0064
 612:	b404                	.insn	2, 0xb404
 614:	b804                	.insn	2, 0xb804
 616:	0104                	.insn	2, 0x0104
 618:	045a                	.insn	2, 0x045a
 61a:	04b8                	.insn	2, 0x04b8
 61c:	5b0104bb          	.insn	4, 0x5b0104bb
 620:	bb04                	.insn	2, 0xbb04
 622:	ec04                	.insn	2, 0xec04
 624:	0104                	.insn	2, 0x0104
 626:	0465                	.insn	2, 0x0465
 628:	04ec                	.insn	2, 0x04ec
 62a:	0580                	.insn	2, 0x0580
 62c:	5e01                	.insn	2, 0x5e01
 62e:	0400                	.insn	2, 0x0400
 630:	03d0                	.insn	2, 0x03d0
 632:	03fc                	.insn	2, 0x03fc
 634:	8406                	.insn	2, 0x8406
 636:	8600                	.insn	2, 0x8600
 638:	1d00                	.insn	2, 0x1d00
 63a:	049f 03fc 0488      	.insn	6, 0x048803fc049f
 640:	5e01                	.insn	2, 0x5e01
 642:	8804                	.insn	2, 0x8804
 644:	8c04                	.insn	2, 0x8c04
 646:	0804                	.insn	2, 0x0804
 648:	0079                	.insn	2, 0x0079
 64a:	2540                	.insn	2, 0x2540
 64c:	007a                	.insn	2, 0x007a
 64e:	9f21                	.insn	2, 0x9f21
 650:	8c04                	.insn	2, 0x8c04
 652:	a004                	.insn	2, 0xa004
 654:	0104                	.insn	2, 0x0104
 656:	045e                	.insn	2, 0x045e
 658:	04a0                	.insn	2, 0x04a0
 65a:	0580                	.insn	2, 0x0580
 65c:	5801                	.insn	2, 0x5801
 65e:	0400                	.insn	2, 0x0400
 660:	04a0                	.insn	2, 0x04a0
 662:	04dc                	.insn	2, 0x04dc
 664:	7806                	.insn	2, 0x7806
 666:	8600                	.insn	2, 0x8600
 668:	1d00                	.insn	2, 0x1d00
 66a:	049f 04dc 04e8      	.insn	6, 0x04e804dc049f
 670:	5901                	.insn	2, 0x5901
 672:	0400                	.insn	2, 0x0400
 674:	03e4                	.insn	2, 0x03e4
 676:	03ec                	.insn	2, 0x03ec
 678:	5a01                	.insn	2, 0x5a01
 67a:	ec04                	.insn	2, 0xec04
 67c:	0104b403          	.insn	4, 0x0104b403
 680:	0465                	.insn	2, 0x0465
 682:	04c0                	.insn	2, 0x04c0
 684:	04c8                	.insn	2, 0x04c8
 686:	5a01                	.insn	2, 0x5a01
 688:	c804                	.insn	2, 0xc804
 68a:	8004                	.insn	2, 0x8004
 68c:	0105                	.insn	2, 0x0105
 68e:	ec040067          	jalr	x0,-320(x8)
 692:	bc05                	.insn	2, 0xbc05
 694:	00670107          	.insn	4, 0x00670107
 698:	8004                	.insn	2, 0x8004
 69a:	f006                	.insn	2, 0xf006
 69c:	0106                	.insn	2, 0x0106
 69e:	0464                	.insn	2, 0x0464
 6a0:	06f0                	.insn	2, 0x06f0
 6a2:	07bc                	.insn	2, 0x07bc
 6a4:	40008307          	.insn	4, 0x40008307
 6a8:	4024                	.insn	2, 0x4024
 6aa:	9f25                	.insn	2, 0x9f25
 6ac:	0400                	.insn	2, 0x0400
 6ae:	0688                	.insn	2, 0x0688
 6b0:	068c                	.insn	2, 0x068c
 6b2:	5a01                	.insn	2, 0x5a01
 6b4:	8c04                	.insn	2, 0x8c04
 6b6:	8f06                	.insn	2, 0x8f06
 6b8:	0106                	.insn	2, 0x0106
 6ba:	068f045b          	.insn	4, 0x068f045b
 6be:	06bc                	.insn	2, 0x06bc
 6c0:	6601                	.insn	2, 0x6601
 6c2:	bc04                	.insn	2, 0xbc04
 6c4:	b006                	.insn	2, 0xb006
 6c6:	00620107          	.insn	4, 0x00620107
 6ca:	e404                	.insn	2, 0xe404
 6cc:	e806                	.insn	2, 0xe806
 6ce:	0106                	.insn	2, 0x0106
 6d0:	045a                	.insn	2, 0x045a
 6d2:	06e8                	.insn	2, 0x06e8
 6d4:	5b0106eb          	.insn	4, 0x5b0106eb
 6d8:	eb04                	.insn	2, 0xeb04
 6da:	9c06                	.insn	2, 0x9c06
 6dc:	04660107          	.insn	4, 0x04660107
 6e0:	079c                	.insn	2, 0x079c
 6e2:	07bc                	.insn	2, 0x07bc
 6e4:	5e01                	.insn	2, 0x5e01
 6e6:	0400                	.insn	2, 0x0400
 6e8:	0680                	.insn	2, 0x0680
 6ea:	06ac                	.insn	2, 0x06ac
 6ec:	8206                	.insn	2, 0x8206
 6ee:	8700                	.insn	2, 0x8700
 6f0:	1d00                	.insn	2, 0x1d00
 6f2:	049f 06ac 06b8      	.insn	6, 0x06b806ac049f
 6f8:	5e01                	.insn	2, 0x5e01
 6fa:	b804                	.insn	2, 0xb804
 6fc:	bc06                	.insn	2, 0xbc06
 6fe:	0806                	.insn	2, 0x0806
 700:	0085                	.insn	2, 0x0085
 702:	2540                	.insn	2, 0x2540
 704:	007a                	.insn	2, 0x007a
 706:	9f21                	.insn	2, 0x9f21
 708:	bc04                	.insn	2, 0xbc04
 70a:	d006                	.insn	2, 0xd006
 70c:	0106                	.insn	2, 0x0106
 70e:	045e                	.insn	2, 0x045e
 710:	06d0                	.insn	2, 0x06d0
 712:	07bc                	.insn	2, 0x07bc
 714:	5801                	.insn	2, 0x5801
 716:	0400                	.insn	2, 0x0400
 718:	06d0                	.insn	2, 0x06d0
 71a:	078c                	.insn	2, 0x078c
 71c:	7806                	.insn	2, 0x7806
 71e:	8700                	.insn	2, 0x8700
 720:	1d00                	.insn	2, 0x1d00
 722:	049f 078c 0798      	.insn	6, 0x0798078c049f
 728:	5f01                	.insn	2, 0x5f01
 72a:	9804                	.insn	2, 0x9804
 72c:	0a079c07          	.insn	4, 0x0a079c07
 730:	0085                	.insn	2, 0x0085
 732:	2440                	.insn	2, 0x2440
 734:	2540                	.insn	2, 0x2540
 736:	007a                	.insn	2, 0x007a
 738:	9f21                	.insn	2, 0x9f21
 73a:	9c04                	.insn	2, 0x9c04
 73c:	0107b407          	.insn	4, 0x0107b407
 740:	045f 07b4 07bc      	.insn	6, 0x07bc07b4045f
 746:	6401                	.insn	2, 0x6401
 748:	0400                	.insn	2, 0x0400
 74a:	0694                	.insn	2, 0x0694
 74c:	06d0                	.insn	2, 0x06d0
 74e:	5801                	.insn	2, 0x5801
 750:	f004                	.insn	2, 0xf004
 752:	f806                	.insn	2, 0xf806
 754:	0106                	.insn	2, 0x0106
 756:	045a                	.insn	2, 0x045a
 758:	06f8                	.insn	2, 0x06f8
 75a:	07b4                	.insn	2, 0x07b4
 75c:	6401                	.insn	2, 0x6401
 75e:	0400                	.insn	2, 0x0400
 760:	07c0                	.insn	2, 0x07c0
 762:	08a4                	.insn	2, 0x08a4
 764:	5d01                	.insn	2, 0x5d01
 766:	0400                	.insn	2, 0x0400
 768:	07d4                	.insn	2, 0x07d4
 76a:	088c                	.insn	2, 0x088c
 76c:	5e01                	.insn	2, 0x5e01
 76e:	a004                	.insn	2, 0xa004
 770:	d708                	.insn	2, 0xd708
 772:	0108                	.insn	2, 0x0108
 774:	005e                	.insn	2, 0x005e
 776:	063e                	.insn	2, 0x063e
 778:	0000                	.insn	2, 0x
 77a:	0005                	.insn	2, 0x0005
 77c:	0004                	.insn	2, 0x0004
 77e:	0000                	.insn	2, 0x
 780:	0000                	.insn	2, 0x
 782:	0004                	.insn	2, 0x0004
 784:	0194                	.insn	2, 0x0194
 786:	5a06                	.insn	2, 0x5a06
 788:	935b0493          	addi	x9,x22,-1739
 78c:	0404                	.insn	2, 0x0404
 78e:	0194                	.insn	2, 0x0194
 790:	02f4                	.insn	2, 0x02f4
 792:	a306                	.insn	2, 0xa306
 794:	2d0aa503          	lw	x10,720(x21)
 798:	049f 02f4 03ec      	.insn	6, 0x03ec02f4049f
 79e:	5a06                	.insn	2, 0x5a06
 7a0:	935b0493          	addi	x9,x22,-1739
 7a4:	0404                	.insn	2, 0x0404
 7a6:	03ec                	.insn	2, 0x03ec
 7a8:	0580                	.insn	2, 0x0580
 7aa:	a306                	.insn	2, 0xa306
 7ac:	2d0aa503          	lw	x10,720(x21)
 7b0:	049f 0580 05f0      	.insn	6, 0x05f00580049f
 7b6:	5a06                	.insn	2, 0x5a06
 7b8:	935b0493          	addi	x9,x22,-1739
 7bc:	0404                	.insn	2, 0x0404
 7be:	05f0                	.insn	2, 0x05f0
 7c0:	05f8                	.insn	2, 0x05f8
 7c2:	a306                	.insn	2, 0xa306
 7c4:	2d0aa503          	lw	x10,720(x21)
 7c8:	049f 05f8 06b8      	.insn	6, 0x06b805f8049f
 7ce:	5a06                	.insn	2, 0x5a06
 7d0:	935b0493          	addi	x9,x22,-1739
 7d4:	0404                	.insn	2, 0x0404
 7d6:	06b8                	.insn	2, 0x06b8
 7d8:	09d0                	.insn	2, 0x09d0
 7da:	a306                	.insn	2, 0xa306
 7dc:	2d0aa503          	lw	x10,720(x21)
 7e0:	009f 0004 0194      	.insn	6, 0x01940004009f
 7e6:	5c06                	.insn	2, 0x5c06
 7e8:	935d0493          	addi	x9,x26,-1739
 7ec:	0404                	.insn	2, 0x0404
 7ee:	0194                	.insn	2, 0x0194
 7f0:	02f4                	.insn	2, 0x02f4
 7f2:	a306                	.insn	2, 0xa306
 7f4:	2d0ca503          	lw	x10,720(x25)
 7f8:	049f 02f4 03ef      	.insn	6, 0x03ef02f4049f
 7fe:	5c06                	.insn	2, 0x5c06
 800:	935d0493          	addi	x9,x26,-1739
 804:	0404                	.insn	2, 0x0404
 806:	058003ef          	jal	x7,85e <_heap_size+0x85e>
 80a:	a306                	.insn	2, 0xa306
 80c:	2d0ca503          	lw	x10,720(x25)
 810:	049f 0580 06c7      	.insn	6, 0x06c70580049f
 816:	5c06                	.insn	2, 0x5c06
 818:	935d0493          	addi	x9,x26,-1739
 81c:	0404                	.insn	2, 0x0404
 81e:	09d006c7          	.insn	4, 0x09d006c7
 822:	a306                	.insn	2, 0xa306
 824:	2d0ca503          	lw	x10,720(x25)
 828:	009f cc04 d009      	.insn	6, 0xd009cc04009f
 82e:	0609                	.insn	2, 0x0609
 830:	935a                	.insn	2, 0x935a
 832:	5b04                	.insn	2, 0x5b04
 834:	04000493          	addi	x9,x0,64
 838:	bc00                	.insn	2, 0xbc00
 83a:	0602                	.insn	2, 0x0602
 83c:	77a0                	.insn	2, 0x77a0
 83e:	0000000b          	.insn	4, 0x000b
 842:	f404                	.insn	2, 0xf404
 844:	d002                	.insn	2, 0xd002
 846:	0609                	.insn	2, 0x0609
 848:	77a0                	.insn	2, 0x77a0
 84a:	0000000b          	.insn	4, 0x000b
 84e:	0400                	.insn	2, 0x0400
 850:	6400                	.insn	2, 0x6400
 852:	5c06                	.insn	2, 0x5c06
 854:	935d0493          	addi	x9,x26,-1739
 858:	0404                	.insn	2, 0x0404
 85a:	02f4                	.insn	2, 0x02f4
 85c:	02f8                	.insn	2, 0x02f8
 85e:	5c06                	.insn	2, 0x5c06
 860:	935d0493          	addi	x9,x26,-1739
 864:	0404                	.insn	2, 0x0404
 866:	0388                	.insn	2, 0x0388
 868:	03a4                	.insn	2, 0x03a4
 86a:	5c06                	.insn	2, 0x5c06
 86c:	935d0493          	addi	x9,x26,-1739
 870:	0404                	.insn	2, 0x0404
 872:	0580                	.insn	2, 0x0580
 874:	0584                	.insn	2, 0x0584
 876:	5c06                	.insn	2, 0x5c06
 878:	935d0493          	addi	x9,x26,-1739
 87c:	0404                	.insn	2, 0x0404
 87e:	0594                	.insn	2, 0x0594
 880:	05e0                	.insn	2, 0x05e0
 882:	5c06                	.insn	2, 0x5c06
 884:	935d0493          	addi	x9,x26,-1739
 888:	0404                	.insn	2, 0x0404
 88a:	05f8                	.insn	2, 0x05f8
 88c:	0690                	.insn	2, 0x0690
 88e:	5c06                	.insn	2, 0x5c06
 890:	935d0493          	addi	x9,x26,-1739
 894:	0004                	.insn	2, 0x0004
 896:	0004                	.insn	2, 0x0004
 898:	0194                	.insn	2, 0x0194
 89a:	5a06                	.insn	2, 0x5a06
 89c:	935b0493          	addi	x9,x22,-1739
 8a0:	0404                	.insn	2, 0x0404
 8a2:	02f4                	.insn	2, 0x02f4
 8a4:	03b4                	.insn	2, 0x03b4
 8a6:	5806                	.insn	2, 0x5806
 8a8:	93590493          	addi	x9,x18,-1739
 8ac:	0404                	.insn	2, 0x0404
 8ae:	03b4                	.insn	2, 0x03b4
 8b0:	03d8                	.insn	2, 0x03d8
 8b2:	5806                	.insn	2, 0x5806
 8b4:	935b0493          	addi	x9,x22,-1739
 8b8:	0404                	.insn	2, 0x0404
 8ba:	0580                	.insn	2, 0x0580
 8bc:	05e4                	.insn	2, 0x05e4
 8be:	5806                	.insn	2, 0x5806
 8c0:	93590493          	addi	x9,x18,-1739
 8c4:	0404                	.insn	2, 0x0404
 8c6:	05e4                	.insn	2, 0x05e4
 8c8:	05e8                	.insn	2, 0x05e8
 8ca:	5806                	.insn	2, 0x5806
 8cc:	935b0493          	addi	x9,x22,-1739
 8d0:	0404                	.insn	2, 0x0404
 8d2:	05e8                	.insn	2, 0x05e8
 8d4:	05f0                	.insn	2, 0x05f0
 8d6:	5a06                	.insn	2, 0x5a06
 8d8:	935b0493          	addi	x9,x22,-1739
 8dc:	0404                	.insn	2, 0x0404
 8de:	05f8                	.insn	2, 0x05f8
 8e0:	06a0                	.insn	2, 0x06a0
 8e2:	5806                	.insn	2, 0x5806
 8e4:	93590493          	addi	x9,x18,-1739
 8e8:	0404                	.insn	2, 0x0404
 8ea:	06a0                	.insn	2, 0x06a0
 8ec:	06a8                	.insn	2, 0x06a8
 8ee:	5a06                	.insn	2, 0x5a06
 8f0:	93590493          	addi	x9,x18,-1739
 8f4:	0004                	.insn	2, 0x0004
 8f6:	0004                	.insn	2, 0x0004
 8f8:	018c                	.insn	2, 0x018c
 8fa:	5c01                	.insn	2, 0x5c01
 8fc:	8c04                	.insn	2, 0x8c04
 8fe:	bc01                	.insn	2, 0xbc01
 900:	0102                	.insn	2, 0x0102
 902:	02f40463          	beq	x8,x15,92a <_heap_size+0x92a>
 906:	0398                	.insn	2, 0x0398
 908:	5c01                	.insn	2, 0x5c01
 90a:	c804                	.insn	2, 0xc804
 90c:	01058003          	lb	x0,16(x11)
 910:	05800463          	beq	x0,x24,958 <_heap_size+0x958>
 914:	06c0                	.insn	2, 0x06c0
 916:	5c01                	.insn	2, 0x5c01
 918:	c004                	.insn	2, 0xc004
 91a:	9c06                	.insn	2, 0x9c06
 91c:	0109                	.insn	2, 0x0109
 91e:	0062                	.insn	2, 0x0062
 920:	0004                	.insn	2, 0x0004
 922:	0164                	.insn	2, 0x0164
 924:	045d                	.insn	2, 0x045d
 926:	02f4                	.insn	2, 0x02f4
 928:	02f8                	.insn	2, 0x02f8
 92a:	5d01                	.insn	2, 0x5d01
 92c:	8804                	.insn	2, 0x8804
 92e:	0103a403          	lw	x8,16(x7)
 932:	045d                	.insn	2, 0x045d
 934:	0580                	.insn	2, 0x0580
 936:	0584                	.insn	2, 0x0584
 938:	5d01                	.insn	2, 0x5d01
 93a:	9404                	.insn	2, 0x9404
 93c:	e005                	.insn	2, 0xe005
 93e:	0105                	.insn	2, 0x0105
 940:	045d                	.insn	2, 0x045d
 942:	05f8                	.insn	2, 0x05f8
 944:	0690                	.insn	2, 0x0690
 946:	5d01                	.insn	2, 0x5d01
 948:	9804                	.insn	2, 0x9804
 94a:	d006                	.insn	2, 0xd006
 94c:	0109                	.insn	2, 0x0109
 94e:	38040067          	jalr	x0,896(x8)
 952:	0194                	.insn	2, 0x0194
 954:	5a01                	.insn	2, 0x5a01
 956:	9404                	.insn	2, 0x9404
 958:	9001                	.insn	2, 0x9001
 95a:	0102                	.insn	2, 0x0102
 95c:	0458                	.insn	2, 0x0458
 95e:	02b4                	.insn	2, 0x02b4
 960:	02bc                	.insn	2, 0x02bc
 962:	5801                	.insn	2, 0x5801
 964:	f404                	.insn	2, 0xf404
 966:	e802                	.insn	2, 0xe802
 968:	0105                	.insn	2, 0x0105
 96a:	0458                	.insn	2, 0x0458
 96c:	05e8                	.insn	2, 0x05e8
 96e:	05ec                	.insn	2, 0x05ec
 970:	5a01                	.insn	2, 0x5a01
 972:	f804                	.insn	2, 0xf804
 974:	a005                	.insn	2, 0xa005
 976:	0106                	.insn	2, 0x0106
 978:	0458                	.insn	2, 0x0458
 97a:	06a0                	.insn	2, 0x06a0
 97c:	06b8                	.insn	2, 0x06b8
 97e:	5a01                	.insn	2, 0x5a01
 980:	c004                	.insn	2, 0xc004
 982:	b406                	.insn	2, 0xb406
 984:	0109                	.insn	2, 0x0109
 986:	0466                	.insn	2, 0x0466
 988:	09bc                	.insn	2, 0x09bc
 98a:	09c4                	.insn	2, 0x09c4
 98c:	5f01                	.insn	2, 0x5f01
 98e:	0400                	.insn	2, 0x0400
 990:	903c                	.insn	2, 0x903c
 992:	0101                	.insn	2, 0x0101
 994:	0190045b          	.insn	4, 0x0190045b
 998:	01e8                	.insn	2, 0x01e8
 99a:	5901                	.insn	2, 0x5901
 99c:	f404                	.insn	2, 0xf404
 99e:	b402                	.insn	2, 0xb402
 9a0:	04590103          	lb	x2,69(x18)
 9a4:	03b4                	.insn	2, 0x03b4
 9a6:	03d8                	.insn	2, 0x03d8
 9a8:	5b01                	.insn	2, 0x5b01
 9aa:	dc04                	.insn	2, 0xdc04
 9ac:	0104fc03          	.insn	4, 0x0104fc03
 9b0:	0464                	.insn	2, 0x0464
 9b2:	04fc                	.insn	2, 0x04fc
 9b4:	05e4                	.insn	2, 0x05e4
 9b6:	5901                	.insn	2, 0x5901
 9b8:	e404                	.insn	2, 0xe404
 9ba:	ec05                	.insn	2, 0xec05
 9bc:	0105                	.insn	2, 0x0105
 9be:	05ec045b          	.insn	4, 0x05ec045b
 9c2:	06a8                	.insn	2, 0x06a8
 9c4:	5901                	.insn	2, 0x5901
 9c6:	c004                	.insn	2, 0xc004
 9c8:	9006                	.insn	2, 0x9006
 9ca:	0108                	.insn	2, 0x0108
 9cc:	0458                	.insn	2, 0x0458
 9ce:	0890                	.insn	2, 0x0890
 9d0:	09bc                	.insn	2, 0x09bc
 9d2:	5901                	.insn	2, 0x5901
 9d4:	bc04                	.insn	2, 0xbc04
 9d6:	cc09                	.insn	2, 0xcc09
 9d8:	0109                	.insn	2, 0x0109
 9da:	09cc045b          	.insn	4, 0x09cc045b
 9de:	09d0                	.insn	2, 0x09d0
 9e0:	7909                	.insn	2, 0x7909
 9e2:	7e00                	.insn	2, 0x7e00
 9e4:	1c00                	.insn	2, 0x1c00
 9e6:	0086                	.insn	2, 0x0086
 9e8:	9f1c                	.insn	2, 0x9f1c
 9ea:	0400                	.insn	2, 0x0400
 9ec:	03cc                	.insn	2, 0x03cc
 9ee:	0580                	.insn	2, 0x0580
 9f0:	6701                	.insn	2, 0x6701
 9f2:	c004                	.insn	2, 0xc004
 9f4:	c706                	.insn	2, 0xc706
 9f6:	0106                	.insn	2, 0x0106
 9f8:	045a                	.insn	2, 0x045a
 9fa:	06f806c7          	.insn	4, 0x06f806c7
 9fe:	6301                	.insn	2, 0x6301
 a00:	0400                	.insn	2, 0x0400
 a02:	05d8                	.insn	2, 0x05d8
 a04:	05ec                	.insn	2, 0x05ec
 a06:	3102                	.insn	2, 0x3102
 a08:	009f ec04 f805      	.insn	6, 0xf805ec04009f
 a0e:	0205                	.insn	2, 0x0205
 a10:	9f30                	.insn	2, 0x9f30
 a12:	ac04                	.insn	2, 0xac04
 a14:	d009                	.insn	2, 0xd009
 a16:	0209                	.insn	2, 0x0209
 a18:	9f30                	.insn	2, 0x9f30
 a1a:	0400                	.insn	2, 0x0400
 a1c:	03c4                	.insn	2, 0x03c4
 a1e:	03d4                	.insn	2, 0x03d4
 a20:	5f01                	.insn	2, 0x5f01
 a22:	8c04                	.insn	2, 0x8c04
 a24:	c006                	.insn	2, 0xc006
 a26:	0109                	.insn	2, 0x0109
 a28:	0065                	.insn	2, 0x0065
 a2a:	7c04                	.insn	2, 0x7c04
 a2c:	02bc                	.insn	2, 0x02bc
 a2e:	6201                	.insn	2, 0x6201
 a30:	c004                	.insn	2, 0xc004
 a32:	01058003          	lb	x0,16(x11)
 a36:	0462                	.insn	2, 0x0462
 a38:	05cc                	.insn	2, 0x05cc
 a3a:	05f8                	.insn	2, 0x05f8
 a3c:	6401                	.insn	2, 0x6401
 a3e:	8c04                	.insn	2, 0x8c04
 a40:	d006                	.insn	2, 0xd006
 a42:	0109                	.insn	2, 0x0109
 a44:	0064                	.insn	2, 0x0064
 a46:	5004                	.insn	2, 0x5004
 a48:	0194                	.insn	2, 0x0194
 a4a:	5c01                	.insn	2, 0x5c01
 a4c:	f404                	.insn	2, 0xf404
 a4e:	8802                	.insn	2, 0x8802
 a50:	005c0103          	lb	x2,5(x24)
 a54:	6404                	.insn	2, 0x6404
 a56:	0178                	.insn	2, 0x0178
 a58:	005e                	.insn	2, 0x005e
 a5a:	9804                	.insn	2, 0x9804
 a5c:	bc01                	.insn	2, 0xbc01
 a5e:	0102                	.insn	2, 0x0102
 a60:	0065                	.insn	2, 0x0065
 a62:	ac04                	.insn	2, 0xac04
 a64:	bc01                	.insn	2, 0xbc01
 a66:	0102                	.insn	2, 0x0102
 a68:	0066                	.insn	2, 0x0066
 a6a:	ac04                	.insn	2, 0xac04
 a6c:	d401                	.insn	2, 0xd401
 a6e:	0c01                	.insn	2, 0x0c01
 a70:	0079                	.insn	2, 0x0079
 a72:	26a8                	.insn	2, 0x26a8
 a74:	0085                	.insn	2, 0x0085
 a76:	26a8                	.insn	2, 0x26a8
 a78:	9f00a81b          	.insn	4, 0x9f00a81b
 a7c:	d404                	.insn	2, 0xd404
 a7e:	e001                	.insn	2, 0xe001
 a80:	0e01                	.insn	2, 0x0e01
 a82:	0079                	.insn	2, 0x0079
 a84:	26a8                	.insn	2, 0x26a8
 a86:	0085                	.insn	2, 0x0085
 a88:	26a8                	.insn	2, 0x26a8
 a8a:	3100a81b          	.insn	4, 0x3100a81b
 a8e:	9f1c                	.insn	2, 0x9f1c
 a90:	e004                	.insn	2, 0xe004
 a92:	e401                	.insn	2, 0xe401
 a94:	0e01                	.insn	2, 0x0e01
 a96:	0079                	.insn	2, 0x0079
 a98:	26a8                	.insn	2, 0x26a8
 a9a:	0085                	.insn	2, 0x0085
 a9c:	26a8                	.insn	2, 0x26a8
 a9e:	3200a81b          	.insn	4, 0x3200a81b
 aa2:	9f1c                	.insn	2, 0x9f1c
 aa4:	0400                	.insn	2, 0x0400
 aa6:	01e8                	.insn	2, 0x01e8
 aa8:	02a0                	.insn	2, 0x02a0
 aaa:	790c                	.insn	2, 0x790c
 aac:	a800                	.insn	2, 0xa800
 aae:	8526                	.insn	2, 0x8526
 ab0:	a800                	.insn	2, 0xa800
 ab2:	1b26                	.insn	2, 0x1b26
 ab4:	00a8                	.insn	2, 0x00a8
 ab6:	049f 02a0 02ac      	.insn	6, 0x02ac02a0049f
 abc:	790e                	.insn	2, 0x790e
 abe:	a800                	.insn	2, 0xa800
 ac0:	8526                	.insn	2, 0x8526
 ac2:	a800                	.insn	2, 0xa800
 ac4:	1b26                	.insn	2, 0x1b26
 ac6:	00a8                	.insn	2, 0x00a8
 ac8:	1c31                	.insn	2, 0x1c31
 aca:	049f 02ac 02b0      	.insn	6, 0x02b002ac049f
 ad0:	790e                	.insn	2, 0x790e
 ad2:	a800                	.insn	2, 0xa800
 ad4:	8526                	.insn	2, 0x8526
 ad6:	a800                	.insn	2, 0xa800
 ad8:	1b26                	.insn	2, 0x1b26
 ada:	00a8                	.insn	2, 0x00a8
 adc:	1c32                	.insn	2, 0x1c32
 ade:	009f ac04 d001      	.insn	6, 0xd001ac04009f
 ae4:	0601                	.insn	2, 0x0601
 ae6:	0079                	.insn	2, 0x0079
 ae8:	0085                	.insn	2, 0x0085
 aea:	9f1d                	.insn	2, 0x9f1d
 aec:	d004                	.insn	2, 0xd004
 aee:	e801                	.insn	2, 0xe801
 af0:	0101                	.insn	2, 0x0101
 af2:	045f 01e8 02bc      	.insn	6, 0x02bc01e8045f
 af8:	5901                	.insn	2, 0x5901
 afa:	0400                	.insn	2, 0x0400
 afc:	01e8                	.insn	2, 0x01e8
 afe:	029c                	.insn	2, 0x029c
 b00:	7906                	.insn	2, 0x7906
 b02:	8500                	.insn	2, 0x8500
 b04:	1d00                	.insn	2, 0x1d00
 b06:	049f 029c 02bc      	.insn	6, 0x02bc029c049f
 b0c:	5801                	.insn	2, 0x5801
 b0e:	0400                	.insn	2, 0x0400
 b10:	01b8                	.insn	2, 0x01b8
 b12:	01c0                	.insn	2, 0x01c0
 b14:	5a01                	.insn	2, 0x5a01
 b16:	c004                	.insn	2, 0xc004
 b18:	8001                	.insn	2, 0x8001
 b1a:	0102                	.insn	2, 0x0102
 b1c:	0464                	.insn	2, 0x0464
 b1e:	0280                	.insn	2, 0x0280
 b20:	0288                	.insn	2, 0x0288
 b22:	5a01                	.insn	2, 0x5a01
 b24:	8804                	.insn	2, 0x8804
 b26:	bc02                	.insn	2, 0xbc02
 b28:	0102                	.insn	2, 0x0102
 b2a:	0064                	.insn	2, 0x0064
 b2c:	9004                	.insn	2, 0x9004
 b2e:	01039803          	lh	x16,16(x7)
 b32:	045c                	.insn	2, 0x045c
 b34:	0580                	.insn	2, 0x0580
 b36:	0594                	.insn	2, 0x0594
 b38:	5c01                	.insn	2, 0x5c01
 b3a:	0400                	.insn	2, 0x0400
 b3c:	03a4                	.insn	2, 0x03a4
 b3e:	03bc                	.insn	2, 0x03bc
 b40:	5e01                	.insn	2, 0x5e01
 b42:	0400                	.insn	2, 0x0400
 b44:	03e0                	.insn	2, 0x03e0
 b46:	0580                	.insn	2, 0x0580
 b48:	6601                	.insn	2, 0x6601
 b4a:	0400                	.insn	2, 0x0400
 b4c:	03f4                	.insn	2, 0x03f4
 b4e:	04c8                	.insn	2, 0x04c8
 b50:	6501                	.insn	2, 0x6501
 b52:	c804                	.insn	2, 0xc804
 b54:	8004                	.insn	2, 0x8004
 b56:	0705                	.insn	2, 0x0705
 b58:	24400083          	lb	x1,580(x0) # 244 <_heap_size+0x244>
 b5c:	2540                	.insn	2, 0x2540
 b5e:	009f f404 9c03      	.insn	6, 0x9c03f404009f
 b64:	0c04                	.insn	2, 0x0c04
 b66:	26a80087          	.insn	4, 0x26a80087
 b6a:	0086                	.insn	2, 0x0086
 b6c:	26a8                	.insn	2, 0x26a8
 b6e:	9f00a81b          	.insn	4, 0x9f00a81b
 b72:	9c04                	.insn	2, 0x9c04
 b74:	a804                	.insn	2, 0xa804
 b76:	0e04                	.insn	2, 0x0e04
 b78:	26a80087          	.insn	4, 0x26a80087
 b7c:	0086                	.insn	2, 0x0086
 b7e:	26a8                	.insn	2, 0x26a8
 b80:	3100a81b          	.insn	4, 0x3100a81b
 b84:	9f1c                	.insn	2, 0x9f1c
 b86:	a804                	.insn	2, 0xa804
 b88:	ac04                	.insn	2, 0xac04
 b8a:	0e04                	.insn	2, 0x0e04
 b8c:	26a80087          	.insn	4, 0x26a80087
 b90:	0086                	.insn	2, 0x0086
 b92:	26a8                	.insn	2, 0x26a8
 b94:	3200a81b          	.insn	4, 0x3200a81b
 b98:	9f1c                	.insn	2, 0x9f1c
 b9a:	0400                	.insn	2, 0x0400
 b9c:	04b0                	.insn	2, 0x04b0
 b9e:	04e8                	.insn	2, 0x04e8
 ba0:	790c                	.insn	2, 0x790c
 ba2:	a800                	.insn	2, 0xa800
 ba4:	8626                	.insn	2, 0x8626
 ba6:	a800                	.insn	2, 0xa800
 ba8:	1b26                	.insn	2, 0x1b26
 baa:	00a8                	.insn	2, 0x00a8
 bac:	049f 04e8 04f4      	.insn	6, 0x04f404e8049f
 bb2:	790e                	.insn	2, 0x790e
 bb4:	a800                	.insn	2, 0xa800
 bb6:	8626                	.insn	2, 0x8626
 bb8:	a800                	.insn	2, 0xa800
 bba:	1b26                	.insn	2, 0x1b26
 bbc:	00a8                	.insn	2, 0x00a8
 bbe:	1c31                	.insn	2, 0x1c31
 bc0:	049f 04f4 04f8      	.insn	6, 0x04f804f4049f
 bc6:	790e                	.insn	2, 0x790e
 bc8:	a800                	.insn	2, 0xa800
 bca:	8626                	.insn	2, 0x8626
 bcc:	a800                	.insn	2, 0xa800
 bce:	1b26                	.insn	2, 0x1b26
 bd0:	00a8                	.insn	2, 0x00a8
 bd2:	1c32                	.insn	2, 0x1c32
 bd4:	009f f404 9803      	.insn	6, 0x9803f404009f
 bda:	0604                	.insn	2, 0x0604
 bdc:	00860087          	.insn	4, 0x00860087
 be0:	9f1d                	.insn	2, 0x9f1d
 be2:	9804                	.insn	2, 0x9804
 be4:	b004                	.insn	2, 0xb004
 be6:	0104                	.insn	2, 0x0104
 be8:	045e                	.insn	2, 0x045e
 bea:	04b0                	.insn	2, 0x04b0
 bec:	04fc                	.insn	2, 0x04fc
 bee:	5901                	.insn	2, 0x5901
 bf0:	0400                	.insn	2, 0x0400
 bf2:	04b0                	.insn	2, 0x04b0
 bf4:	04e4                	.insn	2, 0x04e4
 bf6:	7906                	.insn	2, 0x7906
 bf8:	8600                	.insn	2, 0x8600
 bfa:	1d00                	.insn	2, 0x1d00
 bfc:	049f 04e4 04fc      	.insn	6, 0x04fc04e4049f
 c02:	5f01                	.insn	2, 0x5f01
 c04:	fc04                	.insn	2, 0xfc04
 c06:	8004                	.insn	2, 0x8004
 c08:	0105                	.insn	2, 0x0105
 c0a:	0059                	.insn	2, 0x0059
 c0c:	8004                	.insn	2, 0x8004
 c0e:	b004                	.insn	2, 0xb004
 c10:	0104                	.insn	2, 0x0104
 c12:	0459                	.insn	2, 0x0459
 c14:	04c8                	.insn	2, 0x04c8
 c16:	04d0                	.insn	2, 0x04d0
 c18:	5a01                	.insn	2, 0x5a01
 c1a:	d004                	.insn	2, 0xd004
 c1c:	8004                	.insn	2, 0x8004
 c1e:	0105                	.insn	2, 0x0105
 c20:	0065                	.insn	2, 0x0065
 c22:	9804                	.insn	2, 0x9804
 c24:	e005                	.insn	2, 0xe005
 c26:	0105                	.insn	2, 0x0105
 c28:	045d                	.insn	2, 0x045d
 c2a:	05f8                	.insn	2, 0x05f8
 c2c:	0690                	.insn	2, 0x0690
 c2e:	5d01                	.insn	2, 0x5d01
 c30:	0400                	.insn	2, 0x0400
 c32:	05ac                	.insn	2, 0x05ac
 c34:	05c8                	.insn	2, 0x05c8
 c36:	5f01                	.insn	2, 0x5f01
 c38:	0400                	.insn	2, 0x0400
 c3a:	05e8                	.insn	2, 0x05e8
 c3c:	05ec                	.insn	2, 0x05ec
 c3e:	5801                	.insn	2, 0x5801
 c40:	0400                	.insn	2, 0x0400
 c42:	098c                	.insn	2, 0x098c
 c44:	09a8                	.insn	2, 0x09a8
 c46:	5f01                	.insn	2, 0x5f01
 c48:	ac04                	.insn	2, 0xac04
 c4a:	b009                	.insn	2, 0xb009
 c4c:	0109                	.insn	2, 0x0109
 c4e:	005f c004 9006      	.insn	6, 0x9006c004005f
 c54:	0108                	.insn	2, 0x0108
 c56:	0459                	.insn	2, 0x0459
 c58:	0890                	.insn	2, 0x0890
 c5a:	09d0                	.insn	2, 0x09d0
 c5c:	8705                	.insn	2, 0x8705
 c5e:	4000                	.insn	2, 0x4000
 c60:	9f25                	.insn	2, 0x9f25
 c62:	0400                	.insn	2, 0x0400
 c64:	06c4                	.insn	2, 0x06c4
 c66:	07bc                	.insn	2, 0x07bc
 c68:	6801                	.insn	2, 0x6801
 c6a:	bc04                	.insn	2, 0xbc04
 c6c:	0709d007          	.insn	4, 0x0709d007
 c70:	24400087          	.insn	4, 0x24400087
 c74:	2540                	.insn	2, 0x2540
 c76:	009f d004 d406      	.insn	6, 0xd406d004009f
 c7c:	0106                	.insn	2, 0x0106
 c7e:	045a                	.insn	2, 0x045a
 c80:	06d4                	.insn	2, 0x06d4
 c82:	5b0106d7          	.insn	4, 0x5b0106d7
 c86:	d704                	.insn	2, 0xd704
 c88:	8406                	.insn	2, 0x8406
 c8a:	046a0107          	.insn	4, 0x046a0107
 c8e:	0784                	.insn	2, 0x0784
 c90:	07fc                	.insn	2, 0x07fc
 c92:	6301                	.insn	2, 0x6301
 c94:	0400                	.insn	2, 0x0400
 c96:	07ac                	.insn	2, 0x07ac
 c98:	07b0                	.insn	2, 0x07b0
 c9a:	5a01                	.insn	2, 0x5a01
 c9c:	b004                	.insn	2, 0xb004
 c9e:	0107b307          	.insn	4, 0x0107b307
 ca2:	07b3045b          	.insn	4, 0x07b3045b
 ca6:	07e4                	.insn	2, 0x07e4
 ca8:	6a01                	.insn	2, 0x6a01
 caa:	e404                	.insn	2, 0xe404
 cac:	01088407          	.insn	4, 0x01088407
 cb0:	005f c404 c706      	.insn	6, 0xc706c404005f
 cb6:	0606                	.insn	2, 0x0606
 cb8:	007a                	.insn	2, 0x007a
 cba:	0079                	.insn	2, 0x0079
 cbc:	9f1d                	.insn	2, 0x9f1d
 cbe:	c704                	.insn	2, 0xc704
 cc0:	f406                	.insn	2, 0xf406
 cc2:	0606                	.insn	2, 0x0606
 cc4:	00790083          	lb	x1,7(x18)
 cc8:	9f1d                	.insn	2, 0x9f1d
 cca:	f404                	.insn	2, 0xf404
 ccc:	8006                	.insn	2, 0x8006
 cce:	045f0107          	.insn	4, 0x045f0107
 cd2:	0780                	.insn	2, 0x0780
 cd4:	0784                	.insn	2, 0x0784
 cd6:	7808                	.insn	2, 0x7808
 cd8:	4000                	.insn	2, 0x4000
 cda:	7a25                	.insn	2, 0x7a25
 cdc:	2100                	.insn	2, 0x2100
 cde:	049f 0784 0798      	.insn	6, 0x07980784049f
 ce4:	5f01                	.insn	2, 0x5f01
 ce6:	9804                	.insn	2, 0x9804
 ce8:	0109d007          	.insn	4, 0x0109d007
 cec:	0069                	.insn	2, 0x0069
 cee:	9804                	.insn	2, 0x9804
 cf0:	0607d407          	.insn	4, 0x0607d407
 cf4:	0089                	.insn	2, 0x0089
 cf6:	0079                	.insn	2, 0x0079
 cf8:	9f1d                	.insn	2, 0x9f1d
 cfa:	d404                	.insn	2, 0xd404
 cfc:	0107e007          	.insn	4, 0x0107e007
 d00:	07e0045b          	.insn	4, 0x07e0045b
 d04:	07e4                	.insn	2, 0x07e4
 d06:	780a                	.insn	2, 0x780a
 d08:	4000                	.insn	2, 0x4000
 d0a:	4024                	.insn	2, 0x4024
 d0c:	7a25                	.insn	2, 0x7a25
 d0e:	2100                	.insn	2, 0x2100
 d10:	049f 07e4 0890      	.insn	6, 0x089007e4049f
 d16:	5b01                	.insn	2, 0x5b01
 d18:	9004                	.insn	2, 0x9004
 d1a:	d008                	.insn	2, 0xd008
 d1c:	0109                	.insn	2, 0x0109
 d1e:	0059                	.insn	2, 0x0059
 d20:	dc04                	.insn	2, 0xdc04
 d22:	e406                	.insn	2, 0xe406
 d24:	0106                	.insn	2, 0x0106
 d26:	045a                	.insn	2, 0x045a
 d28:	06e4                	.insn	2, 0x06e4
 d2a:	0798                	.insn	2, 0x0798
 d2c:	6901                	.insn	2, 0x6901
 d2e:	bc04                	.insn	2, 0xbc04
 d30:	0107c007          	.insn	4, 0x0107c007
 d34:	045a                	.insn	2, 0x045a
 d36:	07c0                	.insn	2, 0x07c0
 d38:	09d0                	.insn	2, 0x09d0
 d3a:	6801                	.insn	2, 0x6801
 d3c:	0400                	.insn	2, 0x0400
 d3e:	08a8                	.insn	2, 0x08a8
 d40:	08b0                	.insn	2, 0x08b0
 d42:	5a01                	.insn	2, 0x5a01
 d44:	b004                	.insn	2, 0xb004
 d46:	8808                	.insn	2, 0x8808
 d48:	0109                	.insn	2, 0x0109
 d4a:	0060                	.insn	2, 0x0060
 d4c:	b804                	.insn	2, 0xb804
 d4e:	c008                	.insn	2, 0xc008
 d50:	0108                	.insn	2, 0x0108
 d52:	045a                	.insn	2, 0x045a
 d54:	08c0                	.insn	2, 0x08c0
 d56:	08dc                	.insn	2, 0x08dc
 d58:	5e01                	.insn	2, 0x5e01
 d5a:	e404                	.insn	2, 0xe404
 d5c:	8008                	.insn	2, 0x8008
 d5e:	0109                	.insn	2, 0x0109
 d60:	005f c804 d008      	.insn	6, 0xd008c804005f
 d66:	0108                	.insn	2, 0x0108
 d68:	045a                	.insn	2, 0x045a
 d6a:	08d0                	.insn	2, 0x08d0
 d6c:	09d0                	.insn	2, 0x09d0
 d6e:	6101                	.insn	2, 0x6101
 d70:	0400                	.insn	2, 0x0400
 d72:	08e4                	.insn	2, 0x08e4
 d74:	08ec                	.insn	2, 0x08ec
 d76:	5a01                	.insn	2, 0x5a01
 d78:	ec04                	.insn	2, 0xec04
 d7a:	f808                	.insn	2, 0xf808
 d7c:	0108                	.insn	2, 0x0108
 d7e:	005d                	.insn	2, 0x005d
 d80:	9004                	.insn	2, 0x9004
 d82:	b808                	.insn	2, 0xb808
 d84:	0108                	.insn	2, 0x0108
 d86:	005e                	.insn	2, 0x005e
 d88:	9404                	.insn	2, 0x9404
 d8a:	d808                	.insn	2, 0xd808
 d8c:	0108                	.insn	2, 0x0108
 d8e:	045f 08d8 08fc      	.insn	6, 0x08fc08d8045f
 d94:	8c06                	.insn	2, 0x8c06
 d96:	827f 1a00 049f 08fc 	.insn	10, 0x099c08fc049f1a00827f
 d9e:	099c 
 da0:	8206                	.insn	2, 0x8206
 da2:	7d00                	.insn	2, 0x7d00
 da4:	1a00                	.insn	2, 0x1a00
 da6:	009f a804 ac09      	.insn	6, 0xac09a804009f
 dac:	0109                	.insn	2, 0x0109
 dae:	005f b004 c409      	.insn	6, 0xc409b004005f
 db4:	0109                	.insn	2, 0x0109
 db6:	Address 0xdb6 is out of bounds.


Disassembly of section .debug_rnglists:

00000000 <.debug_rnglists>:
   0:	000000a3          	sb	x0,1(x0) # 1 <_heap_size+0x1>
   4:	0005                	.insn	2, 0x0005
   6:	0004                	.insn	2, 0x0004
   8:	0000                	.insn	2, 0x
   a:	0000                	.insn	2, 0x
   c:	0004                	.insn	2, 0x0004
   e:	0400                	.insn	2, 0x0400
  10:	8034                	.insn	2, 0x8034
  12:	0405                	.insn	2, 0x0405
  14:	05bc                	.insn	2, 0x05bc
  16:	0bc4                	.insn	2, 0x0bc4
  18:	0400                	.insn	2, 0x0400
  1a:	0000                	.insn	2, 0x
  1c:	3404                	.insn	2, 0x3404
  1e:	0580                	.insn	2, 0x0580
  20:	bc04                	.insn	2, 0xbc04
  22:	b405                	.insn	2, 0xb405
  24:	0bb8040b          	.insn	4, 0x0bb8040b
  28:	0bc4                	.insn	2, 0x0bc4
  2a:	0400                	.insn	2, 0x0400
  2c:	544c                	.insn	2, 0x544c
  2e:	5404                	.insn	2, 0x5404
  30:	047c                	.insn	2, 0x047c
  32:	02e4                	.insn	2, 0x02e4
  34:	02f8                	.insn	2, 0x02f8
  36:	0400                	.insn	2, 0x0400
  38:	02dc                	.insn	2, 0x02dc
  3a:	02e4                	.insn	2, 0x02e4
  3c:	a004                	.insn	2, 0xa004
  3e:	b408                	.insn	2, 0xb408
  40:	b004000b          	.insn	4, 0xb004000b
  44:	b408                	.insn	2, 0xb408
  46:	0408                	.insn	2, 0x0408
  48:	08c0                	.insn	2, 0x08c0
  4a:	08cc                	.insn	2, 0x08cc
  4c:	d004                	.insn	2, 0xd004
  4e:	8808                	.insn	2, 0x8808
  50:	040a                	.insn	2, 0x040a
  52:	0a8c                	.insn	2, 0x0a8c
  54:	0a90                	.insn	2, 0x0a90
  56:	9c04                	.insn	2, 0x9c04
  58:	a00a                	.insn	2, 0xa00a
  5a:	000a                	.insn	2, 0x000a
  5c:	8804                	.insn	2, 0x8804
  5e:	8c0a                	.insn	2, 0x8c0a
  60:	040a                	.insn	2, 0x040a
  62:	0a90                	.insn	2, 0x0a90
  64:	0a9c                	.insn	2, 0x0a9c
  66:	a004                	.insn	2, 0xa004
  68:	840a                	.insn	2, 0x840a
  6a:	0b8c040b          	.insn	4, 0x0b8c040b
  6e:	0ba0                	.insn	2, 0x0ba0
  70:	a404                	.insn	2, 0xa404
  72:	000ba80b          	.insn	4, 0x000ba80b
  76:	d804                	.insn	2, 0xd804
  78:	e40a                	.insn	2, 0xe40a
  7a:	040a                	.insn	2, 0x040a
  7c:	0af0                	.insn	2, 0x0af0
  7e:	0af4                	.insn	2, 0x0af4
  80:	0400                	.insn	2, 0x0400
  82:	02f8                	.insn	2, 0x02f8
  84:	02fc                	.insn	2, 0x02fc
  86:	8004                	.insn	2, 0x8004
  88:	0403ac03          	lw	x24,64(x7)
  8c:	05bc                	.insn	2, 0x05bc
  8e:	05d0                	.insn	2, 0x05d0
  90:	0400                	.insn	2, 0x0400
  92:	05d8                	.insn	2, 0x05d8
  94:	05dc                	.insn	2, 0x05dc
  96:	ec04                	.insn	2, 0xec04
  98:	bc05                	.insn	2, 0xbc05
  9a:	c0040007          	.insn	4, 0xc0040007
  9e:	0407f407          	.insn	4, 0x0407f407
  a2:	088c                	.insn	2, 0x088c
  a4:	08a0                	.insn	2, 0x08a0
  a6:	7e00                	.insn	2, 0x7e00
  a8:	0000                	.insn	2, 0x
  aa:	0500                	.insn	2, 0x0500
  ac:	0400                	.insn	2, 0x0400
  ae:	0000                	.insn	2, 0x
  b0:	0000                	.insn	2, 0x
  b2:	0400                	.insn	2, 0x0400
  b4:	0000                	.insn	2, 0x
  b6:	3404                	.insn	2, 0x3404
  b8:	02bc                	.insn	2, 0x02bc
  ba:	f404                	.insn	2, 0xf404
  bc:	d002                	.insn	2, 0xd002
  be:	0009                	.insn	2, 0x0009
  c0:	5004                	.insn	2, 0x5004
  c2:	047c                	.insn	2, 0x047c
  c4:	02f4                	.insn	2, 0x02f4
  c6:	0388                	.insn	2, 0x0388
  c8:	0400                	.insn	2, 0x0400
  ca:	0388                	.insn	2, 0x0388
  cc:	038c                	.insn	2, 0x038c
  ce:	9004                	.insn	2, 0x9004
  d0:	0403b003          	.insn	4, 0x0403b003
  d4:	03b4                	.insn	2, 0x03b4
  d6:	03c0                	.insn	2, 0x03c0
  d8:	8004                	.insn	2, 0x8004
  da:	9405                	.insn	2, 0x9405
  dc:	0005                	.insn	2, 0x0005
  de:	cc04                	.insn	2, 0xcc04
  e0:	0403d003          	lhu	x0,64(x7)
  e4:	03e0                	.insn	2, 0x03e0
  e6:	0580                	.insn	2, 0x0580
  e8:	0400                	.insn	2, 0x0400
  ea:	0598                	.insn	2, 0x0598
  ec:	05cc                	.insn	2, 0x05cc
  ee:	f804                	.insn	2, 0xf804
  f0:	8c05                	.insn	2, 0x8c05
  f2:	0006                	.insn	2, 0x0006
  f4:	a404                	.insn	2, 0xa404
  f6:	a806                	.insn	2, 0xa806
  f8:	0406                	.insn	2, 0x0406
  fa:	06b0                	.insn	2, 0x06b0
  fc:	06bc                	.insn	2, 0x06bc
  fe:	c004                	.insn	2, 0xc004
 100:	f406                	.insn	2, 0xf406
 102:	07f80407          	.insn	4, 0x07f80407
 106:	0880                	.insn	2, 0x0880
 108:	8c04                	.insn	2, 0x8c04
 10a:	9008                	.insn	2, 0x9008
 10c:	0008                	.insn	2, 0x0008
 10e:	f404                	.insn	2, 0xf404
 110:	0407f807          	.insn	4, 0x0407f807
 114:	0880                	.insn	2, 0x0880
 116:	088c                	.insn	2, 0x088c
 118:	9004                	.insn	2, 0x9004
 11a:	8c08                	.insn	2, 0x8c08
 11c:	0009                	.insn	2, 0x0009
 11e:	c804                	.insn	2, 0xc804
 120:	d408                	.insn	2, 0xd408
 122:	0408                	.insn	2, 0x0408
 124:	08e0                	.insn	2, 0x08e0
 126:	08e4                	.insn	2, 0x08e4
	...
