
bd/src/edn/edn:     Dateiformat elf32-littleriscv


Disassembly of section .text:

80000000 <initSection>:
80000000:	000070b3          	and	x1,x0,x0
80000004:	00007133          	and	x2,x0,x0
80000008:	000071b3          	and	x3,x0,x0
8000000c:	00007233          	and	x4,x0,x0
80000010:	000072b3          	and	x5,x0,x0
80000014:	00007333          	and	x6,x0,x0
80000018:	000073b3          	and	x7,x0,x0
8000001c:	00007433          	and	x8,x0,x0
80000020:	000074b3          	and	x9,x0,x0
80000024:	00007533          	and	x10,x0,x0
80000028:	000075b3          	and	x11,x0,x0
8000002c:	00007633          	and	x12,x0,x0
80000030:	000076b3          	and	x13,x0,x0
80000034:	00007733          	and	x14,x0,x0
80000038:	000077b3          	and	x15,x0,x0
8000003c:	00007833          	and	x16,x0,x0
80000040:	000078b3          	and	x17,x0,x0
80000044:	00007933          	and	x18,x0,x0
80000048:	000079b3          	and	x19,x0,x0
8000004c:	00007a33          	and	x20,x0,x0
80000050:	00007ab3          	and	x21,x0,x0
80000054:	00007b33          	and	x22,x0,x0
80000058:	00007bb3          	and	x23,x0,x0
8000005c:	00007c33          	and	x24,x0,x0
80000060:	00007cb3          	and	x25,x0,x0
80000064:	00007d33          	and	x26,x0,x0
80000068:	00007db3          	and	x27,x0,x0
8000006c:	00007e33          	and	x28,x0,x0
80000070:	00007eb3          	and	x29,x0,x0
80000074:	00007f33          	and	x30,x0,x0
80000078:	00007fb3          	and	x31,x0,x0
8000007c:	00101117          	auipc	x2,0x101
80000080:	f8410113          	addi	x2,x2,-124 # 80101000 <stack_end>
80000084:	020000ef          	jal	x1,800000a4 <main>

80000088 <sys_end>:
80000088:	05d00893          	addi	x17,x0,93
8000008c:	00000513          	addi	x10,x0,0
80000090:	020102b7          	lui	x5,0x2010
80000094:	f1402873          	csrrs	x16,mhartid,x0
80000098:	0102a023          	sw	x16,0(x5) # 2010000 <SYSCALL_ADDR>
8000009c:	0112a023          	sw	x17,0(x5)
800000a0:	fe9ff06f          	jal	x0,80000088 <sys_end>

800000a4 <main>:
800000a4:	fe010113          	addi	x2,x2,-32
800000a8:	00112e23          	sw	x1,28(x2)
800000ac:	2f1000ef          	jal	x1,80000b9c <initialise_board>
800000b0:	255000ef          	jal	x1,80000b04 <initialise_benchmark>
800000b4:	00100513          	addi	x10,x0,1
800000b8:	251000ef          	jal	x1,80000b08 <warm_caches>
800000bc:	2e9000ef          	jal	x1,80000ba4 <start_trigger>
800000c0:	24d000ef          	jal	x1,80000b0c <benchmark>
800000c4:	00a12623          	sw	x10,12(x2)
800000c8:	2ed000ef          	jal	x1,80000bb4 <stop_trigger>
800000cc:	00c12503          	lw	x10,12(x2)
800000d0:	245000ef          	jal	x1,80000b14 <verify_benchmark>
800000d4:	01c12083          	lw	x1,28(x2)
800000d8:	00153513          	sltiu	x10,x10,1
800000dc:	02010113          	addi	x2,x2,32
800000e0:	00008067          	jalr	x0,0(x1)

800000e4 <vec_mpy1>:
800000e4:	fe010113          	addi	x2,x2,-32
800000e8:	00812c23          	sw	x8,24(x2)
800000ec:	00912a23          	sw	x9,20(x2)
800000f0:	01212823          	sw	x18,16(x2)
800000f4:	01312623          	sw	x19,12(x2)
800000f8:	01512223          	sw	x21,4(x2)
800000fc:	00112e23          	sw	x1,28(x2)
80000100:	01412423          	sw	x20,8(x2)
80000104:	00050993          	addi	x19,x10,0
80000108:	00058913          	addi	x18,x11,0
8000010c:	00060493          	addi	x9,x12,0
80000110:	00000413          	addi	x8,x0,0
80000114:	12c00a93          	addi	x21,x0,300
80000118:	008907b3          	add	x15,x18,x8
8000011c:	00079503          	lh	x10,0(x15)
80000120:	00048593          	addi	x11,x9,0
80000124:	00898a33          	add	x20,x19,x8
80000128:	299000ef          	jal	x1,80000bc0 <__mulsi3>
8000012c:	000a5703          	lhu	x14,0(x20)
80000130:	40f55793          	srai	x15,x10,0xf
80000134:	00240413          	addi	x8,x8,2
80000138:	00e787b3          	add	x15,x15,x14
8000013c:	00fa1023          	sh	x15,0(x20)
80000140:	fd541ce3          	bne	x8,x21,80000118 <vec_mpy1+0x34>
80000144:	01c12083          	lw	x1,28(x2)
80000148:	01812403          	lw	x8,24(x2)
8000014c:	01412483          	lw	x9,20(x2)
80000150:	01012903          	lw	x18,16(x2)
80000154:	00c12983          	lw	x19,12(x2)
80000158:	00812a03          	lw	x20,8(x2)
8000015c:	00412a83          	lw	x21,4(x2)
80000160:	02010113          	addi	x2,x2,32
80000164:	00008067          	jalr	x0,0(x1)

80000168 <mac>:
80000168:	fd010113          	addi	x2,x2,-48
8000016c:	01312e23          	sw	x19,28(x2)
80000170:	0006a983          	lw	x19,0(x13)
80000174:	02812423          	sw	x8,40(x2)
80000178:	02912223          	sw	x9,36(x2)
8000017c:	03212023          	sw	x18,32(x2)
80000180:	01412c23          	sw	x20,24(x2)
80000184:	01512a23          	sw	x21,20(x2)
80000188:	01612823          	sw	x22,16(x2)
8000018c:	02112623          	sw	x1,44(x2)
80000190:	00050a13          	addi	x20,x10,0
80000194:	00058a93          	addi	x21,x11,0
80000198:	00068913          	addi	x18,x13,0
8000019c:	00060413          	addi	x8,x12,0
800001a0:	00000493          	addi	x9,x0,0
800001a4:	12c00b13          	addi	x22,x0,300
800001a8:	009a87b3          	add	x15,x21,x9
800001ac:	00079583          	lh	x11,0(x15)
800001b0:	009a07b3          	add	x15,x20,x9
800001b4:	00079503          	lh	x10,0(x15)
800001b8:	00b12623          	sw	x11,12(x2)
800001bc:	00248493          	addi	x9,x9,2
800001c0:	201000ef          	jal	x1,80000bc0 <__mulsi3>
800001c4:	00c12583          	lw	x11,12(x2)
800001c8:	00a989b3          	add	x19,x19,x10
800001cc:	00058513          	addi	x10,x11,0
800001d0:	1f1000ef          	jal	x1,80000bc0 <__mulsi3>
800001d4:	00a40433          	add	x8,x8,x10
800001d8:	fd6498e3          	bne	x9,x22,800001a8 <mac+0x40>
800001dc:	02c12083          	lw	x1,44(x2)
800001e0:	00040513          	addi	x10,x8,0
800001e4:	02812403          	lw	x8,40(x2)
800001e8:	01392023          	sw	x19,0(x18)
800001ec:	02412483          	lw	x9,36(x2)
800001f0:	02012903          	lw	x18,32(x2)
800001f4:	01c12983          	lw	x19,28(x2)
800001f8:	01812a03          	lw	x20,24(x2)
800001fc:	01412a83          	lw	x21,20(x2)
80000200:	01012b03          	lw	x22,16(x2)
80000204:	03010113          	addi	x2,x2,48
80000208:	00008067          	jalr	x0,0(x1)

8000020c <fir>:
8000020c:	fd010113          	addi	x2,x2,-48
80000210:	03212023          	sw	x18,32(x2)
80000214:	01412c23          	sw	x20,24(x2)
80000218:	01512a23          	sw	x21,20(x2)
8000021c:	01612823          	sw	x22,16(x2)
80000220:	01712623          	sw	x23,12(x2)
80000224:	01812423          	sw	x24,8(x2)
80000228:	02112623          	sw	x1,44(x2)
8000022c:	02812423          	sw	x8,40(x2)
80000230:	02912223          	sw	x9,36(x2)
80000234:	01312e23          	sw	x19,28(x2)
80000238:	00050a13          	addi	x20,x10,0
8000023c:	00058a93          	addi	x21,x11,0
80000240:	00060b13          	addi	x22,x12,0
80000244:	00000913          	addi	x18,x0,0
80000248:	06400b93          	addi	x23,x0,100
8000024c:	03200c13          	addi	x24,x0,50
80000250:	00191993          	slli	x19,x18,0x1
80000254:	013a09b3          	add	x19,x20,x19
80000258:	00000493          	addi	x9,x0,0
8000025c:	00000413          	addi	x8,x0,0
80000260:	009987b3          	add	x15,x19,x9
80000264:	009a8733          	add	x14,x21,x9
80000268:	00071583          	lh	x11,0(x14)
8000026c:	00079503          	lh	x10,0(x15)
80000270:	00248493          	addi	x9,x9,2
80000274:	14d000ef          	jal	x1,80000bc0 <__mulsi3>
80000278:	00a40433          	add	x8,x8,x10
8000027c:	ff7492e3          	bne	x9,x23,80000260 <fir+0x54>
80000280:	00291793          	slli	x15,x18,0x2
80000284:	00fb07b3          	add	x15,x22,x15
80000288:	40f45413          	srai	x8,x8,0xf
8000028c:	0087a023          	sw	x8,0(x15)
80000290:	00190913          	addi	x18,x18,1
80000294:	fb891ee3          	bne	x18,x24,80000250 <fir+0x44>
80000298:	02c12083          	lw	x1,44(x2)
8000029c:	02812403          	lw	x8,40(x2)
800002a0:	02412483          	lw	x9,36(x2)
800002a4:	02012903          	lw	x18,32(x2)
800002a8:	01c12983          	lw	x19,28(x2)
800002ac:	01812a03          	lw	x20,24(x2)
800002b0:	01412a83          	lw	x21,20(x2)
800002b4:	01012b03          	lw	x22,16(x2)
800002b8:	00c12b83          	lw	x23,12(x2)
800002bc:	00812c03          	lw	x24,8(x2)
800002c0:	03010113          	addi	x2,x2,48
800002c4:	00008067          	jalr	x0,0(x1)

800002c8 <fir_no_red_ld>:
800002c8:	fb010113          	addi	x2,x2,-80
800002cc:	05212023          	sw	x18,64(x2)
800002d0:	03312e23          	sw	x19,60(x2)
800002d4:	03512a23          	sw	x21,52(x2)
800002d8:	03712623          	sw	x23,44(x2)
800002dc:	03912223          	sw	x25,36(x2)
800002e0:	01b12e23          	sw	x27,28(x2)
800002e4:	04112623          	sw	x1,76(x2)
800002e8:	04812423          	sw	x8,72(x2)
800002ec:	04912223          	sw	x9,68(x2)
800002f0:	03412c23          	sw	x20,56(x2)
800002f4:	03612823          	sw	x22,48(x2)
800002f8:	03812423          	sw	x24,40(x2)
800002fc:	03a12023          	sw	x26,32(x2)
80000300:	00058a93          	addi	x21,x11,0
80000304:	00050993          	addi	x19,x10,0
80000308:	00060913          	addi	x18,x12,0
8000030c:	00000b93          	addi	x23,x0,0
80000310:	04058c93          	addi	x25,x11,64
80000314:	06400d93          	addi	x27,x0,100
80000318:	00099c03          	lh	x24,0(x19)
8000031c:	000a8a13          	addi	x20,x21,0
80000320:	00098b13          	addi	x22,x19,0
80000324:	00000413          	addi	x8,x0,0
80000328:	00000493          	addi	x9,x0,0
8000032c:	000a1d03          	lh	x26,0(x20)
80000330:	000c0513          	addi	x10,x24,0
80000334:	004a0a13          	addi	x20,x20,4
80000338:	000d0593          	addi	x11,x26,0
8000033c:	085000ef          	jal	x1,80000bc0 <__mulsi3>
80000340:	002b1783          	lh	x15,2(x22)
80000344:	009504b3          	add	x9,x10,x9
80000348:	000d0513          	addi	x10,x26,0
8000034c:	00078593          	addi	x11,x15,0
80000350:	00f12423          	sw	x15,8(x2)
80000354:	06d000ef          	jal	x1,80000bc0 <__mulsi3>
80000358:	ffea1583          	lh	x11,-2(x20)
8000035c:	00850433          	add	x8,x10,x8
80000360:	00812503          	lw	x10,8(x2)
80000364:	004b1c03          	lh	x24,4(x22)
80000368:	00b12623          	sw	x11,12(x2)
8000036c:	055000ef          	jal	x1,80000bc0 <__mulsi3>
80000370:	00c12583          	lw	x11,12(x2)
80000374:	009504b3          	add	x9,x10,x9
80000378:	000c0513          	addi	x10,x24,0
8000037c:	045000ef          	jal	x1,80000bc0 <__mulsi3>
80000380:	00850433          	add	x8,x10,x8
80000384:	004b0b13          	addi	x22,x22,4
80000388:	fb4c92e3          	bne	x25,x20,8000032c <fir_no_red_ld+0x64>
8000038c:	40f4d493          	srai	x9,x9,0xf
80000390:	40f45413          	srai	x8,x8,0xf
80000394:	00992023          	sw	x9,0(x18)
80000398:	00892223          	sw	x8,4(x18)
8000039c:	002b8b93          	addi	x23,x23,2
800003a0:	00498993          	addi	x19,x19,4
800003a4:	00890913          	addi	x18,x18,8
800003a8:	f7bb98e3          	bne	x23,x27,80000318 <fir_no_red_ld+0x50>
800003ac:	04c12083          	lw	x1,76(x2)
800003b0:	04812403          	lw	x8,72(x2)
800003b4:	04412483          	lw	x9,68(x2)
800003b8:	04012903          	lw	x18,64(x2)
800003bc:	03c12983          	lw	x19,60(x2)
800003c0:	03812a03          	lw	x20,56(x2)
800003c4:	03412a83          	lw	x21,52(x2)
800003c8:	03012b03          	lw	x22,48(x2)
800003cc:	02c12b83          	lw	x23,44(x2)
800003d0:	02812c03          	lw	x24,40(x2)
800003d4:	02412c83          	lw	x25,36(x2)
800003d8:	02012d03          	lw	x26,32(x2)
800003dc:	01c12d83          	lw	x27,28(x2)
800003e0:	05010113          	addi	x2,x2,80
800003e4:	00008067          	jalr	x0,0(x1)

800003e8 <latsynth>:
800003e8:	fd010113          	addi	x2,x2,-48
800003ec:	02812423          	sw	x8,40(x2)
800003f0:	00161413          	slli	x8,x12,0x1
800003f4:	ffe40413          	addi	x8,x8,-2
800003f8:	008507b3          	add	x15,x10,x8
800003fc:	00858733          	add	x14,x11,x8
80000400:	01312e23          	sw	x19,28(x2)
80000404:	01412c23          	sw	x20,24(x2)
80000408:	00050993          	addi	x19,x10,0
8000040c:	00058a13          	addi	x20,x11,0
80000410:	00079503          	lh	x10,0(x15)
80000414:	00071583          	lh	x11,0(x14)
80000418:	02912223          	sw	x9,36(x2)
8000041c:	03212023          	sw	x18,32(x2)
80000420:	00068493          	addi	x9,x13,0
80000424:	00060913          	addi	x18,x12,0
80000428:	02112623          	sw	x1,44(x2)
8000042c:	01512a23          	sw	x21,20(x2)
80000430:	00240413          	addi	x8,x8,2
80000434:	78c000ef          	jal	x1,80000bc0 <__mulsi3>
80000438:	40a484b3          	sub	x9,x9,x10
8000043c:	ffe90913          	addi	x18,x18,-2
80000440:	00898433          	add	x8,x19,x8
80000444:	ffe40413          	addi	x8,x8,-2
80000448:	02095a63          	bge	x18,x0,8000047c <latsynth+0x94>
8000044c:	02c12083          	lw	x1,44(x2)
80000450:	02812403          	lw	x8,40(x2)
80000454:	4104d793          	srai	x15,x9,0x10
80000458:	00f99023          	sh	x15,0(x19)
8000045c:	02012903          	lw	x18,32(x2)
80000460:	01c12983          	lw	x19,28(x2)
80000464:	01812a03          	lw	x20,24(x2)
80000468:	01412a83          	lw	x21,20(x2)
8000046c:	00048513          	addi	x10,x9,0
80000470:	02412483          	lw	x9,36(x2)
80000474:	03010113          	addi	x2,x2,48
80000478:	00008067          	jalr	x0,0(x1)
8000047c:	00191793          	slli	x15,x18,0x1
80000480:	00fa07b3          	add	x15,x20,x15
80000484:	ffe41a83          	lh	x21,-2(x8)
80000488:	00079583          	lh	x11,0(x15)
8000048c:	fff90913          	addi	x18,x18,-1
80000490:	000a8513          	addi	x10,x21,0
80000494:	00b12623          	sw	x11,12(x2)
80000498:	728000ef          	jal	x1,80000bc0 <__mulsi3>
8000049c:	00c12583          	lw	x11,12(x2)
800004a0:	40a484b3          	sub	x9,x9,x10
800004a4:	4104d513          	srai	x10,x9,0x10
800004a8:	718000ef          	jal	x1,80000bc0 <__mulsi3>
800004ac:	41055513          	srai	x10,x10,0x10
800004b0:	01550533          	add	x10,x10,x21
800004b4:	00a41023          	sh	x10,0(x8)
800004b8:	f8dff06f          	jal	x0,80000444 <latsynth+0x5c>

800004bc <iir1>:
800004bc:	fd010113          	addi	x2,x2,-48
800004c0:	02812423          	sw	x8,40(x2)
800004c4:	00059403          	lh	x8,0(x11)
800004c8:	02912223          	sw	x9,36(x2)
800004cc:	01412c23          	sw	x20,24(x2)
800004d0:	01612823          	sw	x22,16(x2)
800004d4:	01712623          	sw	x23,12(x2)
800004d8:	02112623          	sw	x1,44(x2)
800004dc:	03212023          	sw	x18,32(x2)
800004e0:	01312e23          	sw	x19,28(x2)
800004e4:	01512a23          	sw	x21,20(x2)
800004e8:	00050493          	addi	x9,x10,0
800004ec:	00060b13          	addi	x22,x12,0
800004f0:	00068a13          	addi	x20,x13,0
800004f4:	19050b93          	addi	x23,x10,400
800004f8:	000a2983          	lw	x19,0(x20)
800004fc:	00449503          	lh	x10,4(x9)
80000500:	004a2a83          	lw	x21,4(x20)
80000504:	00098593          	addi	x11,x19,0
80000508:	6b8000ef          	jal	x1,80000bc0 <__mulsi3>
8000050c:	00050913          	addi	x18,x10,0
80000510:	00649503          	lh	x10,6(x9)
80000514:	000a8593          	addi	x11,x21,0
80000518:	00848493          	addi	x9,x9,8
8000051c:	6a4000ef          	jal	x1,80000bc0 <__mulsi3>
80000520:	00a90933          	add	x18,x18,x10
80000524:	ff849503          	lh	x10,-8(x9)
80000528:	00098593          	addi	x11,x19,0
8000052c:	40f95913          	srai	x18,x18,0xf
80000530:	690000ef          	jal	x1,80000bc0 <__mulsi3>
80000534:	00890933          	add	x18,x18,x8
80000538:	00050413          	addi	x8,x10,0
8000053c:	ffa49503          	lh	x10,-6(x9)
80000540:	000a8593          	addi	x11,x21,0
80000544:	008a0a13          	addi	x20,x20,8
80000548:	678000ef          	jal	x1,80000bc0 <__mulsi3>
8000054c:	00a40433          	add	x8,x8,x10
80000550:	40f45413          	srai	x8,x8,0xf
80000554:	ff3a2e23          	sw	x19,-4(x20)
80000558:	ff2a2c23          	sw	x18,-8(x20)
8000055c:	01240433          	add	x8,x8,x18
80000560:	f9749ce3          	bne	x9,x23,800004f8 <iir1+0x3c>
80000564:	008b2023          	sw	x8,0(x22)
80000568:	02c12083          	lw	x1,44(x2)
8000056c:	02812403          	lw	x8,40(x2)
80000570:	02412483          	lw	x9,36(x2)
80000574:	02012903          	lw	x18,32(x2)
80000578:	01c12983          	lw	x19,28(x2)
8000057c:	01812a03          	lw	x20,24(x2)
80000580:	01412a83          	lw	x21,20(x2)
80000584:	01012b03          	lw	x22,16(x2)
80000588:	00c12b83          	lw	x23,12(x2)
8000058c:	03010113          	addi	x2,x2,48
80000590:	00008067          	jalr	x0,0(x1)

80000594 <codebook>:
80000594:	00070513          	addi	x10,x14,0
80000598:	00008067          	jalr	x0,0(x1)

8000059c <jpegdct>:
8000059c:	f6010113          	addi	x2,x2,-160
800005a0:	00400793          	addi	x15,x0,4
800005a4:	08812c23          	sw	x8,152(x2)
800005a8:	09512223          	sw	x21,132(x2)
800005ac:	07912a23          	sw	x25,116(x2)
800005b0:	07a12823          	sw	x26,112(x2)
800005b4:	08112e23          	sw	x1,156(x2)
800005b8:	08912a23          	sw	x9,148(x2)
800005bc:	09212823          	sw	x18,144(x2)
800005c0:	09312623          	sw	x19,140(x2)
800005c4:	09412423          	sw	x20,136(x2)
800005c8:	09612023          	sw	x22,128(x2)
800005cc:	07712e23          	sw	x23,124(x2)
800005d0:	07812c23          	sw	x24,120(x2)
800005d4:	07b12623          	sw	x27,108(x2)
800005d8:	00050a93          	addi	x21,x10,0
800005dc:	00058413          	addi	x8,x11,0
800005e0:	01000713          	addi	x14,x0,16
800005e4:	ffe00613          	addi	x12,x0,-2
800005e8:	00200d13          	addi	x26,x0,2
800005ec:	00f12023          	sw	x15,0(x2)
800005f0:	00000c93          	addi	x25,x0,0
800005f4:	08000313          	addi	x6,x0,128
800005f8:	00e00813          	addi	x16,x0,14
800005fc:	00800893          	addi	x17,x0,8
80000600:	011a8c33          	add	x24,x21,x17
80000604:	010a86b3          	add	x13,x21,x16
80000608:	000a8b93          	addi	x23,x21,0
8000060c:	00800d93          	addi	x27,x0,8
80000610:	00dc8b13          	addi	x22,x25,13
80000614:	2e00006f          	jal	x0,800008f4 <jpegdct+0x358>
80000618:	000f1e03          	lh	x28,0(x30)
8000061c:	000e9f83          	lh	x31,0(x29)
80000620:	ffc58593          	addi	x11,x11,-4
80000624:	02010793          	addi	x15,x2,32
80000628:	01fe02b3          	add	x5,x28,x31
8000062c:	00552023          	sw	x5,0(x10)
80000630:	41fe0e33          	sub	x28,x28,x31
80000634:	03c5a023          	sw	x28,32(x11)
80000638:	01af0f33          	add	x30,x30,x26
8000063c:	00ce8eb3          	add	x29,x29,x12
80000640:	00450513          	addi	x10,x10,4
80000644:	fcb79ae3          	bne	x15,x11,80000618 <jpegdct+0x7c>
80000648:	03c12583          	lw	x11,60(x2)
8000064c:	03012983          	lw	x19,48(x2)
80000650:	03412903          	lw	x18,52(x2)
80000654:	02e12623          	sw	x14,44(x2)
80000658:	00b98533          	add	x10,x19,x11
8000065c:	40b989b3          	sub	x19,x19,x11
80000660:	03812583          	lw	x11,56(x2)
80000664:	02612223          	sw	x6,36(x2)
80000668:	01112e23          	sw	x17,28(x2)
8000066c:	00b90e33          	add	x28,x18,x11
80000670:	40b90933          	sub	x18,x18,x11
80000674:	01c505b3          	add	x11,x10,x28
80000678:	4195d5b3          	sra	x11,x11,x25
8000067c:	41c50533          	sub	x10,x10,x28
80000680:	00bb9023          	sh	x11,0(x23)
80000684:	41955533          	sra	x10,x10,x25
80000688:	00ac1023          	sh	x10,0(x24)
8000068c:	01441583          	lh	x11,20(x8)
80000690:	01390533          	add	x10,x18,x19
80000694:	01051513          	slli	x10,x10,0x10
80000698:	41055513          	srai	x10,x10,0x10
8000069c:	01012c23          	sw	x16,24(x2)
800006a0:	02c12423          	sw	x12,40(x2)
800006a4:	02d12023          	sw	x13,32(x2)
800006a8:	518000ef          	jal	x1,80000bc0 <__mulsi3>
800006ac:	00012783          	lw	x15,0(x2)
800006b0:	01051493          	slli	x9,x10,0x10
800006b4:	01241503          	lh	x10,18(x8)
800006b8:	00098593          	addi	x11,x19,0
800006bc:	00fb8a33          	add	x20,x23,x15
800006c0:	500000ef          	jal	x1,80000bc0 <__mulsi3>
800006c4:	0104d493          	srli	x9,x9,0x10
800006c8:	41655533          	sra	x10,x10,x22
800006cc:	00a48533          	add	x10,x9,x10
800006d0:	00aa1023          	sh	x10,0(x20)
800006d4:	00012783          	lw	x15,0(x2)
800006d8:	01641503          	lh	x10,22(x8)
800006dc:	00090593          	addi	x11,x18,0
800006e0:	00fc09b3          	add	x19,x24,x15
800006e4:	4dc000ef          	jal	x1,80000bc0 <__mulsi3>
800006e8:	41655533          	sra	x10,x10,x22
800006ec:	00a484b3          	add	x9,x9,x10
800006f0:	04012283          	lw	x5,64(x2)
800006f4:	00999023          	sh	x9,0(x19)
800006f8:	04c12483          	lw	x9,76(x2)
800006fc:	01029f93          	slli	x31,x5,0x10
80000700:	010fdf93          	srli	x31,x31,0x10
80000704:	01049e13          	slli	x28,x9,0x10
80000708:	010e5e13          	srli	x28,x28,0x10
8000070c:	01cf8533          	add	x10,x31,x28
80000710:	00441583          	lh	x11,4(x8)
80000714:	01051513          	slli	x10,x10,0x10
80000718:	41055513          	srai	x10,x10,0x10
8000071c:	01c12a23          	sw	x28,20(x2)
80000720:	01f12623          	sw	x31,12(x2)
80000724:	49c000ef          	jal	x1,80000bc0 <__mulsi3>
80000728:	04812383          	lw	x7,72(x2)
8000072c:	04412903          	lw	x18,68(x2)
80000730:	00041583          	lh	x11,0(x8)
80000734:	01039e93          	slli	x29,x7,0x10
80000738:	01091f13          	slli	x30,x18,0x10
8000073c:	010ede93          	srli	x29,x29,0x10
80000740:	010f5f13          	srli	x30,x30,0x10
80000744:	00050993          	addi	x19,x10,0
80000748:	02a12823          	sw	x10,48(x2)
8000074c:	01df0533          	add	x10,x30,x29
80000750:	01051513          	slli	x10,x10,0x10
80000754:	41055513          	srai	x10,x10,0x10
80000758:	01d12823          	sw	x29,16(x2)
8000075c:	01e12423          	sw	x30,8(x2)
80000760:	460000ef          	jal	x1,80000bc0 <__mulsi3>
80000764:	04812383          	lw	x7,72(x2)
80000768:	04012283          	lw	x5,64(x2)
8000076c:	012484b3          	add	x9,x9,x18
80000770:	01041583          	lh	x11,16(x8)
80000774:	007282b3          	add	x5,x5,x7
80000778:	00050a13          	addi	x20,x10,0
8000077c:	02a12a23          	sw	x10,52(x2)
80000780:	00928533          	add	x10,x5,x9
80000784:	01051513          	slli	x10,x10,0x10
80000788:	41055513          	srai	x10,x10,0x10
8000078c:	00512223          	sw	x5,4(x2)
80000790:	430000ef          	jal	x1,80000bc0 <__mulsi3>
80000794:	00412283          	lw	x5,4(x2)
80000798:	00050913          	addi	x18,x10,0
8000079c:	00241503          	lh	x10,2(x8)
800007a0:	01029593          	slli	x11,x5,0x10
800007a4:	4105d593          	srai	x11,x11,0x10
800007a8:	418000ef          	jal	x1,80000bc0 <__mulsi3>
800007ac:	012502b3          	add	x5,x10,x18
800007b0:	00641503          	lh	x10,6(x8)
800007b4:	01049593          	slli	x11,x9,0x10
800007b8:	4105d593          	srai	x11,x11,0x10
800007bc:	02512c23          	sw	x5,56(x2)
800007c0:	00512223          	sw	x5,4(x2)
800007c4:	3fc000ef          	jal	x1,80000bc0 <__mulsi3>
800007c8:	012504b3          	add	x9,x10,x18
800007cc:	00412283          	lw	x5,4(x2)
800007d0:	00845583          	lhu	x11,8(x8)
800007d4:	02912e23          	sw	x9,60(x2)
800007d8:	00c12f83          	lw	x31,12(x2)
800007dc:	01099993          	slli	x19,x19,0x10
800007e0:	01029913          	slli	x18,x5,0x10
800007e4:	000f8513          	addi	x10,x31,0
800007e8:	3d8000ef          	jal	x1,80000bc0 <__mulsi3>
800007ec:	0109d993          	srli	x19,x19,0x10
800007f0:	00a985b3          	add	x11,x19,x10
800007f4:	01095913          	srli	x18,x18,0x10
800007f8:	00b905b3          	add	x11,x18,x11
800007fc:	02012683          	lw	x13,32(x2)
80000800:	01059593          	slli	x11,x11,0x10
80000804:	4105d593          	srai	x11,x11,0x10
80000808:	4165d5b3          	sra	x11,x11,x22
8000080c:	00b69023          	sh	x11,0(x13)
80000810:	00812f03          	lw	x30,8(x2)
80000814:	00c45583          	lhu	x11,12(x8)
80000818:	01ac0fb3          	add	x31,x24,x26
8000081c:	000f0513          	addi	x10,x30,0
80000820:	010a1a13          	slli	x20,x20,0x10
80000824:	00d12623          	sw	x13,12(x2)
80000828:	010a5a13          	srli	x20,x20,0x10
8000082c:	01f12223          	sw	x31,4(x2)
80000830:	01049493          	slli	x9,x9,0x10
80000834:	38c000ef          	jal	x1,80000bc0 <__mulsi3>
80000838:	00aa05b3          	add	x11,x20,x10
8000083c:	0104d493          	srli	x9,x9,0x10
80000840:	00b485b3          	add	x11,x9,x11
80000844:	00412f83          	lw	x31,4(x2)
80000848:	01059593          	slli	x11,x11,0x10
8000084c:	4105d593          	srai	x11,x11,0x10
80000850:	4165d5b3          	sra	x11,x11,x22
80000854:	02812603          	lw	x12,40(x2)
80000858:	01012e83          	lw	x29,16(x2)
8000085c:	00bf9023          	sh	x11,0(x31)
80000860:	00a45583          	lhu	x11,10(x8)
80000864:	00cc0f33          	add	x30,x24,x12
80000868:	000e8513          	addi	x10,x29,0
8000086c:	00c12423          	sw	x12,8(x2)
80000870:	01e12223          	sw	x30,4(x2)
80000874:	34c000ef          	jal	x1,80000bc0 <__mulsi3>
80000878:	00aa0a33          	add	x20,x20,x10
8000087c:	01490933          	add	x18,x18,x20
80000880:	00412f03          	lw	x30,4(x2)
80000884:	01091913          	slli	x18,x18,0x10
80000888:	41095913          	srai	x18,x18,0x10
8000088c:	41695933          	sra	x18,x18,x22
80000890:	012f1023          	sh	x18,0(x30)
80000894:	01412e03          	lw	x28,20(x2)
80000898:	00e45583          	lhu	x11,14(x8)
8000089c:	fffd8d93          	addi	x27,x27,-1
800008a0:	000e0513          	addi	x10,x28,0
800008a4:	31c000ef          	jal	x1,80000bc0 <__mulsi3>
800008a8:	00a989b3          	add	x19,x19,x10
800008ac:	013484b3          	add	x9,x9,x19
800008b0:	01049493          	slli	x9,x9,0x10
800008b4:	02c12703          	lw	x14,44(x2)
800008b8:	00c12683          	lw	x13,12(x2)
800008bc:	4104d493          	srai	x9,x9,0x10
800008c0:	01ab8933          	add	x18,x23,x26
800008c4:	4164d4b3          	sra	x9,x9,x22
800008c8:	010d9d93          	slli	x27,x27,0x10
800008cc:	00991023          	sh	x9,0(x18)
800008d0:	010ddd93          	srli	x27,x27,0x10
800008d4:	00812603          	lw	x12,8(x2)
800008d8:	01812803          	lw	x16,24(x2)
800008dc:	01c12883          	lw	x17,28(x2)
800008e0:	02412303          	lw	x6,36(x2)
800008e4:	00eb8bb3          	add	x23,x23,x14
800008e8:	00ec0c33          	add	x24,x24,x14
800008ec:	00e686b3          	add	x13,x13,x14
800008f0:	000d8c63          	beq	x27,x0,80000908 <jpegdct+0x36c>
800008f4:	03010513          	addi	x10,x2,48
800008f8:	000b8f13          	addi	x30,x23,0
800008fc:	00050593          	addi	x11,x10,0
80000900:	00068e93          	addi	x29,x13,0
80000904:	d15ff06f          	jal	x0,80000618 <jpegdct+0x7c>
80000908:	00012783          	lw	x15,0(x2)
8000090c:	f8030693          	addi	x13,x6,-128
80000910:	00da8ab3          	add	x21,x21,x13
80000914:	01c78793          	addi	x15,x15,28
80000918:	00f12023          	sw	x15,0(x2)
8000091c:	04000793          	addi	x15,x0,64
80000920:	06280813          	addi	x16,x16,98
80000924:	f9030313          	addi	x6,x6,-112
80000928:	003c8c93          	addi	x25,x25,3
8000092c:	00ed0d13          	addi	x26,x26,14
80000930:	ff260613          	addi	x12,x12,-14
80000934:	ff270713          	addi	x14,x14,-14
80000938:	00f88663          	beq	x17,x15,80000944 <jpegdct+0x3a8>
8000093c:	04000893          	addi	x17,x0,64
80000940:	cc1ff06f          	jal	x0,80000600 <jpegdct+0x64>
80000944:	09c12083          	lw	x1,156(x2)
80000948:	09812403          	lw	x8,152(x2)
8000094c:	09412483          	lw	x9,148(x2)
80000950:	09012903          	lw	x18,144(x2)
80000954:	08c12983          	lw	x19,140(x2)
80000958:	08812a03          	lw	x20,136(x2)
8000095c:	08412a83          	lw	x21,132(x2)
80000960:	08012b03          	lw	x22,128(x2)
80000964:	07c12b83          	lw	x23,124(x2)
80000968:	07812c03          	lw	x24,120(x2)
8000096c:	07412c83          	lw	x25,116(x2)
80000970:	07012d03          	lw	x26,112(x2)
80000974:	06c12d83          	lw	x27,108(x2)
80000978:	0a010113          	addi	x2,x2,160
8000097c:	00008067          	jalr	x0,0(x1)

80000980 <benchmark_body>:
80000980:	cb010113          	addi	x2,x2,-848
80000984:	34812423          	sw	x8,840(x2)
80000988:	35212023          	sw	x18,832(x2)
8000098c:	80101437          	lui	x8,0x80101
80000990:	80101937          	lui	x18,0x80101
80000994:	00090913          	addi	x18,x18,0 # 80101000 <stack_end>
80000998:	64040413          	addi	x8,x8,1600 # 80101640 <a>
8000099c:	34912223          	sw	x9,836(x2)
800009a0:	33512a23          	sw	x21,820(x2)
800009a4:	33612823          	sw	x22,816(x2)
800009a8:	33712623          	sw	x23,812(x2)
800009ac:	33812423          	sw	x24,808(x2)
800009b0:	33912223          	sw	x25,804(x2)
800009b4:	34112623          	sw	x1,844(x2)
800009b8:	33312e23          	sw	x19,828(x2)
800009bc:	33412c23          	sw	x20,824(x2)
800009c0:	00050a93          	addi	x21,x10,0
800009c4:	00000b13          	addi	x22,x0,0
800009c8:	19090b93          	addi	x23,x18,400
800009cc:	19040493          	addi	x9,x8,400
800009d0:	80102c37          	lui	x24,0x80102
800009d4:	80102cb7          	lui	x25,0x80102
800009d8:	035b4e63          	blt	x22,x21,80000a14 <benchmark_body+0x94>
800009dc:	34c12083          	lw	x1,844(x2)
800009e0:	34812403          	lw	x8,840(x2)
800009e4:	34412483          	lw	x9,836(x2)
800009e8:	34012903          	lw	x18,832(x2)
800009ec:	33c12983          	lw	x19,828(x2)
800009f0:	33812a03          	lw	x20,824(x2)
800009f4:	33412a83          	lw	x21,820(x2)
800009f8:	33012b03          	lw	x22,816(x2)
800009fc:	32c12b83          	lw	x23,812(x2)
80000a00:	32812c03          	lw	x24,808(x2)
80000a04:	32412c83          	lw	x25,804(x2)
80000a08:	00000513          	addi	x10,x0,0
80000a0c:	35010113          	addi	x2,x2,848
80000a10:	00008067          	jalr	x0,0(x1)
80000a14:	19000613          	addi	x12,x0,400
80000a18:	00090593          	addi	x11,x18,0
80000a1c:	00010513          	addi	x10,x2,0
80000a20:	240000ef          	jal	x1,80000c60 <memcpy>
80000a24:	19000613          	addi	x12,x0,400
80000a28:	000b8593          	addi	x11,x23,0
80000a2c:	19010513          	addi	x10,x2,400
80000a30:	230000ef          	jal	x1,80000c60 <memcpy>
80000a34:	00000793          	addi	x15,x0,0
80000a38:	19000713          	addi	x14,x0,400
80000a3c:	00f10633          	add	x12,x2,x15
80000a40:	00065603          	lhu	x12,0(x12)
80000a44:	00f406b3          	add	x13,x8,x15
80000a48:	00c69023          	sh	x12,0(x13)
80000a4c:	19010613          	addi	x12,x2,400
80000a50:	00f60633          	add	x12,x12,x15
80000a54:	00065603          	lhu	x12,0(x12)
80000a58:	00f486b3          	add	x13,x9,x15
80000a5c:	00278793          	addi	x15,x15,2
80000a60:	00c69023          	sh	x12,0(x13)
80000a64:	fce79ce3          	bne	x15,x14,80000a3c <benchmark_body+0xbc>
80000a68:	00300613          	addi	x12,x0,3
80000a6c:	00048593          	addi	x11,x9,0
80000a70:	00040513          	addi	x10,x8,0
80000a74:	e70ff0ef          	jal	x1,800000e4 <vec_mpy1>
80000a78:	32040a13          	addi	x20,x8,800
80000a7c:	000a0693          	addi	x13,x20,0
80000a80:	00300613          	addi	x12,x0,3
80000a84:	00048593          	addi	x11,x9,0
80000a88:	00040513          	addi	x10,x8,0
80000a8c:	edcff0ef          	jal	x1,80000168 <mac>
80000a90:	c8ac1423          	sh	x10,-888(x24) # 80101c88 <c>
80000a94:	000a0613          	addi	x12,x20,0
80000a98:	00048593          	addi	x11,x9,0
80000a9c:	00040513          	addi	x10,x8,0
80000aa0:	f6cff0ef          	jal	x1,8000020c <fir>
80000aa4:	000a0613          	addi	x12,x20,0
80000aa8:	00048593          	addi	x11,x9,0
80000aac:	00040513          	addi	x10,x8,0
80000ab0:	819ff0ef          	jal	x1,800002c8 <fir_no_red_ld>
80000ab4:	0000b6b7          	lui	x13,0xb
80000ab8:	aaa68693          	addi	x13,x13,-1366 # aaaa <_stack_size+0x9aaa>
80000abc:	06400613          	addi	x12,x0,100
80000ac0:	00048593          	addi	x11,x9,0
80000ac4:	00040513          	addi	x10,x8,0
80000ac8:	921ff0ef          	jal	x1,800003e8 <latsynth>
80000acc:	00050993          	addi	x19,x10,0
80000ad0:	c8aca223          	sw	x10,-892(x25) # 80101c84 <d>
80000ad4:	000a0693          	addi	x13,x20,0
80000ad8:	4b040613          	addi	x12,x8,1200
80000adc:	00048593          	addi	x11,x9,0
80000ae0:	00040513          	addi	x10,x8,0
80000ae4:	9d9ff0ef          	jal	x1,800004bc <iir1>
80000ae8:	801027b7          	lui	x15,0x80102
80000aec:	00048593          	addi	x11,x9,0
80000af0:	00040513          	addi	x10,x8,0
80000af4:	c937a023          	sw	x19,-896(x15) # 80101c80 <e>
80000af8:	001b0b13          	addi	x22,x22,1
80000afc:	aa1ff0ef          	jal	x1,8000059c <jpegdct>
80000b00:	ed9ff06f          	jal	x0,800009d8 <benchmark_body+0x58>

80000b04 <initialise_benchmark>:
80000b04:	00008067          	jalr	x0,0(x1)

80000b08 <warm_caches>:
80000b08:	e79ff06f          	jal	x0,80000980 <benchmark_body>

80000b0c <benchmark>:
80000b0c:	00300513          	addi	x10,x0,3
80000b10:	e71ff06f          	jal	x0,80000980 <benchmark_body>

80000b14 <verify_benchmark>:
80000b14:	cd010113          	addi	x2,x2,-816
80000b18:	801015b7          	lui	x11,0x80101
80000b1c:	32000613          	addi	x12,x0,800
80000b20:	32058593          	addi	x11,x11,800 # 80101320 <stack_end+0x320>
80000b24:	00010513          	addi	x10,x2,0
80000b28:	32112623          	sw	x1,812(x2)
80000b2c:	134000ef          	jal	x1,80000c60 <memcpy>
80000b30:	80102537          	lui	x10,0x80102
80000b34:	32000613          	addi	x12,x0,800
80000b38:	00010593          	addi	x11,x2,0
80000b3c:	96050513          	addi	x10,x10,-1696 # 80101960 <output>
80000b40:	0a4000ef          	jal	x1,80000be4 <memcmp>
80000b44:	04051863          	bne	x10,x0,80000b94 <verify_benchmark+0x80>
80000b48:	801027b7          	lui	x15,0x80102
80000b4c:	c8879703          	lh	x14,-888(x15) # 80101c88 <c>
80000b50:	000037b7          	lui	x15,0x3
80000b54:	80378793          	addi	x15,x15,-2045 # 2803 <_stack_size+0x1803>
80000b58:	02f71863          	bne	x14,x15,80000b88 <verify_benchmark+0x74>
80000b5c:	801027b7          	lui	x15,0x80102
80000b60:	c847a703          	lw	x14,-892(x15) # 80101c84 <d>
80000b64:	e5a967b7          	lui	x15,0xe5a96
80000b68:	9ea78793          	addi	x15,x15,-1558 # e5a959ea <_end+0x65992d5a>
80000b6c:	00f71e63          	bne	x14,x15,80000b88 <verify_benchmark+0x74>
80000b70:	801027b7          	lui	x15,0x80102
80000b74:	c807a503          	lw	x10,-896(x15) # 80101c80 <e>
80000b78:	1a56a7b7          	lui	x15,0x1a56a
80000b7c:	61678793          	addi	x15,x15,1558 # 1a56a616 <SYSCALL_ADDR+0x1855a616>
80000b80:	00f50533          	add	x10,x10,x15
80000b84:	00153513          	sltiu	x10,x10,1
80000b88:	32c12083          	lw	x1,812(x2)
80000b8c:	33010113          	addi	x2,x2,816
80000b90:	00008067          	jalr	x0,0(x1)
80000b94:	00000513          	addi	x10,x0,0
80000b98:	ff1ff06f          	jal	x0,80000b88 <verify_benchmark+0x74>

80000b9c <initialise_board>:
80000b9c:	00000513          	addi	x10,x0,0
80000ba0:	00008067          	jalr	x0,0(x1)

80000ba4 <start_trigger>:
80000ba4:	00000513          	addi	x10,x0,0
80000ba8:	deadc2b7          	lui	x5,0xdeadc
80000bac:	eef28293          	addi	x5,x5,-273 # deadbeef <_end+0x5e9d925f>
80000bb0:	00008067          	jalr	x0,0(x1)

80000bb4 <stop_trigger>:
80000bb4:	beefe2b7          	lui	x5,0xbeefe
80000bb8:	ead28293          	addi	x5,x5,-339 # beefdead <_end+0x3edfb21d>
80000bbc:	00008067          	jalr	x0,0(x1)

80000bc0 <__mulsi3>:
80000bc0:	00050613          	addi	x12,x10,0
80000bc4:	00000513          	addi	x10,x0,0
80000bc8:	0015f693          	andi	x13,x11,1
80000bcc:	00068463          	beq	x13,x0,80000bd4 <__mulsi3+0x14>
80000bd0:	00c50533          	add	x10,x10,x12
80000bd4:	0015d593          	srli	x11,x11,0x1
80000bd8:	00161613          	slli	x12,x12,0x1
80000bdc:	fe0596e3          	bne	x11,x0,80000bc8 <__mulsi3+0x8>
80000be0:	00008067          	jalr	x0,0(x1)

80000be4 <memcmp>:
80000be4:	00300793          	addi	x15,x0,3
80000be8:	02c7fe63          	bgeu	x15,x12,80000c24 <memcmp+0x40>
80000bec:	00a5e7b3          	or	x15,x11,x10
80000bf0:	0037f793          	andi	x15,x15,3
80000bf4:	02079463          	bne	x15,x0,80000c1c <memcmp+0x38>
80000bf8:	00300693          	addi	x13,x0,3
80000bfc:	0140006f          	jal	x0,80000c10 <memcmp+0x2c>
80000c00:	ffc60613          	addi	x12,x12,-4
80000c04:	00450513          	addi	x10,x10,4
80000c08:	00458593          	addi	x11,x11,4
80000c0c:	00c6fc63          	bgeu	x13,x12,80000c24 <memcmp+0x40>
80000c10:	00052703          	lw	x14,0(x10)
80000c14:	0005a783          	lw	x15,0(x11)
80000c18:	fef704e3          	beq	x14,x15,80000c00 <memcmp+0x1c>
80000c1c:	fff60693          	addi	x13,x12,-1
80000c20:	00c0006f          	jal	x0,80000c2c <memcmp+0x48>
80000c24:	fff60693          	addi	x13,x12,-1
80000c28:	02060863          	beq	x12,x0,80000c58 <memcmp+0x74>
80000c2c:	00168693          	addi	x13,x13,1
80000c30:	00d506b3          	add	x13,x10,x13
80000c34:	0080006f          	jal	x0,80000c3c <memcmp+0x58>
80000c38:	02a68063          	beq	x13,x10,80000c58 <memcmp+0x74>
80000c3c:	00054783          	lbu	x15,0(x10)
80000c40:	0005c703          	lbu	x14,0(x11)
80000c44:	00150513          	addi	x10,x10,1
80000c48:	00158593          	addi	x11,x11,1
80000c4c:	fee786e3          	beq	x15,x14,80000c38 <memcmp+0x54>
80000c50:	40e78533          	sub	x10,x15,x14
80000c54:	00008067          	jalr	x0,0(x1)
80000c58:	00000513          	addi	x10,x0,0
80000c5c:	00008067          	jalr	x0,0(x1)

80000c60 <memcpy>:
80000c60:	00a5c7b3          	xor	x15,x11,x10
80000c64:	0037f793          	andi	x15,x15,3
80000c68:	00c508b3          	add	x17,x10,x12
80000c6c:	06079463          	bne	x15,x0,80000cd4 <memcpy+0x74>
80000c70:	00300793          	addi	x15,x0,3
80000c74:	06c7f063          	bgeu	x15,x12,80000cd4 <memcpy+0x74>
80000c78:	00357793          	andi	x15,x10,3
80000c7c:	00050713          	addi	x14,x10,0
80000c80:	06079a63          	bne	x15,x0,80000cf4 <memcpy+0x94>
80000c84:	ffc8f613          	andi	x12,x17,-4
80000c88:	40e606b3          	sub	x13,x12,x14
80000c8c:	02000793          	addi	x15,x0,32
80000c90:	08d7ce63          	blt	x15,x13,80000d2c <memcpy+0xcc>
80000c94:	00058693          	addi	x13,x11,0
80000c98:	00070793          	addi	x15,x14,0
80000c9c:	02c77863          	bgeu	x14,x12,80000ccc <memcpy+0x6c>
80000ca0:	0006a803          	lw	x16,0(x13)
80000ca4:	00478793          	addi	x15,x15,4
80000ca8:	00468693          	addi	x13,x13,4
80000cac:	ff07ae23          	sw	x16,-4(x15)
80000cb0:	fec7e8e3          	bltu	x15,x12,80000ca0 <memcpy+0x40>
80000cb4:	fff60793          	addi	x15,x12,-1
80000cb8:	40e787b3          	sub	x15,x15,x14
80000cbc:	ffc7f793          	andi	x15,x15,-4
80000cc0:	00478793          	addi	x15,x15,4
80000cc4:	00f70733          	add	x14,x14,x15
80000cc8:	00f585b3          	add	x11,x11,x15
80000ccc:	01176863          	bltu	x14,x17,80000cdc <memcpy+0x7c>
80000cd0:	00008067          	jalr	x0,0(x1)
80000cd4:	00050713          	addi	x14,x10,0
80000cd8:	05157863          	bgeu	x10,x17,80000d28 <memcpy+0xc8>
80000cdc:	0005c783          	lbu	x15,0(x11)
80000ce0:	00170713          	addi	x14,x14,1
80000ce4:	00158593          	addi	x11,x11,1
80000ce8:	fef70fa3          	sb	x15,-1(x14)
80000cec:	fee898e3          	bne	x17,x14,80000cdc <memcpy+0x7c>
80000cf0:	00008067          	jalr	x0,0(x1)
80000cf4:	0005c683          	lbu	x13,0(x11)
80000cf8:	00170713          	addi	x14,x14,1
80000cfc:	00377793          	andi	x15,x14,3
80000d00:	fed70fa3          	sb	x13,-1(x14)
80000d04:	00158593          	addi	x11,x11,1
80000d08:	f6078ee3          	beq	x15,x0,80000c84 <memcpy+0x24>
80000d0c:	0005c683          	lbu	x13,0(x11)
80000d10:	00170713          	addi	x14,x14,1
80000d14:	00377793          	andi	x15,x14,3
80000d18:	fed70fa3          	sb	x13,-1(x14)
80000d1c:	00158593          	addi	x11,x11,1
80000d20:	fc079ae3          	bne	x15,x0,80000cf4 <memcpy+0x94>
80000d24:	f61ff06f          	jal	x0,80000c84 <memcpy+0x24>
80000d28:	00008067          	jalr	x0,0(x1)
80000d2c:	ff010113          	addi	x2,x2,-16
80000d30:	00812623          	sw	x8,12(x2)
80000d34:	02000413          	addi	x8,x0,32
80000d38:	0005a383          	lw	x7,0(x11)
80000d3c:	0045a283          	lw	x5,4(x11)
80000d40:	0085af83          	lw	x31,8(x11)
80000d44:	00c5af03          	lw	x30,12(x11)
80000d48:	0105ae83          	lw	x29,16(x11)
80000d4c:	0145ae03          	lw	x28,20(x11)
80000d50:	0185a303          	lw	x6,24(x11)
80000d54:	01c5a803          	lw	x16,28(x11)
80000d58:	0205a683          	lw	x13,32(x11)
80000d5c:	02470713          	addi	x14,x14,36
80000d60:	40e607b3          	sub	x15,x12,x14
80000d64:	fc772e23          	sw	x7,-36(x14)
80000d68:	fe572023          	sw	x5,-32(x14)
80000d6c:	fff72223          	sw	x31,-28(x14)
80000d70:	ffe72423          	sw	x30,-24(x14)
80000d74:	ffd72623          	sw	x29,-20(x14)
80000d78:	ffc72823          	sw	x28,-16(x14)
80000d7c:	fe672a23          	sw	x6,-12(x14)
80000d80:	ff072c23          	sw	x16,-8(x14)
80000d84:	fed72e23          	sw	x13,-4(x14)
80000d88:	02458593          	addi	x11,x11,36
80000d8c:	faf446e3          	blt	x8,x15,80000d38 <memcpy+0xd8>
80000d90:	00058693          	addi	x13,x11,0
80000d94:	00070793          	addi	x15,x14,0
80000d98:	02c77863          	bgeu	x14,x12,80000dc8 <memcpy+0x168>
80000d9c:	0006a803          	lw	x16,0(x13)
80000da0:	00478793          	addi	x15,x15,4
80000da4:	00468693          	addi	x13,x13,4
80000da8:	ff07ae23          	sw	x16,-4(x15)
80000dac:	fec7e8e3          	bltu	x15,x12,80000d9c <memcpy+0x13c>
80000db0:	fff60793          	addi	x15,x12,-1
80000db4:	40e787b3          	sub	x15,x15,x14
80000db8:	ffc7f793          	andi	x15,x15,-4
80000dbc:	00478793          	addi	x15,x15,4
80000dc0:	00f70733          	add	x14,x14,x15
80000dc4:	00f585b3          	add	x11,x11,x15
80000dc8:	01176863          	bltu	x14,x17,80000dd8 <memcpy+0x178>
80000dcc:	00c12403          	lw	x8,12(x2)
80000dd0:	01010113          	addi	x2,x2,16
80000dd4:	00008067          	jalr	x0,0(x1)
80000dd8:	0005c783          	lbu	x15,0(x11)
80000ddc:	00170713          	addi	x14,x14,1
80000de0:	00158593          	addi	x11,x11,1
80000de4:	fef70fa3          	sb	x15,-1(x14)
80000de8:	fee882e3          	beq	x17,x14,80000dcc <memcpy+0x16c>
80000dec:	0005c783          	lbu	x15,0(x11)
80000df0:	00170713          	addi	x14,x14,1
80000df4:	00158593          	addi	x11,x11,1
80000df8:	fef70fa3          	sb	x15,-1(x14)
80000dfc:	fce89ee3          	bne	x17,x14,80000dd8 <memcpy+0x178>
80000e00:	fcdff06f          	jal	x0,80000dcc <memcpy+0x16c>

Disassembly of section .data:

80100000 <stack_begin>:
	...

80101000 <stack_end>:
80101000:	0000                	.insn	2, 0x
80101002:	07ff 0c00 0800 0200 	.insn	10, 0xf800020008000c0007ff
8010100a:	f800 
8010100c:	f300                	.insn	2, 0xf300
8010100e:	0400                	.insn	2, 0x0400
80101010:	0000                	.insn	2, 0x
80101012:	07ff 0c00 0800 0200 	.insn	10, 0xf800020008000c0007ff
8010101a:	f800 
8010101c:	f300                	.insn	2, 0xf300
8010101e:	0400                	.insn	2, 0x0400
80101020:	0000                	.insn	2, 0x
80101022:	07ff 0c00 0800 0200 	.insn	10, 0xf800020008000c0007ff
8010102a:	f800 
8010102c:	f300                	.insn	2, 0xf300
8010102e:	0400                	.insn	2, 0x0400
80101030:	0000                	.insn	2, 0x
80101032:	07ff 0c00 0800 0200 	.insn	10, 0xf800020008000c0007ff
8010103a:	f800 
8010103c:	f300                	.insn	2, 0xf300
8010103e:	0400                	.insn	2, 0x0400
80101040:	0000                	.insn	2, 0x
80101042:	07ff 0c00 0800 0200 	.insn	10, 0xf800020008000c0007ff
8010104a:	f800 
8010104c:	f300                	.insn	2, 0xf300
8010104e:	0400                	.insn	2, 0x0400
80101050:	0000                	.insn	2, 0x
80101052:	07ff 0c00 0800 0200 	.insn	10, 0xf800020008000c0007ff
8010105a:	f800 
8010105c:	f300                	.insn	2, 0xf300
8010105e:	0400                	.insn	2, 0x0400
80101060:	0000                	.insn	2, 0x
80101062:	07ff 0c00 0800 0200 	.insn	10, 0xf800020008000c0007ff
8010106a:	f800 
8010106c:	f300                	.insn	2, 0xf300
8010106e:	0400                	.insn	2, 0x0400
80101070:	0000                	.insn	2, 0x
80101072:	07ff 0c00 0800 0200 	.insn	10, 0xf800020008000c0007ff
8010107a:	f800 
8010107c:	f300                	.insn	2, 0xf300
8010107e:	0400                	.insn	2, 0x0400
80101080:	0000                	.insn	2, 0x
80101082:	07ff 0c00 0800 0200 	.insn	10, 0xf800020008000c0007ff
8010108a:	f800 
8010108c:	f300                	.insn	2, 0xf300
8010108e:	0400                	.insn	2, 0x0400
80101090:	0000                	.insn	2, 0x
80101092:	07ff 0c00 0800 0200 	.insn	10, 0xf800020008000c0007ff
8010109a:	f800 
8010109c:	f300                	.insn	2, 0xf300
8010109e:	0400                	.insn	2, 0x0400
801010a0:	0000                	.insn	2, 0x
801010a2:	07ff 0c00 0800 0200 	.insn	10, 0xf800020008000c0007ff
801010aa:	f800 
801010ac:	f300                	.insn	2, 0xf300
801010ae:	0400                	.insn	2, 0x0400
801010b0:	0000                	.insn	2, 0x
801010b2:	07ff 0c00 0800 0200 	.insn	10, 0xf800020008000c0007ff
801010ba:	f800 
801010bc:	f300                	.insn	2, 0xf300
801010be:	0400                	.insn	2, 0x0400
801010c0:	0000                	.insn	2, 0x
801010c2:	07ff 0c00 0800 0200 	.insn	10, 0xf800020008000c0007ff
801010ca:	f800 
801010cc:	f300                	.insn	2, 0xf300
801010ce:	0400                	.insn	2, 0x0400
801010d0:	0000                	.insn	2, 0x
801010d2:	07ff 0c00 0800 0200 	.insn	10, 0xf800020008000c0007ff
801010da:	f800 
801010dc:	f300                	.insn	2, 0xf300
801010de:	0400                	.insn	2, 0x0400
801010e0:	0000                	.insn	2, 0x
801010e2:	07ff 0c00 0800 0200 	.insn	10, 0xf800020008000c0007ff
801010ea:	f800 
801010ec:	f300                	.insn	2, 0xf300
801010ee:	0400                	.insn	2, 0x0400
801010f0:	0000                	.insn	2, 0x
801010f2:	07ff 0c00 0800 0200 	.insn	10, 0xf800020008000c0007ff
801010fa:	f800 
801010fc:	f300                	.insn	2, 0xf300
801010fe:	0400                	.insn	2, 0x0400
80101100:	0000                	.insn	2, 0x
80101102:	07ff 0c00 0800 0200 	.insn	10, 0xf800020008000c0007ff
8010110a:	f800 
8010110c:	f300                	.insn	2, 0xf300
8010110e:	0400                	.insn	2, 0x0400
80101110:	0000                	.insn	2, 0x
80101112:	07ff 0c00 0800 0200 	.insn	10, 0xf800020008000c0007ff
8010111a:	f800 
8010111c:	f300                	.insn	2, 0xf300
8010111e:	0400                	.insn	2, 0x0400
80101120:	0000                	.insn	2, 0x
80101122:	07ff 0c00 0800 0200 	.insn	10, 0xf800020008000c0007ff
8010112a:	f800 
8010112c:	f300                	.insn	2, 0xf300
8010112e:	0400                	.insn	2, 0x0400
80101130:	0000                	.insn	2, 0x
80101132:	07ff 0c00 0800 0200 	.insn	10, 0xf800020008000c0007ff
8010113a:	f800 
8010113c:	f300                	.insn	2, 0xf300
8010113e:	0400                	.insn	2, 0x0400
80101140:	0000                	.insn	2, 0x
80101142:	07ff 0c00 0800 0200 	.insn	10, 0xf800020008000c0007ff
8010114a:	f800 
8010114c:	f300                	.insn	2, 0xf300
8010114e:	0400                	.insn	2, 0x0400
80101150:	0000                	.insn	2, 0x
80101152:	07ff 0c00 0800 0200 	.insn	10, 0xf800020008000c0007ff
8010115a:	f800 
8010115c:	f300                	.insn	2, 0xf300
8010115e:	0400                	.insn	2, 0x0400
80101160:	0000                	.insn	2, 0x
80101162:	07ff 0c00 0800 0200 	.insn	10, 0xf800020008000c0007ff
8010116a:	f800 
8010116c:	f300                	.insn	2, 0xf300
8010116e:	0400                	.insn	2, 0x0400
80101170:	0000                	.insn	2, 0x
80101172:	07ff 0c00 0800 0200 	.insn	10, 0xf800020008000c0007ff
8010117a:	f800 
8010117c:	f300                	.insn	2, 0xf300
8010117e:	0400                	.insn	2, 0x0400
80101180:	0000                	.insn	2, 0x
80101182:	07ff 0c00 0800 0200 	.insn	10, 0xf800020008000c0007ff
8010118a:	f800 
8010118c:	f300                	.insn	2, 0xf300
8010118e:	0400                	.insn	2, 0x0400
80101190:	0c60                	.insn	2, 0x0c60
80101192:	0c40                	.insn	2, 0x0c40
80101194:	0c20                	.insn	2, 0x0c20
80101196:	0c00                	.insn	2, 0x0c00
80101198:	f600                	.insn	2, 0xf600
8010119a:	f400                	.insn	2, 0xf400
8010119c:	f200                	.insn	2, 0xf200
8010119e:	f000                	.insn	2, 0xf000
801011a0:	0c60                	.insn	2, 0x0c60
801011a2:	0c40                	.insn	2, 0x0c40
801011a4:	0c20                	.insn	2, 0x0c20
801011a6:	0c00                	.insn	2, 0x0c00
801011a8:	f600                	.insn	2, 0xf600
801011aa:	f400                	.insn	2, 0xf400
801011ac:	f200                	.insn	2, 0xf200
801011ae:	f000                	.insn	2, 0xf000
801011b0:	0c60                	.insn	2, 0x0c60
801011b2:	0c40                	.insn	2, 0x0c40
801011b4:	0c20                	.insn	2, 0x0c20
801011b6:	0c00                	.insn	2, 0x0c00
801011b8:	f600                	.insn	2, 0xf600
801011ba:	f400                	.insn	2, 0xf400
801011bc:	f200                	.insn	2, 0xf200
801011be:	f000                	.insn	2, 0xf000
801011c0:	0c60                	.insn	2, 0x0c60
801011c2:	0c40                	.insn	2, 0x0c40
801011c4:	0c20                	.insn	2, 0x0c20
801011c6:	0c00                	.insn	2, 0x0c00
801011c8:	f600                	.insn	2, 0xf600
801011ca:	f400                	.insn	2, 0xf400
801011cc:	f200                	.insn	2, 0xf200
801011ce:	f000                	.insn	2, 0xf000
801011d0:	0c60                	.insn	2, 0x0c60
801011d2:	0c40                	.insn	2, 0x0c40
801011d4:	0c20                	.insn	2, 0x0c20
801011d6:	0c00                	.insn	2, 0x0c00
801011d8:	f600                	.insn	2, 0xf600
801011da:	f400                	.insn	2, 0xf400
801011dc:	f200                	.insn	2, 0xf200
801011de:	f000                	.insn	2, 0xf000
801011e0:	0c60                	.insn	2, 0x0c60
801011e2:	0c40                	.insn	2, 0x0c40
801011e4:	0c20                	.insn	2, 0x0c20
801011e6:	0c00                	.insn	2, 0x0c00
801011e8:	f600                	.insn	2, 0xf600
801011ea:	f400                	.insn	2, 0xf400
801011ec:	f200                	.insn	2, 0xf200
801011ee:	f000                	.insn	2, 0xf000
801011f0:	0c60                	.insn	2, 0x0c60
801011f2:	0c40                	.insn	2, 0x0c40
801011f4:	0c20                	.insn	2, 0x0c20
801011f6:	0c00                	.insn	2, 0x0c00
801011f8:	f600                	.insn	2, 0xf600
801011fa:	f400                	.insn	2, 0xf400
801011fc:	f200                	.insn	2, 0xf200
801011fe:	f000                	.insn	2, 0xf000
80101200:	0c60                	.insn	2, 0x0c60
80101202:	0c40                	.insn	2, 0x0c40
80101204:	0c20                	.insn	2, 0x0c20
80101206:	0c00                	.insn	2, 0x0c00
80101208:	f600                	.insn	2, 0xf600
8010120a:	f400                	.insn	2, 0xf400
8010120c:	f200                	.insn	2, 0xf200
8010120e:	f000                	.insn	2, 0xf000
80101210:	0c60                	.insn	2, 0x0c60
80101212:	0c40                	.insn	2, 0x0c40
80101214:	0c20                	.insn	2, 0x0c20
80101216:	0c00                	.insn	2, 0x0c00
80101218:	f600                	.insn	2, 0xf600
8010121a:	f400                	.insn	2, 0xf400
8010121c:	f200                	.insn	2, 0xf200
8010121e:	f000                	.insn	2, 0xf000
80101220:	0c60                	.insn	2, 0x0c60
80101222:	0c40                	.insn	2, 0x0c40
80101224:	0c20                	.insn	2, 0x0c20
80101226:	0c00                	.insn	2, 0x0c00
80101228:	f600                	.insn	2, 0xf600
8010122a:	f400                	.insn	2, 0xf400
8010122c:	f200                	.insn	2, 0xf200
8010122e:	f000                	.insn	2, 0xf000
80101230:	0c60                	.insn	2, 0x0c60
80101232:	0c40                	.insn	2, 0x0c40
80101234:	0c20                	.insn	2, 0x0c20
80101236:	0c00                	.insn	2, 0x0c00
80101238:	f600                	.insn	2, 0xf600
8010123a:	f400                	.insn	2, 0xf400
8010123c:	f200                	.insn	2, 0xf200
8010123e:	f000                	.insn	2, 0xf000
80101240:	0c60                	.insn	2, 0x0c60
80101242:	0c40                	.insn	2, 0x0c40
80101244:	0c20                	.insn	2, 0x0c20
80101246:	0c00                	.insn	2, 0x0c00
80101248:	f600                	.insn	2, 0xf600
8010124a:	f400                	.insn	2, 0xf400
8010124c:	f200                	.insn	2, 0xf200
8010124e:	f000                	.insn	2, 0xf000
80101250:	0c60                	.insn	2, 0x0c60
80101252:	0c40                	.insn	2, 0x0c40
80101254:	0c20                	.insn	2, 0x0c20
80101256:	0c00                	.insn	2, 0x0c00
80101258:	f600                	.insn	2, 0xf600
8010125a:	f400                	.insn	2, 0xf400
8010125c:	f200                	.insn	2, 0xf200
8010125e:	f000                	.insn	2, 0xf000
80101260:	0c60                	.insn	2, 0x0c60
80101262:	0c40                	.insn	2, 0x0c40
80101264:	0c20                	.insn	2, 0x0c20
80101266:	0c00                	.insn	2, 0x0c00
80101268:	f600                	.insn	2, 0xf600
8010126a:	f400                	.insn	2, 0xf400
8010126c:	f200                	.insn	2, 0xf200
8010126e:	f000                	.insn	2, 0xf000
80101270:	0c60                	.insn	2, 0x0c60
80101272:	0c40                	.insn	2, 0x0c40
80101274:	0c20                	.insn	2, 0x0c20
80101276:	0c00                	.insn	2, 0x0c00
80101278:	f600                	.insn	2, 0xf600
8010127a:	f400                	.insn	2, 0xf400
8010127c:	f200                	.insn	2, 0xf200
8010127e:	f000                	.insn	2, 0xf000
80101280:	0c60                	.insn	2, 0x0c60
80101282:	0c40                	.insn	2, 0x0c40
80101284:	0c20                	.insn	2, 0x0c20
80101286:	0c00                	.insn	2, 0x0c00
80101288:	f600                	.insn	2, 0xf600
8010128a:	f400                	.insn	2, 0xf400
8010128c:	f200                	.insn	2, 0xf200
8010128e:	f000                	.insn	2, 0xf000
80101290:	0c60                	.insn	2, 0x0c60
80101292:	0c40                	.insn	2, 0x0c40
80101294:	0c20                	.insn	2, 0x0c20
80101296:	0c00                	.insn	2, 0x0c00
80101298:	f600                	.insn	2, 0xf600
8010129a:	f400                	.insn	2, 0xf400
8010129c:	f200                	.insn	2, 0xf200
8010129e:	f000                	.insn	2, 0xf000
801012a0:	0c60                	.insn	2, 0x0c60
801012a2:	0c40                	.insn	2, 0x0c40
801012a4:	0c20                	.insn	2, 0x0c20
801012a6:	0c00                	.insn	2, 0x0c00
801012a8:	f600                	.insn	2, 0xf600
801012aa:	f400                	.insn	2, 0xf400
801012ac:	f200                	.insn	2, 0xf200
801012ae:	f000                	.insn	2, 0xf000
801012b0:	0c60                	.insn	2, 0x0c60
801012b2:	0c40                	.insn	2, 0x0c40
801012b4:	0c20                	.insn	2, 0x0c20
801012b6:	0c00                	.insn	2, 0x0c00
801012b8:	f600                	.insn	2, 0xf600
801012ba:	f400                	.insn	2, 0xf400
801012bc:	f200                	.insn	2, 0xf200
801012be:	f000                	.insn	2, 0xf000
801012c0:	0c60                	.insn	2, 0x0c60
801012c2:	0c40                	.insn	2, 0x0c40
801012c4:	0c20                	.insn	2, 0x0c20
801012c6:	0c00                	.insn	2, 0x0c00
801012c8:	f600                	.insn	2, 0xf600
801012ca:	f400                	.insn	2, 0xf400
801012cc:	f200                	.insn	2, 0xf200
801012ce:	f000                	.insn	2, 0xf000
801012d0:	0c60                	.insn	2, 0x0c60
801012d2:	0c40                	.insn	2, 0x0c40
801012d4:	0c20                	.insn	2, 0x0c20
801012d6:	0c00                	.insn	2, 0x0c00
801012d8:	f600                	.insn	2, 0xf600
801012da:	f400                	.insn	2, 0xf400
801012dc:	f200                	.insn	2, 0xf200
801012de:	f000                	.insn	2, 0xf000
801012e0:	0c60                	.insn	2, 0x0c60
801012e2:	0c40                	.insn	2, 0x0c40
801012e4:	0c20                	.insn	2, 0x0c20
801012e6:	0c00                	.insn	2, 0x0c00
801012e8:	f600                	.insn	2, 0xf600
801012ea:	f400                	.insn	2, 0xf400
801012ec:	f200                	.insn	2, 0xf200
801012ee:	f000                	.insn	2, 0xf000
801012f0:	0c60                	.insn	2, 0x0c60
801012f2:	0c40                	.insn	2, 0x0c40
801012f4:	0c20                	.insn	2, 0x0c20
801012f6:	0c00                	.insn	2, 0x0c00
801012f8:	f600                	.insn	2, 0xf600
801012fa:	f400                	.insn	2, 0xf400
801012fc:	f200                	.insn	2, 0xf200
801012fe:	f000                	.insn	2, 0xf000
80101300:	0c60                	.insn	2, 0x0c60
80101302:	0c40                	.insn	2, 0x0c40
80101304:	0c20                	.insn	2, 0x0c20
80101306:	0c00                	.insn	2, 0x0c00
80101308:	f600                	.insn	2, 0xf600
8010130a:	f400                	.insn	2, 0xf400
8010130c:	f200                	.insn	2, 0xf200
8010130e:	f000                	.insn	2, 0xf000
80101310:	0c60                	.insn	2, 0x0c60
80101312:	0c40                	.insn	2, 0x0c40
80101314:	0c20                	.insn	2, 0x0c20
80101316:	0c00                	.insn	2, 0x0c00
80101318:	f600                	.insn	2, 0xf600
8010131a:	f400                	.insn	2, 0xf400
8010131c:	f200                	.insn	2, 0xf200
8010131e:	f000                	.insn	2, 0xf000
80101320:	0eb0                	.insn	2, 0x0eb0
80101322:	0000                	.insn	2, 0x
80101324:	10ad                	.insn	2, 0x10ad
80101326:	0000                	.insn	2, 0x
80101328:	0c36                	.insn	2, 0x0c36
8010132a:	0000                	.insn	2, 0x
8010132c:	0406                	.insn	2, 0x0406
8010132e:	0000                	.insn	2, 0x
80101330:	0995                	.insn	2, 0x0995
80101332:	0000                	.insn	2, 0x
80101334:	ffffee07          	.insn	4, 0xffffee07
80101338:	07bd                	.insn	2, 0x07bd
8010133a:	0000                	.insn	2, 0x
8010133c:	fbe0                	.insn	2, 0xfbe0
8010133e:	ffff                	.insn	2, 0xffff
80101340:	0a3d                	.insn	2, 0x0a3d
80101342:	0000                	.insn	2, 0x
80101344:	10ad                	.insn	2, 0x10ad
80101346:	0000                	.insn	2, 0x
80101348:	0bf2                	.insn	2, 0x0bf2
8010134a:	0000                	.insn	2, 0x
8010134c:	0406                	.insn	2, 0x0406
8010134e:	0000                	.insn	2, 0x
80101350:	094a                	.insn	2, 0x094a
80101352:	0000                	.insn	2, 0x
80101354:	ffffee07          	.insn	4, 0xffffee07
80101358:	076e                	.insn	2, 0x076e
8010135a:	0000                	.insn	2, 0x
8010135c:	fbe0                	.insn	2, 0xfbe0
8010135e:	ffff                	.insn	2, 0xffff
80101360:	09f4                	.insn	2, 0x09f4
80101362:	0000                	.insn	2, 0x
80101364:	10ad                	.insn	2, 0x10ad
80101366:	0000                	.insn	2, 0x
80101368:	0bac                	.insn	2, 0x0bac
8010136a:	0000                	.insn	2, 0x
8010136c:	0406                	.insn	2, 0x0406
8010136e:	0000                	.insn	2, 0x
80101370:	08fc                	.insn	2, 0x08fc
80101372:	0000                	.insn	2, 0x
80101374:	ffffee07          	.insn	4, 0xffffee07
80101378:	071e                	.insn	2, 0x071e
8010137a:	0000                	.insn	2, 0x
8010137c:	fbe0                	.insn	2, 0xfbe0
8010137e:	ffff                	.insn	2, 0xffff
80101380:	09aa                	.insn	2, 0x09aa
80101382:	0000                	.insn	2, 0x
80101384:	10ad                	.insn	2, 0x10ad
80101386:	0000                	.insn	2, 0x
80101388:	0b65                	.insn	2, 0x0b65
8010138a:	0000                	.insn	2, 0x
8010138c:	0406                	.insn	2, 0x0406
8010138e:	0000                	.insn	2, 0x
80101390:	08ac                	.insn	2, 0x08ac
80101392:	0000                	.insn	2, 0x
80101394:	ffffee07          	.insn	4, 0xffffee07
80101398:	06ca                	.insn	2, 0x06ca
8010139a:	0000                	.insn	2, 0x
8010139c:	fbe0                	.insn	2, 0xfbe0
8010139e:	ffff                	.insn	2, 0xffff
801013a0:	095e                	.insn	2, 0x095e
801013a2:	0000                	.insn	2, 0x
801013a4:	10ad                	.insn	2, 0x10ad
801013a6:	0000                	.insn	2, 0x
801013a8:	0b1c                	.insn	2, 0x0b1c
801013aa:	0000                	.insn	2, 0x
801013ac:	0406                	.insn	2, 0x0406
801013ae:	0000                	.insn	2, 0x
801013b0:	085c                	.insn	2, 0x085c
801013b2:	0000                	.insn	2, 0x
801013b4:	ffffee07          	.insn	4, 0xffffee07
801013b8:	00000677          	.insn	4, 0x0677
801013bc:	fbe0                	.insn	2, 0xfbe0
801013be:	ffff                	.insn	2, 0xffff
801013c0:	0911                	.insn	2, 0x0911
801013c2:	0000                	.insn	2, 0x
801013c4:	10ad                	.insn	2, 0x10ad
801013c6:	0000                	.insn	2, 0x
801013c8:	0ad2                	.insn	2, 0x0ad2
801013ca:	0000                	.insn	2, 0x
801013cc:	0406                	.insn	2, 0x0406
801013ce:	0000                	.insn	2, 0x
801013d0:	080a                	.insn	2, 0x080a
801013d2:	0000                	.insn	2, 0x
801013d4:	ffffee07          	.insn	4, 0xffffee07
801013d8:	0621                	.insn	2, 0x0621
801013da:	0000                	.insn	2, 0x
801013dc:	fbe0                	.insn	2, 0xfbe0
801013de:	ffff                	.insn	2, 0xffff
801013e0:	08c2                	.insn	2, 0x08c2
801013e2:	0000                	.insn	2, 0x
801013e4:	10ad                	.insn	2, 0x10ad
801013e6:	0000                	.insn	2, 0x
801013e8:	0868                	.insn	2, 0x0868
801013ea:	0000                	.insn	2, 0x
801013ec:	0406                	.insn	2, 0x0406
801013ee:	0000                	.insn	2, 0x
801013f0:	00000693          	addi	x13,x0,0
801013f4:	ffffee07          	.insn	4, 0xffffee07
801013f8:	0000065b          	.insn	4, 0x065b
801013fc:	fbe0                	.insn	2, 0xfbe0
801013fe:	ffff                	.insn	2, 0xffff
80101400:	07ee                	.insn	2, 0x07ee
80101402:	0000                	.insn	2, 0x
80101404:	10ad                	.insn	2, 0x10ad
80101406:	0000                	.insn	2, 0x
80101408:	0820                	.insn	2, 0x0820
8010140a:	0000                	.insn	2, 0x
8010140c:	0406                	.insn	2, 0x0406
8010140e:	0000                	.insn	2, 0x
80101410:	0000064b          	.insn	4, 0x064b
80101414:	ffffee07          	.insn	4, 0xffffee07
80101418:	00000613          	addi	x12,x0,0
8010141c:	fbe0                	.insn	2, 0xfbe0
8010141e:	ffff                	.insn	2, 0xffff
80101420:	07a6                	.insn	2, 0x07a6
80101422:	0000                	.insn	2, 0x
80101424:	10ad                	.insn	2, 0x10ad
80101426:	0000                	.insn	2, 0x
80101428:	07d8                	.insn	2, 0x07d8
8010142a:	0000                	.insn	2, 0x
8010142c:	0406                	.insn	2, 0x0406
8010142e:	0000                	.insn	2, 0x
80101430:	00000603          	lb	x12,0(x0) # 0 <_heap_size>
80101434:	ffffee07          	.insn	4, 0xffffee07
80101438:	000005cb          	.insn	4, 0x05cb
8010143c:	fbe0                	.insn	2, 0xfbe0
8010143e:	ffff                	.insn	2, 0xffff
80101440:	075e                	.insn	2, 0x075e
80101442:	0000                	.insn	2, 0x
80101444:	10ad                	.insn	2, 0x10ad
80101446:	0000                	.insn	2, 0x
80101448:	0000078f          	.insn	4, 0x078f
8010144c:	0406                	.insn	2, 0x0406
8010144e:	0000                	.insn	2, 0x
80101450:	05ba                	.insn	2, 0x05ba
80101452:	0000                	.insn	2, 0x
80101454:	ffffee07          	.insn	4, 0xffffee07
80101458:	0582                	.insn	2, 0x0582
8010145a:	0000                	.insn	2, 0x
8010145c:	fbe0                	.insn	2, 0xfbe0
8010145e:	ffff                	.insn	2, 0xffff
80101460:	0715                	.insn	2, 0x0715
80101462:	0000                	.insn	2, 0x
80101464:	10ad                	.insn	2, 0x10ad
80101466:	0000                	.insn	2, 0x
80101468:	0746                	.insn	2, 0x0746
8010146a:	0000                	.insn	2, 0x
8010146c:	0406                	.insn	2, 0x0406
8010146e:	0000                	.insn	2, 0x
80101470:	0571                	.insn	2, 0x0571
80101472:	0000                	.insn	2, 0x
80101474:	ffffee07          	.insn	4, 0xffffee07
80101478:	0539                	.insn	2, 0x0539
8010147a:	0000                	.insn	2, 0x
8010147c:	fbe0                	.insn	2, 0xfbe0
8010147e:	ffff                	.insn	2, 0xffff
80101480:	06cc                	.insn	2, 0x06cc
80101482:	0000                	.insn	2, 0x
80101484:	10ad                	.insn	2, 0x10ad
80101486:	0000                	.insn	2, 0x
80101488:	06fd                	.insn	2, 0x06fd
8010148a:	0000                	.insn	2, 0x
8010148c:	0406                	.insn	2, 0x0406
8010148e:	0000                	.insn	2, 0x
80101490:	0528                	.insn	2, 0x0528
80101492:	0000                	.insn	2, 0x
80101494:	ffffee07          	.insn	4, 0xffffee07
80101498:	04f0                	.insn	2, 0x04f0
8010149a:	0000                	.insn	2, 0x
8010149c:	fbe0                	.insn	2, 0xfbe0
8010149e:	ffff                	.insn	2, 0xffff
801014a0:	00000683          	lb	x13,0(x0) # 0 <_heap_size>
801014a4:	10ad                	.insn	2, 0x10ad
801014a6:	0000                	.insn	2, 0x
801014a8:	06b4                	.insn	2, 0x06b4
801014aa:	0000                	.insn	2, 0x
801014ac:	0406                	.insn	2, 0x0406
801014ae:	0000                	.insn	2, 0x
801014b0:	07b0                	.insn	2, 0x07b0
	...

80101640 <a>:
	...

801017d0 <b>:
	...

80101960 <output>:
	...

80101c80 <e>:
80101c80:	0000                	.insn	2, 0x
	...

80101c84 <d>:
80101c84:	0000                	.insn	2, 0x
	...

80101c88 <c>:
	...

Disassembly of section .comment:

00000000 <.comment>:
   0:	3a434347          	.insn	4, 0x3a434347
   4:	2820                	.insn	2, 0x2820
   6:	2029                	.insn	2, 0x2029
   8:	3331                	.insn	2, 0x3331
   a:	322e                	.insn	2, 0x322e
   c:	302e                	.insn	2, 0x302e
   e:	4700                	.insn	2, 0x4700
  10:	203a4343          	.insn	4, 0x203a4343
  14:	4728                	.insn	2, 0x4728
  16:	554e                	.insn	2, 0x554e
  18:	2029                	.insn	2, 0x2029
  1a:	3331                	.insn	2, 0x3331
  1c:	322e                	.insn	2, 0x322e
  1e:	302e                	.insn	2, 0x302e
	...

Disassembly of section .riscv.attributes:

00000000 <.riscv.attributes>:
   0:	2841                	.insn	2, 0x2841
   2:	0000                	.insn	2, 0x
   4:	7200                	.insn	2, 0x7200
   6:	7369                	.insn	2, 0x7369
   8:	01007663          	bgeu	x0,x16,14 <_heap_size+0x14>
   c:	001e                	.insn	2, 0x001e
   e:	0000                	.insn	2, 0x
  10:	1004                	.insn	2, 0x1004
  12:	7205                	.insn	2, 0x7205
  14:	3376                	.insn	2, 0x3376
  16:	6932                	.insn	2, 0x6932
  18:	7032                	.insn	2, 0x7032
  1a:	5f31                	.insn	2, 0x5f31
  1c:	697a                	.insn	2, 0x697a
  1e:	32727363          	bgeu	x4,x7,344 <_heap_size+0x344>
  22:	3070                	.insn	2, 0x3070
  24:	0800                	.insn	2, 0x0800
  26:	0a01                	.insn	2, 0x0a01
  28:	Address 0x28 is out of bounds.


Disassembly of section .debug_line:

00000000 <.debug_line>:
   0:	0076                	.insn	2, 0x0076
   2:	0000                	.insn	2, 0x
   4:	0005                	.insn	2, 0x0005
   6:	0004                	.insn	2, 0x0004
   8:	002e                	.insn	2, 0x002e
   a:	0000                	.insn	2, 0x
   c:	0101                	.insn	2, 0x0101
   e:	fb01                	.insn	2, 0xfb01
  10:	0d0e                	.insn	2, 0x0d0e
  12:	0100                	.insn	2, 0x0100
  14:	0101                	.insn	2, 0x0101
  16:	0001                	.insn	2, 0x0001
  18:	0000                	.insn	2, 0x
  1a:	0001                	.insn	2, 0x0001
  1c:	0100                	.insn	2, 0x0100
  1e:	0101                	.insn	2, 0x0101
  20:	021f 0000 0000      	.insn	6, 0x021f
  26:	0066                	.insn	2, 0x0066
  28:	0000                	.insn	2, 0x
  2a:	0102                	.insn	2, 0x0102
  2c:	021f 020f 008f      	.insn	6, 0x008f020f021f
  32:	0000                	.insn	2, 0x
  34:	8f01                	.insn	2, 0x8f01
  36:	0000                	.insn	2, 0x
  38:	0100                	.insn	2, 0x0100
  3a:	0500                	.insn	2, 0x0500
  3c:	c002                	.insn	2, 0xc002
  3e:	0380000b          	.insn	4, 0x0380000b
  42:	0124                	.insn	2, 0x0124
  44:	04090103          	lb	x2,64(x18)
  48:	0100                	.insn	2, 0x0100
  4a:	04090203          	lb	x4,64(x18)
  4e:	0100                	.insn	2, 0x0100
  50:	04090103          	lb	x2,64(x18)
  54:	0100                	.insn	2, 0x0100
  56:	04090103          	lb	x2,64(x18)
  5a:	0100                	.insn	2, 0x0100
  5c:	04090203          	lb	x4,64(x18)
  60:	0100                	.insn	2, 0x0100
  62:	04090103          	lb	x2,64(x18)
  66:	0100                	.insn	2, 0x0100
  68:	04090103          	lb	x2,64(x18)
  6c:	0100                	.insn	2, 0x0100
  6e:	04090103          	lb	x2,64(x18)
  72:	0100                	.insn	2, 0x0100
  74:	0409                	.insn	2, 0x0409
  76:	0000                	.insn	2, 0x
  78:	0101                	.insn	2, 0x0101

Disassembly of section .debug_line_str:

00000000 <.debug_line_str>:
   0:	6d6f682f          	.insn	4, 0x6d6f682f
   4:	2f65                	.insn	2, 0x2f65
   6:	6c6c6173          	.insn	4, 0x6c6c6173
   a:	7261                	.insn	2, 0x7261
   c:	6f6f742f          	.insn	4, 0x6f6f742f
  10:	736c                	.insn	2, 0x736c
  12:	7369722f          	.insn	4, 0x7369722f
  16:	672d7663          	bgeu	x26,x18,682 <_heap_size+0x682>
  1a:	756e                	.insn	2, 0x756e
  1c:	742d                	.insn	2, 0x742d
  1e:	636c6f6f          	jal	x30,c6654 <_stack_size+0xc5654>
  22:	6168                	.insn	2, 0x6168
  24:	6e69                	.insn	2, 0x6e69
  26:	6975622f          	.insn	4, 0x6975622f
  2a:	646c                	.insn	2, 0x646c
  2c:	672d                	.insn	2, 0x672d
  2e:	6e2d6363          	bltu	x26,x2,714 <_heap_size+0x714>
  32:	7765                	.insn	2, 0x7765
  34:	696c                	.insn	2, 0x696c
  36:	2d62                	.insn	2, 0x2d62
  38:	67617473          	.insn	4, 0x67617473
  3c:	3265                	.insn	2, 0x3265
  3e:	7369722f          	.insn	4, 0x7369722f
  42:	34367663          	bgeu	x12,x3,38e <_heap_size+0x38e>
  46:	752d                	.insn	2, 0x752d
  48:	6b6e                	.insn	2, 0x6b6e
  4a:	6f6e                	.insn	2, 0x6f6e
  4c:	652d6e77          	.insn	4, 0x652d6e77
  50:	666c                	.insn	2, 0x666c
  52:	3376722f          	.insn	4, 0x3376722f
  56:	6932                	.insn	2, 0x6932
  58:	706c692f          	.insn	4, 0x706c692f
  5c:	6c2f3233          	.insn	4, 0x6c2f3233
  60:	6269                	.insn	2, 0x6269
  62:	00636367          	.insn	4, 0x00636367
  66:	2e2e                	.insn	2, 0x2e2e
  68:	2f2e2e2f          	.insn	4, 0x2f2e2e2f
  6c:	2e2e                	.insn	2, 0x2e2e
  6e:	2f2e2e2f          	.insn	4, 0x2f2e2e2f
  72:	2e2e                	.insn	2, 0x2e2e
  74:	672f2e2f          	.insn	4, 0x672f2e2f
  78:	6c2f6363          	bltu	x30,x2,73e <_heap_size+0x73e>
  7c:	6269                	.insn	2, 0x6269
  7e:	2f636367          	.insn	4, 0x2f636367
  82:	666e6f63          	bltu	x28,x6,700 <_heap_size+0x700>
  86:	6769                	.insn	2, 0x6769
  88:	7369722f          	.insn	4, 0x7369722f
  8c:	6d007663          	bgeu	x0,x16,758 <_heap_size+0x758>
  90:	6c75                	.insn	2, 0x6c75
  92:	6964                	.insn	2, 0x6964
  94:	00532e33          	slt	x28,x6,x5

Disassembly of section .debug_info:

00000000 <.debug_info>:
   0:	002d                	.insn	2, 0x002d
   2:	0000                	.insn	2, 0x
   4:	0005                	.insn	2, 0x0005
   6:	0401                	.insn	2, 0x0401
   8:	0000                	.insn	2, 0x
   a:	0000                	.insn	2, 0x
   c:	0001                	.insn	2, 0x0001
   e:	0000                	.insn	2, 0x
  10:	c000                	.insn	2, 0xc000
  12:	2480000b          	.insn	4, 0x2480000b
  16:	0000                	.insn	2, 0x
  18:	0000                	.insn	2, 0x
  1a:	0032                	.insn	2, 0x0032
  1c:	0000                	.insn	2, 0x
  1e:	0098                	.insn	2, 0x0098
  20:	0000                	.insn	2, 0x
  22:	8001                	.insn	2, 0x8001
  24:	a402                	.insn	2, 0xa402
  26:	0000                	.insn	2, 0x
  28:	2f00                	.insn	2, 0x2f00
  2a:	0bc0                	.insn	2, 0x0bc0
  2c:	8000                	.insn	2, 0x8000
  2e:	0324                	.insn	2, 0x0324
	...

Disassembly of section .debug_abbrev:

00000000 <.debug_abbrev>:
   0:	1101                	.insn	2, 0x1101
   2:	1001                	.insn	2, 0x1001
   4:	12011117          	auipc	x2,0x12011
   8:	1b0e030f          	.insn	4, 0x1b0e030f
   c:	250e                	.insn	2, 0x250e
   e:	130e                	.insn	2, 0x130e
  10:	0005                	.insn	2, 0x0005
  12:	0200                	.insn	2, 0x0200
  14:	002e                	.insn	2, 0x002e
  16:	193f0e03          	lb	x28,403(x30)
  1a:	1549                	.insn	2, 0x1549
  1c:	0111                	.insn	2, 0x0111
  1e:	0f12                	.insn	2, 0x0f12
  20:	0000                	.insn	2, 0x
  22:	00003b03          	.insn	4, 0x3b03
	...

Disassembly of section .debug_aranges:

00000000 <.debug_aranges>:
   0:	001c                	.insn	2, 0x001c
   2:	0000                	.insn	2, 0x
   4:	0002                	.insn	2, 0x0002
   6:	0000                	.insn	2, 0x
   8:	0000                	.insn	2, 0x
   a:	0004                	.insn	2, 0x0004
   c:	0000                	.insn	2, 0x
   e:	0000                	.insn	2, 0x
  10:	0bc0                	.insn	2, 0x0bc0
  12:	8000                	.insn	2, 0x8000
  14:	0024                	.insn	2, 0x0024
	...

Disassembly of section .debug_str:

00000000 <.debug_str>:
   0:	2e2e                	.insn	2, 0x2e2e
   2:	2f2e2e2f          	.insn	4, 0x2f2e2e2f
   6:	2e2e                	.insn	2, 0x2e2e
   8:	2f2e2e2f          	.insn	4, 0x2f2e2e2f
   c:	2e2e                	.insn	2, 0x2e2e
   e:	672f2e2f          	.insn	4, 0x672f2e2f
  12:	6c2f6363          	bltu	x30,x2,6d8 <_heap_size+0x6d8>
  16:	6269                	.insn	2, 0x6269
  18:	2f636367          	.insn	4, 0x2f636367
  1c:	666e6f63          	bltu	x28,x6,69a <_heap_size+0x69a>
  20:	6769                	.insn	2, 0x6769
  22:	7369722f          	.insn	4, 0x7369722f
  26:	6d2f7663          	bgeu	x30,x18,6f2 <_heap_size+0x6f2>
  2a:	6c75                	.insn	2, 0x6c75
  2c:	6964                	.insn	2, 0x6964
  2e:	00532e33          	slt	x28,x6,x5
  32:	6d6f682f          	.insn	4, 0x6d6f682f
  36:	2f65                	.insn	2, 0x2f65
  38:	6c6c6173          	.insn	4, 0x6c6c6173
  3c:	7261                	.insn	2, 0x7261
  3e:	6f6f742f          	.insn	4, 0x6f6f742f
  42:	736c                	.insn	2, 0x736c
  44:	7369722f          	.insn	4, 0x7369722f
  48:	672d7663          	bgeu	x26,x18,6b4 <_heap_size+0x6b4>
  4c:	756e                	.insn	2, 0x756e
  4e:	742d                	.insn	2, 0x742d
  50:	636c6f6f          	jal	x30,c6686 <_stack_size+0xc5686>
  54:	6168                	.insn	2, 0x6168
  56:	6e69                	.insn	2, 0x6e69
  58:	6975622f          	.insn	4, 0x6975622f
  5c:	646c                	.insn	2, 0x646c
  5e:	672d                	.insn	2, 0x672d
  60:	6e2d6363          	bltu	x26,x2,746 <_heap_size+0x746>
  64:	7765                	.insn	2, 0x7765
  66:	696c                	.insn	2, 0x696c
  68:	2d62                	.insn	2, 0x2d62
  6a:	67617473          	.insn	4, 0x67617473
  6e:	3265                	.insn	2, 0x3265
  70:	7369722f          	.insn	4, 0x7369722f
  74:	34367663          	bgeu	x12,x3,3c0 <_heap_size+0x3c0>
  78:	752d                	.insn	2, 0x752d
  7a:	6b6e                	.insn	2, 0x6b6e
  7c:	6f6e                	.insn	2, 0x6f6e
  7e:	652d6e77          	.insn	4, 0x652d6e77
  82:	666c                	.insn	2, 0x666c
  84:	3376722f          	.insn	4, 0x3376722f
  88:	6932                	.insn	2, 0x6932
  8a:	706c692f          	.insn	4, 0x706c692f
  8e:	6c2f3233          	.insn	4, 0x6c2f3233
  92:	6269                	.insn	2, 0x6269
  94:	00636367          	.insn	4, 0x00636367
  98:	20554e47          	.insn	4, 0x20554e47
  9c:	5341                	.insn	2, 0x5341
  9e:	3220                	.insn	2, 0x3220
  a0:	342e                	.insn	2, 0x342e
  a2:	0032                	.insn	2, 0x0032
  a4:	5f5f 756d 736c      	.insn	6, 0x736c756d5f5f
  aa:	3369                	.insn	2, 0x3369
	...
