
bd/src/slre/slre:     Dateiformat elf32-littleriscv


Disassembly of section .text:

80000000 <initSection>:
80000000:	000070b3          	and	x1,x0,x0
80000004:	00007133          	and	x2,x0,x0
80000008:	000071b3          	and	x3,x0,x0
8000000c:	00007233          	and	x4,x0,x0
80000010:	000072b3          	and	x5,x0,x0
80000014:	00007333          	and	x6,x0,x0
80000018:	000073b3          	and	x7,x0,x0
8000001c:	00007433          	and	x8,x0,x0
80000020:	000074b3          	and	x9,x0,x0
80000024:	00007533          	and	x10,x0,x0
80000028:	000075b3          	and	x11,x0,x0
8000002c:	00007633          	and	x12,x0,x0
80000030:	000076b3          	and	x13,x0,x0
80000034:	00007733          	and	x14,x0,x0
80000038:	000077b3          	and	x15,x0,x0
8000003c:	00007833          	and	x16,x0,x0
80000040:	000078b3          	and	x17,x0,x0
80000044:	00007933          	and	x18,x0,x0
80000048:	000079b3          	and	x19,x0,x0
8000004c:	00007a33          	and	x20,x0,x0
80000050:	00007ab3          	and	x21,x0,x0
80000054:	00007b33          	and	x22,x0,x0
80000058:	00007bb3          	and	x23,x0,x0
8000005c:	00007c33          	and	x24,x0,x0
80000060:	00007cb3          	and	x25,x0,x0
80000064:	00007d33          	and	x26,x0,x0
80000068:	00007db3          	and	x27,x0,x0
8000006c:	00007e33          	and	x28,x0,x0
80000070:	00007eb3          	and	x29,x0,x0
80000074:	00007f33          	and	x30,x0,x0
80000078:	00007fb3          	and	x31,x0,x0
8000007c:	00101117          	auipc	x2,0x101
80000080:	fc410113          	addi	x2,x2,-60 # 80101040 <stack_end>
80000084:	020000ef          	jal	x1,800000a4 <main>

80000088 <sys_end>:
80000088:	05d00893          	addi	x17,x0,93
8000008c:	00000513          	addi	x10,x0,0
80000090:	020102b7          	lui	x5,0x2010
80000094:	f1402873          	csrrs	x16,mhartid,x0
80000098:	0102a023          	sw	x16,0(x5) # 2010000 <SYSCALL_ADDR>
8000009c:	0112a023          	sw	x17,0(x5)
800000a0:	fe9ff06f          	jal	x0,80000088 <sys_end>

800000a4 <main>:
800000a4:	fe010113          	addi	x2,x2,-32
800000a8:	00112e23          	sw	x1,28(x2)
800000ac:	5cd000ef          	jal	x1,80000e78 <initialise_board>
800000b0:	5ad000ef          	jal	x1,80000e5c <initialise_benchmark>
800000b4:	00100513          	addi	x10,x0,1
800000b8:	5a9000ef          	jal	x1,80000e60 <warm_caches>
800000bc:	5c5000ef          	jal	x1,80000e80 <start_trigger>
800000c0:	5a5000ef          	jal	x1,80000e64 <benchmark>
800000c4:	00a12623          	sw	x10,12(x2)
800000c8:	5c9000ef          	jal	x1,80000e90 <stop_trigger>
800000cc:	00c12503          	lw	x10,12(x2)
800000d0:	59d000ef          	jal	x1,80000e6c <verify_benchmark>
800000d4:	01c12083          	lw	x1,28(x2)
800000d8:	00153513          	sltiu	x10,x10,1
800000dc:	02010113          	addi	x2,x2,32
800000e0:	00008067          	jalr	x0,0(x1)

800000e4 <op_len>:
800000e4:	00054703          	lbu	x14,0(x10)
800000e8:	05c00793          	addi	x15,x0,92
800000ec:	00f71e63          	bne	x14,x15,80000108 <op_len+0x24>
800000f0:	00154703          	lbu	x14,1(x10)
800000f4:	07800793          	addi	x15,x0,120
800000f8:	00200513          	addi	x10,x0,2
800000fc:	00f71863          	bne	x14,x15,8000010c <op_len+0x28>
80000100:	00400513          	addi	x10,x0,4
80000104:	00008067          	jalr	x0,0(x1)
80000108:	00100513          	addi	x10,x0,1
8000010c:	00008067          	jalr	x0,0(x1)

80000110 <get_op_len>:
80000110:	00054703          	lbu	x14,0(x10)
80000114:	05b00793          	addi	x15,x0,91
80000118:	06f71e63          	bne	x14,x15,80000194 <get_op_len+0x84>
8000011c:	fe010113          	addi	x2,x2,-32
80000120:	00812c23          	sw	x8,24(x2)
80000124:	00912a23          	sw	x9,20(x2)
80000128:	01212823          	sw	x18,16(x2)
8000012c:	01312623          	sw	x19,12(x2)
80000130:	00112e23          	sw	x1,28(x2)
80000134:	00050913          	addi	x18,x10,0
80000138:	fff58493          	addi	x9,x11,-1
8000013c:	00000413          	addi	x8,x0,0
80000140:	05d00993          	addi	x19,x0,93
80000144:	02944c63          	blt	x8,x9,8000017c <get_op_len+0x6c>
80000148:	0484d263          	bge	x9,x8,8000018c <get_op_len+0x7c>
8000014c:	fff00413          	addi	x8,x0,-1
80000150:	01c12083          	lw	x1,28(x2)
80000154:	00140513          	addi	x10,x8,1
80000158:	01812403          	lw	x8,24(x2)
8000015c:	01412483          	lw	x9,20(x2)
80000160:	01012903          	lw	x18,16(x2)
80000164:	00c12983          	lw	x19,12(x2)
80000168:	02010113          	addi	x2,x2,32
8000016c:	00008067          	jalr	x0,0(x1)
80000170:	f75ff0ef          	jal	x1,800000e4 <op_len>
80000174:	00a40433          	add	x8,x8,x10
80000178:	fcdff06f          	jal	x0,80000144 <get_op_len+0x34>
8000017c:	00140513          	addi	x10,x8,1
80000180:	00a90533          	add	x10,x18,x10
80000184:	00054783          	lbu	x15,0(x10)
80000188:	ff3794e3          	bne	x15,x19,80000170 <get_op_len+0x60>
8000018c:	00140413          	addi	x8,x8,1
80000190:	fc1ff06f          	jal	x0,80000150 <get_op_len+0x40>
80000194:	f51ff06f          	jal	x0,800000e4 <op_len>

80000198 <match_op>:
80000198:	00054783          	lbu	x15,0(x10)
8000019c:	05c00713          	addi	x14,x0,92
800001a0:	08e78663          	beq	x15,x14,8000022c <match_op+0x94>
800001a4:	06f76e63          	bltu	x14,x15,80000220 <match_op+0x88>
800001a8:	02400713          	addi	x14,x0,36
800001ac:	fff00513          	addi	x10,x0,-1
800001b0:	16e78e63          	beq	x15,x14,8000032c <match_op+0x194>
800001b4:	02e00713          	addi	x14,x0,46
800001b8:	00100513          	addi	x10,x0,1
800001bc:	16e78863          	beq	x15,x14,8000032c <match_op+0x194>
800001c0:	000016b7          	lui	x13,0x1
800001c4:	00d60633          	add	x12,x12,x13
800001c8:	97062683          	lw	x13,-1680(x12)
800001cc:	0005c703          	lbu	x14,0(x11)
800001d0:	0016f693          	andi	x13,x13,1
800001d4:	04068063          	beq	x13,x0,80000214 <match_op+0x7c>
800001d8:	801016b7          	lui	x13,0x80101
800001dc:	08168613          	addi	x12,x13,129 # 80101081 <_ctype_+0x1>
800001e0:	00f60633          	add	x12,x12,x15
800001e4:	00064603          	lbu	x12,0(x12)
800001e8:	00100593          	addi	x11,x0,1
800001ec:	08168693          	addi	x13,x13,129
800001f0:	00367613          	andi	x12,x12,3
800001f4:	00b61463          	bne	x12,x11,800001fc <match_op+0x64>
800001f8:	02078793          	addi	x15,x15,32
800001fc:	00e686b3          	add	x13,x13,x14
80000200:	0006c683          	lbu	x13,0(x13)
80000204:	00100613          	addi	x12,x0,1
80000208:	0036f693          	andi	x13,x13,3
8000020c:	00c69463          	bne	x13,x12,80000214 <match_op+0x7c>
80000210:	02070713          	addi	x14,x14,32
80000214:	fff00513          	addi	x10,x0,-1
80000218:	0ee78863          	beq	x15,x14,80000308 <match_op+0x170>
8000021c:	00008067          	jalr	x0,0(x1)
80000220:	07c00713          	addi	x14,x0,124
80000224:	ffc00513          	addi	x10,x0,-4
80000228:	f95ff06f          	jal	x0,800001bc <match_op+0x24>
8000022c:	00154783          	lbu	x15,1(x10)
80000230:	07300713          	addi	x14,x0,115
80000234:	0005c603          	lbu	x12,0(x11)
80000238:	0ce78c63          	beq	x15,x14,80000310 <match_op+0x178>
8000023c:	02f76063          	bltu	x14,x15,8000025c <match_op+0xc4>
80000240:	05300713          	addi	x14,x0,83
80000244:	0ae78463          	beq	x15,x14,800002ec <match_op+0x154>
80000248:	06400713          	addi	x14,x0,100
8000024c:	0ee78263          	beq	x15,x14,80000330 <match_op+0x198>
80000250:	fff00513          	addi	x10,x0,-1
80000254:	0ac78a63          	beq	x15,x12,80000308 <match_op+0x170>
80000258:	00008067          	jalr	x0,0(x1)
8000025c:	07800713          	addi	x14,x0,120
80000260:	fee798e3          	bne	x15,x14,80000250 <match_op+0xb8>
80000264:	00254683          	lbu	x13,2(x10)
80000268:	801017b7          	lui	x15,0x80101
8000026c:	08178713          	addi	x14,x15,129 # 80101081 <_ctype_+0x1>
80000270:	00e68733          	add	x14,x13,x14
80000274:	00074703          	lbu	x14,0(x14)
80000278:	00100593          	addi	x11,x0,1
8000027c:	08178793          	addi	x15,x15,129
80000280:	00377713          	andi	x14,x14,3
80000284:	00b71463          	bne	x14,x11,8000028c <match_op+0xf4>
80000288:	02068693          	addi	x13,x13,32
8000028c:	00d78733          	add	x14,x15,x13
80000290:	00074583          	lbu	x11,0(x14)
80000294:	fa968713          	addi	x14,x13,-87
80000298:	0045f593          	andi	x11,x11,4
8000029c:	00058463          	beq	x11,x0,800002a4 <match_op+0x10c>
800002a0:	fd068713          	addi	x14,x13,-48
800002a4:	00354683          	lbu	x13,3(x10)
800002a8:	00100513          	addi	x10,x0,1
800002ac:	00471713          	slli	x14,x14,0x4
800002b0:	00d785b3          	add	x11,x15,x13
800002b4:	0005c583          	lbu	x11,0(x11)
800002b8:	0035f593          	andi	x11,x11,3
800002bc:	00a59463          	bne	x11,x10,800002c4 <match_op+0x12c>
800002c0:	02068693          	addi	x13,x13,32
800002c4:	00d787b3          	add	x15,x15,x13
800002c8:	0007c783          	lbu	x15,0(x15)
800002cc:	fa968593          	addi	x11,x13,-87
800002d0:	0047f793          	andi	x15,x15,4
800002d4:	00078463          	beq	x15,x0,800002dc <match_op+0x144>
800002d8:	fd068593          	addi	x11,x13,-48
800002dc:	00b76733          	or	x14,x14,x11
800002e0:	fff00513          	addi	x10,x0,-1
800002e4:	02e60263          	beq	x12,x14,80000308 <match_op+0x170>
800002e8:	00008067          	jalr	x0,0(x1)
800002ec:	801017b7          	lui	x15,0x80101
800002f0:	08178793          	addi	x15,x15,129 # 80101081 <_ctype_+0x1>
800002f4:	00f607b3          	add	x15,x12,x15
800002f8:	0007c783          	lbu	x15,0(x15)
800002fc:	fff00513          	addi	x10,x0,-1
80000300:	0087f793          	andi	x15,x15,8
80000304:	02079463          	bne	x15,x0,8000032c <match_op+0x194>
80000308:	00100513          	addi	x10,x0,1
8000030c:	00008067          	jalr	x0,0(x1)
80000310:	801017b7          	lui	x15,0x80101
80000314:	08178793          	addi	x15,x15,129 # 80101081 <_ctype_+0x1>
80000318:	00f607b3          	add	x15,x12,x15
8000031c:	0007c783          	lbu	x15,0(x15)
80000320:	0087f793          	andi	x15,x15,8
80000324:	fff00513          	addi	x10,x0,-1
80000328:	fe0790e3          	bne	x15,x0,80000308 <match_op+0x170>
8000032c:	00008067          	jalr	x0,0(x1)
80000330:	801017b7          	lui	x15,0x80101
80000334:	08178793          	addi	x15,x15,129 # 80101081 <_ctype_+0x1>
80000338:	00f607b3          	add	x15,x12,x15
8000033c:	0007c783          	lbu	x15,0(x15)
80000340:	0047f793          	andi	x15,x15,4
80000344:	fe1ff06f          	jal	x0,80000324 <match_op+0x18c>

80000348 <bar>:
80000348:	fa010113          	addi	x2,x2,-96
8000034c:	04812c23          	sw	x8,88(x2)
80000350:	04912a23          	sw	x9,84(x2)
80000354:	05212823          	sw	x18,80(x2)
80000358:	05312623          	sw	x19,76(x2)
8000035c:	05412423          	sw	x20,72(x2)
80000360:	05512223          	sw	x21,68(x2)
80000364:	05612023          	sw	x22,64(x2)
80000368:	04112e23          	sw	x1,92(x2)
8000036c:	03712e23          	sw	x23,60(x2)
80000370:	03812c23          	sw	x24,56(x2)
80000374:	03912a23          	sw	x25,52(x2)
80000378:	03a12823          	sw	x26,48(x2)
8000037c:	03b12623          	sw	x27,44(x2)
80000380:	00050b13          	addi	x22,x10,0
80000384:	00058493          	addi	x9,x11,0
80000388:	00060a93          	addi	x21,x12,0
8000038c:	00068993          	addi	x19,x13,0
80000390:	00e12423          	sw	x14,8(x2)
80000394:	00078913          	addi	x18,x15,0
80000398:	00000413          	addi	x8,x0,0
8000039c:	00000a13          	addi	x20,x0,0
800003a0:	009a5463          	bge	x20,x9,800003a8 <bar+0x60>
800003a4:	0089d663          	bge	x19,x8,800003b0 <bar+0x68>
800003a8:	00040d93          	addi	x27,x8,0
800003ac:	1d00006f          	jal	x0,8000057c <bar+0x234>
800003b0:	014b07b3          	add	x15,x22,x20
800003b4:	0007cd03          	lbu	x26,0(x15)
800003b8:	00f12823          	sw	x15,16(x2)
800003bc:	02800793          	addi	x15,x0,40
800003c0:	08fd1463          	bne	x26,x15,80000448 <bar+0x100>
800003c4:	00812703          	lw	x14,8(x2)
800003c8:	00190793          	addi	x15,x18,1
800003cc:	00479793          	slli	x15,x15,0x4
800003d0:	00f707b3          	add	x15,x14,x15
800003d4:	0047a783          	lw	x15,4(x15)
800003d8:	00278793          	addi	x15,x15,2
800003dc:	00f12623          	sw	x15,12(x2)
800003e0:	00c12783          	lw	x15,12(x2)
800003e4:	46f05063          	bge	x0,x15,80000844 <bar+0x4fc>
800003e8:	00fa0bb3          	add	x23,x20,x15
800003ec:	1e9bd463          	bge	x23,x9,800005d4 <bar+0x28c>
800003f0:	017b0cb3          	add	x25,x22,x23
800003f4:	000cc703          	lbu	x14,0(x25)
800003f8:	00100693          	addi	x13,x0,1
800003fc:	fd670793          	addi	x15,x14,-42
80000400:	0ff7f793          	andi	x15,x15,255
80000404:	06f6fa63          	bgeu	x13,x15,80000478 <bar+0x130>
80000408:	03f00793          	addi	x15,x0,63
8000040c:	1cf71463          	bne	x14,x15,800005d4 <bar+0x28c>
80000410:	00812703          	lw	x14,8(x2)
80000414:	00c12583          	lw	x11,12(x2)
80000418:	01012503          	lw	x10,16(x2)
8000041c:	00090793          	addi	x15,x18,0
80000420:	408986b3          	sub	x13,x19,x8
80000424:	008a8633          	add	x12,x21,x8
80000428:	f21ff0ef          	jal	x1,80000348 <bar>
8000042c:	00055463          	bge	x10,x0,80000434 <bar+0xec>
80000430:	00000513          	addi	x10,x0,0
80000434:	00a40433          	add	x8,x8,x10
80000438:	001a0a13          	addi	x20,x20,1
8000043c:	00c12783          	lw	x15,12(x2)
80000440:	00fa0a33          	add	x20,x20,x15
80000444:	f5dff06f          	jal	x0,800003a0 <bar+0x58>
80000448:	414485b3          	sub	x11,x9,x20
8000044c:	014b0533          	add	x10,x22,x20
80000450:	cc1ff0ef          	jal	x1,80000110 <get_op_len>
80000454:	fd6d0793          	addi	x15,x26,-42
80000458:	00a12623          	sw	x10,12(x2)
8000045c:	0ff7f793          	andi	x15,x15,255
80000460:	00100713          	addi	x14,x0,1
80000464:	00f77663          	bgeu	x14,x15,80000470 <bar+0x128>
80000468:	03f00793          	addi	x15,x0,63
8000046c:	f6fd1ae3          	bne	x26,x15,800003e0 <bar+0x98>
80000470:	ffe00d93          	addi	x27,x0,-2
80000474:	1080006f          	jal	x0,8000057c <bar+0x234>
80000478:	001b8c13          	addi	x24,x23,1
8000047c:	00000a13          	addi	x20,x0,0
80000480:	009c5e63          	bge	x24,x9,8000049c <bar+0x154>
80000484:	018b07b3          	add	x15,x22,x24
80000488:	0007c703          	lbu	x14,0(x15)
8000048c:	03f00793          	addi	x15,x0,63
80000490:	00f71663          	bne	x14,x15,8000049c <bar+0x154>
80000494:	002b8c13          	addi	x24,x23,2
80000498:	00100a13          	addi	x20,x0,1
8000049c:	418487b3          	sub	x15,x9,x24
800004a0:	00f12a23          	sw	x15,20(x2)
800004a4:	018b07b3          	add	x15,x22,x24
800004a8:	00040d93          	addi	x27,x8,0
800004ac:	00040b93          	addi	x23,x8,0
800004b0:	fff00d13          	addi	x26,x0,-1
800004b4:	00f12c23          	sw	x15,24(x2)
800004b8:	00812703          	lw	x14,8(x2)
800004bc:	00c12583          	lw	x11,12(x2)
800004c0:	01012503          	lw	x10,16(x2)
800004c4:	00090793          	addi	x15,x18,0
800004c8:	417986b3          	sub	x13,x19,x23
800004cc:	017a8633          	add	x12,x21,x23
800004d0:	e79ff0ef          	jal	x1,80000348 <bar>
800004d4:	00050f13          	addi	x30,x10,0
800004d8:	00a05463          	bge	x0,x10,800004e0 <bar+0x198>
800004dc:	00ab8bb3          	add	x23,x23,x10
800004e0:	000cc783          	lbu	x15,0(x25)
800004e4:	02b00713          	addi	x14,x0,43
800004e8:	00e79463          	bne	x15,x14,800004f0 <bar+0x1a8>
800004ec:	040f4463          	blt	x30,x0,80000534 <bar+0x1ec>
800004f0:	0c9c5663          	bge	x24,x9,800005bc <bar+0x274>
800004f4:	00812703          	lw	x14,8(x2)
800004f8:	01412583          	lw	x11,20(x2)
800004fc:	01812503          	lw	x10,24(x2)
80000500:	00090793          	addi	x15,x18,0
80000504:	417986b3          	sub	x13,x19,x23
80000508:	017a8633          	add	x12,x21,x23
8000050c:	01e12e23          	sw	x30,28(x2)
80000510:	e39ff0ef          	jal	x1,80000348 <bar>
80000514:	01c12f03          	lw	x30,28(x2)
80000518:	00050d13          	addi	x26,x10,0
8000051c:	00054463          	blt	x10,x0,80000524 <bar+0x1dc>
80000520:	00ab8db3          	add	x27,x23,x10
80000524:	01b45463          	bge	x8,x27,8000052c <bar+0x1e4>
80000528:	000a1463          	bne	x20,x0,80000530 <bar+0x1e8>
8000052c:	f9e046e3          	blt	x0,x30,800004b8 <bar+0x170>
80000530:	020f5c63          	bge	x30,x0,80000568 <bar+0x220>
80000534:	000cc703          	lbu	x14,0(x25)
80000538:	02a00793          	addi	x15,x0,42
8000053c:	02f71663          	bne	x14,x15,80000568 <bar+0x220>
80000540:	00812703          	lw	x14,8(x2)
80000544:	00090793          	addi	x15,x18,0
80000548:	408986b3          	sub	x13,x19,x8
8000054c:	008a8633          	add	x12,x21,x8
80000550:	418485b3          	sub	x11,x9,x24
80000554:	018b0533          	add	x10,x22,x24
80000558:	df1ff0ef          	jal	x1,80000348 <bar>
8000055c:	00050d13          	addi	x26,x10,0
80000560:	00a05463          	bge	x0,x10,80000568 <bar+0x220>
80000564:	00a40db3          	add	x27,x8,x10
80000568:	000cc703          	lbu	x14,0(x25)
8000056c:	02b00793          	addi	x15,x0,43
80000570:	04f71a63          	bne	x14,x15,800005c4 <bar+0x27c>
80000574:	01b41463          	bne	x8,x27,8000057c <bar+0x234>
80000578:	fff00d93          	addi	x27,x0,-1
8000057c:	05c12083          	lw	x1,92(x2)
80000580:	05812403          	lw	x8,88(x2)
80000584:	05412483          	lw	x9,84(x2)
80000588:	05012903          	lw	x18,80(x2)
8000058c:	04c12983          	lw	x19,76(x2)
80000590:	04812a03          	lw	x20,72(x2)
80000594:	04412a83          	lw	x21,68(x2)
80000598:	04012b03          	lw	x22,64(x2)
8000059c:	03c12b83          	lw	x23,60(x2)
800005a0:	03812c03          	lw	x24,56(x2)
800005a4:	03412c83          	lw	x25,52(x2)
800005a8:	03012d03          	lw	x26,48(x2)
800005ac:	000d8513          	addi	x10,x27,0
800005b0:	02c12d83          	lw	x27,44(x2)
800005b4:	06010113          	addi	x2,x2,96
800005b8:	00008067          	jalr	x0,0(x1)
800005bc:	000b8d93          	addi	x27,x23,0
800005c0:	f65ff06f          	jal	x0,80000524 <bar+0x1dc>
800005c4:	fbb41ce3          	bne	x8,x27,8000057c <bar+0x234>
800005c8:	fa9c5ae3          	bge	x24,x9,8000057c <bar+0x234>
800005cc:	fa0d58e3          	bge	x26,x0,8000057c <bar+0x234>
800005d0:	fa9ff06f          	jal	x0,80000578 <bar+0x230>
800005d4:	05b00793          	addi	x15,x0,91
800005d8:	14fd1663          	bne	x26,x15,80000724 <bar+0x3dc>
800005dc:	001a0b93          	addi	x23,x20,1
800005e0:	017b0bb3          	add	x23,x22,x23
800005e4:	000bcd83          	lbu	x27,0(x23)
800005e8:	002a0c93          	addi	x25,x20,2
800005ec:	05e00793          	addi	x15,x0,94
800005f0:	41948cb3          	sub	x25,x9,x25
800005f4:	008a85b3          	add	x11,x21,x8
800005f8:	00fd9663          	bne	x27,x15,80000604 <bar+0x2bc>
800005fc:	001b8b93          	addi	x23,x23,1
80000600:	fffc8c93          	addi	x25,x25,-1
80000604:	fff00613          	addi	x12,x0,-1
80000608:	00000c13          	addi	x24,x0,0
8000060c:	0f00006f          	jal	x0,800006fc <bar+0x3b4>
80000610:	0d070263          	beq	x14,x16,800006d4 <bar+0x38c>
80000614:	001d4783          	lbu	x15,1(x26)
80000618:	0b079e63          	bne	x15,x16,800006d4 <bar+0x38c>
8000061c:	002d4503          	lbu	x10,2(x26)
80000620:	0ad50a63          	beq	x10,x13,800006d4 <bar+0x38c>
80000624:	0a050863          	beq	x10,x0,800006d4 <bar+0x38c>
80000628:	00812603          	lw	x12,8(x2)
8000062c:	000017b7          	lui	x15,0x1
80000630:	00f607b3          	add	x15,x12,x15
80000634:	9707a603          	lw	x12,-1680(x15) # 970 <_heap_size+0x970>
80000638:	0005c783          	lbu	x15,0(x11)
8000063c:	02060c63          	beq	x12,x0,80000674 <bar+0x32c>
80000640:	00000613          	addi	x12,x0,0
80000644:	00e7e663          	bltu	x15,x14,80000650 <bar+0x308>
80000648:	00f537b3          	sltu	x15,x10,x15
8000064c:	0017b613          	sltiu	x12,x15,1
80000650:	003c0c13          	addi	x24,x24,3
80000654:	0b8cca63          	blt	x25,x24,80000708 <bar+0x3c0>
80000658:	018b8d33          	add	x26,x23,x24
8000065c:	000d4703          	lbu	x14,0(x26)
80000660:	0ad70463          	beq	x14,x13,80000708 <bar+0x3c0>
80000664:	fac056e3          	bge	x0,x12,80000610 <bar+0x2c8>
80000668:	05e00793          	addi	x15,x0,94
8000066c:	0afd9463          	bne	x27,x15,80000714 <bar+0x3cc>
80000670:	f09ff06f          	jal	x0,80000578 <bar+0x230>
80000674:	80101337          	lui	x6,0x80101
80000678:	08130e13          	addi	x28,x6,129 # 80101081 <_ctype_+0x1>
8000067c:	00fe0e33          	add	x28,x28,x15
80000680:	000e4e03          	lbu	x28,0(x28)
80000684:	00100e93          	addi	x29,x0,1
80000688:	08130313          	addi	x6,x6,129
8000068c:	003e7e13          	andi	x28,x28,3
80000690:	01de1463          	bne	x28,x29,80000698 <bar+0x350>
80000694:	02078793          	addi	x15,x15,32
80000698:	00e30e33          	add	x28,x6,x14
8000069c:	000e4e03          	lbu	x28,0(x28)
800006a0:	00100e93          	addi	x29,x0,1
800006a4:	003e7e13          	andi	x28,x28,3
800006a8:	01de1463          	bne	x28,x29,800006b0 <bar+0x368>
800006ac:	02070713          	addi	x14,x14,32
800006b0:	fae7c0e3          	blt	x15,x14,80000650 <bar+0x308>
800006b4:	00a30733          	add	x14,x6,x10
800006b8:	00074703          	lbu	x14,0(x14)
800006bc:	00100613          	addi	x12,x0,1
800006c0:	00377713          	andi	x14,x14,3
800006c4:	00c71463          	bne	x14,x12,800006cc <bar+0x384>
800006c8:	02050513          	addi	x10,x10,32
800006cc:	00f527b3          	slt	x15,x10,x15
800006d0:	f7dff06f          	jal	x0,8000064c <bar+0x304>
800006d4:	00812603          	lw	x12,8(x2)
800006d8:	000d0513          	addi	x10,x26,0
800006dc:	00b12a23          	sw	x11,20(x2)
800006e0:	ab9ff0ef          	jal	x1,80000198 <match_op>
800006e4:	00a12823          	sw	x10,16(x2)
800006e8:	000d0513          	addi	x10,x26,0
800006ec:	9f9ff0ef          	jal	x1,800000e4 <op_len>
800006f0:	01012603          	lw	x12,16(x2)
800006f4:	01412583          	lw	x11,20(x2)
800006f8:	00ac0c33          	add	x24,x24,x10
800006fc:	05d00693          	addi	x13,x0,93
80000700:	02d00813          	addi	x16,x0,45
80000704:	f51ff06f          	jal	x0,80000654 <bar+0x30c>
80000708:	05e00793          	addi	x15,x0,94
8000070c:	00fd8863          	beq	x27,x15,8000071c <bar+0x3d4>
80000710:	e6c054e3          	bge	x0,x12,80000578 <bar+0x230>
80000714:	00140413          	addi	x8,x8,1
80000718:	d25ff06f          	jal	x0,8000043c <bar+0xf4>
8000071c:	fec05ce3          	bge	x0,x12,80000714 <bar+0x3cc>
80000720:	e59ff06f          	jal	x0,80000578 <bar+0x230>
80000724:	02800793          	addi	x15,x0,40
80000728:	0cfd1c63          	bne	x26,x15,80000800 <bar+0x4b8>
8000072c:	00812783          	lw	x15,8(x2)
80000730:	00190c13          	addi	x24,x18,1
80000734:	6407a783          	lw	x15,1600(x15)
80000738:	10fc5a63          	bge	x24,x15,8000084c <bar+0x504>
8000073c:	417487b3          	sub	x15,x9,x23
80000740:	00f12a23          	sw	x15,20(x2)
80000744:	008a87b3          	add	x15,x21,x8
80000748:	00f12823          	sw	x15,16(x2)
8000074c:	417487b3          	sub	x15,x9,x23
80000750:	40898d33          	sub	x26,x19,x8
80000754:	02f04263          	blt	x0,x15,80000778 <bar+0x430>
80000758:	00812603          	lw	x12,8(x2)
8000075c:	000c0693          	addi	x13,x24,0
80000760:	000d0593          	addi	x11,x26,0
80000764:	008a8533          	add	x10,x21,x8
80000768:	0ec000ef          	jal	x1,80000854 <doh>
8000076c:	00050d93          	addi	x27,x10,0
80000770:	040dde63          	bge	x27,x0,800007cc <bar+0x484>
80000774:	e09ff06f          	jal	x0,8000057c <bar+0x234>
80000778:	00000c93          	addi	x25,x0,0
8000077c:	017b0bb3          	add	x23,x22,x23
80000780:	00812603          	lw	x12,8(x2)
80000784:	01012503          	lw	x10,16(x2)
80000788:	000c0693          	addi	x13,x24,0
8000078c:	419d05b3          	sub	x11,x26,x25
80000790:	0c4000ef          	jal	x1,80000854 <doh>
80000794:	00050d93          	addi	x27,x10,0
80000798:	00055863          	bge	x10,x0,800007a8 <bar+0x460>
8000079c:	001c8c93          	addi	x25,x25,1
800007a0:	ff9d50e3          	bge	x26,x25,80000780 <bar+0x438>
800007a4:	fcdff06f          	jal	x0,80000770 <bar+0x428>
800007a8:	00812703          	lw	x14,8(x2)
800007ac:	01412583          	lw	x11,20(x2)
800007b0:	00a40633          	add	x12,x8,x10
800007b4:	40c986b3          	sub	x13,x19,x12
800007b8:	000c0793          	addi	x15,x24,0
800007bc:	00ca8633          	add	x12,x21,x12
800007c0:	000b8513          	addi	x10,x23,0
800007c4:	b85ff0ef          	jal	x1,80000348 <bar>
800007c8:	fc054ae3          	blt	x10,x0,8000079c <bar+0x454>
800007cc:	00812703          	lw	x14,8(x2)
800007d0:	000017b7          	lui	x15,0x1
800007d4:	00f707b3          	add	x15,x14,x15
800007d8:	9687a783          	lw	x15,-1688(x15) # 968 <_heap_size+0x968>
800007dc:	00078c63          	beq	x15,x0,800007f4 <bar+0x4ac>
800007e0:	00391913          	slli	x18,x18,0x3
800007e4:	01278933          	add	x18,x15,x18
800007e8:	01012783          	lw	x15,16(x2)
800007ec:	01b92223          	sw	x27,4(x18)
800007f0:	00f92023          	sw	x15,0(x18)
800007f4:	01b40433          	add	x8,x8,x27
800007f8:	000c0913          	addi	x18,x24,0
800007fc:	c41ff06f          	jal	x0,8000043c <bar+0xf4>
80000800:	05e00793          	addi	x15,x0,94
80000804:	00fd1663          	bne	x26,x15,80000810 <bar+0x4c8>
80000808:	c2040ae3          	beq	x8,x0,8000043c <bar+0xf4>
8000080c:	d6dff06f          	jal	x0,80000578 <bar+0x230>
80000810:	02400793          	addi	x15,x0,36
80000814:	00fd1663          	bne	x26,x15,80000820 <bar+0x4d8>
80000818:	c33402e3          	beq	x8,x19,8000043c <bar+0xf4>
8000081c:	d5dff06f          	jal	x0,80000578 <bar+0x230>
80000820:	d5340ce3          	beq	x8,x19,80000578 <bar+0x230>
80000824:	00812603          	lw	x12,8(x2)
80000828:	01012503          	lw	x10,16(x2)
8000082c:	008a85b3          	add	x11,x21,x8
80000830:	969ff0ef          	jal	x1,80000198 <match_op>
80000834:	00050d93          	addi	x27,x10,0
80000838:	d4a052e3          	bge	x0,x10,8000057c <bar+0x234>
8000083c:	00a40433          	add	x8,x8,x10
80000840:	bfdff06f          	jal	x0,8000043c <bar+0xf4>
80000844:	ffb00d93          	addi	x27,x0,-5
80000848:	d35ff06f          	jal	x0,8000057c <bar+0x234>
8000084c:	ffc00d93          	addi	x27,x0,-4
80000850:	d2dff06f          	jal	x0,8000057c <bar+0x234>

80000854 <doh>:
80000854:	fe010113          	addi	x2,x2,-32
80000858:	00812c23          	sw	x8,24(x2)
8000085c:	00469413          	slli	x8,x13,0x4
80000860:	00860433          	add	x8,x12,x8
80000864:	00912a23          	sw	x9,20(x2)
80000868:	00050493          	addi	x9,x10,0
8000086c:	00042503          	lw	x10,0(x8)
80000870:	01212823          	sw	x18,16(x2)
80000874:	01312623          	sw	x19,12(x2)
80000878:	01412423          	sw	x20,8(x2)
8000087c:	01512223          	sw	x21,4(x2)
80000880:	00112e23          	sw	x1,28(x2)
80000884:	00058913          	addi	x18,x11,0
80000888:	00060993          	addi	x19,x12,0
8000088c:	00068a93          	addi	x21,x13,0
80000890:	00000a13          	addi	x20,x0,0
80000894:	00c42783          	lw	x15,12(x8)
80000898:	04079863          	bne	x15,x0,800008e8 <doh+0x94>
8000089c:	00442583          	lw	x11,4(x8)
800008a0:	000a8793          	addi	x15,x21,0
800008a4:	00098713          	addi	x14,x19,0
800008a8:	00090693          	addi	x13,x18,0
800008ac:	00048613          	addi	x12,x9,0
800008b0:	a99ff0ef          	jal	x1,80000348 <bar>
800008b4:	06a04463          	blt	x0,x10,8000091c <doh+0xc8>
800008b8:	00c42703          	lw	x14,12(x8)
800008bc:	001a0793          	addi	x15,x20,1
800008c0:	04ea5e63          	bge	x20,x14,8000091c <doh+0xc8>
800008c4:	00842803          	lw	x16,8(x8)
800008c8:	00078a13          	addi	x20,x15,0
800008cc:	01078833          	add	x16,x15,x16
800008d0:	0c780813          	addi	x16,x16,199
800008d4:	00381813          	slli	x16,x16,0x3
800008d8:	01098833          	add	x16,x19,x16
800008dc:	00882503          	lw	x10,8(x16)
800008e0:	00150513          	addi	x10,x10,1
800008e4:	fb1ff06f          	jal	x0,80000894 <doh+0x40>
800008e8:	01479c63          	bne	x15,x20,80000900 <doh+0xac>
800008ec:	00042803          	lw	x16,0(x8)
800008f0:	00442783          	lw	x15,4(x8)
800008f4:	00f80833          	add	x16,x16,x15
800008f8:	40a805b3          	sub	x11,x16,x10
800008fc:	fa5ff06f          	jal	x0,800008a0 <doh+0x4c>
80000900:	00842583          	lw	x11,8(x8)
80000904:	00ba05b3          	add	x11,x20,x11
80000908:	0c858593          	addi	x11,x11,200
8000090c:	00359593          	slli	x11,x11,0x3
80000910:	00b985b3          	add	x11,x19,x11
80000914:	0085a803          	lw	x16,8(x11)
80000918:	fe1ff06f          	jal	x0,800008f8 <doh+0xa4>
8000091c:	01c12083          	lw	x1,28(x2)
80000920:	01812403          	lw	x8,24(x2)
80000924:	01412483          	lw	x9,20(x2)
80000928:	01012903          	lw	x18,16(x2)
8000092c:	00c12983          	lw	x19,12(x2)
80000930:	00812a03          	lw	x20,8(x2)
80000934:	00412a83          	lw	x21,4(x2)
80000938:	02010113          	addi	x2,x2,32
8000093c:	00008067          	jalr	x0,0(x1)

80000940 <slre_match>:
80000940:	81010113          	addi	x2,x2,-2032
80000944:	7e812423          	sw	x8,2024(x2)
80000948:	7e912223          	sw	x9,2020(x2)
8000094c:	7f212023          	sw	x18,2016(x2)
80000950:	7d312e23          	sw	x19,2012(x2)
80000954:	7e112623          	sw	x1,2028(x2)
80000958:	7d412c23          	sw	x20,2008(x2)
8000095c:	7d512a23          	sw	x21,2004(x2)
80000960:	7d612823          	sw	x22,2000(x2)
80000964:	7d712623          	sw	x23,1996(x2)
80000968:	7d812423          	sw	x24,1992(x2)
8000096c:	7d912223          	sw	x25,1988(x2)
80000970:	7da12023          	sw	x26,1984(x2)
80000974:	7bb12e23          	sw	x27,1980(x2)
80000978:	00001437          	lui	x8,0x1
8000097c:	e2010113          	addi	x2,x2,-480
80000980:	00070913          	addi	x18,x14,0
80000984:	97040793          	addi	x15,x8,-1680 # 970 <_heap_size+0x970>
80000988:	01010713          	addi	x14,x2,16
8000098c:	00e787b3          	add	x15,x15,x14
80000990:	0007a023          	sw	x0,0(x15)
80000994:	97c40793          	addi	x15,x8,-1668
80000998:	00e787b3          	add	x15,x15,x14
8000099c:	0007a023          	sw	x0,0(x15)
800009a0:	97840793          	addi	x15,x8,-1672
800009a4:	00e787b3          	add	x15,x15,x14
800009a8:	0127a023          	sw	x18,0(x15)
800009ac:	00b12423          	sw	x11,8(x2)
800009b0:	97440793          	addi	x15,x8,-1676
800009b4:	801015b7          	lui	x11,0x80101
800009b8:	00060993          	addi	x19,x12,0
800009bc:	00e787b3          	add	x15,x15,x14
800009c0:	00400613          	addi	x12,x0,4
800009c4:	04058593          	addi	x11,x11,64 # 80101040 <stack_end>
800009c8:	00050493          	addi	x9,x10,0
800009cc:	00d7a023          	sw	x13,0(x15)
800009d0:	4cc000ef          	jal	x1,80000e9c <memcmp>
800009d4:	00051e63          	bne	x10,x0,800009f0 <slre_match+0xb0>
800009d8:	97c40713          	addi	x14,x8,-1668
800009dc:	01010693          	addi	x13,x2,16
800009e0:	00100793          	addi	x15,x0,1
800009e4:	00d70733          	add	x14,x14,x13
800009e8:	00f72023          	sw	x15,0(x14)
800009ec:	00448493          	addi	x9,x9,4
800009f0:	00048513          	addi	x10,x9,0
800009f4:	664000ef          	jal	x1,80001058 <strlen>
800009f8:	00001737          	lui	x14,0x1
800009fc:	fffff7b7          	lui	x15,0xfffff
80000a00:	98070713          	addi	x14,x14,-1664 # 980 <_heap_size+0x980>
80000a04:	00f70733          	add	x14,x14,x15
80000a08:	01010793          	addi	x15,x2,16
80000a0c:	00f707b3          	add	x15,x14,x15
80000a10:	00f12223          	sw	x15,4(x2)
80000a14:	6897a623          	sw	x9,1676(x15) # fffff68c <_end+0x7fefd4fc>
80000a18:	68a7a823          	sw	x10,1680(x15)
80000a1c:	80101a37          	lui	x20,0x80101
80000a20:	00100793          	addi	x15,x0,1
80000a24:	00050a93          	addi	x21,x10,0
80000a28:	64f12e23          	sw	x15,1628(x2)
80000a2c:	00000413          	addi	x8,x0,0
80000a30:	00000d13          	addi	x26,x0,0
80000a34:	07c00b13          	addi	x22,x0,124
80000a38:	fff50b93          	addi	x23,x10,-1
80000a3c:	80101c37          	lui	x24,0x80101
80000a40:	ffd50c93          	addi	x25,x10,-3
80000a44:	081a0a13          	addi	x20,x20,129 # 80101081 <_ctype_+0x1>
80000a48:	0d5d4a63          	blt	x26,x21,80000b1c <slre_match+0x1dc>
80000a4c:	26041263          	bne	x8,x0,80000cb0 <slre_match+0x370>
80000a50:	00001737          	lui	x14,0x1
80000a54:	97070793          	addi	x15,x14,-1680 # 970 <_heap_size+0x970>
80000a58:	01010693          	addi	x13,x2,16
80000a5c:	00d787b3          	add	x15,x15,x13
80000a60:	0007a583          	lw	x11,0(x15)
80000a64:	fffff7b7          	lui	x15,0xfffff
80000a68:	68c78793          	addi	x15,x15,1676 # fffff68c <_end+0x7fefd4fc>
80000a6c:	98070713          	addi	x14,x14,-1664
80000a70:	00f70733          	add	x14,x14,x15
80000a74:	00d707b3          	add	x15,x14,x13
80000a78:	00078713          	addi	x14,x15,0
80000a7c:	00000613          	addi	x12,x0,0
80000a80:	28b64663          	blt	x12,x11,80000d0c <slre_match+0x3cc>
80000a84:	fffff6b7          	lui	x13,0xfffff
80000a88:	00001537          	lui	x10,0x1
80000a8c:	68c68693          	addi	x13,x13,1676 # fffff68c <_end+0x7fefd4fc>
80000a90:	98050513          	addi	x10,x10,-1664 # 980 <_heap_size+0x980>
80000a94:	65c12803          	lw	x16,1628(x2)
80000a98:	00d50533          	add	x10,x10,x13
80000a9c:	01010693          	addi	x13,x2,16
80000aa0:	00000713          	addi	x14,x0,0
80000aa4:	00000613          	addi	x12,x0,0
80000aa8:	00d506b3          	add	x13,x10,x13
80000aac:	2b064463          	blt	x12,x16,80000d54 <slre_match+0x414>
80000ab0:	000016b7          	lui	x13,0x1
80000ab4:	fffff7b7          	lui	x15,0xfffff
80000ab8:	98068713          	addi	x14,x13,-1664 # 980 <_heap_size+0x980>
80000abc:	00f70733          	add	x14,x14,x15
80000ac0:	01010793          	addi	x15,x2,16
80000ac4:	00f707b3          	add	x15,x14,x15
80000ac8:	00f12223          	sw	x15,4(x2)
80000acc:	68c7a783          	lw	x15,1676(x15) # fffff68c <_end+0x7fefd4fc>
80000ad0:	fffff637          	lui	x12,0xfffff
80000ad4:	68c60613          	addi	x12,x12,1676 # fffff68c <_end+0x7fefd4fc>
80000ad8:	0007c903          	lbu	x18,0(x15)
80000adc:	98068793          	addi	x15,x13,-1664
80000ae0:	00c787b3          	add	x15,x15,x12
80000ae4:	01010713          	addi	x14,x2,16
80000ae8:	fff00513          	addi	x10,x0,-1
80000aec:	00e784b3          	add	x9,x15,x14
80000af0:	05e00a13          	addi	x20,x0,94
80000af4:	1c89c063          	blt	x19,x8,80000cb4 <slre_match+0x374>
80000af8:	00812783          	lw	x15,8(x2)
80000afc:	00000693          	addi	x13,x0,0
80000b00:	00048613          	addi	x12,x9,0
80000b04:	408985b3          	sub	x11,x19,x8
80000b08:	00878533          	add	x10,x15,x8
80000b0c:	d49ff0ef          	jal	x1,80000854 <doh>
80000b10:	28054063          	blt	x10,x0,80000d90 <slre_match+0x450>
80000b14:	00850533          	add	x10,x10,x8
80000b18:	19c0006f          	jal	x0,80000cb4 <slre_match+0x374>
80000b1c:	01a48db3          	add	x27,x9,x26
80000b20:	41aa85b3          	sub	x11,x21,x26
80000b24:	000d8513          	addi	x10,x27,0
80000b28:	de8ff0ef          	jal	x1,80000110 <get_op_len>
80000b2c:	000dc783          	lbu	x15,0(x27)
80000b30:	00050813          	addi	x16,x10,0
80000b34:	07679e63          	bne	x15,x22,80000bb0 <slre_match+0x270>
80000b38:	000017b7          	lui	x15,0x1
80000b3c:	97078793          	addi	x15,x15,-1680 # 970 <_heap_size+0x970>
80000b40:	01010713          	addi	x14,x2,16
80000b44:	00e787b3          	add	x15,x15,x14
80000b48:	0007a683          	lw	x13,0(x15)
80000b4c:	06300793          	addi	x15,x0,99
80000b50:	24d7c663          	blt	x15,x13,80000d9c <slre_match+0x45c>
80000b54:	65c12603          	lw	x12,1628(x2)
80000b58:	00412703          	lw	x14,4(x2)
80000b5c:	fff60613          	addi	x12,x12,-1
80000b60:	00461793          	slli	x15,x12,0x4
80000b64:	00f707b3          	add	x15,x14,x15
80000b68:	6907a583          	lw	x11,1680(x15)
80000b6c:	fff00793          	addi	x15,x0,-1
80000b70:	00f58463          	beq	x11,x15,80000b78 <slre_match+0x238>
80000b74:	00040613          	addi	x12,x8,0
80000b78:	00412703          	lw	x14,4(x2)
80000b7c:	0c868793          	addi	x15,x13,200
80000b80:	00379793          	slli	x15,x15,0x3
80000b84:	00f707b3          	add	x15,x14,x15
80000b88:	68c7a823          	sw	x12,1680(x15)
80000b8c:	69b7aa23          	sw	x27,1684(x15)
80000b90:	000017b7          	lui	x15,0x1
80000b94:	97078793          	addi	x15,x15,-1680 # 970 <_heap_size+0x970>
80000b98:	01010713          	addi	x14,x2,16
80000b9c:	00168693          	addi	x13,x13,1
80000ba0:	00e787b3          	add	x15,x15,x14
80000ba4:	00d7a023          	sw	x13,0(x15)
80000ba8:	010d0d33          	add	x26,x26,x16
80000bac:	e9dff06f          	jal	x0,80000a48 <slre_match+0x108>
80000bb0:	05c00693          	addi	x13,x0,92
80000bb4:	06d79063          	bne	x15,x13,80000c14 <slre_match+0x2d4>
80000bb8:	037d5e63          	bge	x26,x23,80000bf4 <slre_match+0x2b4>
80000bbc:	001dc583          	lbu	x11,1(x27)
80000bc0:	07800793          	addi	x15,x0,120
80000bc4:	02f59c63          	bne	x11,x15,80000bfc <slre_match+0x2bc>
80000bc8:	039d5663          	bge	x26,x25,80000bf4 <slre_match+0x2b4>
80000bcc:	002dc783          	lbu	x15,2(x27)
80000bd0:	014787b3          	add	x15,x15,x20
80000bd4:	0007c783          	lbu	x15,0(x15)
80000bd8:	0447f793          	andi	x15,x15,68
80000bdc:	00078c63          	beq	x15,x0,80000bf4 <slre_match+0x2b4>
80000be0:	003dc783          	lbu	x15,3(x27)
80000be4:	014787b3          	add	x15,x15,x20
80000be8:	0007c783          	lbu	x15,0(x15)
80000bec:	0447f793          	andi	x15,x15,68
80000bf0:	fa079ce3          	bne	x15,x0,80000ba8 <slre_match+0x268>
80000bf4:	ffa00513          	addi	x10,x0,-6
80000bf8:	0bc0006f          	jal	x0,80000cb4 <slre_match+0x374>
80000bfc:	00a12623          	sw	x10,12(x2)
80000c00:	048c0513          	addi	x10,x24,72 # 80101048 <stack_end+0x8>
80000c04:	314000ef          	jal	x1,80000f18 <strchr>
80000c08:	00c12803          	lw	x16,12(x2)
80000c0c:	f8051ee3          	bne	x10,x0,80000ba8 <slre_match+0x268>
80000c10:	fe5ff06f          	jal	x0,80000bf4 <slre_match+0x2b4>
80000c14:	02800693          	addi	x13,x0,40
80000c18:	04d79663          	bne	x15,x13,80000c64 <slre_match+0x324>
80000c1c:	65c12783          	lw	x15,1628(x2)
80000c20:	06300693          	addi	x13,x0,99
80000c24:	18f6c063          	blt	x13,x15,80000da4 <slre_match+0x464>
80000c28:	00412703          	lw	x14,4(x2)
80000c2c:	00479693          	slli	x13,x15,0x4
80000c30:	001d0613          	addi	x12,x26,1
80000c34:	00d706b3          	add	x13,x14,x13
80000c38:	00c48633          	add	x12,x9,x12
80000c3c:	68c6a623          	sw	x12,1676(x13)
80000c40:	fff00613          	addi	x12,x0,-1
80000c44:	68c6a823          	sw	x12,1680(x13)
80000c48:	00178693          	addi	x13,x15,1
80000c4c:	64d12e23          	sw	x13,1628(x2)
80000c50:	00140413          	addi	x8,x8,1
80000c54:	f5205ae3          	bge	x0,x18,80000ba8 <slre_match+0x268>
80000c58:	f4f958e3          	bge	x18,x15,80000ba8 <slre_match+0x268>
80000c5c:	ff900513          	addi	x10,x0,-7
80000c60:	0540006f          	jal	x0,80000cb4 <slre_match+0x374>
80000c64:	02900693          	addi	x13,x0,41
80000c68:	f4d790e3          	bne	x15,x13,80000ba8 <slre_match+0x268>
80000c6c:	65c12783          	lw	x15,1628(x2)
80000c70:	00412703          	lw	x14,4(x2)
80000c74:	fff78793          	addi	x15,x15,-1
80000c78:	00479693          	slli	x13,x15,0x4
80000c7c:	00d706b3          	add	x13,x14,x13
80000c80:	6906a603          	lw	x12,1680(x13)
80000c84:	fff00693          	addi	x13,x0,-1
80000c88:	00d60463          	beq	x12,x13,80000c90 <slre_match+0x350>
80000c8c:	00040793          	addi	x15,x8,0
80000c90:	00412703          	lw	x14,4(x2)
80000c94:	00479793          	slli	x15,x15,0x4
80000c98:	fff40413          	addi	x8,x8,-1
80000c9c:	00f707b3          	add	x15,x14,x15
80000ca0:	68c7a683          	lw	x13,1676(x15)
80000ca4:	40dd86b3          	sub	x13,x27,x13
80000ca8:	68d7a823          	sw	x13,1680(x15)
80000cac:	04045463          	bge	x8,x0,80000cf4 <slre_match+0x3b4>
80000cb0:	ffd00513          	addi	x10,x0,-3
80000cb4:	1e010113          	addi	x2,x2,480
80000cb8:	7ec12083          	lw	x1,2028(x2)
80000cbc:	7e812403          	lw	x8,2024(x2)
80000cc0:	7e412483          	lw	x9,2020(x2)
80000cc4:	7e012903          	lw	x18,2016(x2)
80000cc8:	7dc12983          	lw	x19,2012(x2)
80000ccc:	7d812a03          	lw	x20,2008(x2)
80000cd0:	7d412a83          	lw	x21,2004(x2)
80000cd4:	7d012b03          	lw	x22,2000(x2)
80000cd8:	7cc12b83          	lw	x23,1996(x2)
80000cdc:	7c812c03          	lw	x24,1992(x2)
80000ce0:	7c412c83          	lw	x25,1988(x2)
80000ce4:	7c012d03          	lw	x26,1984(x2)
80000ce8:	7bc12d83          	lw	x27,1980(x2)
80000cec:	7f010113          	addi	x2,x2,2032
80000cf0:	00008067          	jalr	x0,0(x1)
80000cf4:	eba05ae3          	bge	x0,x26,80000ba8 <slre_match+0x268>
80000cf8:	fffdc683          	lbu	x13,-1(x27)
80000cfc:	02800793          	addi	x15,x0,40
80000d00:	eaf694e3          	bne	x13,x15,80000ba8 <slre_match+0x268>
80000d04:	fff00513          	addi	x10,x0,-1
80000d08:	fadff06f          	jal	x0,80000cb4 <slre_match+0x374>
80000d0c:	00160613          	addi	x12,x12,1
80000d10:	00070693          	addi	x13,x14,0
80000d14:	00060513          	addi	x10,x12,0
80000d18:	00b51663          	bne	x10,x11,80000d24 <slre_match+0x3e4>
80000d1c:	00870713          	addi	x14,x14,8
80000d20:	d61ff06f          	jal	x0,80000a80 <slre_match+0x140>
80000d24:	64472803          	lw	x16,1604(x14)
80000d28:	64c6a883          	lw	x17,1612(x13)
80000d2c:	0108de63          	bge	x17,x16,80000d48 <slre_match+0x408>
80000d30:	65172223          	sw	x17,1604(x14)
80000d34:	6506a883          	lw	x17,1616(x13)
80000d38:	64872303          	lw	x6,1608(x14)
80000d3c:	65172423          	sw	x17,1608(x14)
80000d40:	6506a623          	sw	x16,1612(x13)
80000d44:	6466a823          	sw	x6,1616(x13)
80000d48:	00150513          	addi	x10,x10,1
80000d4c:	00868693          	addi	x13,x13,8
80000d50:	fc9ff06f          	jal	x0,80000d18 <slre_match+0x3d8>
80000d54:	0007a623          	sw	x0,12(x15)
80000d58:	00e7a423          	sw	x14,8(x15)
80000d5c:	00b74863          	blt	x14,x11,80000d6c <slre_match+0x42c>
80000d60:	00160613          	addi	x12,x12,1
80000d64:	01078793          	addi	x15,x15,16
80000d68:	d45ff06f          	jal	x0,80000aac <slre_match+0x16c>
80000d6c:	00371513          	slli	x10,x14,0x3
80000d70:	00a68533          	add	x10,x13,x10
80000d74:	64452503          	lw	x10,1604(x10)
80000d78:	fea614e3          	bne	x12,x10,80000d60 <slre_match+0x420>
80000d7c:	00c7a503          	lw	x10,12(x15)
80000d80:	00170713          	addi	x14,x14,1
80000d84:	00150513          	addi	x10,x10,1
80000d88:	00a7a623          	sw	x10,12(x15)
80000d8c:	fd1ff06f          	jal	x0,80000d5c <slre_match+0x41c>
80000d90:	f34902e3          	beq	x18,x20,80000cb4 <slre_match+0x374>
80000d94:	00140413          	addi	x8,x8,1
80000d98:	d5dff06f          	jal	x0,80000af4 <slre_match+0x1b4>
80000d9c:	ff800513          	addi	x10,x0,-8
80000da0:	f15ff06f          	jal	x0,80000cb4 <slre_match+0x374>
80000da4:	ff700513          	addi	x10,x0,-9
80000da8:	f0dff06f          	jal	x0,80000cb4 <slre_match+0x374>

80000dac <benchmark_body>:
80000dac:	fd010113          	addi	x2,x2,-48
80000db0:	01512a23          	sw	x21,20(x2)
80000db4:	80100ab7          	lui	x21,0x80100
80000db8:	01312e23          	sw	x19,28(x2)
80000dbc:	000a8993          	addi	x19,x21,0 # 80100000 <text>
80000dc0:	02912223          	sw	x9,36(x2)
80000dc4:	03212023          	sw	x18,32(x2)
80000dc8:	01612823          	sw	x22,16(x2)
80000dcc:	02112623          	sw	x1,44(x2)
80000dd0:	02812423          	sw	x8,40(x2)
80000dd4:	01412c23          	sw	x20,24(x2)
80000dd8:	00050493          	addi	x9,x10,0
80000ddc:	00000913          	addi	x18,x0,0
80000de0:	04098b13          	addi	x22,x19,64
80000de4:	02994863          	blt	x18,x9,80000e14 <benchmark_body+0x68>
80000de8:	02c12083          	lw	x1,44(x2)
80000dec:	02812403          	lw	x8,40(x2)
80000df0:	00412503          	lw	x10,4(x2)
80000df4:	02412483          	lw	x9,36(x2)
80000df8:	02012903          	lw	x18,32(x2)
80000dfc:	01c12983          	lw	x19,28(x2)
80000e00:	01812a03          	lw	x20,24(x2)
80000e04:	01412a83          	lw	x21,20(x2)
80000e08:	01012b03          	lw	x22,16(x2)
80000e0c:	03010113          	addi	x2,x2,48
80000e10:	00008067          	jalr	x0,0(x1)
80000e14:	00098513          	addi	x10,x19,0
80000e18:	240000ef          	jal	x1,80001058 <strlen>
80000e1c:	00050a13          	addi	x20,x10,0
80000e20:	00012223          	sw	x0,4(x2)
80000e24:	03098413          	addi	x8,x19,48
80000e28:	00042503          	lw	x10,0(x8)
80000e2c:	00100713          	addi	x14,x0,1
80000e30:	00810693          	addi	x13,x2,8
80000e34:	000a0613          	addi	x12,x20,0
80000e38:	000a8593          	addi	x11,x21,0
80000e3c:	b05ff0ef          	jal	x1,80000940 <slre_match>
80000e40:	00412783          	lw	x15,4(x2)
80000e44:	00440413          	addi	x8,x8,4
80000e48:	00a787b3          	add	x15,x15,x10
80000e4c:	00f12223          	sw	x15,4(x2)
80000e50:	fd641ce3          	bne	x8,x22,80000e28 <benchmark_body+0x7c>
80000e54:	00190913          	addi	x18,x18,1
80000e58:	f8dff06f          	jal	x0,80000de4 <benchmark_body+0x38>

80000e5c <initialise_benchmark>:
80000e5c:	00008067          	jalr	x0,0(x1)

80000e60 <warm_caches>:
80000e60:	f4dff06f          	jal	x0,80000dac <benchmark_body>

80000e64 <benchmark>:
80000e64:	00200513          	addi	x10,x0,2
80000e68:	f45ff06f          	jal	x0,80000dac <benchmark_body>

80000e6c <verify_benchmark>:
80000e6c:	f9a50513          	addi	x10,x10,-102
80000e70:	00153513          	sltiu	x10,x10,1
80000e74:	00008067          	jalr	x0,0(x1)

80000e78 <initialise_board>:
80000e78:	00000513          	addi	x10,x0,0
80000e7c:	00008067          	jalr	x0,0(x1)

80000e80 <start_trigger>:
80000e80:	00000513          	addi	x10,x0,0
80000e84:	deadc2b7          	lui	x5,0xdeadc
80000e88:	eef28293          	addi	x5,x5,-273 # deadbeef <_end+0x5e9d9d5f>
80000e8c:	00008067          	jalr	x0,0(x1)

80000e90 <stop_trigger>:
80000e90:	beefe2b7          	lui	x5,0xbeefe
80000e94:	ead28293          	addi	x5,x5,-339 # beefdead <_end+0x3edfbd1d>
80000e98:	00008067          	jalr	x0,0(x1)

80000e9c <memcmp>:
80000e9c:	00300793          	addi	x15,x0,3
80000ea0:	02c7fe63          	bgeu	x15,x12,80000edc <memcmp+0x40>
80000ea4:	00a5e7b3          	or	x15,x11,x10
80000ea8:	0037f793          	andi	x15,x15,3
80000eac:	02079463          	bne	x15,x0,80000ed4 <memcmp+0x38>
80000eb0:	00300693          	addi	x13,x0,3
80000eb4:	0140006f          	jal	x0,80000ec8 <memcmp+0x2c>
80000eb8:	ffc60613          	addi	x12,x12,-4
80000ebc:	00450513          	addi	x10,x10,4
80000ec0:	00458593          	addi	x11,x11,4
80000ec4:	00c6fc63          	bgeu	x13,x12,80000edc <memcmp+0x40>
80000ec8:	00052703          	lw	x14,0(x10)
80000ecc:	0005a783          	lw	x15,0(x11)
80000ed0:	fef704e3          	beq	x14,x15,80000eb8 <memcmp+0x1c>
80000ed4:	fff60693          	addi	x13,x12,-1
80000ed8:	00c0006f          	jal	x0,80000ee4 <memcmp+0x48>
80000edc:	fff60693          	addi	x13,x12,-1
80000ee0:	02060863          	beq	x12,x0,80000f10 <memcmp+0x74>
80000ee4:	00168693          	addi	x13,x13,1
80000ee8:	00d506b3          	add	x13,x10,x13
80000eec:	0080006f          	jal	x0,80000ef4 <memcmp+0x58>
80000ef0:	02a68063          	beq	x13,x10,80000f10 <memcmp+0x74>
80000ef4:	00054783          	lbu	x15,0(x10)
80000ef8:	0005c703          	lbu	x14,0(x11)
80000efc:	00150513          	addi	x10,x10,1
80000f00:	00158593          	addi	x11,x11,1
80000f04:	fee786e3          	beq	x15,x14,80000ef0 <memcmp+0x54>
80000f08:	40e78533          	sub	x10,x15,x14
80000f0c:	00008067          	jalr	x0,0(x1)
80000f10:	00000513          	addi	x10,x0,0
80000f14:	00008067          	jalr	x0,0(x1)

80000f18 <strchr>:
80000f18:	0ff5f693          	andi	x13,x11,255
80000f1c:	00357793          	andi	x15,x10,3
80000f20:	0c068063          	beq	x13,x0,80000fe0 <strchr+0xc8>
80000f24:	00078e63          	beq	x15,x0,80000f40 <strchr+0x28>
80000f28:	00054783          	lbu	x15,0(x10)
80000f2c:	0a078663          	beq	x15,x0,80000fd8 <strchr+0xc0>
80000f30:	0ad78663          	beq	x15,x13,80000fdc <strchr+0xc4>
80000f34:	00150513          	addi	x10,x10,1
80000f38:	00357793          	andi	x15,x10,3
80000f3c:	fe0796e3          	bne	x15,x0,80000f28 <strchr+0x10>
80000f40:	0ff5f593          	andi	x11,x11,255
80000f44:	00859893          	slli	x17,x11,0x8
80000f48:	00052703          	lw	x14,0(x10)
80000f4c:	00b888b3          	add	x17,x17,x11
80000f50:	01089793          	slli	x15,x17,0x10
80000f54:	00f888b3          	add	x17,x17,x15
80000f58:	feff0837          	lui	x16,0xfeff0
80000f5c:	00e8c633          	xor	x12,x17,x14
80000f60:	eff80813          	addi	x16,x16,-257 # fefefeff <_end+0x7eeedd6f>
80000f64:	010707b3          	add	x15,x14,x16
80000f68:	010605b3          	add	x11,x12,x16
80000f6c:	fff74713          	xori	x14,x14,-1
80000f70:	fff64613          	xori	x12,x12,-1
80000f74:	00e7f7b3          	and	x15,x15,x14
80000f78:	80808337          	lui	x6,0x80808
80000f7c:	00c5f733          	and	x14,x11,x12
80000f80:	00e7e7b3          	or	x15,x15,x14
80000f84:	08030313          	addi	x6,x6,128 # 80808080 <_end+0x705ef0>
80000f88:	0067f7b3          	and	x15,x15,x6
80000f8c:	02079a63          	bne	x15,x0,80000fc0 <strchr+0xa8>
80000f90:	00452703          	lw	x14,4(x10)
80000f94:	00450513          	addi	x10,x10,4
80000f98:	01174633          	xor	x12,x14,x17
80000f9c:	010707b3          	add	x15,x14,x16
80000fa0:	010605b3          	add	x11,x12,x16
80000fa4:	fff74713          	xori	x14,x14,-1
80000fa8:	fff64613          	xori	x12,x12,-1
80000fac:	00e7f7b3          	and	x15,x15,x14
80000fb0:	00c5f733          	and	x14,x11,x12
80000fb4:	00e7e7b3          	or	x15,x15,x14
80000fb8:	0067f7b3          	and	x15,x15,x6
80000fbc:	fc078ae3          	beq	x15,x0,80000f90 <strchr+0x78>
80000fc0:	00054783          	lbu	x15,0(x10)
80000fc4:	00078a63          	beq	x15,x0,80000fd8 <strchr+0xc0>
80000fc8:	08f68663          	beq	x13,x15,80001054 <strchr+0x13c>
80000fcc:	00154783          	lbu	x15,1(x10)
80000fd0:	00150513          	addi	x10,x10,1
80000fd4:	fe079ae3          	bne	x15,x0,80000fc8 <strchr+0xb0>
80000fd8:	00000513          	addi	x10,x0,0
80000fdc:	00008067          	jalr	x0,0(x1)
80000fe0:	00078c63          	beq	x15,x0,80000ff8 <strchr+0xe0>
80000fe4:	00054783          	lbu	x15,0(x10)
80000fe8:	fe078ae3          	beq	x15,x0,80000fdc <strchr+0xc4>
80000fec:	00150513          	addi	x10,x10,1
80000ff0:	00357793          	andi	x15,x10,3
80000ff4:	fe0798e3          	bne	x15,x0,80000fe4 <strchr+0xcc>
80000ff8:	00052703          	lw	x14,0(x10)
80000ffc:	feff0637          	lui	x12,0xfeff0
80001000:	eff60613          	addi	x12,x12,-257 # fefefeff <_end+0x7eeedd6f>
80001004:	00c707b3          	add	x15,x14,x12
80001008:	808086b7          	lui	x13,0x80808
8000100c:	fff74713          	xori	x14,x14,-1
80001010:	00e7f7b3          	and	x15,x15,x14
80001014:	08068693          	addi	x13,x13,128 # 80808080 <_end+0x705ef0>
80001018:	00d7f7b3          	and	x15,x15,x13
8000101c:	02079063          	bne	x15,x0,8000103c <strchr+0x124>
80001020:	00452703          	lw	x14,4(x10)
80001024:	00450513          	addi	x10,x10,4
80001028:	00c707b3          	add	x15,x14,x12
8000102c:	fff74713          	xori	x14,x14,-1
80001030:	00e7f7b3          	and	x15,x15,x14
80001034:	00d7f7b3          	and	x15,x15,x13
80001038:	fe0784e3          	beq	x15,x0,80001020 <strchr+0x108>
8000103c:	00054783          	lbu	x15,0(x10)
80001040:	f8078ee3          	beq	x15,x0,80000fdc <strchr+0xc4>
80001044:	00154783          	lbu	x15,1(x10)
80001048:	00150513          	addi	x10,x10,1
8000104c:	fe079ce3          	bne	x15,x0,80001044 <strchr+0x12c>
80001050:	00008067          	jalr	x0,0(x1)
80001054:	00008067          	jalr	x0,0(x1)

80001058 <strlen>:
80001058:	00357793          	andi	x15,x10,3
8000105c:	00050713          	addi	x14,x10,0
80001060:	04079c63          	bne	x15,x0,800010b8 <strlen+0x60>
80001064:	7f7f86b7          	lui	x13,0x7f7f8
80001068:	f7f68693          	addi	x13,x13,-129 # 7f7f7f7f <SYSCALL_ADDR+0x7d7e7f7f>
8000106c:	fff00593          	addi	x11,x0,-1
80001070:	00072603          	lw	x12,0(x14)
80001074:	00470713          	addi	x14,x14,4
80001078:	00d677b3          	and	x15,x12,x13
8000107c:	00d787b3          	add	x15,x15,x13
80001080:	00c7e7b3          	or	x15,x15,x12
80001084:	00d7e7b3          	or	x15,x15,x13
80001088:	feb784e3          	beq	x15,x11,80001070 <strlen+0x18>
8000108c:	ffc74683          	lbu	x13,-4(x14)
80001090:	40a707b3          	sub	x15,x14,x10
80001094:	04068463          	beq	x13,x0,800010dc <strlen+0x84>
80001098:	ffd74683          	lbu	x13,-3(x14)
8000109c:	02068c63          	beq	x13,x0,800010d4 <strlen+0x7c>
800010a0:	ffe74503          	lbu	x10,-2(x14)
800010a4:	00a03533          	sltu	x10,x0,x10
800010a8:	00f50533          	add	x10,x10,x15
800010ac:	ffe50513          	addi	x10,x10,-2
800010b0:	00008067          	jalr	x0,0(x1)
800010b4:	fa0688e3          	beq	x13,x0,80001064 <strlen+0xc>
800010b8:	00074783          	lbu	x15,0(x14)
800010bc:	00170713          	addi	x14,x14,1
800010c0:	00377693          	andi	x13,x14,3
800010c4:	fe0798e3          	bne	x15,x0,800010b4 <strlen+0x5c>
800010c8:	40a70733          	sub	x14,x14,x10
800010cc:	fff70513          	addi	x10,x14,-1
800010d0:	00008067          	jalr	x0,0(x1)
800010d4:	ffd78513          	addi	x10,x15,-3
800010d8:	00008067          	jalr	x0,0(x1)
800010dc:	ffc78513          	addi	x10,x15,-4
800010e0:	00008067          	jalr	x0,0(x1)

Disassembly of section .data:

80100000 <text>:
80100000:	6261                	.insn	2, 0x6261
80100002:	6262                	.insn	2, 0x6262
80100004:	6261                	.insn	2, 0x6261
80100006:	6261                	.insn	2, 0x6261
80100008:	6161                	.insn	2, 0x6161
8010000a:	6362                	.insn	2, 0x6362
8010000c:	61626163          	bltu	x4,x22,8010060e <stack_begin+0x5ce>
80100010:	6362                	.insn	2, 0x6362
80100012:	6361                	.insn	2, 0x6361
80100014:	6362                	.insn	2, 0x6362
80100016:	6362                	.insn	2, 0x6362
80100018:	6162                	.insn	2, 0x6162
8010001a:	6262                	.insn	2, 0x6262
8010001c:	6261                	.insn	2, 0x6261
8010001e:	62616263          	bltu	x2,x6,80100642 <stack_begin+0x602>
80100022:	63626163          	bltu	x4,x22,80100644 <stack_begin+0x604>
80100026:	6262                	.insn	2, 0x6262
80100028:	61626263          	bltu	x4,x22,8010062c <stack_begin+0x5ec>
8010002c:	00000063          	beq	x0,x0,8010002c <text+0x2c>

80100030 <regexes>:
80100030:	1058                	.insn	2, 0x1058
80100032:	8010                	.insn	2, 0x8010
80100034:	1060                	.insn	2, 0x1060
80100036:	8010                	.insn	2, 0x8010
80100038:	1068                	.insn	2, 0x1068
8010003a:	8010                	.insn	2, 0x8010
8010003c:	1070                	.insn	2, 0x1070
8010003e:	8010                	.insn	2, 0x8010

80100040 <stack_begin>:
	...

80101040 <stack_end>:
80101040:	3f28                	.insn	2, 0x3f28
80101042:	2969                	.insn	2, 0x2969
80101044:	0000                	.insn	2, 0x
80101046:	0000                	.insn	2, 0x
80101048:	245e                	.insn	2, 0x245e
8010104a:	2928                	.insn	2, 0x2928
8010104c:	5b2e                	.insn	2, 0x5b2e
8010104e:	2a5d                	.insn	2, 0x2a5d
80101050:	5c7c3f2b          	.insn	4, 0x5c7c3f2b
80101054:	00647353          	.insn	4, 0x00647353
80101058:	6128                	.insn	2, 0x6128
8010105a:	2962                	.insn	2, 0x2962
8010105c:	0000002b          	.insn	4, 0x002b
80101060:	6228                	.insn	2, 0x6228
80101062:	2b2e                	.insn	2, 0x2b2e
80101064:	2b29                	.insn	2, 0x2b29
80101066:	0000                	.insn	2, 0x
80101068:	5b61                	.insn	2, 0x5b61
8010106a:	6261                	.insn	2, 0x6261
8010106c:	2a5d                	.insn	2, 0x2a5d
8010106e:	0000                	.insn	2, 0x
80101070:	5b28                	.insn	2, 0x5b28
80101072:	6261                	.insn	2, 0x6261
80101074:	635e                	.insn	2, 0x635e
80101076:	5b5d                	.insn	2, 0x5b5d
80101078:	6261                	.insn	2, 0x6261
8010107a:	635e                	.insn	2, 0x635e
8010107c:	295d                	.insn	2, 0x295d
8010107e:	          	.insn	4, 0x2000002b

80101080 <_ctype_>:
80101080:	2000                	.insn	2, 0x2000
80101082:	2020                	.insn	2, 0x2020
80101084:	2020                	.insn	2, 0x2020
80101086:	2020                	.insn	2, 0x2020
80101088:	2020                	.insn	2, 0x2020
8010108a:	2828                	.insn	2, 0x2828
8010108c:	2828                	.insn	2, 0x2828
8010108e:	2028                	.insn	2, 0x2028
80101090:	2020                	.insn	2, 0x2020
80101092:	2020                	.insn	2, 0x2020
80101094:	2020                	.insn	2, 0x2020
80101096:	2020                	.insn	2, 0x2020
80101098:	2020                	.insn	2, 0x2020
8010109a:	2020                	.insn	2, 0x2020
8010109c:	2020                	.insn	2, 0x2020
8010109e:	2020                	.insn	2, 0x2020
801010a0:	8820                	.insn	2, 0x8820
801010a2:	1010                	.insn	2, 0x1010
801010a4:	1010                	.insn	2, 0x1010
801010a6:	1010                	.insn	2, 0x1010
801010a8:	1010                	.insn	2, 0x1010
801010aa:	1010                	.insn	2, 0x1010
801010ac:	1010                	.insn	2, 0x1010
801010ae:	1010                	.insn	2, 0x1010
801010b0:	0410                	.insn	2, 0x0410
801010b2:	0404                	.insn	2, 0x0404
801010b4:	0404                	.insn	2, 0x0404
801010b6:	0404                	.insn	2, 0x0404
801010b8:	0404                	.insn	2, 0x0404
801010ba:	1004                	.insn	2, 0x1004
801010bc:	1010                	.insn	2, 0x1010
801010be:	1010                	.insn	2, 0x1010
801010c0:	1010                	.insn	2, 0x1010
801010c2:	4141                	.insn	2, 0x4141
801010c4:	4141                	.insn	2, 0x4141
801010c6:	4141                	.insn	2, 0x4141
801010c8:	0101                	.insn	2, 0x0101
801010ca:	0101                	.insn	2, 0x0101
801010cc:	0101                	.insn	2, 0x0101
801010ce:	0101                	.insn	2, 0x0101
801010d0:	0101                	.insn	2, 0x0101
801010d2:	0101                	.insn	2, 0x0101
801010d4:	0101                	.insn	2, 0x0101
801010d6:	0101                	.insn	2, 0x0101
801010d8:	0101                	.insn	2, 0x0101
801010da:	0101                	.insn	2, 0x0101
801010dc:	1010                	.insn	2, 0x1010
801010de:	1010                	.insn	2, 0x1010
801010e0:	1010                	.insn	2, 0x1010
801010e2:	4242                	.insn	2, 0x4242
801010e4:	4242                	.insn	2, 0x4242
801010e6:	4242                	.insn	2, 0x4242
801010e8:	0202                	.insn	2, 0x0202
801010ea:	0202                	.insn	2, 0x0202
801010ec:	0202                	.insn	2, 0x0202
801010ee:	0202                	.insn	2, 0x0202
801010f0:	0202                	.insn	2, 0x0202
801010f2:	0202                	.insn	2, 0x0202
801010f4:	0202                	.insn	2, 0x0202
801010f6:	0202                	.insn	2, 0x0202
801010f8:	0202                	.insn	2, 0x0202
801010fa:	0202                	.insn	2, 0x0202
801010fc:	1010                	.insn	2, 0x1010
801010fe:	1010                	.insn	2, 0x1010
80101100:	0020                	.insn	2, 0x0020
	...

Disassembly of section .comment:

00000000 <.comment>:
   0:	3a434347          	.insn	4, 0x3a434347
   4:	2820                	.insn	2, 0x2820
   6:	2029                	.insn	2, 0x2029
   8:	3331                	.insn	2, 0x3331
   a:	322e                	.insn	2, 0x322e
   c:	302e                	.insn	2, 0x302e
   e:	4700                	.insn	2, 0x4700
  10:	203a4343          	.insn	4, 0x203a4343
  14:	4728                	.insn	2, 0x4728
  16:	554e                	.insn	2, 0x554e
  18:	2029                	.insn	2, 0x2029
  1a:	3331                	.insn	2, 0x3331
  1c:	322e                	.insn	2, 0x322e
  1e:	302e                	.insn	2, 0x302e
	...

Disassembly of section .riscv.attributes:

00000000 <.riscv.attributes>:
   0:	2841                	.insn	2, 0x2841
   2:	0000                	.insn	2, 0x
   4:	7200                	.insn	2, 0x7200
   6:	7369                	.insn	2, 0x7369
   8:	01007663          	bgeu	x0,x16,14 <_heap_size+0x14>
   c:	001e                	.insn	2, 0x001e
   e:	0000                	.insn	2, 0x
  10:	1004                	.insn	2, 0x1004
  12:	7205                	.insn	2, 0x7205
  14:	3376                	.insn	2, 0x3376
  16:	6932                	.insn	2, 0x6932
  18:	7032                	.insn	2, 0x7032
  1a:	5f31                	.insn	2, 0x5f31
  1c:	697a                	.insn	2, 0x697a
  1e:	32727363          	bgeu	x4,x7,344 <_heap_size+0x344>
  22:	3070                	.insn	2, 0x3070
  24:	0800                	.insn	2, 0x0800
  26:	0a01                	.insn	2, 0x0a01
  28:	Address 0x28 is out of bounds.

